ARM GAS  C:\Users\ADMINI~1\AppData\Local\Temp\cc8mEAcR.s 			page 1


   1              		.cpu cortex-m3
   2              		.arch armv7-m
   3              		.fpu softvfp
   4              		.eabi_attribute 20, 1	@ Tag_ABI_FP_denormal
   5              		.eabi_attribute 21, 1	@ Tag_ABI_FP_exceptions
   6              		.eabi_attribute 23, 3	@ Tag_ABI_FP_number_model
   7              		.eabi_attribute 24, 1	@ Tag_ABI_align8_needed
   8              		.eabi_attribute 25, 1	@ Tag_ABI_align8_preserved
   9              		.eabi_attribute 26, 1	@ Tag_ABI_enum_size
  10              		.eabi_attribute 30, 4	@ Tag_ABI_optimization_goals
  11              		.eabi_attribute 34, 1	@ Tag_CPU_unaligned_access
  12              		.eabi_attribute 18, 4	@ Tag_ABI_PCS_wchar_t
  13              		.file	"main.c"
  14              	@ GNU C17 (GNU Arm Embedded Toolchain 10.3-2021.10) version 10.3.1 20210824 (release) (arm-none-eab
  15              	@	compiled by GNU C version 7.3-win32 20180312, GMP version 6.1.0, MPFR version 3.1.4, MPC version 
  16              	
  17              	@ GGC heuristics: --param ggc-min-expand=100 --param ggc-min-heapsize=131072
  18              	@ options passed:  -I . -I ./user -I ./stm32f10x_lib/CMSIS/CM3/CoreSupport
  19              	@ -I ./stm32f10x_lib/CMSIS/CM3/DeviceSupport/ST/STM32F10x
  20              	@ -I ./stm32f10x_lib/STM32F10x_StdPeriph_Driver/inc
  21              	@ -I ./stm32f10x_lib/STM32F10x_StdPeriph_Driver -imultilib thumb/v7-m/nofp
  22              	@ -iprefix c:\program files (x86)\gnu arm embedded toolchain\10 2021.10\bin\../lib/gcc/arm-none-eab
  23              	@ -isysroot c:\program files (x86)\gnu arm embedded toolchain\10 2021.10\bin\../arm-none-eabi
  24              	@ -D__USES_INITFINI__ -D STM32F10X_MD -D USE_STDPERIPH_DRIVER
  25              	@ -D HSE_VALUE=8000000 -D RUN_FROM_FLASH=1 user/main.c -mcpu=cortex-m3
  26              	@ -mthumb -mfloat-abi=soft -mlibarch=armv7-m -march=armv7-m
  27              	@ -auxbase-strip user/main.o -g -gdwarf-2 -Os -Wall -fomit-frame-pointer
  28              	@ -fverbose-asm
  29              	@ options enabled:  -faggressive-loop-optimizations -fallocation-dce
  30              	@ -fauto-inc-dec -fbranch-count-reg -fcaller-saves -fcode-hoisting
  31              	@ -fcombine-stack-adjustments -fcompare-elim -fcprop-registers
  32              	@ -fcrossjumping -fcse-follow-jumps -fdefer-pop
  33              	@ -fdelete-null-pointer-checks -fdevirtualize -fdevirtualize-speculatively
  34              	@ -fdwarf2-cfi-asm -fearly-inlining -feliminate-unused-debug-symbols
  35              	@ -feliminate-unused-debug-types -fexpensive-optimizations
  36              	@ -fforward-propagate -ffp-int-builtin-inexact -ffunction-cse -fgcse
  37              	@ -fgcse-lm -fgnu-unique -fguess-branch-probability -fhoist-adjacent-loads
  38              	@ -fident -fif-conversion -fif-conversion2 -findirect-inlining -finline
  39              	@ -finline-atomics -finline-functions -finline-functions-called-once
  40              	@ -finline-small-functions -fipa-bit-cp -fipa-cp -fipa-icf
  41              	@ -fipa-icf-functions -fipa-icf-variables -fipa-profile -fipa-pure-const
  42              	@ -fipa-ra -fipa-reference -fipa-reference-addressable -fipa-sra
  43              	@ -fipa-stack-alignment -fipa-vrp -fira-hoist-pressure
  44              	@ -fira-share-save-slots -fira-share-spill-slots
  45              	@ -fisolate-erroneous-paths-dereference -fivopts -fkeep-static-consts
  46              	@ -fleading-underscore -flifetime-dse -flra-remat -fmath-errno
  47              	@ -fmerge-constants -fmerge-debug-strings -fmove-loop-invariants
  48              	@ -fomit-frame-pointer -foptimize-sibling-calls -fpartial-inlining
  49              	@ -fpeephole -fpeephole2 -fplt -fprefetch-loop-arrays -freg-struct-return
  50              	@ -freorder-blocks -freorder-functions -frerun-cse-after-loop
  51              	@ -fsched-critical-path-heuristic -fsched-dep-count-heuristic
  52              	@ -fsched-group-heuristic -fsched-interblock -fsched-last-insn-heuristic
  53              	@ -fsched-pressure -fsched-rank-heuristic -fsched-spec
  54              	@ -fsched-spec-insn-heuristic -fsched-stalled-insns-dep -fschedule-insns2
  55              	@ -fsection-anchors -fsemantic-interposition -fshow-column
  56              	@ -fshrink-wrap-separate -fsigned-zeros -fsplit-ivs-in-unroller
  57              	@ -fsplit-wide-types -fssa-backprop -fssa-phiopt -fstdarg-opt
ARM GAS  C:\Users\ADMINI~1\AppData\Local\Temp\cc8mEAcR.s 			page 2


  58              	@ -fstore-merging -fstrict-aliasing -fstrict-volatile-bitfields
  59              	@ -fsync-libcalls -fthread-jumps -ftoplevel-reorder -ftrapping-math
  60              	@ -ftree-bit-ccp -ftree-builtin-call-dce -ftree-ccp -ftree-ch
  61              	@ -ftree-coalesce-vars -ftree-copy-prop -ftree-cselim -ftree-dce
  62              	@ -ftree-dominator-opts -ftree-dse -ftree-forwprop -ftree-fre
  63              	@ -ftree-loop-distribute-patterns -ftree-loop-if-convert -ftree-loop-im
  64              	@ -ftree-loop-ivcanon -ftree-loop-optimize -ftree-parallelize-loops=
  65              	@ -ftree-phiprop -ftree-pre -ftree-pta -ftree-reassoc -ftree-scev-cprop
  66              	@ -ftree-sink -ftree-slsr -ftree-sra -ftree-switch-conversion
  67              	@ -ftree-tail-merge -ftree-ter -ftree-vrp -funit-at-a-time -fvar-tracking
  68              	@ -fvar-tracking-assignments -fverbose-asm -fzero-initialized-in-bss
  69              	@ -masm-syntax-unified -mbe32 -mfix-cortex-m3-ldrd -mlittle-endian
  70              	@ -mpic-data-is-text-relative -msched-prolog -mthumb -munaligned-access
  71              	@ -mvectorize-with-neon-quad
  72              	
  73              		.text
  74              	.Ltext0:
  75              		.cfi_sections	.debug_frame
  76              		.align	1
  77              		.global	Delay
  78              		.syntax unified
  79              		.thumb
  80              		.thumb_func
  81              		.type	Delay, %function
  82              	Delay:
  83              	.LVL0:
  84              	.LFB29:
  85              		.file 1 "user/main.c"
   1:user/main.c   **** /**
   2:user/main.c   **** ***************************************************************************************************
   3:user/main.c   **** *                                      (c) Copyright 2024-2032
   4:user/main.c   **** *                                         All Rights Reserved
   5:user/main.c   **** * @By      : liwei
   6:user/main.c   **** ***************************************************************************************************
   7:user/main.c   **** **/
   8:user/main.c   **** #include "stm32f10x.h"
   9:user/main.c   **** #include "stm32f10x_conf.h"
  10:user/main.c   **** 
  11:user/main.c   **** /**************************************************************************************************
  12:user/main.c   **** * @描述	: 延时函数
  13:user/main.c   **** ***************************************************************************************************
  14:user/main.c   **** void Delay(__IO uint32_t nCount)
  15:user/main.c   **** {
  86              		.loc 1 15 1 view -0
  87              		.cfi_startproc
  88              		@ args = 0, pretend = 0, frame = 8
  89              		@ frame_needed = 0, uses_anonymous_args = 0
  90              		@ link register save eliminated.
  91              		.loc 1 15 1 is_stmt 0 view .LVU1
  92 0000 82B0     		sub	sp, sp, #8	@,,
  93              	.LCFI0:
  94              		.cfi_def_cfa_offset 8
  95 0002 0190     		str	r0, [sp, #4]	@ nCount, nCount
  16:user/main.c   ****     for(; nCount != 0; nCount--);
  96              		.loc 1 16 5 is_stmt 1 view .LVU2
  97              	.L2:
  98              		.loc 1 16 11 discriminator 1 view .LVU3
ARM GAS  C:\Users\ADMINI~1\AppData\Local\Temp\cc8mEAcR.s 			page 3


  99              	@ user/main.c:16:     for(; nCount != 0; nCount--);
 100              		.loc 1 16 18 is_stmt 0 discriminator 1 view .LVU4
 101 0004 019B     		ldr	r3, [sp, #4]	@ nCount.1_3, nCount
 102              	@ user/main.c:16:     for(; nCount != 0; nCount--);
 103              		.loc 1 16 5 discriminator 1 view .LVU5
 104 0006 0BB9     		cbnz	r3, .L3	@ nCount.1_3,
 105              	@ user/main.c:17: }
  17:user/main.c   **** }
 106              		.loc 1 17 1 view .LVU6
 107 0008 02B0     		add	sp, sp, #8	@,,
 108              	.LCFI1:
 109              		.cfi_remember_state
 110              		.cfi_def_cfa_offset 0
 111              		@ sp needed	@
 112 000a 7047     		bx	lr	@
 113              	.L3:
 114              	.LCFI2:
 115              		.cfi_restore_state
  16:user/main.c   ****     for(; nCount != 0; nCount--);
 116              		.loc 1 16 33 is_stmt 1 discriminator 2 view .LVU7
  16:user/main.c   ****     for(; nCount != 0; nCount--);
 117              		.loc 1 16 24 discriminator 2 view .LVU8
 118              	@ user/main.c:16:     for(; nCount != 0; nCount--);
  16:user/main.c   ****     for(; nCount != 0; nCount--);
 119              		.loc 1 16 30 is_stmt 0 discriminator 2 view .LVU9
 120 000c 019B     		ldr	r3, [sp, #4]	@ nCount.0_1, nCount
 121 000e 013B     		subs	r3, r3, #1	@ _2, nCount.0_1,
 122 0010 0193     		str	r3, [sp, #4]	@ _2, nCount
 123 0012 F7E7     		b	.L2		@
 124              		.cfi_endproc
 125              	.LFE29:
 126              		.size	Delay, .-Delay
 127              		.align	1
 128              		.global	RCC_Configuration
 129              		.syntax unified
 130              		.thumb
 131              		.thumb_func
 132              		.type	RCC_Configuration, %function
 133              	RCC_Configuration:
 134              	.LFB30:
  18:user/main.c   **** /**************************************************************************************************
  19:user/main.c   **** * @描述	: 设置使能
  20:user/main.c   **** ***************************************************************************************************
  21:user/main.c   **** void RCC_Configuration(void)
  22:user/main.c   **** {
 135              		.loc 1 22 1 is_stmt 1 view -0
 136              		.cfi_startproc
 137              		@ args = 0, pretend = 0, frame = 0
 138              		@ frame_needed = 0, uses_anonymous_args = 0
 139              		@ link register save eliminated.
  23:user/main.c   ****     /* GPIOA, GPIOB clock enable */
  24:user/main.c   ****     RCC_APB2PeriphClockCmd(RCC_APB2Periph_GPIOA | RCC_APB2Periph_GPIOB, ENABLE);
 140              		.loc 1 24 5 view .LVU11
 141 0014 0121     		movs	r1, #1	@,
 142 0016 0C20     		movs	r0, #12	@,
 143 0018 FFF7FEBF 		b	RCC_APB2PeriphClockCmd		@
 144              	.LVL1:
ARM GAS  C:\Users\ADMINI~1\AppData\Local\Temp\cc8mEAcR.s 			page 4


 145              		.cfi_endproc
 146              	.LFE30:
 147              		.size	RCC_Configuration, .-RCC_Configuration
 148              		.align	1
 149              		.global	GPIO_Configuration
 150              		.syntax unified
 151              		.thumb
 152              		.thumb_func
 153              		.type	GPIO_Configuration, %function
 154              	GPIO_Configuration:
 155              	.LFB31:
  25:user/main.c   **** }
  26:user/main.c   **** /**************************************************************************************************
  27:user/main.c   **** * @描述	: 配置GPIO
  28:user/main.c   **** ***************************************************************************************************
  29:user/main.c   **** void GPIO_Configuration(void)
  30:user/main.c   **** {
 156              		.loc 1 30 1 view -0
 157              		.cfi_startproc
 158              		@ args = 0, pretend = 0, frame = 8
 159              		@ frame_needed = 0, uses_anonymous_args = 0
  31:user/main.c   ****     GPIO_InitTypeDef GPIO_InitStructure;
 160              		.loc 1 31 5 view .LVU13
  32:user/main.c   **** 
  33:user/main.c   ****     GPIO_InitStructure.GPIO_Pin =  GPIO_Pin_15;
 161              		.loc 1 33 5 view .LVU14
  34:user/main.c   ****     GPIO_InitStructure.GPIO_Mode = GPIO_Mode_Out_PP;
 162              		.loc 1 34 5 view .LVU15
  35:user/main.c   ****     GPIO_InitStructure.GPIO_Speed = GPIO_Speed_50MHz;
 163              		.loc 1 35 5 view .LVU16
 164              	@ user/main.c:33:     GPIO_InitStructure.GPIO_Pin =  GPIO_Pin_15;
  33:user/main.c   ****     GPIO_InitStructure.GPIO_Mode = GPIO_Mode_Out_PP;
 165              		.loc 1 33 33 is_stmt 0 view .LVU17
 166 001c 4FF40043 		mov	r3, #32768	@ tmp114,
 167              	@ user/main.c:30: {
  30:user/main.c   ****     GPIO_InitTypeDef GPIO_InitStructure;
 168              		.loc 1 30 1 view .LVU18
 169 0020 07B5     		push	{r0, r1, r2, lr}	@
 170              	.LCFI3:
 171              		.cfi_def_cfa_offset 16
 172              		.cfi_offset 14, -4
 173              	@ user/main.c:33:     GPIO_InitStructure.GPIO_Pin =  GPIO_Pin_15;
  33:user/main.c   ****     GPIO_InitStructure.GPIO_Mode = GPIO_Mode_Out_PP;
 174              		.loc 1 33 33 view .LVU19
 175 0022 ADF80430 		strh	r3, [sp, #4]	@ movhi	@ tmp114, GPIO_InitStructure.GPIO_Pin
 176              	@ user/main.c:35:     GPIO_InitStructure.GPIO_Speed = GPIO_Speed_50MHz;
 177              		.loc 1 35 35 view .LVU20
 178 0026 41F20303 		movw	r3, #4099	@ tmp116,
 179              	@ user/main.c:36:     GPIO_Init(GPIOB, &GPIO_InitStructure);
  36:user/main.c   ****     GPIO_Init(GPIOB, &GPIO_InitStructure);
 180              		.loc 1 36 5 view .LVU21
 181 002a 0448     		ldr	r0, .L6	@,
 182 002c 01A9     		add	r1, sp, #4	@,,
 183              	@ user/main.c:35:     GPIO_InitStructure.GPIO_Speed = GPIO_Speed_50MHz;
  35:user/main.c   ****     GPIO_Init(GPIOB, &GPIO_InitStructure);
 184              		.loc 1 35 35 view .LVU22
 185 002e ADF80630 		strh	r3, [sp, #6]	@ movhi	@ tmp116, MEM <unsigned short> [(void *)&GPIO_InitStructure + 2B]
ARM GAS  C:\Users\ADMINI~1\AppData\Local\Temp\cc8mEAcR.s 			page 5


 186              		.loc 1 36 5 is_stmt 1 view .LVU23
 187 0032 FFF7FEFF 		bl	GPIO_Init		@
 188              	.LVL2:
 189              	@ user/main.c:37: }
  37:user/main.c   **** }
 190              		.loc 1 37 1 is_stmt 0 view .LVU24
 191 0036 03B0     		add	sp, sp, #12	@,,
 192              	.LCFI4:
 193              		.cfi_def_cfa_offset 4
 194              		@ sp needed	@
 195 0038 5DF804FB 		ldr	pc, [sp], #4	@
 196              	.L7:
 197              		.align	2
 198              	.L6:
 199 003c 000C0140 		.word	1073810432
 200              		.cfi_endproc
 201              	.LFE31:
 202              		.size	GPIO_Configuration, .-GPIO_Configuration
 203              		.section	.text.startup,"ax",%progbits
 204              		.align	1
 205              		.global	main
 206              		.syntax unified
 207              		.thumb
 208              		.thumb_func
 209              		.type	main, %function
 210              	main:
 211              	.LFB32:
  38:user/main.c   **** /**************************************************************************************************
  39:user/main.c   **** * @描述	: main函数
  40:user/main.c   **** ***************************************************************************************************
  41:user/main.c   **** int main(void)
  42:user/main.c   **** {
 212              		.loc 1 42 1 is_stmt 1 view -0
 213              		.cfi_startproc
 214              		@ Volatile: function does not return.
 215              		@ args = 0, pretend = 0, frame = 0
 216              		@ frame_needed = 0, uses_anonymous_args = 0
  43:user/main.c   **** 
  44:user/main.c   ****     RCC_Configuration();
 217              		.loc 1 44 5 view .LVU26
 218              	@ user/main.c:42: {
  42:user/main.c   **** 
 219              		.loc 1 42 1 is_stmt 0 view .LVU27
 220 0000 08B5     		push	{r3, lr}	@
 221              	.LCFI5:
 222              		.cfi_def_cfa_offset 8
 223              		.cfi_offset 3, -8
 224              		.cfi_offset 14, -4
 225              	@ user/main.c:44:     RCC_Configuration();
 226              		.loc 1 44 5 view .LVU28
 227 0002 FFF7FEFF 		bl	RCC_Configuration		@
 228              	.LVL3:
  45:user/main.c   ****     GPIO_Configuration();
 229              		.loc 1 45 5 is_stmt 1 view .LVU29
 230 0006 FFF7FEFF 		bl	GPIO_Configuration		@
 231              	.LVL4:
 232              	@ user/main.c:49:         GPIO_ResetBits(GPIOB, GPIO_Pin_15);
ARM GAS  C:\Users\ADMINI~1\AppData\Local\Temp\cc8mEAcR.s 			page 6


  46:user/main.c   ****     //LED闪烁
  47:user/main.c   ****     while (1)
  48:user/main.c   **** 	{
  49:user/main.c   ****         GPIO_ResetBits(GPIOB, GPIO_Pin_15);
 233              		.loc 1 49 9 is_stmt 0 view .LVU30
 234 000a 094D     		ldr	r5, .L10	@ tmp119,
 235              	@ user/main.c:50:         Delay(300000);
  50:user/main.c   ****         Delay(300000);
 236              		.loc 1 50 9 view .LVU31
 237 000c 094C     		ldr	r4, .L10+4	@ tmp120,
 238              	.L9:
  47:user/main.c   **** 	{
 239              		.loc 1 47 5 is_stmt 1 discriminator 1 view .LVU32
  49:user/main.c   ****         Delay(300000);
 240              		.loc 1 49 9 discriminator 1 view .LVU33
 241 000e 2846     		mov	r0, r5	@, tmp119
 242 0010 4FF40041 		mov	r1, #32768	@,
 243 0014 FFF7FEFF 		bl	GPIO_ResetBits		@
 244              	.LVL5:
 245              		.loc 1 50 9 discriminator 1 view .LVU34
 246 0018 2046     		mov	r0, r4	@, tmp120
 247 001a FFF7FEFF 		bl	Delay		@
 248              	.LVL6:
  51:user/main.c   ****         GPIO_SetBits(GPIOB, GPIO_Pin_15);
 249              		.loc 1 51 9 discriminator 1 view .LVU35
 250 001e 4FF40041 		mov	r1, #32768	@,
 251 0022 2846     		mov	r0, r5	@, tmp119
 252 0024 FFF7FEFF 		bl	GPIO_SetBits		@
 253              	.LVL7:
  52:user/main.c   ****         Delay(300000);			
 254              		.loc 1 52 9 discriminator 1 view .LVU36
 255 0028 2046     		mov	r0, r4	@, tmp120
 256 002a FFF7FEFF 		bl	Delay		@
 257              	.LVL8:
  47:user/main.c   **** 	{
 258              		.loc 1 47 11 discriminator 1 view .LVU37
 259 002e EEE7     		b	.L9		@
 260              	.L11:
 261              		.align	2
 262              	.L10:
 263 0030 000C0140 		.word	1073810432
 264 0034 E0930400 		.word	300000
 265              		.cfi_endproc
 266              	.LFE32:
 267              		.size	main, .-main
 268              		.text
 269              	.Letext0:
 270              		.file 2 "c:\\program files (x86)\\gnu arm embedded toolchain\\10 2021.10\\arm-none-eabi\\include\\
 271              		.file 3 "c:\\program files (x86)\\gnu arm embedded toolchain\\10 2021.10\\arm-none-eabi\\include\\
 272              		.file 4 "./stm32f10x_lib/CMSIS/CM3/DeviceSupport/ST/STM32F10x/stm32f10x.h"
 273              		.file 5 "./stm32f10x_lib/STM32F10x_StdPeriph_Driver/inc/stm32f10x_gpio.h"
 274              		.file 6 "./stm32f10x_lib/STM32F10x_StdPeriph_Driver/inc/stm32f10x_rcc.h"