ARM GAS  C:\Users\ADMINI~1\AppData\Local\Temp\cc8mEAcR.s 			page 1


   1              		.cpu cortex-m3
   2              		.arch armv7-m
   3              		.fpu softvfp
   4              		.eabi_attribute 20, 1	@ Tag_ABI_FP_denormal
   5              		.eabi_attribute 21, 1	@ Tag_ABI_FP_exceptions
   6              		.eabi_attribute 23, 3	@ Tag_ABI_FP_number_model
   7              		.eabi_attribute 24, 1	@ Tag_ABI_align8_needed
   8              		.eabi_attribute 25, 1	@ Tag_ABI_align8_preserved
   9              		.eabi_attribute 26, 1	@ Tag_ABI_enum_size
  10              		.eabi_attribute 30, 4	@ Tag_ABI_optimization_goals
  11              		.eabi_attribute 34, 1	@ Tag_CPU_unaligned_access
  12              		.eabi_attribute 18, 4	@ Tag_ABI_PCS_wchar_t
  13              		.file	"main.c"
  14              	@ GNU C17 (GNU Arm Embedded Toolchain 10.3-2021.10) version 10.3.1 20210824 (release) (arm-none-eab
  15              	@	compiled by GNU C version 7.3-win32 20180312, GMP version 6.1.0, MPFR version 3.1.4, MPC version 
  16              	
  17              	@ GGC heuristics: --param ggc-min-expand=100 --param ggc-min-heapsize=131072
  18              	@ options passed:  -I . -I ./user -I ./stm32f10x_lib/CMSIS/CM3/CoreSupport
  19              	@ -I ./stm32f10x_lib/CMSIS/CM3/DeviceSupport/ST/STM32F10x
  20              	@ -I ./stm32f10x_lib/STM32F10x_StdPeriph_Driver/inc
  21              	@ -I ./stm32f10x_lib/STM32F10x_StdPeriph_Driver -imultilib thumb/v7-m/nofp
  22              	@ -iprefix c:\program files (x86)\gnu arm embedded toolchain\10 2021.10\bin\../lib/gcc/arm-none-eab
  23              	@ -isysroot c:\program files (x86)\gnu arm embedded toolchain\10 2021.10\bin\../arm-none-eabi
  24              	@ -D__USES_INITFINI__ -D STM32F10X_MD -D USE_STDPERIPH_DRIVER
  25              	@ -D HSE_VALUE=8000000 -D RUN_FROM_FLASH=1 user/main.c -mcpu=cortex-m3
  26              	@ -mthumb -mfloat-abi=soft -mlibarch=armv7-m -march=armv7-m
  27              	@ -auxbase-strip user/main.o -g -gdwarf-2 -Os -Wall -fomit-frame-pointer
  28              	@ -fverbose-asm
  29              	@ options enabled:  -faggressive-loop-optimizations -fallocation-dce
  30              	@ -fauto-inc-dec -fbranch-count-reg -fcaller-saves -fcode-hoisting
  31              	@ -fcombine-stack-adjustments -fcompare-elim -fcprop-registers
  32              	@ -fcrossjumping -fcse-follow-jumps -fdefer-pop
  33              	@ -fdelete-null-pointer-checks -fdevirtualize -fdevirtualize-speculatively
  34              	@ -fdwarf2-cfi-asm -fearly-inlining -feliminate-unused-debug-symbols
  35              	@ -feliminate-unused-debug-types -fexpensive-optimizations
  36              	@ -fforward-propagate -ffp-int-builtin-inexact -ffunction-cse -fgcse
  37              	@ -fgcse-lm -fgnu-unique -fguess-branch-probability -fhoist-adjacent-loads
  38              	@ -fident -fif-conversion -fif-conversion2 -findirect-inlining -finline
  39              	@ -finline-atomics -finline-functions -finline-functions-called-once
  40              	@ -finline-small-functions -fipa-bit-cp -fipa-cp -fipa-icf
  41              	@ -fipa-icf-functions -fipa-icf-variables -fipa-profile -fipa-pure-const
  42              	@ -fipa-ra -fipa-reference -fipa-reference-addressable -fipa-sra
  43              	@ -fipa-stack-alignment -fipa-vrp -fira-hoist-pressure
  44              	@ -fira-share-save-slots -fira-share-spill-slots
  45              	@ -fisolate-erroneous-paths-dereference -fivopts -fkeep-static-consts
  46              	@ -fleading-underscore -flifetime-dse -flra-remat -fmath-errno
  47              	@ -fmerge-constants -fmerge-debug-strings -fmove-loop-invariants
  48              	@ -fomit-frame-pointer -foptimize-sibling-calls -fpartial-inlining
  49              	@ -fpeephole -fpeephole2 -fplt -fprefetch-loop-arrays -freg-struct-return
  50              	@ -freorder-blocks -freorder-functions -frerun-cse-after-loop
  51              	@ -fsched-critical-path-heuristic -fsched-dep-count-heuristic
  52              	@ -fsched-group-heuristic -fsched-interblock -fsched-last-insn-heuristic
  53              	@ -fsched-pressure -fsched-rank-heuristic -fsched-spec
  54              	@ -fsched-spec-insn-heuristic -fsched-stalled-insns-dep -fschedule-insns2
  55              	@ -fsection-anchors -fsemantic-interposition -fshow-column
  56              	@ -fshrink-wrap-separate -fsigned-zeros -fsplit-ivs-in-unroller
  57              	@ -fsplit-wide-types -fssa-backprop -fssa-phiopt -fstdarg-opt
ARM GAS  C:\Users\ADMINI~1\AppData\Local\Temp\cc8mEAcR.s 			page 2


  58              	@ -fstore-merging -fstrict-aliasing -fstrict-volatile-bitfields
  59              	@ -fsync-libcalls -fthread-jumps -ftoplevel-reorder -ftrapping-math
  60              	@ -ftree-bit-ccp -ftree-builtin-call-dce -ftree-ccp -ftree-ch
  61              	@ -ftree-coalesce-vars -ftree-copy-prop -ftree-cselim -ftree-dce
  62              	@ -ftree-dominator-opts -ftree-dse -ftree-forwprop -ftree-fre
  63              	@ -ftree-loop-distribute-patterns -ftree-loop-if-convert -ftree-loop-im
  64              	@ -ftree-loop-ivcanon -ftree-loop-optimize -ftree-parallelize-loops=
  65              	@ -ftree-phiprop -ftree-pre -ftree-pta -ftree-reassoc -ftree-scev-cprop
  66              	@ -ftree-sink -ftree-slsr -ftree-sra -ftree-switch-conversion
  67              	@ -ftree-tail-merge -ftree-ter -ftree-vrp -funit-at-a-time -fvar-tracking
  68              	@ -fvar-tracking-assignments -fverbose-asm -fzero-initialized-in-bss
  69              	@ -masm-syntax-unified -mbe32 -mfix-cortex-m3-ldrd -mlittle-endian
  70              	@ -mpic-data-is-text-relative -msched-prolog -mthumb -munaligned-access
  71              	@ -mvectorize-with-neon-quad
  72              	
  73              		.text
  74              	.Ltext0:
  75              		.cfi_sections	.debug_frame
  76              		.align	1
  77              		.global	Delay
  78              		.syntax unified
  79              		.thumb
  80              		.thumb_func
  81              		.type	Delay, %function
  82              	Delay:
  83              	.LVL0:
  84              	.LFB29:
  85              		.file 1 "user/main.c"
   1:user/main.c   **** /**
   2:user/main.c   **** ***************************************************************************************************
   3:user/main.c   **** *                                      (c) Copyright 2024-2032
   4:user/main.c   **** *                                         All Rights Reserved
   5:user/main.c   **** * @By      : liwei
   6:user/main.c   **** ***************************************************************************************************
   7:user/main.c   **** **/
   8:user/main.c   **** #include "stm32f10x.h"
   9:user/main.c   **** #include "stm32f10x_conf.h"
  10:user/main.c   **** 
  11:user/main.c   **** /**************************************************************************************************
  12:user/main.c   **** * @描述	: 延时函数
  13:user/main.c   **** ***************************************************************************************************
  14:user/main.c   **** void Delay(__IO uint32_t nCount)
  15:user/main.c   **** {
  86              		.loc 1 15 1 view -0
  87              		.cfi_startproc
  88              		@ args = 0, pretend = 0, frame = 8
  89              		@ frame_needed = 0, uses_anonymous_args = 0
  90              		@ link register save eliminated.
  91              		.loc 1 15 1 is_stmt 0 view .LVU1
  92 0000 82B0     		sub	sp, sp, #8	@,,
  93              	.LCFI0:
  94              		.cfi_def_cfa_offset 8
  95 0002 0190     		str	r0, [sp, #4]	@ nCount, nCount
  16:user/main.c   ****     for(; nCount != 0; nCount--);
  96              		.loc 1 16 5 is_stmt 1 view .LVU2
  97              	.L2:
  98              		.loc 1 16 11 discriminator 1 view .LVU3
ARM GAS  C:\Users\ADMINI~1\AppData\Local\Temp\cc8mEAcR.s 			page 3


  99              	@ user/main.c:16:     for(; nCount != 0; nCount--);
 100              		.loc 1 16 18 is_stmt 0 discriminator 1 view .LVU4
 101 0004 019B     		ldr	r3, [sp, #4]	@ nCount.1_3, nCount
 102              	@ user/main.c:16:     for(; nCount != 0; nCount--);
 103              		.loc 1 16 5 discriminator 1 view .LVU5
 104 0006 0BB9     		cbnz	r3, .L3	@ nCount.1_3,
 105              	@ user/main.c:17: }
  17:user/main.c   **** }
 106              		.loc 1 17 1 view .LVU6
 107 0008 02B0     		add	sp, sp, #8	@,,
 108              	.LCFI1:
 109              		.cfi_remember_state
 110              		.cfi_def_cfa_offset 0
 111              		@ sp needed	@
 112 000a 7047     		bx	lr	@
 113              	.L3:
 114              	.LCFI2:
 115              		.cfi_restore_state
  16:user/main.c   ****     for(; nCount != 0; nCount--);
 116              		.loc 1 16 33 is_stmt 1 discriminator 2 view .LVU7
  16:user/main.c   ****     for(; nCount != 0; nCount--);
 117              		.loc 1 16 24 discriminator 2 view .LVU8
 118              	@ user/main.c:16:     for(; nCount != 0; nCount--);
  16:user/main.c   ****     for(; nCount != 0; nCount--);
 119              		.loc 1 16 30 is_stmt 0 discriminator 2 view .LVU9
 120 000c 019B     		ldr	r3, [sp, #4]	@ nCount.0_1, nCount
 121 000e 013B     		subs	r3, r3, #1	@ _2, nCount.0_1,
 122 0010 0193     		str	r3, [sp, #4]	@ _2, nCount
 123 0012 F7E7     		b	.L2		@
 124              		.cfi_endproc
 125              	.LFE29:
 126              		.size	Delay, .-Delay
 127              		.align	1
 128              		.global	RCC_Configuration
 129              		.syntax unified
 130              		.thumb
 131              		.thumb_func
 132              		.type	RCC_Configuration, %function
 133              	RCC_Configuration:
 134              	.LFB30:
  18:user/main.c   **** /**************************************************************************************************
  19:user/main.c   **** * @描述	: 设置使能
  20:user/main.c   **** ***************************************************************************************************
  21:user/main.c   **** void RCC_Configuration(void)
  22:user/main.c   **** {
 135              		.loc 1 22 1 is_stmt 1 view -0
 136              		.cfi_startproc
 137              		@ args = 0, pretend = 0, frame = 0
 138              		@ frame_needed = 0, uses_anonymous_args = 0
 139              		@ link register save eliminated.
  23:user/main.c   ****     /* GPIOA, GPIOB clock enable */
  24:user/main.c   ****     RCC_APB2PeriphClockCmd(RCC_APB2Periph_GPIOA | RCC_APB2Periph_GPIOB, ENABLE);
 140              		.loc 1 24 5 view .LVU11
 141 0014 0121     		movs	r1, #1	@,
 142 0016 0C20     		movs	r0, #12	@,
 143 0018 FFF7FEBF 		b	RCC_APB2PeriphClockCmd		@
 144              	.LVL1:
ARM GAS  C:\Users\ADMINI~1\AppData\Local\Temp\cc8mEAcR.s 			page 4


 145              		.cfi_endproc
 146              	.LFE30:
 147              		.size	RCC_Configuration, .-RCC_Configuration
 148              		.align	1
 149              		.global	GPIO_Configuration
 150              		.syntax unified
 151              		.thumb
 152              		.thumb_func
 153              		.type	GPIO_Configuration, %function
 154              	GPIO_Configuration:
 155              	.LFB31:
  25:user/main.c   **** }
  26:user/main.c   **** /**************************************************************************************************
  27:user/main.c   **** * @描述	: 配置GPIO
  28:user/main.c   **** ***************************************************************************************************
  29:user/main.c   **** void GPIO_Configuration(void)
  30:user/main.c   **** {
 156              		.loc 1 30 1 view -0
 157              		.cfi_startproc
 158              		@ args = 0, pretend = 0, frame = 8
 159              		@ frame_needed = 0, uses_anonymous_args = 0
  31:user/main.c   ****     GPIO_InitTypeDef GPIO_InitStructure;
 160              		.loc 1 31 5 view .LVU13
  32:user/main.c   **** 
  33:user/main.c   ****     GPIO_InitStructure.GPIO_Pin =  GPIO_Pin_15;
 161              		.loc 1 33 5 view .LVU14
  34:user/main.c   ****     GPIO_InitStructure.GPIO_Mode = GPIO_Mode_Out_PP;
 162              		.loc 1 34 5 view .LVU15
  35:user/main.c   ****     GPIO_InitStructure.GPIO_Speed = GPIO_Speed_50MHz;
 163              		.loc 1 35 5 view .LVU16
 164              	@ user/main.c:33:     GPIO_InitStructure.GPIO_Pin =  GPIO_Pin_15;
  33:user/main.c   ****     GPIO_InitStructure.GPIO_Mode = GPIO_Mode_Out_PP;
 165              		.loc 1 33 33 is_stmt 0 view .LVU17
 166 001c 4FF40043 		mov	r3, #32768	@ tmp114,
 167              	@ user/main.c:30: {
  30:user/main.c   ****     GPIO_InitTypeDef GPIO_InitStructure;
 168              		.loc 1 30 1 view .LVU18
 169 0020 07B5     		push	{r0, r1, r2, lr}	@
 170              	.LCFI3:
 171              		.cfi_def_cfa_offset 16
 172              		.cfi_offset 14, -4
 173              	@ user/main.c:33:     GPIO_InitStructure.GPIO_Pin =  GPIO_Pin_15;
  33:user/main.c   ****     GPIO_InitStructure.GPIO_Mode = GPIO_Mode_Out_PP;
 174              		.loc 1 33 33 view .LVU19
 175 0022 ADF80430 		strh	r3, [sp, #4]	@ movhi	@ tmp114, GPIO_InitStructure.GPIO_Pin
 176              	@ user/main.c:35:     GPIO_InitStructure.GPIO_Speed = GPIO_Speed_50MHz;
 177              		.loc 1 35 35 view .LVU20
 178 0026 41F20303 		movw	r3, #4099	@ tmp116,
 179              	@ user/main.c:36:     GPIO_Init(GPIOB, &GPIO_InitStructure);
  36:user/main.c   ****     GPIO_Init(GPIOB, &GPIO_InitStructure);
 180              		.loc 1 36 5 view .LVU21
 181 002a 0448     		ldr	r0, .L6	@,
 182 002c 01A9     		add	r1, sp, #4	@,,
 183              	@ user/main.c:35:     GPIO_InitStructure.GPIO_Speed = GPIO_Speed_50MHz;
  35:user/main.c   ****     GPIO_Init(GPIOB, &GPIO_InitStructure);
 184              		.loc 1 35 35 view .LVU22
 185 002e ADF80630 		strh	r3, [sp, #6]	@ movhi	@ tmp116, MEM <unsigned short> [(void *)&GPIO_InitStructure + 2B]
ARM GAS  C:\Users\ADMINI~1\AppData\Local\Temp\cc8mEAcR.s 			page 5


 186              		.loc 1 36 5 is_stmt 1 view .LVU23
 187 0032 FFF7FEFF 		bl	GPIO_Init		@
 188              	.LVL2:
 189              	@ user/main.c:37: }
  37:user/main.c   **** }
 190              		.loc 1 37 1 is_stmt 0 view .LVU24
 191 0036 03B0     		add	sp, sp, #12	@,,
 192              	.LCFI4:
 193              		.cfi_def_cfa_offset 4
 194              		@ sp needed	@
 195 0038 5DF804FB 		ldr	pc, [sp], #4	@
 196              	.L7:
 197              		.align	2
 198              	.L6:
 199 003c 000C0140 		.word	1073810432
 200              		.cfi_endproc
 201              	.LFE31:
 202              		.size	GPIO_Configuration, .-GPIO_Configuration
 203              		.section	.text.startup,"ax",%progbits
 204              		.align	1
 205              		.global	main
 206              		.syntax unified
 207              		.thumb
 208              		.thumb_func
 209              		.type	main, %function
 210              	main:
 211              	.LFB32:
  38:user/main.c   **** /**************************************************************************************************
  39:user/main.c   **** * @描述	: main函数
  40:user/main.c   **** ***************************************************************************************************
  41:user/main.c   **** int main(void)
  42:user/main.c   **** {
 212              		.loc 1 42 1 is_stmt 1 view -0
 213              		.cfi_startproc
 214              		@ Volatile: function does not return.
 215              		@ args = 0, pretend = 0, frame = 0
 216              		@ frame_needed = 0, uses_anonymous_args = 0
  43:user/main.c   **** 
  44:user/main.c   ****     RCC_Configuration();
 217              		.loc 1 44 5 view .LVU26
 218              	@ user/main.c:42: {
  42:user/main.c   **** 
 219              		.loc 1 42 1 is_stmt 0 view .LVU27
 220 0000 08B5     		push	{r3, lr}	@
 221              	.LCFI5:
 222              		.cfi_def_cfa_offset 8
 223              		.cfi_offset 3, -8
 224              		.cfi_offset 14, -4
 225              	@ user/main.c:44:     RCC_Configuration();
 226              		.loc 1 44 5 view .LVU28
 227 0002 FFF7FEFF 		bl	RCC_Configuration		@
 228              	.LVL3:
  45:user/main.c   ****     GPIO_Configuration();
 229              		.loc 1 45 5 is_stmt 1 view .LVU29
 230 0006 FFF7FEFF 		bl	GPIO_Configuration		@
 231              	.LVL4:
 232              	@ user/main.c:49:         GPIO_ResetBits(GPIOB, GPIO_Pin_15);
ARM GAS  C:\Users\ADMINI~1\AppData\Local\Temp\cc8mEAcR.s 			page 6


  46:user/main.c   ****     //LED闪烁
  47:user/main.c   ****     while (1)
  48:user/main.c   **** 	{
  49:user/main.c   ****         GPIO_ResetBits(GPIOB, GPIO_Pin_15);
 233              		.loc 1 49 9 is_stmt 0 view .LVU30
 234 000a 094D     		ldr	r5, .L10	@ tmp119,
 235              	@ user/main.c:50:         Delay(300000);
  50:user/main.c   ****         Delay(300000);
 236              		.loc 1 50 9 view .LVU31
 237 000c 094C     		ldr	r4, .L10+4	@ tmp120,
 238              	.L9:
  47:user/main.c   **** 	{
 239              		.loc 1 47 5 is_stmt 1 discriminator 1 view .LVU32
  49:user/main.c   ****         Delay(300000);
 240              		.loc 1 49 9 discriminator 1 view .LVU33
 241 000e 2846     		mov	r0, r5	@, tmp119
 242 0010 4FF40041 		mov	r1, #32768	@,
 243 0014 FFF7FEFF 		bl	GPIO_ResetBits		@
 244              	.LVL5:
 245              		.loc 1 50 9 discriminator 1 view .LVU34
 246 0018 2046     		mov	r0, r4	@, tmp120
 247 001a FFF7FEFF 		bl	Delay		@
 248              	.LVL6:
  51:user/main.c   ****         GPIO_SetBits(GPIOB, GPIO_Pin_15);
 249              		.loc 1 51 9 discriminator 1 view .LVU35
 250 001e 4FF40041 		mov	r1, #32768	@,
 251 0022 2846     		mov	r0, r5	@, tmp119
 252 0024 FFF7FEFF 		bl	GPIO_SetBits		@
 253              	.LVL7:
  52:user/main.c   ****         Delay(300000);			
 254              		.loc 1 52 9 discriminator 1 view .LVU36
 255 0028 2046     		mov	r0, r4	@, tmp120
 256 002a FFF7FEFF 		bl	Delay		@
 257              	.LVL8:
  47:user/main.c   **** 	{
 258              		.loc 1 47 11 discriminator 1 view .LVU37
 259 002e EEE7     		b	.L9		@
 260              	.L11:
 261              		.align	2
 262              	.L10:
 263 0030 000C0140 		.word	1073810432
 264 0034 E0930400 		.word	300000
 265              		.cfi_endproc
 266              	.LFE32:
 267              		.size	main, .-main
 268              		.text
 269              	.Letext0:
 270              		.file 2 "c:\\program files (x86)\\gnu arm embedded toolchain\\10 2021.10\\arm-none-eabi\\include\\
 271              		.file 3 "c:\\program files (x86)\\gnu arm embedded toolchain\\10 2021.10\\arm-none-eabi\\include\\
 272              		.file 4 "./stm32f10x_lib/CMSIS/CM3/DeviceSupport/ST/STM32F10x/stm32f10x.h"
 273              		.file 5 "./stm32f10x_lib/STM32F10x_StdPeriph_Driver/inc/stm32f10x_gpio.h"
 274              		.file 6 "./stm32f10x_lib/STM32F10x_StdPeriph_Driver/inc/stm32f10x_rcc.h"
 275              		.section	.debug_info,"",%progbits
 276              	.Ldebug_info0:
 277 0000 66030000 		.4byte	0x366
 278 0004 0200     		.2byte	0x2
 279 0006 00000000 		.4byte	.Ldebug_abbrev0
ARM GAS  C:\Users\ADMINI~1\AppData\Local\Temp\cc8mEAcR.s 			page 7


 280 000a 04       		.byte	0x4
 281 000b 01       		.uleb128 0x1
 282 000c 78010000 		.4byte	.LASF42
 283 0010 0C       		.byte	0xc
 284 0011 C1000000 		.4byte	.LASF43
 285 0015 36000000 		.4byte	.LASF44
 286 0019 00000000 		.4byte	.Ldebug_ranges0+0
 287 001d 00000000 		.4byte	0
 288 0021 00000000 		.4byte	0
 289 0025 00000000 		.4byte	.Ldebug_line0
 290 0029 02       		.uleb128 0x2
 291 002a 01       		.byte	0x1
 292 002b 06       		.byte	0x6
 293 002c CD020000 		.4byte	.LASF0
 294 0030 02       		.uleb128 0x2
 295 0031 01       		.byte	0x1
 296 0032 08       		.byte	0x8
 297 0033 B3000000 		.4byte	.LASF1
 298 0037 02       		.uleb128 0x2
 299 0038 02       		.byte	0x2
 300 0039 05       		.byte	0x5
 301 003a 63020000 		.4byte	.LASF2
 302 003e 03       		.uleb128 0x3
 303 003f 22010000 		.4byte	.LASF5
 304 0043 02       		.byte	0x2
 305 0044 39       		.byte	0x39
 306 0045 19       		.byte	0x19
 307 0046 4A000000 		.4byte	0x4a
 308 004a 02       		.uleb128 0x2
 309 004b 02       		.byte	0x2
 310 004c 07       		.byte	0x7
 311 004d DF000000 		.4byte	.LASF3
 312 0051 02       		.uleb128 0x2
 313 0052 04       		.byte	0x4
 314 0053 05       		.byte	0x5
 315 0054 B2020000 		.4byte	.LASF4
 316 0058 03       		.uleb128 0x3
 317 0059 0A010000 		.4byte	.LASF6
 318 005d 02       		.byte	0x2
 319 005e 4F       		.byte	0x4f
 320 005f 19       		.byte	0x19
 321 0060 64000000 		.4byte	0x64
 322 0064 02       		.uleb128 0x2
 323 0065 04       		.byte	0x4
 324 0066 07       		.byte	0x7
 325 0067 CD000000 		.4byte	.LASF7
 326 006b 02       		.uleb128 0x2
 327 006c 08       		.byte	0x8
 328 006d 05       		.byte	0x5
 329 006e 34020000 		.4byte	.LASF8
 330 0072 02       		.uleb128 0x2
 331 0073 08       		.byte	0x8
 332 0074 07       		.byte	0x7
 333 0075 D9020000 		.4byte	.LASF9
 334 0079 04       		.uleb128 0x4
 335 007a 04       		.byte	0x4
 336 007b 05       		.byte	0x5
ARM GAS  C:\Users\ADMINI~1\AppData\Local\Temp\cc8mEAcR.s 			page 8


 337 007c 696E7400 		.ascii	"int\000"
 338 0080 02       		.uleb128 0x2
 339 0081 04       		.byte	0x4
 340 0082 07       		.byte	0x7
 341 0083 38010000 		.4byte	.LASF10
 342 0087 03       		.uleb128 0x3
 343 0088 88020000 		.4byte	.LASF11
 344 008c 03       		.byte	0x3
 345 008d 24       		.byte	0x24
 346 008e 14       		.byte	0x14
 347 008f 3E000000 		.4byte	0x3e
 348 0093 03       		.uleb128 0x3
 349 0094 A9020000 		.4byte	.LASF12
 350 0098 03       		.byte	0x3
 351 0099 30       		.byte	0x30
 352 009a 14       		.byte	0x14
 353 009b 58000000 		.4byte	0x58
 354 009f 05       		.uleb128 0x5
 355 00a0 93000000 		.4byte	0x93
 356 00a4 06       		.uleb128 0x6
 357 00a5 07       		.byte	0x7
 358 00a6 01       		.byte	0x1
 359 00a7 30000000 		.4byte	0x30
 360 00ab 04       		.byte	0x4
 361 00ac 0902     		.2byte	0x209
 362 00ae 0E       		.byte	0xe
 363 00af C0000000 		.4byte	0xc0
 364 00b3 07       		.uleb128 0x7
 365 00b4 02010000 		.4byte	.LASF13
 366 00b8 00       		.byte	0
 367 00b9 07       		.uleb128 0x7
 368 00ba AC000000 		.4byte	.LASF14
 369 00be 01       		.byte	0x1
 370 00bf 00       		.byte	0
 371 00c0 08       		.uleb128 0x8
 372 00c1 1C       		.byte	0x1c
 373 00c2 04       		.byte	0x4
 374 00c3 E903     		.2byte	0x3e9
 375 00c5 09       		.byte	0x9
 376 00c6 3B010000 		.4byte	0x13b
 377 00ca 09       		.uleb128 0x9
 378 00cb 43524C00 		.ascii	"CRL\000"
 379 00cf 04       		.byte	0x4
 380 00d0 EB03     		.2byte	0x3eb
 381 00d2 11       		.byte	0x11
 382 00d3 9F000000 		.4byte	0x9f
 383 00d7 02       		.byte	0x2
 384 00d8 23       		.byte	0x23
 385 00d9 00       		.uleb128 0
 386 00da 09       		.uleb128 0x9
 387 00db 43524800 		.ascii	"CRH\000"
 388 00df 04       		.byte	0x4
 389 00e0 EC03     		.2byte	0x3ec
 390 00e2 11       		.byte	0x11
 391 00e3 9F000000 		.4byte	0x9f
 392 00e7 02       		.byte	0x2
 393 00e8 23       		.byte	0x23
ARM GAS  C:\Users\ADMINI~1\AppData\Local\Temp\cc8mEAcR.s 			page 9


 394 00e9 04       		.uleb128 0x4
 395 00ea 09       		.uleb128 0x9
 396 00eb 49445200 		.ascii	"IDR\000"
 397 00ef 04       		.byte	0x4
 398 00f0 ED03     		.2byte	0x3ed
 399 00f2 11       		.byte	0x11
 400 00f3 9F000000 		.4byte	0x9f
 401 00f7 02       		.byte	0x2
 402 00f8 23       		.byte	0x23
 403 00f9 08       		.uleb128 0x8
 404 00fa 09       		.uleb128 0x9
 405 00fb 4F445200 		.ascii	"ODR\000"
 406 00ff 04       		.byte	0x4
 407 0100 EE03     		.2byte	0x3ee
 408 0102 11       		.byte	0x11
 409 0103 9F000000 		.4byte	0x9f
 410 0107 02       		.byte	0x2
 411 0108 23       		.byte	0x23
 412 0109 0C       		.uleb128 0xc
 413 010a 0A       		.uleb128 0xa
 414 010b 6B000000 		.4byte	.LASF15
 415 010f 04       		.byte	0x4
 416 0110 EF03     		.2byte	0x3ef
 417 0112 11       		.byte	0x11
 418 0113 9F000000 		.4byte	0x9f
 419 0117 02       		.byte	0x2
 420 0118 23       		.byte	0x23
 421 0119 10       		.uleb128 0x10
 422 011a 09       		.uleb128 0x9
 423 011b 42525200 		.ascii	"BRR\000"
 424 011f 04       		.byte	0x4
 425 0120 F003     		.2byte	0x3f0
 426 0122 11       		.byte	0x11
 427 0123 9F000000 		.4byte	0x9f
 428 0127 02       		.byte	0x2
 429 0128 23       		.byte	0x23
 430 0129 14       		.uleb128 0x14
 431 012a 0A       		.uleb128 0xa
 432 012b 0B000000 		.4byte	.LASF16
 433 012f 04       		.byte	0x4
 434 0130 F103     		.2byte	0x3f1
 435 0132 11       		.byte	0x11
 436 0133 9F000000 		.4byte	0x9f
 437 0137 02       		.byte	0x2
 438 0138 23       		.byte	0x23
 439 0139 18       		.uleb128 0x18
 440 013a 00       		.byte	0
 441 013b 0B       		.uleb128 0xb
 442 013c 87000000 		.4byte	.LASF17
 443 0140 04       		.byte	0x4
 444 0141 F203     		.2byte	0x3f2
 445 0143 03       		.byte	0x3
 446 0144 C0000000 		.4byte	0xc0
 447 0148 0C       		.uleb128 0xc
 448 0149 07       		.byte	0x7
 449 014a 01       		.byte	0x1
 450 014b 30000000 		.4byte	0x30
ARM GAS  C:\Users\ADMINI~1\AppData\Local\Temp\cc8mEAcR.s 			page 10


 451 014f 05       		.byte	0x5
 452 0150 3B       		.byte	0x3b
 453 0151 01       		.byte	0x1
 454 0152 69010000 		.4byte	0x169
 455 0156 07       		.uleb128 0x7
 456 0157 6D020000 		.4byte	.LASF18
 457 015b 01       		.byte	0x1
 458 015c 07       		.uleb128 0x7
 459 015d F2000000 		.4byte	.LASF19
 460 0161 02       		.byte	0x2
 461 0162 07       		.uleb128 0x7
 462 0163 0A020000 		.4byte	.LASF20
 463 0167 03       		.byte	0x3
 464 0168 00       		.byte	0
 465 0169 03       		.uleb128 0x3
 466 016a BB020000 		.4byte	.LASF21
 467 016e 05       		.byte	0x5
 468 016f 3F       		.byte	0x3f
 469 0170 02       		.byte	0x2
 470 0171 48010000 		.4byte	0x148
 471 0175 0C       		.uleb128 0xc
 472 0176 07       		.byte	0x7
 473 0177 01       		.byte	0x1
 474 0178 30000000 		.4byte	0x30
 475 017c 05       		.byte	0x5
 476 017d 48       		.byte	0x48
 477 017e 01       		.byte	0x1
 478 017f B4010000 		.4byte	0x1b4
 479 0183 07       		.uleb128 0x7
 480 0184 42020000 		.4byte	.LASF22
 481 0188 00       		.byte	0
 482 0189 07       		.uleb128 0x7
 483 018a 10000000 		.4byte	.LASF23
 484 018e 04       		.byte	0x4
 485 018f 07       		.uleb128 0x7
 486 0190 5D000000 		.4byte	.LASF24
 487 0194 28       		.byte	0x28
 488 0195 07       		.uleb128 0x7
 489 0196 94000000 		.4byte	.LASF25
 490 019a 48       		.byte	0x48
 491 019b 07       		.uleb128 0x7
 492 019c F0020000 		.4byte	.LASF26
 493 01a0 14       		.byte	0x14
 494 01a1 07       		.uleb128 0x7
 495 01a2 54010000 		.4byte	.LASF27
 496 01a6 10       		.byte	0x10
 497 01a7 07       		.uleb128 0x7
 498 01a8 26000000 		.4byte	.LASF28
 499 01ac 1C       		.byte	0x1c
 500 01ad 07       		.uleb128 0x7
 501 01ae 1B020000 		.4byte	.LASF29
 502 01b2 18       		.byte	0x18
 503 01b3 00       		.byte	0
 504 01b4 03       		.uleb128 0x3
 505 01b5 01030000 		.4byte	.LASF30
 506 01b9 05       		.byte	0x5
 507 01ba 50       		.byte	0x50
ARM GAS  C:\Users\ADMINI~1\AppData\Local\Temp\cc8mEAcR.s 			page 11


 508 01bb 02       		.byte	0x2
 509 01bc 75010000 		.4byte	0x175
 510 01c0 0D       		.uleb128 0xd
 511 01c1 04       		.byte	0x4
 512 01c2 05       		.byte	0x5
 513 01c3 5B       		.byte	0x5b
 514 01c4 09       		.byte	0x9
 515 01c5 F7010000 		.4byte	0x1f7
 516 01c9 0E       		.uleb128 0xe
 517 01ca 2B020000 		.4byte	.LASF31
 518 01ce 05       		.byte	0x5
 519 01cf 5D       		.byte	0x5d
 520 01d0 0C       		.byte	0xc
 521 01d1 87000000 		.4byte	0x87
 522 01d5 02       		.byte	0x2
 523 01d6 23       		.byte	0x23
 524 01d7 00       		.uleb128 0
 525 01d8 0E       		.uleb128 0xe
 526 01d9 00000000 		.4byte	.LASF32
 527 01dd 05       		.byte	0x5
 528 01de 60       		.byte	0x60
 529 01df 15       		.byte	0x15
 530 01e0 69010000 		.4byte	0x169
 531 01e4 02       		.byte	0x2
 532 01e5 23       		.byte	0x23
 533 01e6 02       		.uleb128 0x2
 534 01e7 0E       		.uleb128 0xe
 535 01e8 A2000000 		.4byte	.LASF33
 536 01ec 05       		.byte	0x5
 537 01ed 63       		.byte	0x63
 538 01ee 14       		.byte	0x14
 539 01ef B4010000 		.4byte	0x1b4
 540 01f3 02       		.byte	0x2
 541 01f4 23       		.byte	0x23
 542 01f5 03       		.uleb128 0x3
 543 01f6 00       		.byte	0
 544 01f7 03       		.uleb128 0x3
 545 01f8 91020000 		.4byte	.LASF34
 546 01fc 05       		.byte	0x5
 547 01fd 65       		.byte	0x65
 548 01fe 02       		.byte	0x2
 549 01ff C0010000 		.4byte	0x1c0
 550 0203 0F       		.uleb128 0xf
 551 0204 01       		.byte	0x1
 552 0205 33010000 		.4byte	.LASF45
 553 0209 01       		.byte	0x1
 554 020a 29       		.byte	0x29
 555 020b 05       		.byte	0x5
 556 020c 01       		.byte	0x1
 557 020d 79000000 		.4byte	0x79
 558 0211 00000000 		.4byte	.LFB32
 559 0215 38000000 		.4byte	.LFE32
 560 0219 00000000 		.4byte	.LLST2
 561 021d 01       		.byte	0x1
 562 021e 8F020000 		.4byte	0x28f
 563 0222 10       		.uleb128 0x10
 564 0223 06000000 		.4byte	.LVL3
ARM GAS  C:\Users\ADMINI~1\AppData\Local\Temp\cc8mEAcR.s 			page 12


 565 0227 D3020000 		.4byte	0x2d3
 566 022b 10       		.uleb128 0x10
 567 022c 0A000000 		.4byte	.LVL4
 568 0230 8F020000 		.4byte	0x28f
 569 0234 11       		.uleb128 0x11
 570 0235 18000000 		.4byte	.LVL5
 571 0239 2D030000 		.4byte	0x32d
 572 023d 4F020000 		.4byte	0x24f
 573 0241 12       		.uleb128 0x12
 574 0242 01       		.byte	0x1
 575 0243 50       		.byte	0x50
 576 0244 02       		.byte	0x2
 577 0245 75       		.byte	0x75
 578 0246 00       		.sleb128 0
 579 0247 12       		.uleb128 0x12
 580 0248 01       		.byte	0x1
 581 0249 51       		.byte	0x51
 582 024a 03       		.byte	0x3
 583 024b 0B       		.byte	0xb
 584 024c 0080     		.2byte	0x8000
 585 024e 00       		.byte	0
 586 024f 11       		.uleb128 0x11
 587 0250 1E000000 		.4byte	.LVL6
 588 0254 03030000 		.4byte	0x303
 589 0258 63020000 		.4byte	0x263
 590 025c 12       		.uleb128 0x12
 591 025d 01       		.byte	0x1
 592 025e 50       		.byte	0x50
 593 025f 02       		.byte	0x2
 594 0260 70       		.byte	0x70
 595 0261 00       		.sleb128 0
 596 0262 00       		.byte	0
 597 0263 11       		.uleb128 0x11
 598 0264 28000000 		.4byte	.LVL7
 599 0268 3C030000 		.4byte	0x33c
 600 026c 7E020000 		.4byte	0x27e
 601 0270 12       		.uleb128 0x12
 602 0271 01       		.byte	0x1
 603 0272 50       		.byte	0x50
 604 0273 02       		.byte	0x2
 605 0274 75       		.byte	0x75
 606 0275 00       		.sleb128 0
 607 0276 12       		.uleb128 0x12
 608 0277 01       		.byte	0x1
 609 0278 51       		.byte	0x51
 610 0279 03       		.byte	0x3
 611 027a 0B       		.byte	0xb
 612 027b 0080     		.2byte	0x8000
 613 027d 00       		.byte	0
 614 027e 13       		.uleb128 0x13
 615 027f 2E000000 		.4byte	.LVL8
 616 0283 03030000 		.4byte	0x303
 617 0287 12       		.uleb128 0x12
 618 0288 01       		.byte	0x1
 619 0289 50       		.byte	0x50
 620 028a 02       		.byte	0x2
 621 028b 70       		.byte	0x70
ARM GAS  C:\Users\ADMINI~1\AppData\Local\Temp\cc8mEAcR.s 			page 13


 622 028c 00       		.sleb128 0
 623 028d 00       		.byte	0
 624 028e 00       		.byte	0
 625 028f 14       		.uleb128 0x14
 626 0290 01       		.byte	0x1
 627 0291 65010000 		.4byte	.LASF35
 628 0295 01       		.byte	0x1
 629 0296 1D       		.byte	0x1d
 630 0297 06       		.byte	0x6
 631 0298 01       		.byte	0x1
 632 0299 1C000000 		.4byte	.LFB31
 633 029d 40000000 		.4byte	.LFE31
 634 02a1 20000000 		.4byte	.LLST1
 635 02a5 01       		.byte	0x1
 636 02a6 D3020000 		.4byte	0x2d3
 637 02aa 15       		.uleb128 0x15
 638 02ab 50020000 		.4byte	.LASF46
 639 02af 01       		.byte	0x1
 640 02b0 1F       		.byte	0x1f
 641 02b1 16       		.byte	0x16
 642 02b2 F7010000 		.4byte	0x1f7
 643 02b6 02       		.byte	0x2
 644 02b7 91       		.byte	0x91
 645 02b8 74       		.sleb128 -12
 646 02b9 13       		.uleb128 0x13
 647 02ba 36000000 		.4byte	.LVL2
 648 02be 4B030000 		.4byte	0x34b
 649 02c2 12       		.uleb128 0x12
 650 02c3 01       		.byte	0x1
 651 02c4 50       		.byte	0x50
 652 02c5 05       		.byte	0x5
 653 02c6 0C       		.byte	0xc
 654 02c7 000C0140 		.4byte	0x40010c00
 655 02cb 12       		.uleb128 0x12
 656 02cc 01       		.byte	0x1
 657 02cd 51       		.byte	0x51
 658 02ce 02       		.byte	0x2
 659 02cf 91       		.byte	0x91
 660 02d0 74       		.sleb128 -12
 661 02d1 00       		.byte	0
 662 02d2 00       		.byte	0
 663 02d3 16       		.uleb128 0x16
 664 02d4 01       		.byte	0x1
 665 02d5 F8010000 		.4byte	.LASF36
 666 02d9 01       		.byte	0x1
 667 02da 15       		.byte	0x15
 668 02db 06       		.byte	0x6
 669 02dc 01       		.byte	0x1
 670 02dd 14000000 		.4byte	.LFB30
 671 02e1 1C000000 		.4byte	.LFE30
 672 02e5 02       		.byte	0x2
 673 02e6 7D       		.byte	0x7d
 674 02e7 00       		.sleb128 0
 675 02e8 01       		.byte	0x1
 676 02e9 03030000 		.4byte	0x303
 677 02ed 17       		.uleb128 0x17
 678 02ee 1C000000 		.4byte	.LVL1
ARM GAS  C:\Users\ADMINI~1\AppData\Local\Temp\cc8mEAcR.s 			page 14


 679 02f2 01       		.byte	0x1
 680 02f3 5A030000 		.4byte	0x35a
 681 02f7 12       		.uleb128 0x12
 682 02f8 01       		.byte	0x1
 683 02f9 50       		.byte	0x50
 684 02fa 01       		.byte	0x1
 685 02fb 3C       		.byte	0x3c
 686 02fc 12       		.uleb128 0x12
 687 02fd 01       		.byte	0x1
 688 02fe 51       		.byte	0x51
 689 02ff 01       		.byte	0x1
 690 0300 31       		.byte	0x31
 691 0301 00       		.byte	0
 692 0302 00       		.byte	0
 693 0303 14       		.uleb128 0x14
 694 0304 01       		.byte	0x1
 695 0305 2D010000 		.4byte	.LASF37
 696 0309 01       		.byte	0x1
 697 030a 0E       		.byte	0xe
 698 030b 06       		.byte	0x6
 699 030c 01       		.byte	0x1
 700 030d 00000000 		.4byte	.LFB29
 701 0311 14000000 		.4byte	.LFE29
 702 0315 4C000000 		.4byte	.LLST0
 703 0319 01       		.byte	0x1
 704 031a 2D030000 		.4byte	0x32d
 705 031e 18       		.uleb128 0x18
 706 031f A2020000 		.4byte	.LASF47
 707 0323 01       		.byte	0x1
 708 0324 0E       		.byte	0xe
 709 0325 1A       		.byte	0x1a
 710 0326 9F000000 		.4byte	0x9f
 711 032a 01       		.byte	0x1
 712 032b 50       		.byte	0x50
 713 032c 00       		.byte	0
 714 032d 19       		.uleb128 0x19
 715 032e 01       		.byte	0x1
 716 032f 01       		.byte	0x1
 717 0330 45010000 		.4byte	.LASF38
 718 0334 45010000 		.4byte	.LASF38
 719 0338 05       		.byte	0x5
 720 0339 6601     		.2byte	0x166
 721 033b 06       		.byte	0x6
 722 033c 19       		.uleb128 0x19
 723 033d 01       		.byte	0x1
 724 033e 01       		.byte	0x1
 725 033f 15010000 		.4byte	.LASF39
 726 0343 15010000 		.4byte	.LASF39
 727 0347 05       		.byte	0x5
 728 0348 6501     		.2byte	0x165
 729 034a 06       		.byte	0x6
 730 034b 19       		.uleb128 0x19
 731 034c 01       		.byte	0x1
 732 034d 01       		.byte	0x1
 733 034e 7E020000 		.4byte	.LASF40
 734 0352 7E020000 		.4byte	.LASF40
 735 0356 05       		.byte	0x5
ARM GAS  C:\Users\ADMINI~1\AppData\Local\Temp\cc8mEAcR.s 			page 15


 736 0357 5F01     		.2byte	0x15f
 737 0359 06       		.byte	0x6
 738 035a 19       		.uleb128 0x19
 739 035b 01       		.byte	0x1
 740 035c 01       		.byte	0x1
 741 035d 70000000 		.4byte	.LASF41
 742 0361 70000000 		.4byte	.LASF41
 743 0365 06       		.byte	0x6
 744 0366 B502     		.2byte	0x2b5
 745 0368 06       		.byte	0x6
 746 0369 00       		.byte	0
 747              		.section	.debug_abbrev,"",%progbits
 748              	.Ldebug_abbrev0:
 749 0000 01       		.uleb128 0x1
 750 0001 11       		.uleb128 0x11
 751 0002 01       		.byte	0x1
 752 0003 25       		.uleb128 0x25
 753 0004 0E       		.uleb128 0xe
 754 0005 13       		.uleb128 0x13
 755 0006 0B       		.uleb128 0xb
 756 0007 03       		.uleb128 0x3
 757 0008 0E       		.uleb128 0xe
 758 0009 1B       		.uleb128 0x1b
 759 000a 0E       		.uleb128 0xe
 760 000b 55       		.uleb128 0x55
 761 000c 06       		.uleb128 0x6
 762 000d 11       		.uleb128 0x11
 763 000e 01       		.uleb128 0x1
 764 000f 52       		.uleb128 0x52
 765 0010 01       		.uleb128 0x1
 766 0011 10       		.uleb128 0x10
 767 0012 06       		.uleb128 0x6
 768 0013 00       		.byte	0
 769 0014 00       		.byte	0
 770 0015 02       		.uleb128 0x2
 771 0016 24       		.uleb128 0x24
 772 0017 00       		.byte	0
 773 0018 0B       		.uleb128 0xb
 774 0019 0B       		.uleb128 0xb
 775 001a 3E       		.uleb128 0x3e
 776 001b 0B       		.uleb128 0xb
 777 001c 03       		.uleb128 0x3
 778 001d 0E       		.uleb128 0xe
 779 001e 00       		.byte	0
 780 001f 00       		.byte	0
 781 0020 03       		.uleb128 0x3
 782 0021 16       		.uleb128 0x16
 783 0022 00       		.byte	0
 784 0023 03       		.uleb128 0x3
 785 0024 0E       		.uleb128 0xe
 786 0025 3A       		.uleb128 0x3a
 787 0026 0B       		.uleb128 0xb
 788 0027 3B       		.uleb128 0x3b
 789 0028 0B       		.uleb128 0xb
 790 0029 39       		.uleb128 0x39
 791 002a 0B       		.uleb128 0xb
 792 002b 49       		.uleb128 0x49
ARM GAS  C:\Users\ADMINI~1\AppData\Local\Temp\cc8mEAcR.s 			page 16


 793 002c 13       		.uleb128 0x13
 794 002d 00       		.byte	0
 795 002e 00       		.byte	0
 796 002f 04       		.uleb128 0x4
 797 0030 24       		.uleb128 0x24
 798 0031 00       		.byte	0
 799 0032 0B       		.uleb128 0xb
 800 0033 0B       		.uleb128 0xb
 801 0034 3E       		.uleb128 0x3e
 802 0035 0B       		.uleb128 0xb
 803 0036 03       		.uleb128 0x3
 804 0037 08       		.uleb128 0x8
 805 0038 00       		.byte	0
 806 0039 00       		.byte	0
 807 003a 05       		.uleb128 0x5
 808 003b 35       		.uleb128 0x35
 809 003c 00       		.byte	0
 810 003d 49       		.uleb128 0x49
 811 003e 13       		.uleb128 0x13
 812 003f 00       		.byte	0
 813 0040 00       		.byte	0
 814 0041 06       		.uleb128 0x6
 815 0042 04       		.uleb128 0x4
 816 0043 01       		.byte	0x1
 817 0044 3E       		.uleb128 0x3e
 818 0045 0B       		.uleb128 0xb
 819 0046 0B       		.uleb128 0xb
 820 0047 0B       		.uleb128 0xb
 821 0048 49       		.uleb128 0x49
 822 0049 13       		.uleb128 0x13
 823 004a 3A       		.uleb128 0x3a
 824 004b 0B       		.uleb128 0xb
 825 004c 3B       		.uleb128 0x3b
 826 004d 05       		.uleb128 0x5
 827 004e 39       		.uleb128 0x39
 828 004f 0B       		.uleb128 0xb
 829 0050 01       		.uleb128 0x1
 830 0051 13       		.uleb128 0x13
 831 0052 00       		.byte	0
 832 0053 00       		.byte	0
 833 0054 07       		.uleb128 0x7
 834 0055 28       		.uleb128 0x28
 835 0056 00       		.byte	0
 836 0057 03       		.uleb128 0x3
 837 0058 0E       		.uleb128 0xe
 838 0059 1C       		.uleb128 0x1c
 839 005a 0B       		.uleb128 0xb
 840 005b 00       		.byte	0
 841 005c 00       		.byte	0
 842 005d 08       		.uleb128 0x8
 843 005e 13       		.uleb128 0x13
 844 005f 01       		.byte	0x1
 845 0060 0B       		.uleb128 0xb
 846 0061 0B       		.uleb128 0xb
 847 0062 3A       		.uleb128 0x3a
 848 0063 0B       		.uleb128 0xb
 849 0064 3B       		.uleb128 0x3b
ARM GAS  C:\Users\ADMINI~1\AppData\Local\Temp\cc8mEAcR.s 			page 17


 850 0065 05       		.uleb128 0x5
 851 0066 39       		.uleb128 0x39
 852 0067 0B       		.uleb128 0xb
 853 0068 01       		.uleb128 0x1
 854 0069 13       		.uleb128 0x13
 855 006a 00       		.byte	0
 856 006b 00       		.byte	0
 857 006c 09       		.uleb128 0x9
 858 006d 0D       		.uleb128 0xd
 859 006e 00       		.byte	0
 860 006f 03       		.uleb128 0x3
 861 0070 08       		.uleb128 0x8
 862 0071 3A       		.uleb128 0x3a
 863 0072 0B       		.uleb128 0xb
 864 0073 3B       		.uleb128 0x3b
 865 0074 05       		.uleb128 0x5
 866 0075 39       		.uleb128 0x39
 867 0076 0B       		.uleb128 0xb
 868 0077 49       		.uleb128 0x49
 869 0078 13       		.uleb128 0x13
 870 0079 38       		.uleb128 0x38
 871 007a 0A       		.uleb128 0xa
 872 007b 00       		.byte	0
 873 007c 00       		.byte	0
 874 007d 0A       		.uleb128 0xa
 875 007e 0D       		.uleb128 0xd
 876 007f 00       		.byte	0
 877 0080 03       		.uleb128 0x3
 878 0081 0E       		.uleb128 0xe
 879 0082 3A       		.uleb128 0x3a
 880 0083 0B       		.uleb128 0xb
 881 0084 3B       		.uleb128 0x3b
 882 0085 05       		.uleb128 0x5
 883 0086 39       		.uleb128 0x39
 884 0087 0B       		.uleb128 0xb
 885 0088 49       		.uleb128 0x49
 886 0089 13       		.uleb128 0x13
 887 008a 38       		.uleb128 0x38
 888 008b 0A       		.uleb128 0xa
 889 008c 00       		.byte	0
 890 008d 00       		.byte	0
 891 008e 0B       		.uleb128 0xb
 892 008f 16       		.uleb128 0x16
 893 0090 00       		.byte	0
 894 0091 03       		.uleb128 0x3
 895 0092 0E       		.uleb128 0xe
 896 0093 3A       		.uleb128 0x3a
 897 0094 0B       		.uleb128 0xb
 898 0095 3B       		.uleb128 0x3b
 899 0096 05       		.uleb128 0x5
 900 0097 39       		.uleb128 0x39
 901 0098 0B       		.uleb128 0xb
 902 0099 49       		.uleb128 0x49
 903 009a 13       		.uleb128 0x13
 904 009b 00       		.byte	0
 905 009c 00       		.byte	0
 906 009d 0C       		.uleb128 0xc
ARM GAS  C:\Users\ADMINI~1\AppData\Local\Temp\cc8mEAcR.s 			page 18


 907 009e 04       		.uleb128 0x4
 908 009f 01       		.byte	0x1
 909 00a0 3E       		.uleb128 0x3e
 910 00a1 0B       		.uleb128 0xb
 911 00a2 0B       		.uleb128 0xb
 912 00a3 0B       		.uleb128 0xb
 913 00a4 49       		.uleb128 0x49
 914 00a5 13       		.uleb128 0x13
 915 00a6 3A       		.uleb128 0x3a
 916 00a7 0B       		.uleb128 0xb
 917 00a8 3B       		.uleb128 0x3b
 918 00a9 0B       		.uleb128 0xb
 919 00aa 39       		.uleb128 0x39
 920 00ab 0B       		.uleb128 0xb
 921 00ac 01       		.uleb128 0x1
 922 00ad 13       		.uleb128 0x13
 923 00ae 00       		.byte	0
 924 00af 00       		.byte	0
 925 00b0 0D       		.uleb128 0xd
 926 00b1 13       		.uleb128 0x13
 927 00b2 01       		.byte	0x1
 928 00b3 0B       		.uleb128 0xb
 929 00b4 0B       		.uleb128 0xb
 930 00b5 3A       		.uleb128 0x3a
 931 00b6 0B       		.uleb128 0xb
 932 00b7 3B       		.uleb128 0x3b
 933 00b8 0B       		.uleb128 0xb
 934 00b9 39       		.uleb128 0x39
 935 00ba 0B       		.uleb128 0xb
 936 00bb 01       		.uleb128 0x1
 937 00bc 13       		.uleb128 0x13
 938 00bd 00       		.byte	0
 939 00be 00       		.byte	0
 940 00bf 0E       		.uleb128 0xe
 941 00c0 0D       		.uleb128 0xd
 942 00c1 00       		.byte	0
 943 00c2 03       		.uleb128 0x3
 944 00c3 0E       		.uleb128 0xe
 945 00c4 3A       		.uleb128 0x3a
 946 00c5 0B       		.uleb128 0xb
 947 00c6 3B       		.uleb128 0x3b
 948 00c7 0B       		.uleb128 0xb
 949 00c8 39       		.uleb128 0x39
 950 00c9 0B       		.uleb128 0xb
 951 00ca 49       		.uleb128 0x49
 952 00cb 13       		.uleb128 0x13
 953 00cc 38       		.uleb128 0x38
 954 00cd 0A       		.uleb128 0xa
 955 00ce 00       		.byte	0
 956 00cf 00       		.byte	0
 957 00d0 0F       		.uleb128 0xf
 958 00d1 2E       		.uleb128 0x2e
 959 00d2 01       		.byte	0x1
 960 00d3 3F       		.uleb128 0x3f
 961 00d4 0C       		.uleb128 0xc
 962 00d5 03       		.uleb128 0x3
 963 00d6 0E       		.uleb128 0xe
ARM GAS  C:\Users\ADMINI~1\AppData\Local\Temp\cc8mEAcR.s 			page 19


 964 00d7 3A       		.uleb128 0x3a
 965 00d8 0B       		.uleb128 0xb
 966 00d9 3B       		.uleb128 0x3b
 967 00da 0B       		.uleb128 0xb
 968 00db 39       		.uleb128 0x39
 969 00dc 0B       		.uleb128 0xb
 970 00dd 27       		.uleb128 0x27
 971 00de 0C       		.uleb128 0xc
 972 00df 49       		.uleb128 0x49
 973 00e0 13       		.uleb128 0x13
 974 00e1 11       		.uleb128 0x11
 975 00e2 01       		.uleb128 0x1
 976 00e3 12       		.uleb128 0x12
 977 00e4 01       		.uleb128 0x1
 978 00e5 40       		.uleb128 0x40
 979 00e6 06       		.uleb128 0x6
 980 00e7 9742     		.uleb128 0x2117
 981 00e9 0C       		.uleb128 0xc
 982 00ea 01       		.uleb128 0x1
 983 00eb 13       		.uleb128 0x13
 984 00ec 00       		.byte	0
 985 00ed 00       		.byte	0
 986 00ee 10       		.uleb128 0x10
 987 00ef 898201   		.uleb128 0x4109
 988 00f2 00       		.byte	0
 989 00f3 11       		.uleb128 0x11
 990 00f4 01       		.uleb128 0x1
 991 00f5 31       		.uleb128 0x31
 992 00f6 13       		.uleb128 0x13
 993 00f7 00       		.byte	0
 994 00f8 00       		.byte	0
 995 00f9 11       		.uleb128 0x11
 996 00fa 898201   		.uleb128 0x4109
 997 00fd 01       		.byte	0x1
 998 00fe 11       		.uleb128 0x11
 999 00ff 01       		.uleb128 0x1
 1000 0100 31       		.uleb128 0x31
 1001 0101 13       		.uleb128 0x13
 1002 0102 01       		.uleb128 0x1
 1003 0103 13       		.uleb128 0x13
 1004 0104 00       		.byte	0
 1005 0105 00       		.byte	0
 1006 0106 12       		.uleb128 0x12
 1007 0107 8A8201   		.uleb128 0x410a
 1008 010a 00       		.byte	0
 1009 010b 02       		.uleb128 0x2
 1010 010c 0A       		.uleb128 0xa
 1011 010d 9142     		.uleb128 0x2111
 1012 010f 0A       		.uleb128 0xa
 1013 0110 00       		.byte	0
 1014 0111 00       		.byte	0
 1015 0112 13       		.uleb128 0x13
 1016 0113 898201   		.uleb128 0x4109
 1017 0116 01       		.byte	0x1
 1018 0117 11       		.uleb128 0x11
 1019 0118 01       		.uleb128 0x1
 1020 0119 31       		.uleb128 0x31
ARM GAS  C:\Users\ADMINI~1\AppData\Local\Temp\cc8mEAcR.s 			page 20


 1021 011a 13       		.uleb128 0x13
 1022 011b 00       		.byte	0
 1023 011c 00       		.byte	0
 1024 011d 14       		.uleb128 0x14
 1025 011e 2E       		.uleb128 0x2e
 1026 011f 01       		.byte	0x1
 1027 0120 3F       		.uleb128 0x3f
 1028 0121 0C       		.uleb128 0xc
 1029 0122 03       		.uleb128 0x3
 1030 0123 0E       		.uleb128 0xe
 1031 0124 3A       		.uleb128 0x3a
 1032 0125 0B       		.uleb128 0xb
 1033 0126 3B       		.uleb128 0x3b
 1034 0127 0B       		.uleb128 0xb
 1035 0128 39       		.uleb128 0x39
 1036 0129 0B       		.uleb128 0xb
 1037 012a 27       		.uleb128 0x27
 1038 012b 0C       		.uleb128 0xc
 1039 012c 11       		.uleb128 0x11
 1040 012d 01       		.uleb128 0x1
 1041 012e 12       		.uleb128 0x12
 1042 012f 01       		.uleb128 0x1
 1043 0130 40       		.uleb128 0x40
 1044 0131 06       		.uleb128 0x6
 1045 0132 9742     		.uleb128 0x2117
 1046 0134 0C       		.uleb128 0xc
 1047 0135 01       		.uleb128 0x1
 1048 0136 13       		.uleb128 0x13
 1049 0137 00       		.byte	0
 1050 0138 00       		.byte	0
 1051 0139 15       		.uleb128 0x15
 1052 013a 34       		.uleb128 0x34
 1053 013b 00       		.byte	0
 1054 013c 03       		.uleb128 0x3
 1055 013d 0E       		.uleb128 0xe
 1056 013e 3A       		.uleb128 0x3a
 1057 013f 0B       		.uleb128 0xb
 1058 0140 3B       		.uleb128 0x3b
 1059 0141 0B       		.uleb128 0xb
 1060 0142 39       		.uleb128 0x39
 1061 0143 0B       		.uleb128 0xb
 1062 0144 49       		.uleb128 0x49
 1063 0145 13       		.uleb128 0x13
 1064 0146 02       		.uleb128 0x2
 1065 0147 0A       		.uleb128 0xa
 1066 0148 00       		.byte	0
 1067 0149 00       		.byte	0
 1068 014a 16       		.uleb128 0x16
 1069 014b 2E       		.uleb128 0x2e
 1070 014c 01       		.byte	0x1
 1071 014d 3F       		.uleb128 0x3f
 1072 014e 0C       		.uleb128 0xc
 1073 014f 03       		.uleb128 0x3
 1074 0150 0E       		.uleb128 0xe
 1075 0151 3A       		.uleb128 0x3a
 1076 0152 0B       		.uleb128 0xb
 1077 0153 3B       		.uleb128 0x3b
ARM GAS  C:\Users\ADMINI~1\AppData\Local\Temp\cc8mEAcR.s 			page 21


 1078 0154 0B       		.uleb128 0xb
 1079 0155 39       		.uleb128 0x39
 1080 0156 0B       		.uleb128 0xb
 1081 0157 27       		.uleb128 0x27
 1082 0158 0C       		.uleb128 0xc
 1083 0159 11       		.uleb128 0x11
 1084 015a 01       		.uleb128 0x1
 1085 015b 12       		.uleb128 0x12
 1086 015c 01       		.uleb128 0x1
 1087 015d 40       		.uleb128 0x40
 1088 015e 0A       		.uleb128 0xa
 1089 015f 9742     		.uleb128 0x2117
 1090 0161 0C       		.uleb128 0xc
 1091 0162 01       		.uleb128 0x1
 1092 0163 13       		.uleb128 0x13
 1093 0164 00       		.byte	0
 1094 0165 00       		.byte	0
 1095 0166 17       		.uleb128 0x17
 1096 0167 898201   		.uleb128 0x4109
 1097 016a 01       		.byte	0x1
 1098 016b 11       		.uleb128 0x11
 1099 016c 01       		.uleb128 0x1
 1100 016d 9542     		.uleb128 0x2115
 1101 016f 0C       		.uleb128 0xc
 1102 0170 31       		.uleb128 0x31
 1103 0171 13       		.uleb128 0x13
 1104 0172 00       		.byte	0
 1105 0173 00       		.byte	0
 1106 0174 18       		.uleb128 0x18
 1107 0175 05       		.uleb128 0x5
 1108 0176 00       		.byte	0
 1109 0177 03       		.uleb128 0x3
 1110 0178 0E       		.uleb128 0xe
 1111 0179 3A       		.uleb128 0x3a
 1112 017a 0B       		.uleb128 0xb
 1113 017b 3B       		.uleb128 0x3b
 1114 017c 0B       		.uleb128 0xb
 1115 017d 39       		.uleb128 0x39
 1116 017e 0B       		.uleb128 0xb
 1117 017f 49       		.uleb128 0x49
 1118 0180 13       		.uleb128 0x13
 1119 0181 02       		.uleb128 0x2
 1120 0182 0A       		.uleb128 0xa
 1121 0183 00       		.byte	0
 1122 0184 00       		.byte	0
 1123 0185 19       		.uleb128 0x19
 1124 0186 2E       		.uleb128 0x2e
 1125 0187 00       		.byte	0
 1126 0188 3F       		.uleb128 0x3f
 1127 0189 0C       		.uleb128 0xc
 1128 018a 3C       		.uleb128 0x3c
 1129 018b 0C       		.uleb128 0xc
 1130 018c 8740     		.uleb128 0x2007
 1131 018e 0E       		.uleb128 0xe
 1132 018f 03       		.uleb128 0x3
 1133 0190 0E       		.uleb128 0xe
 1134 0191 3A       		.uleb128 0x3a
ARM GAS  C:\Users\ADMINI~1\AppData\Local\Temp\cc8mEAcR.s 			page 22


 1135 0192 0B       		.uleb128 0xb
 1136 0193 3B       		.uleb128 0x3b
 1137 0194 05       		.uleb128 0x5
 1138 0195 39       		.uleb128 0x39
 1139 0196 0B       		.uleb128 0xb
 1140 0197 00       		.byte	0
 1141 0198 00       		.byte	0
 1142 0199 00       		.byte	0
 1143              		.section	.debug_loc,"",%progbits
 1144              	.Ldebug_loc0:
 1145              	.LLST2:
 1146 0000 00000000 		.4byte	.LFB32
 1147 0004 02000000 		.4byte	.LCFI5
 1148 0008 0200     		.2byte	0x2
 1149 000a 7D       		.byte	0x7d
 1150 000b 00       		.sleb128 0
 1151 000c 02000000 		.4byte	.LCFI5
 1152 0010 38000000 		.4byte	.LFE32
 1153 0014 0200     		.2byte	0x2
 1154 0016 7D       		.byte	0x7d
 1155 0017 08       		.sleb128 8
 1156 0018 00000000 		.4byte	0
 1157 001c 00000000 		.4byte	0
 1158              	.LLST1:
 1159 0020 1C000000 		.4byte	.LFB31
 1160 0024 22000000 		.4byte	.LCFI3
 1161 0028 0200     		.2byte	0x2
 1162 002a 7D       		.byte	0x7d
 1163 002b 00       		.sleb128 0
 1164 002c 22000000 		.4byte	.LCFI3
 1165 0030 38000000 		.4byte	.LCFI4
 1166 0034 0200     		.2byte	0x2
 1167 0036 7D       		.byte	0x7d
 1168 0037 10       		.sleb128 16
 1169 0038 38000000 		.4byte	.LCFI4
 1170 003c 40000000 		.4byte	.LFE31
 1171 0040 0200     		.2byte	0x2
 1172 0042 7D       		.byte	0x7d
 1173 0043 04       		.sleb128 4
 1174 0044 00000000 		.4byte	0
 1175 0048 00000000 		.4byte	0
 1176              	.LLST0:
 1177 004c 00000000 		.4byte	.LFB29
 1178 0050 02000000 		.4byte	.LCFI0
 1179 0054 0200     		.2byte	0x2
 1180 0056 7D       		.byte	0x7d
 1181 0057 00       		.sleb128 0
 1182 0058 02000000 		.4byte	.LCFI0
 1183 005c 0A000000 		.4byte	.LCFI1
 1184 0060 0200     		.2byte	0x2
 1185 0062 7D       		.byte	0x7d
 1186 0063 08       		.sleb128 8
 1187 0064 0A000000 		.4byte	.LCFI1
 1188 0068 0C000000 		.4byte	.LCFI2
 1189 006c 0200     		.2byte	0x2
 1190 006e 7D       		.byte	0x7d
 1191 006f 00       		.sleb128 0
ARM GAS  C:\Users\ADMINI~1\AppData\Local\Temp\cc8mEAcR.s 			page 23


 1192 0070 0C000000 		.4byte	.LCFI2
 1193 0074 14000000 		.4byte	.LFE29
 1194 0078 0200     		.2byte	0x2
 1195 007a 7D       		.byte	0x7d
 1196 007b 08       		.sleb128 8
 1197 007c 00000000 		.4byte	0
 1198 0080 00000000 		.4byte	0
 1199              		.section	.debug_aranges,"",%progbits
 1200 0000 24000000 		.4byte	0x24
 1201 0004 0200     		.2byte	0x2
 1202 0006 00000000 		.4byte	.Ldebug_info0
 1203 000a 04       		.byte	0x4
 1204 000b 00       		.byte	0
 1205 000c 0000     		.2byte	0
 1206 000e 0000     		.2byte	0
 1207 0010 00000000 		.4byte	.Ltext0
 1208 0014 40000000 		.4byte	.Letext0-.Ltext0
 1209 0018 00000000 		.4byte	.LFB32
 1210 001c 38000000 		.4byte	.LFE32-.LFB32
 1211 0020 00000000 		.4byte	0
 1212 0024 00000000 		.4byte	0
 1213              		.section	.debug_ranges,"",%progbits
 1214              	.Ldebug_ranges0:
 1215 0000 00000000 		.4byte	.Ltext0
 1216 0004 40000000 		.4byte	.Letext0
 1217 0008 00000000 		.4byte	.LFB32
 1218 000c 38000000 		.4byte	.LFE32
 1219 0010 00000000 		.4byte	0
 1220 0014 00000000 		.4byte	0
 1221              		.section	.debug_line,"",%progbits
 1222              	.Ldebug_line0:
 1223 0000 5C020000 		.section	.debug_str,"MS",%progbits,1
 1223      03008F01 
 1223      00000201 
 1223      FB0E0D00 
 1223      01010101 
 1224              	.LASF32:
 1225 0000 4750494F 		.ascii	"GPIO_Speed\000"
 1225      5F537065 
 1225      656400
 1226              	.LASF16:
 1227 000b 4C434B52 		.ascii	"LCKR\000"
 1227      00
 1228              	.LASF23:
 1229 0010 4750494F 		.ascii	"GPIO_Mode_IN_FLOATING\000"
 1229      5F4D6F64 
 1229      655F494E 
 1229      5F464C4F 
 1229      4154494E 
 1230              	.LASF28:
 1231 0026 4750494F 		.ascii	"GPIO_Mode_AF_OD\000"
 1231      5F4D6F64 
 1231      655F4146 
 1231      5F4F4400 
 1232              	.LASF44:
 1233 0036 443A5C6C 		.ascii	"D:\\liwei_gcc_stm32\\stm32f103_gcc\\demo4\000"
 1233      69776569 
ARM GAS  C:\Users\ADMINI~1\AppData\Local\Temp\cc8mEAcR.s 			page 24


 1233      5F676363 
 1233      5F73746D 
 1233      33325C73 
 1234              	.LASF24:
 1235 005d 4750494F 		.ascii	"GPIO_Mode_IPD\000"
 1235      5F4D6F64 
 1235      655F4950 
 1235      4400
 1236              	.LASF15:
 1237 006b 42535252 		.ascii	"BSRR\000"
 1237      00
 1238              	.LASF41:
 1239 0070 5243435F 		.ascii	"RCC_APB2PeriphClockCmd\000"
 1239      41504232 
 1239      50657269 
 1239      7068436C 
 1239      6F636B43 
 1240              	.LASF17:
 1241 0087 4750494F 		.ascii	"GPIO_TypeDef\000"
 1241      5F547970 
 1241      65446566 
 1241      00
 1242              	.LASF25:
 1243 0094 4750494F 		.ascii	"GPIO_Mode_IPU\000"
 1243      5F4D6F64 
 1243      655F4950 
 1243      5500
 1244              	.LASF33:
 1245 00a2 4750494F 		.ascii	"GPIO_Mode\000"
 1245      5F4D6F64 
 1245      6500
 1246              	.LASF14:
 1247 00ac 454E4142 		.ascii	"ENABLE\000"
 1247      4C4500
 1248              	.LASF1:
 1249 00b3 756E7369 		.ascii	"unsigned char\000"
 1249      676E6564 
 1249      20636861 
 1249      7200
 1250              	.LASF43:
 1251 00c1 75736572 		.ascii	"user/main.c\000"
 1251      2F6D6169 
 1251      6E2E6300 
 1252              	.LASF7:
 1253 00cd 6C6F6E67 		.ascii	"long unsigned int\000"
 1253      20756E73 
 1253      69676E65 
 1253      6420696E 
 1253      7400
 1254              	.LASF3:
 1255 00df 73686F72 		.ascii	"short unsigned int\000"
 1255      7420756E 
 1255      7369676E 
 1255      65642069 
 1255      6E7400
 1256              	.LASF19:
 1257 00f2 4750494F 		.ascii	"GPIO_Speed_2MHz\000"
ARM GAS  C:\Users\ADMINI~1\AppData\Local\Temp\cc8mEAcR.s 			page 25


 1257      5F537065 
 1257      65645F32 
 1257      4D487A00 
 1258              	.LASF13:
 1259 0102 44495341 		.ascii	"DISABLE\000"
 1259      424C4500 
 1260              	.LASF6:
 1261 010a 5F5F7569 		.ascii	"__uint32_t\000"
 1261      6E743332 
 1261      5F7400
 1262              	.LASF39:
 1263 0115 4750494F 		.ascii	"GPIO_SetBits\000"
 1263      5F536574 
 1263      42697473 
 1263      00
 1264              	.LASF5:
 1265 0122 5F5F7569 		.ascii	"__uint16_t\000"
 1265      6E743136 
 1265      5F7400
 1266              	.LASF37:
 1267 012d 44656C61 		.ascii	"Delay\000"
 1267      7900
 1268              	.LASF45:
 1269 0133 6D61696E 		.ascii	"main\000"
 1269      00
 1270              	.LASF10:
 1271 0138 756E7369 		.ascii	"unsigned int\000"
 1271      676E6564 
 1271      20696E74 
 1271      00
 1272              	.LASF38:
 1273 0145 4750494F 		.ascii	"GPIO_ResetBits\000"
 1273      5F526573 
 1273      65744269 
 1273      747300
 1274              	.LASF27:
 1275 0154 4750494F 		.ascii	"GPIO_Mode_Out_PP\000"
 1275      5F4D6F64 
 1275      655F4F75 
 1275      745F5050 
 1275      00
 1276              	.LASF35:
 1277 0165 4750494F 		.ascii	"GPIO_Configuration\000"
 1277      5F436F6E 
 1277      66696775 
 1277      72617469 
 1277      6F6E00
 1278              	.LASF42:
 1279 0178 474E5520 		.ascii	"GNU C17 10.3.1 20210824 (release) -mcpu=cortex-m3 -"
 1279      43313720 
 1279      31302E33 
 1279      2E312032 
 1279      30323130 
 1280 01ab 6D746875 		.ascii	"mthumb -mfloat-abi=soft -march=armv7-m -g -gdwarf-2"
 1280      6D62202D 
 1280      6D666C6F 
 1280      61742D61 
ARM GAS  C:\Users\ADMINI~1\AppData\Local\Temp\cc8mEAcR.s 			page 26


 1280      62693D73 
 1281 01de 202D4F73 		.ascii	" -Os -fomit-frame-pointer\000"
 1281      202D666F 
 1281      6D69742D 
 1281      6672616D 
 1281      652D706F 
 1282              	.LASF36:
 1283 01f8 5243435F 		.ascii	"RCC_Configuration\000"
 1283      436F6E66 
 1283      69677572 
 1283      6174696F 
 1283      6E00
 1284              	.LASF20:
 1285 020a 4750494F 		.ascii	"GPIO_Speed_50MHz\000"
 1285      5F537065 
 1285      65645F35 
 1285      304D487A 
 1285      00
 1286              	.LASF29:
 1287 021b 4750494F 		.ascii	"GPIO_Mode_AF_PP\000"
 1287      5F4D6F64 
 1287      655F4146 
 1287      5F505000 
 1288              	.LASF31:
 1289 022b 4750494F 		.ascii	"GPIO_Pin\000"
 1289      5F50696E 
 1289      00
 1290              	.LASF8:
 1291 0234 6C6F6E67 		.ascii	"long long int\000"
 1291      206C6F6E 
 1291      6720696E 
 1291      7400
 1292              	.LASF22:
 1293 0242 4750494F 		.ascii	"GPIO_Mode_AIN\000"
 1293      5F4D6F64 
 1293      655F4149 
 1293      4E00
 1294              	.LASF46:
 1295 0250 4750494F 		.ascii	"GPIO_InitStructure\000"
 1295      5F496E69 
 1295      74537472 
 1295      75637475 
 1295      726500
 1296              	.LASF2:
 1297 0263 73686F72 		.ascii	"short int\000"
 1297      7420696E 
 1297      7400
 1298              	.LASF18:
 1299 026d 4750494F 		.ascii	"GPIO_Speed_10MHz\000"
 1299      5F537065 
 1299      65645F31 
 1299      304D487A 
 1299      00
 1300              	.LASF40:
 1301 027e 4750494F 		.ascii	"GPIO_Init\000"
 1301      5F496E69 
 1301      7400
ARM GAS  C:\Users\ADMINI~1\AppData\Local\Temp\cc8mEAcR.s 			page 27


 1302              	.LASF11:
 1303 0288 75696E74 		.ascii	"uint16_t\000"
 1303      31365F74 
 1303      00
 1304              	.LASF34:
 1305 0291 4750494F 		.ascii	"GPIO_InitTypeDef\000"
 1305      5F496E69 
 1305      74547970 
 1305      65446566 
 1305      00
 1306              	.LASF47:
 1307 02a2 6E436F75 		.ascii	"nCount\000"
 1307      6E7400
 1308              	.LASF12:
 1309 02a9 75696E74 		.ascii	"uint32_t\000"
 1309      33325F74 
 1309      00
 1310              	.LASF4:
 1311 02b2 6C6F6E67 		.ascii	"long int\000"
 1311      20696E74 
 1311      00
 1312              	.LASF21:
 1313 02bb 4750494F 		.ascii	"GPIOSpeed_TypeDef\000"
 1313      53706565 
 1313      645F5479 
 1313      70654465 
 1313      6600
 1314              	.LASF0:
 1315 02cd 7369676E 		.ascii	"signed char\000"
 1315      65642063 
 1315      68617200 
 1316              	.LASF9:
 1317 02d9 6C6F6E67 		.ascii	"long long unsigned int\000"
 1317      206C6F6E 
 1317      6720756E 
 1317      7369676E 
 1317      65642069 
 1318              	.LASF26:
 1319 02f0 4750494F 		.ascii	"GPIO_Mode_Out_OD\000"
 1319      5F4D6F64 
 1319      655F4F75 
 1319      745F4F44 
 1319      00
 1320              	.LASF30:
 1321 0301 4750494F 		.ascii	"GPIOMode_TypeDef\000"
 1321      4D6F6465 
 1321      5F547970 
 1321      65446566 
 1321      00
 1322              		.ident	"GCC: (GNU Arm Embedded Toolchain 10.3-2021.10) 10.3.1 20210824 (release)"
ARM GAS  C:\Users\ADMINI~1\AppData\Local\Temp\cc8mEAcR.s 			page 28


DEFINED SYMBOLS
                            *ABS*:00000000 main.c
C:\Users\ADMINI~1\AppData\Local\Temp\cc8mEAcR.s:76     .text:00000000 $t
C:\Users\ADMINI~1\AppData\Local\Temp\cc8mEAcR.s:82     .text:00000000 Delay
C:\Users\ADMINI~1\AppData\Local\Temp\cc8mEAcR.s:133    .text:00000014 RCC_Configuration
C:\Users\ADMINI~1\AppData\Local\Temp\cc8mEAcR.s:154    .text:0000001c GPIO_Configuration
C:\Users\ADMINI~1\AppData\Local\Temp\cc8mEAcR.s:199    .text:0000003c $d
C:\Users\ADMINI~1\AppData\Local\Temp\cc8mEAcR.s:204    .text.startup:00000000 $t
C:\Users\ADMINI~1\AppData\Local\Temp\cc8mEAcR.s:210    .text.startup:00000000 main
C:\Users\ADMINI~1\AppData\Local\Temp\cc8mEAcR.s:263    .text.startup:00000030 $d

UNDEFINED SYMBOLS
RCC_APB2PeriphClockCmd
GPIO_Init
GPIO_ResetBits
GPIO_SetBits
