ARM GAS  C:\Users\ADMINI~1\AppData\Local\Temp\ccGZ4MAG.s 			page 1


   1              		.cpu cortex-m3
   2              		.arch armv7-m
   3              		.fpu softvfp
   4              		.eabi_attribute 20, 1	@ Tag_ABI_FP_denormal
   5              		.eabi_attribute 21, 1	@ Tag_ABI_FP_exceptions
   6              		.eabi_attribute 23, 3	@ Tag_ABI_FP_number_model
   7              		.eabi_attribute 24, 1	@ Tag_ABI_align8_needed
   8              		.eabi_attribute 25, 1	@ Tag_ABI_align8_preserved
   9              		.eabi_attribute 26, 1	@ Tag_ABI_enum_size
  10              		.eabi_attribute 30, 4	@ Tag_ABI_optimization_goals
  11              		.eabi_attribute 34, 1	@ Tag_CPU_unaligned_access
  12              		.eabi_attribute 18, 4	@ Tag_ABI_PCS_wchar_t
  13              		.file	"main.c"
  14              	@ GNU C17 (GNU Arm Embedded Toolchain 10.3-2021.10) version 10.3.1 20210824 (release) (arm-none-eab
  15              	@	compiled by GNU C version 7.3-win32 20180312, GMP version 6.1.0, MPFR version 3.1.4, MPC version 
  16              	
  17              	@ GGC heuristics: --param ggc-min-expand=100 --param ggc-min-heapsize=131072
  18              	@ options passed:  -I . -I ./user -imultilib thumb/v7-m/nofp
  19              	@ -iprefix c:\program files (x86)\gnu arm embedded toolchain\10 2021.10\bin\../lib/gcc/arm-none-eab
  20              	@ -isysroot c:\program files (x86)\gnu arm embedded toolchain\10 2021.10\bin\../arm-none-eabi
  21              	@ -D__USES_INITFINI__ user/main.c -mcpu=cortex-m3 -mthumb -mfloat-abi=soft
  22              	@ -mlibarch=armv7-m -march=armv7-m -auxbase-strip user/main.o -g -gdwarf-2
  23              	@ -Os -Wall -fomit-frame-pointer -fverbose-asm
  24              	@ options enabled:  -faggressive-loop-optimizations -fallocation-dce
  25              	@ -fauto-inc-dec -fbranch-count-reg -fcaller-saves -fcode-hoisting
  26              	@ -fcombine-stack-adjustments -fcompare-elim -fcprop-registers
  27              	@ -fcrossjumping -fcse-follow-jumps -fdefer-pop
  28              	@ -fdelete-null-pointer-checks -fdevirtualize -fdevirtualize-speculatively
  29              	@ -fdwarf2-cfi-asm -fearly-inlining -feliminate-unused-debug-symbols
  30              	@ -feliminate-unused-debug-types -fexpensive-optimizations
  31              	@ -fforward-propagate -ffp-int-builtin-inexact -ffunction-cse -fgcse
  32              	@ -fgcse-lm -fgnu-unique -fguess-branch-probability -fhoist-adjacent-loads
  33              	@ -fident -fif-conversion -fif-conversion2 -findirect-inlining -finline
  34              	@ -finline-atomics -finline-functions -finline-functions-called-once
  35              	@ -finline-small-functions -fipa-bit-cp -fipa-cp -fipa-icf
  36              	@ -fipa-icf-functions -fipa-icf-variables -fipa-profile -fipa-pure-const
  37              	@ -fipa-ra -fipa-reference -fipa-reference-addressable -fipa-sra
  38              	@ -fipa-stack-alignment -fipa-vrp -fira-hoist-pressure
  39              	@ -fira-share-save-slots -fira-share-spill-slots
  40              	@ -fisolate-erroneous-paths-dereference -fivopts -fkeep-static-consts
  41              	@ -fleading-underscore -flifetime-dse -flra-remat -fmath-errno
  42              	@ -fmerge-constants -fmerge-debug-strings -fmove-loop-invariants
  43              	@ -fomit-frame-pointer -foptimize-sibling-calls -fpartial-inlining
  44              	@ -fpeephole -fpeephole2 -fplt -fprefetch-loop-arrays -freg-struct-return
  45              	@ -freorder-blocks -freorder-functions -frerun-cse-after-loop
  46              	@ -fsched-critical-path-heuristic -fsched-dep-count-heuristic
  47              	@ -fsched-group-heuristic -fsched-interblock -fsched-last-insn-heuristic
  48              	@ -fsched-pressure -fsched-rank-heuristic -fsched-spec
  49              	@ -fsched-spec-insn-heuristic -fsched-stalled-insns-dep -fschedule-insns2
  50              	@ -fsection-anchors -fsemantic-interposition -fshow-column
  51              	@ -fshrink-wrap-separate -fsigned-zeros -fsplit-ivs-in-unroller
  52              	@ -fsplit-wide-types -fssa-backprop -fssa-phiopt -fstdarg-opt
  53              	@ -fstore-merging -fstrict-aliasing -fstrict-volatile-bitfields
  54              	@ -fsync-libcalls -fthread-jumps -ftoplevel-reorder -ftrapping-math
  55              	@ -ftree-bit-ccp -ftree-builtin-call-dce -ftree-ccp -ftree-ch
  56              	@ -ftree-coalesce-vars -ftree-copy-prop -ftree-cselim -ftree-dce
  57              	@ -ftree-dominator-opts -ftree-dse -ftree-forwprop -ftree-fre
ARM GAS  C:\Users\ADMINI~1\AppData\Local\Temp\ccGZ4MAG.s 			page 2


  58              	@ -ftree-loop-distribute-patterns -ftree-loop-if-convert -ftree-loop-im
  59              	@ -ftree-loop-ivcanon -ftree-loop-optimize -ftree-parallelize-loops=
  60              	@ -ftree-phiprop -ftree-pre -ftree-pta -ftree-reassoc -ftree-scev-cprop
  61              	@ -ftree-sink -ftree-slsr -ftree-sra -ftree-switch-conversion
  62              	@ -ftree-tail-merge -ftree-ter -ftree-vrp -funit-at-a-time -fvar-tracking
  63              	@ -fvar-tracking-assignments -fverbose-asm -fzero-initialized-in-bss
  64              	@ -masm-syntax-unified -mbe32 -mfix-cortex-m3-ldrd -mlittle-endian
  65              	@ -mpic-data-is-text-relative -msched-prolog -mthumb -munaligned-access
  66              	@ -mvectorize-with-neon-quad
  67              	
  68              		.text
  69              	.Ltext0:
  70              		.cfi_sections	.debug_frame
  71              		.align	1
  72              		.global	delay
  73              		.syntax unified
  74              		.thumb
  75              		.thumb_func
  76              		.type	delay, %function
  77              	delay:
  78              	.LVL0:
  79              	.LFB0:
  80              		.file 1 "user/main.c"
   1:user/main.c   **** /**
   2:user/main.c   **** ***************************************************************************************************
   3:user/main.c   **** *                                      (c) Copyright 2024-2032
   4:user/main.c   **** *                                         All Rights Reserved
   5:user/main.c   **** * @By      : liwei
   6:user/main.c   **** ***************************************************************************************************
   7:user/main.c   **** **/
   8:user/main.c   **** typedef unsigned int  uint32_t;
   9:user/main.c   **** typedef unsigned short  uint16_t;
  10:user/main.c   **** // ÂÆö‰πâSTM32F103ÁöÑÂØÑÂ≠òÂô®Âü∫Âú∞ÂùÄ
  11:user/main.c   **** #define STM32_RCC_BASE          0x40021000   
  12:user/main.c   **** #define STM32_GPIOB_BASE        0x40010C00   
  13:user/main.c   **** 
  14:user/main.c   **** // ÂÆö‰πâÂØÑÂ≠òÂô®ÂÅèÁßª
  15:user/main.c   **** #define RCC_APB2ENR_OFFSET      0x18   
  16:user/main.c   **** #define GPIOB_CRL_OFFSET        0x00  
  17:user/main.c   **** #define GPIOB_CRH_OFFSET        0x04  
  18:user/main.c   **** #define GPIOB_ODR_OFFSET        0x0C  
  19:user/main.c   **** 
  20:user/main.c   **** // ÂÆö‰πâÂØÑÂ≠òÂô®Âú∞ÂùÄ
  21:user/main.c   **** #define RCC_APB2ENR_REG         (*(volatile uint32_t *)(STM32_RCC_BASE + RCC_APB2ENR_OFFSET))
  22:user/main.c   **** #define GPIOB_CRL_REG           (*(volatile uint32_t *)(STM32_GPIOB_BASE + GPIOB_CRH_OFFSET))
  23:user/main.c   **** #define GPIOB_ODR_REG           (*(volatile uint16_t *)(STM32_GPIOB_BASE + GPIOB_ODR_OFFSET))
  24:user/main.c   **** 
  25:user/main.c   **** // ÂÆö‰πâ‰ΩçÊé©Á†Å
  26:user/main.c   **** #define RCC_APB2ENR_IOPBEN      ((uint32_t)0x00000008)  
  27:user/main.c   **** #define GPIO_MODE_OUT_50MHZ     ((uint32_t)0x0002)      
  28:user/main.c   **** #define GPIO_CNF_PP             ((uint32_t)0x0000)      
  29:user/main.c   **** #define GPIO_PIN15              ((uint16_t)0x8000)     
  30:user/main.c   **** /**************************************************************************************************
  31:user/main.c   **** * @ÊèèËø∞	: Âª∂Êó∂ÂáΩÊï∞
  32:user/main.c   **** ***************************************************************************************************
  33:user/main.c   **** void delay(volatile uint32_t count) 
  34:user/main.c   **** {
ARM GAS  C:\Users\ADMINI~1\AppData\Local\Temp\ccGZ4MAG.s 			page 3


  81              		.loc 1 34 1 view -0
  82              		.cfi_startproc
  83              		@ args = 0, pretend = 0, frame = 8
  84              		@ frame_needed = 0, uses_anonymous_args = 0
  85              		@ link register save eliminated.
  86              		.loc 1 34 1 is_stmt 0 view .LVU1
  87 0000 82B0     		sub	sp, sp, #8	@,,
  88              	.LCFI0:
  89              		.cfi_def_cfa_offset 8
  90 0002 0190     		str	r0, [sp, #4]	@ count, count
  35:user/main.c   ****     while (count--) 
  91              		.loc 1 35 5 is_stmt 1 view .LVU2
  92              	.L2:
  36:user/main.c   **** 	{
  37:user/main.c   ****         // Á©∫Âæ™ÁéØ
  38:user/main.c   ****     }
  93              		.loc 1 38 5 discriminator 1 view .LVU3
  35:user/main.c   ****     while (count--) 
  94              		.loc 1 35 11 discriminator 1 view .LVU4
  95              	@ user/main.c:35:     while (count--) 
  35:user/main.c   ****     while (count--) 
  96              		.loc 1 35 17 is_stmt 0 discriminator 1 view .LVU5
  97 0004 019B     		ldr	r3, [sp, #4]	@ count.0_1, count
  98 0006 5A1E     		subs	r2, r3, #1	@ _2, count.0_1,
  99 0008 0192     		str	r2, [sp, #4]	@ _2, count
 100              	@ user/main.c:35:     while (count--) 
  35:user/main.c   ****     while (count--) 
 101              		.loc 1 35 11 discriminator 1 view .LVU6
 102 000a 002B     		cmp	r3, #0	@ count.0_1
 103 000c FAD1     		bne	.L2	@
 104              	@ user/main.c:39: }
  39:user/main.c   **** }
 105              		.loc 1 39 1 view .LVU7
 106 000e 02B0     		add	sp, sp, #8	@,,
 107              	.LCFI1:
 108              		.cfi_def_cfa_offset 0
 109              		@ sp needed	@
 110 0010 7047     		bx	lr	@
 111              		.cfi_endproc
 112              	.LFE0:
 113              		.size	delay, .-delay
 114              		.align	1
 115              		.global	GPIOB_ConfigPin15AsOutput
 116              		.syntax unified
 117              		.thumb
 118              		.thumb_func
 119              		.type	GPIOB_ConfigPin15AsOutput, %function
 120              	GPIOB_ConfigPin15AsOutput:
 121              	.LFB1:
  40:user/main.c   **** /**************************************************************************************************
  41:user/main.c   **** * @ÊèèËø∞	: ÈÖçÁΩÆGPIOBÂºïËÑö
  42:user/main.c   **** ***************************************************************************************************
  43:user/main.c   **** void GPIOB_ConfigPin15AsOutput(void) 
  44:user/main.c   **** {
 122              		.loc 1 44 1 is_stmt 1 view -0
 123              		.cfi_startproc
 124              		@ args = 0, pretend = 0, frame = 0
ARM GAS  C:\Users\ADMINI~1\AppData\Local\Temp\ccGZ4MAG.s 			page 4


 125              		@ frame_needed = 0, uses_anonymous_args = 0
 126              		@ link register save eliminated.
  45:user/main.c   ****     // ‰ΩøËÉΩGPIOBÊó∂Èíü
  46:user/main.c   ****     RCC_APB2ENR_REG |= RCC_APB2ENR_IOPBEN;
 127              		.loc 1 46 5 view .LVU9
 128              	@ user/main.c:46:     RCC_APB2ENR_REG |= RCC_APB2ENR_IOPBEN;
 129              		.loc 1 46 21 is_stmt 0 view .LVU10
 130 0012 084A     		ldr	r2, .L5	@ tmp118,
 131 0014 9369     		ldr	r3, [r2, #24]	@ _2, MEM[(volatile uint32_t *)1073877016B]
 132 0016 43F00803 		orr	r3, r3, #8	@ _3, _2,
 133 001a 9361     		str	r3, [r2, #24]	@ _3, MEM[(volatile uint32_t *)1073877016B]
  47:user/main.c   **** 
  48:user/main.c   ****     // ÈÖçÁΩÆGPIOBÂºïËÑö15ÁöÑÊ®°ÂºèÂíåÈÖçÁΩÆ
  49:user/main.c   ****     uint32_t temp = GPIOB_CRL_REG;
 134              		.loc 1 49 5 is_stmt 1 view .LVU11
 135              	@ user/main.c:49:     uint32_t temp = GPIOB_CRL_REG;
 136              		.loc 1 49 14 is_stmt 0 view .LVU12
 137 001c A2F58832 		sub	r2, r2, #69632	@ tmp120, tmp120,
 138 0020 D2F8043C 		ldr	r3, [r2, #3076]	@ temp, MEM[(volatile uint32_t *)1073810436B]
 139              	.LVL1:
  50:user/main.c   ****     temp &= ~(0x0F000000); 				 	// Ê∏ÖÈô§
 140              		.loc 1 50 5 is_stmt 1 view .LVU13
  51:user/main.c   ****     temp |= (GPIO_MODE_OUT_50MHZ << 28);  	// ËÆæÁΩÆMODE15‰∏∫ÈÄöÁî®Êé®ÊåΩËæìÂá∫Ê®°ÂºèÔºåÊúÄÂ§ßÈÄüÂ∫
 141              		.loc 1 51 5 view .LVU14
  52:user/main.c   ****     temp &= ~(0x00F00000);  				// Ê∏ÖÈô§CNF15‰ΩçÔºàÁ¨¨20-23‰ΩçÔºâ
 142              		.loc 1 52 5 view .LVU15
 143 0024 23F07F63 		bic	r3, r3, #267386880	@ _1, temp,
 144              	.LVL2:
 145              	@ user/main.c:52:     temp &= ~(0x00F00000);  				// Ê∏ÖÈô§CNF15‰ΩçÔºàÁ¨¨20-23‰ΩçÔºâ
 146              		.loc 1 52 10 is_stmt 0 view .LVU16
 147 0028 43F00053 		orr	r3, r3, #536870912	@ temp, _1,
 148              	.LVL3:
  53:user/main.c   ****     temp |= (GPIO_CNF_PP << 30);  			// ËÆæÁΩÆCNF15‰∏∫Êé®ÊåΩËæìÂá∫ÈÖçÁΩÆ
 149              		.loc 1 53 5 is_stmt 1 view .LVU17
  54:user/main.c   ****     GPIOB_CRL_REG = temp;
 150              		.loc 1 54 5 view .LVU18
 151              	@ user/main.c:54:     GPIOB_CRL_REG = temp;
 152              		.loc 1 54 19 is_stmt 0 view .LVU19
 153 002c C2F8043C 		str	r3, [r2, #3076]	@ temp, MEM[(volatile uint32_t *)1073810436B]
 154              	@ user/main.c:55: }
  55:user/main.c   **** }
 155              		.loc 1 55 1 view .LVU20
 156 0030 7047     		bx	lr	@
 157              	.L6:
 158 0032 00BF     		.align	2
 159              	.L5:
 160 0034 00100240 		.word	1073876992
 161              		.cfi_endproc
 162              	.LFE1:
 163              		.size	GPIOB_ConfigPin15AsOutput, .-GPIOB_ConfigPin15AsOutput
 164              		.section	.text.startup,"ax",%progbits
 165              		.align	1
 166              		.global	main
 167              		.syntax unified
 168              		.thumb
 169              		.thumb_func
 170              		.type	main, %function
ARM GAS  C:\Users\ADMINI~1\AppData\Local\Temp\ccGZ4MAG.s 			page 5


 171              	main:
 172              	.LFB2:
  56:user/main.c   **** /**************************************************************************************************
  57:user/main.c   **** * @ÊèèËø∞	: main
  58:user/main.c   **** ***************************************************************************************************
  59:user/main.c   **** int main(void) 
  60:user/main.c   **** {
 173              		.loc 1 60 1 is_stmt 1 view -0
 174              		.cfi_startproc
 175              		@ Volatile: function does not return.
 176              		@ args = 0, pretend = 0, frame = 0
 177              		@ frame_needed = 0, uses_anonymous_args = 0
  61:user/main.c   ****     // ÈÖçÁΩÆGPIOBÂºïËÑö
  62:user/main.c   ****     GPIOB_ConfigPin15AsOutput();
 178              		.loc 1 62 5 view .LVU22
 179              	@ user/main.c:60: {
  60:user/main.c   ****     // ÈÖçÁΩÆGPIOBÂºïËÑö
 180              		.loc 1 60 1 is_stmt 0 view .LVU23
 181 0000 08B5     		push	{r3, lr}	@
 182              	.LCFI2:
 183              		.cfi_def_cfa_offset 8
 184              		.cfi_offset 3, -8
 185              		.cfi_offset 14, -4
 186              	@ user/main.c:62:     GPIOB_ConfigPin15AsOutput();
 187              		.loc 1 62 5 view .LVU24
 188 0002 FFF7FEFF 		bl	GPIOB_ConfigPin15AsOutput		@
 189              	.LVL4:
 190              	@ user/main.c:67:         GPIOB_ODR_REG = GPIO_PIN15;  
  63:user/main.c   ****     // ‰∏ªÂæ™ÁéØ
  64:user/main.c   ****     while (1) 
  65:user/main.c   **** 	{
  66:user/main.c   ****         // ÂàáÊç¢GPIOBÂºïËÑö15ÁöÑÁä∂ÊÄÅ
  67:user/main.c   ****         GPIOB_ODR_REG = GPIO_PIN15;  
 191              		.loc 1 67 23 view .LVU25
 192 0006 48F20004 		movw	r4, 32768	@ movhi	@ MEM[(volatile uint16_t *)1073810444B],
 193 000a 0649     		ldr	r1, .L9	@ tmp116,
 194              	@ user/main.c:68:         delay(1000000);  // Âª∂Êó∂
  68:user/main.c   ****         delay(1000000);  // Âª∂Êó∂
 195              		.loc 1 68 9 view .LVU26
 196 000c 0648     		ldr	r0, .L9+4	@ tmp129,
 197              	.L8:
  64:user/main.c   **** 	{
 198              		.loc 1 64 5 is_stmt 1 discriminator 1 view .LVU27
  67:user/main.c   ****         delay(1000000);  // Âª∂Êó∂
 199              		.loc 1 67 9 discriminator 1 view .LVU28
 200              	@ user/main.c:67:         GPIOB_ODR_REG = GPIO_PIN15;  
  67:user/main.c   ****         delay(1000000);  // Âª∂Êó∂
 201              		.loc 1 67 23 is_stmt 0 discriminator 1 view .LVU29
 202 000e 8C81     		strh	r4, [r1, #12]	@ movhi	@ MEM[(volatile uint16_t *)1073810444B], MEM[(volatile uint16_t *)10738
 203              		.loc 1 68 9 is_stmt 1 discriminator 1 view .LVU30
 204 0010 FFF7FEFF 		bl	delay		@
 205              	.LVL5:
  69:user/main.c   **** 		// ÂàáÊç¢GPIOBÂºïËÑö15ÁöÑÁä∂ÊÄÅ
  70:user/main.c   ****         GPIOB_ODR_REG &= ~GPIO_PIN15;  
 206              		.loc 1 70 9 discriminator 1 view .LVU31
 207              	@ user/main.c:70:         GPIOB_ODR_REG &= ~GPIO_PIN15;  
 208              		.loc 1 70 23 is_stmt 0 discriminator 1 view .LVU32
ARM GAS  C:\Users\ADMINI~1\AppData\Local\Temp\ccGZ4MAG.s 			page 6


 209 0014 8B89     		ldrh	r3, [r1, #12]	@, MEM[(volatile uint16_t *)1073810444B]
 210 0016 C3F30E03 		ubfx	r3, r3, #0, #15	@ _2, MEM[(volatile uint16_t *)1073810444B],,
 211 001a 8B81     		strh	r3, [r1, #12]	@ movhi	@ _2, MEM[(volatile uint16_t *)1073810444B]
  71:user/main.c   ****         delay(1000000);  // Âª∂Êó∂
 212              		.loc 1 71 9 is_stmt 1 discriminator 1 view .LVU33
 213 001c FFF7FEFF 		bl	delay		@
 214              	.LVL6:
  64:user/main.c   **** 	{
 215              		.loc 1 64 11 discriminator 1 view .LVU34
 216 0020 F5E7     		b	.L8		@
 217              	.L10:
 218 0022 00BF     		.align	2
 219              	.L9:
 220 0024 000C0140 		.word	1073810432
 221 0028 40420F00 		.word	1000000
 222              		.cfi_endproc
 223              	.LFE2:
 224              		.size	main, .-main
 225              		.text
 226              	.Letext0: