ARM GAS  C:\Users\ADMINI~1\AppData\Local\Temp\ccdLdlM3.s 			page 1


   1              		.cpu cortex-m3
   2              		.arch armv7-m
   3              		.fpu softvfp
   4              		.eabi_attribute 20, 1	@ Tag_ABI_FP_denormal
   5              		.eabi_attribute 21, 1	@ Tag_ABI_FP_exceptions
   6              		.eabi_attribute 23, 3	@ Tag_ABI_FP_number_model
   7              		.eabi_attribute 24, 1	@ Tag_ABI_align8_needed
   8              		.eabi_attribute 25, 1	@ Tag_ABI_align8_preserved
   9              		.eabi_attribute 26, 1	@ Tag_ABI_enum_size
  10              		.eabi_attribute 30, 4	@ Tag_ABI_optimization_goals
  11              		.eabi_attribute 34, 1	@ Tag_CPU_unaligned_access
  12              		.eabi_attribute 18, 4	@ Tag_ABI_PCS_wchar_t
  13              		.file	"misc.c"
  14              	@ GNU C17 (GNU Arm Embedded Toolchain 10.3-2021.10) version 10.3.1 20210824 (release) (arm-none-eab
  15              	@	compiled by GNU C version 7.3-win32 20180312, GMP version 6.1.0, MPFR version 3.1.4, MPC version 
  16              	
  17              	@ GGC heuristics: --param ggc-min-expand=100 --param ggc-min-heapsize=131072
  18              	@ options passed:  -I . -I ./user -I ./stm32f10x_lib/CMSIS/CM3/CoreSupport
  19              	@ -I ./stm32f10x_lib/CMSIS/CM3/DeviceSupport/ST/STM32F10x
  20              	@ -I ./stm32f10x_lib/STM32F10x_StdPeriph_Driver/inc
  21              	@ -I ./stm32f10x_lib/STM32F10x_StdPeriph_Driver -I ./freertos/include
  22              	@ -I ./freertos/portable/GCC/ARM_CM3 -imultilib thumb/v7-m/nofp
  23              	@ -iprefix c:\program files (x86)\gnu arm embedded toolchain\10 2021.10\bin\../lib/gcc/arm-none-eab
  24              	@ -isysroot c:\program files (x86)\gnu arm embedded toolchain\10 2021.10\bin\../arm-none-eabi
  25              	@ -D__USES_INITFINI__ -D STM32F10X_MD -D USE_STDPERIPH_DRIVER
  26              	@ -D HSE_VALUE=8000000 -D RUN_FROM_FLASH=1
  27              	@ stm32f10x_lib/STM32F10x_StdPeriph_Driver/src/misc.c -mcpu=cortex-m3
  28              	@ -mthumb -mfloat-abi=soft -mlibarch=armv7-m -march=armv7-m
  29              	@ -auxbase-strip stm32f10x_lib/STM32F10x_StdPeriph_Driver/src/misc.o -g
  30              	@ -gdwarf-2 -Os -Wall -fomit-frame-pointer -fverbose-asm
  31              	@ options enabled:  -faggressive-loop-optimizations -fallocation-dce
  32              	@ -fauto-inc-dec -fbranch-count-reg -fcaller-saves -fcode-hoisting
  33              	@ -fcombine-stack-adjustments -fcompare-elim -fcprop-registers
  34              	@ -fcrossjumping -fcse-follow-jumps -fdefer-pop
  35              	@ -fdelete-null-pointer-checks -fdevirtualize -fdevirtualize-speculatively
  36              	@ -fdwarf2-cfi-asm -fearly-inlining -feliminate-unused-debug-symbols
  37              	@ -feliminate-unused-debug-types -fexpensive-optimizations
  38              	@ -fforward-propagate -ffp-int-builtin-inexact -ffunction-cse -fgcse
  39              	@ -fgcse-lm -fgnu-unique -fguess-branch-probability -fhoist-adjacent-loads
  40              	@ -fident -fif-conversion -fif-conversion2 -findirect-inlining -finline
  41              	@ -finline-atomics -finline-functions -finline-functions-called-once
  42              	@ -finline-small-functions -fipa-bit-cp -fipa-cp -fipa-icf
  43              	@ -fipa-icf-functions -fipa-icf-variables -fipa-profile -fipa-pure-const
  44              	@ -fipa-ra -fipa-reference -fipa-reference-addressable -fipa-sra
  45              	@ -fipa-stack-alignment -fipa-vrp -fira-hoist-pressure
  46              	@ -fira-share-save-slots -fira-share-spill-slots
  47              	@ -fisolate-erroneous-paths-dereference -fivopts -fkeep-static-consts
  48              	@ -fleading-underscore -flifetime-dse -flra-remat -fmath-errno
  49              	@ -fmerge-constants -fmerge-debug-strings -fmove-loop-invariants
  50              	@ -fomit-frame-pointer -foptimize-sibling-calls -fpartial-inlining
  51              	@ -fpeephole -fpeephole2 -fplt -fprefetch-loop-arrays -freg-struct-return
  52              	@ -freorder-blocks -freorder-functions -frerun-cse-after-loop
  53              	@ -fsched-critical-path-heuristic -fsched-dep-count-heuristic
  54              	@ -fsched-group-heuristic -fsched-interblock -fsched-last-insn-heuristic
  55              	@ -fsched-pressure -fsched-rank-heuristic -fsched-spec
  56              	@ -fsched-spec-insn-heuristic -fsched-stalled-insns-dep -fschedule-insns2
  57              	@ -fsection-anchors -fsemantic-interposition -fshow-column
ARM GAS  C:\Users\ADMINI~1\AppData\Local\Temp\ccdLdlM3.s 			page 2


  58              	@ -fshrink-wrap-separate -fsigned-zeros -fsplit-ivs-in-unroller
  59              	@ -fsplit-wide-types -fssa-backprop -fssa-phiopt -fstdarg-opt
  60              	@ -fstore-merging -fstrict-aliasing -fstrict-volatile-bitfields
  61              	@ -fsync-libcalls -fthread-jumps -ftoplevel-reorder -ftrapping-math
  62              	@ -ftree-bit-ccp -ftree-builtin-call-dce -ftree-ccp -ftree-ch
  63              	@ -ftree-coalesce-vars -ftree-copy-prop -ftree-cselim -ftree-dce
  64              	@ -ftree-dominator-opts -ftree-dse -ftree-forwprop -ftree-fre
  65              	@ -ftree-loop-distribute-patterns -ftree-loop-if-convert -ftree-loop-im
  66              	@ -ftree-loop-ivcanon -ftree-loop-optimize -ftree-parallelize-loops=
  67              	@ -ftree-phiprop -ftree-pre -ftree-pta -ftree-reassoc -ftree-scev-cprop
  68              	@ -ftree-sink -ftree-slsr -ftree-sra -ftree-switch-conversion
  69              	@ -ftree-tail-merge -ftree-ter -ftree-vrp -funit-at-a-time -fvar-tracking
  70              	@ -fvar-tracking-assignments -fverbose-asm -fzero-initialized-in-bss
  71              	@ -masm-syntax-unified -mbe32 -mfix-cortex-m3-ldrd -mlittle-endian
  72              	@ -mpic-data-is-text-relative -msched-prolog -mthumb -munaligned-access
  73              	@ -mvectorize-with-neon-quad
  74              	
  75              		.text
  76              	.Ltext0:
  77              		.cfi_sections	.debug_frame
  78              		.align	1
  79              		.global	NVIC_PriorityGroupConfig
  80              		.syntax unified
  81              		.thumb
  82              		.thumb_func
  83              		.type	NVIC_PriorityGroupConfig, %function
  84              	NVIC_PriorityGroupConfig:
  85              	.LVL0:
  86              	.LFB29:
  87              		.file 1 "stm32f10x_lib/STM32F10x_StdPeriph_Driver/src/misc.c"
   1:stm32f10x_lib/STM32F10x_StdPeriph_Driver/src/misc.c **** /**
   2:stm32f10x_lib/STM32F10x_StdPeriph_Driver/src/misc.c ****   ******************************************************************************
   3:stm32f10x_lib/STM32F10x_StdPeriph_Driver/src/misc.c ****   * @file    misc.c
   4:stm32f10x_lib/STM32F10x_StdPeriph_Driver/src/misc.c ****   * @author  MCD Application Team
   5:stm32f10x_lib/STM32F10x_StdPeriph_Driver/src/misc.c ****   * @version V3.5.0
   6:stm32f10x_lib/STM32F10x_StdPeriph_Driver/src/misc.c ****   * @date    11-March-2011
   7:stm32f10x_lib/STM32F10x_StdPeriph_Driver/src/misc.c ****   * @brief   This file provides all the miscellaneous firmware functions (add-on
   8:stm32f10x_lib/STM32F10x_StdPeriph_Driver/src/misc.c ****   *          to CMSIS functions).
   9:stm32f10x_lib/STM32F10x_StdPeriph_Driver/src/misc.c ****   ******************************************************************************
  10:stm32f10x_lib/STM32F10x_StdPeriph_Driver/src/misc.c ****   * @attention
  11:stm32f10x_lib/STM32F10x_StdPeriph_Driver/src/misc.c ****   *
  12:stm32f10x_lib/STM32F10x_StdPeriph_Driver/src/misc.c ****   * THE PRESENT FIRMWARE WHICH IS FOR GUIDANCE ONLY AIMS AT PROVIDING CUSTOMERS
  13:stm32f10x_lib/STM32F10x_StdPeriph_Driver/src/misc.c ****   * WITH CODING INFORMATION REGARDING THEIR PRODUCTS IN ORDER FOR THEM TO SAVE
  14:stm32f10x_lib/STM32F10x_StdPeriph_Driver/src/misc.c ****   * TIME. AS A RESULT, STMICROELECTRONICS SHALL NOT BE HELD LIABLE FOR ANY
  15:stm32f10x_lib/STM32F10x_StdPeriph_Driver/src/misc.c ****   * DIRECT, INDIRECT OR CONSEQUENTIAL DAMAGES WITH RESPECT TO ANY CLAIMS ARISING
  16:stm32f10x_lib/STM32F10x_StdPeriph_Driver/src/misc.c ****   * FROM THE CONTENT OF SUCH FIRMWARE AND/OR THE USE MADE BY CUSTOMERS OF THE
  17:stm32f10x_lib/STM32F10x_StdPeriph_Driver/src/misc.c ****   * CODING INFORMATION CONTAINED HEREIN IN CONNECTION WITH THEIR PRODUCTS.
  18:stm32f10x_lib/STM32F10x_StdPeriph_Driver/src/misc.c ****   *
  19:stm32f10x_lib/STM32F10x_StdPeriph_Driver/src/misc.c ****   * <h2><center>&copy; COPYRIGHT 2011 STMicroelectronics</center></h2>
  20:stm32f10x_lib/STM32F10x_StdPeriph_Driver/src/misc.c ****   ******************************************************************************
  21:stm32f10x_lib/STM32F10x_StdPeriph_Driver/src/misc.c ****   */
  22:stm32f10x_lib/STM32F10x_StdPeriph_Driver/src/misc.c **** 
  23:stm32f10x_lib/STM32F10x_StdPeriph_Driver/src/misc.c **** /* Includes ------------------------------------------------------------------*/
  24:stm32f10x_lib/STM32F10x_StdPeriph_Driver/src/misc.c **** #include "misc.h"
  25:stm32f10x_lib/STM32F10x_StdPeriph_Driver/src/misc.c **** 
  26:stm32f10x_lib/STM32F10x_StdPeriph_Driver/src/misc.c **** /** @addtogroup STM32F10x_StdPeriph_Driver
  27:stm32f10x_lib/STM32F10x_StdPeriph_Driver/src/misc.c ****   * @{
ARM GAS  C:\Users\ADMINI~1\AppData\Local\Temp\ccdLdlM3.s 			page 3


  28:stm32f10x_lib/STM32F10x_StdPeriph_Driver/src/misc.c ****   */
  29:stm32f10x_lib/STM32F10x_StdPeriph_Driver/src/misc.c **** 
  30:stm32f10x_lib/STM32F10x_StdPeriph_Driver/src/misc.c **** /** @defgroup MISC 
  31:stm32f10x_lib/STM32F10x_StdPeriph_Driver/src/misc.c ****   * @brief MISC driver modules
  32:stm32f10x_lib/STM32F10x_StdPeriph_Driver/src/misc.c ****   * @{
  33:stm32f10x_lib/STM32F10x_StdPeriph_Driver/src/misc.c ****   */
  34:stm32f10x_lib/STM32F10x_StdPeriph_Driver/src/misc.c **** 
  35:stm32f10x_lib/STM32F10x_StdPeriph_Driver/src/misc.c **** /** @defgroup MISC_Private_TypesDefinitions
  36:stm32f10x_lib/STM32F10x_StdPeriph_Driver/src/misc.c ****   * @{
  37:stm32f10x_lib/STM32F10x_StdPeriph_Driver/src/misc.c ****   */
  38:stm32f10x_lib/STM32F10x_StdPeriph_Driver/src/misc.c **** 
  39:stm32f10x_lib/STM32F10x_StdPeriph_Driver/src/misc.c **** /**
  40:stm32f10x_lib/STM32F10x_StdPeriph_Driver/src/misc.c ****   * @}
  41:stm32f10x_lib/STM32F10x_StdPeriph_Driver/src/misc.c ****   */ 
  42:stm32f10x_lib/STM32F10x_StdPeriph_Driver/src/misc.c **** 
  43:stm32f10x_lib/STM32F10x_StdPeriph_Driver/src/misc.c **** /** @defgroup MISC_Private_Defines
  44:stm32f10x_lib/STM32F10x_StdPeriph_Driver/src/misc.c ****   * @{
  45:stm32f10x_lib/STM32F10x_StdPeriph_Driver/src/misc.c ****   */
  46:stm32f10x_lib/STM32F10x_StdPeriph_Driver/src/misc.c **** 
  47:stm32f10x_lib/STM32F10x_StdPeriph_Driver/src/misc.c **** #define AIRCR_VECTKEY_MASK    ((uint32_t)0x05FA0000)
  48:stm32f10x_lib/STM32F10x_StdPeriph_Driver/src/misc.c **** /**
  49:stm32f10x_lib/STM32F10x_StdPeriph_Driver/src/misc.c ****   * @}
  50:stm32f10x_lib/STM32F10x_StdPeriph_Driver/src/misc.c ****   */
  51:stm32f10x_lib/STM32F10x_StdPeriph_Driver/src/misc.c **** 
  52:stm32f10x_lib/STM32F10x_StdPeriph_Driver/src/misc.c **** /** @defgroup MISC_Private_Macros
  53:stm32f10x_lib/STM32F10x_StdPeriph_Driver/src/misc.c ****   * @{
  54:stm32f10x_lib/STM32F10x_StdPeriph_Driver/src/misc.c ****   */
  55:stm32f10x_lib/STM32F10x_StdPeriph_Driver/src/misc.c **** 
  56:stm32f10x_lib/STM32F10x_StdPeriph_Driver/src/misc.c **** /**
  57:stm32f10x_lib/STM32F10x_StdPeriph_Driver/src/misc.c ****   * @}
  58:stm32f10x_lib/STM32F10x_StdPeriph_Driver/src/misc.c ****   */
  59:stm32f10x_lib/STM32F10x_StdPeriph_Driver/src/misc.c **** 
  60:stm32f10x_lib/STM32F10x_StdPeriph_Driver/src/misc.c **** /** @defgroup MISC_Private_Variables
  61:stm32f10x_lib/STM32F10x_StdPeriph_Driver/src/misc.c ****   * @{
  62:stm32f10x_lib/STM32F10x_StdPeriph_Driver/src/misc.c ****   */
  63:stm32f10x_lib/STM32F10x_StdPeriph_Driver/src/misc.c **** 
  64:stm32f10x_lib/STM32F10x_StdPeriph_Driver/src/misc.c **** /**
  65:stm32f10x_lib/STM32F10x_StdPeriph_Driver/src/misc.c ****   * @}
  66:stm32f10x_lib/STM32F10x_StdPeriph_Driver/src/misc.c ****   */
  67:stm32f10x_lib/STM32F10x_StdPeriph_Driver/src/misc.c **** 
  68:stm32f10x_lib/STM32F10x_StdPeriph_Driver/src/misc.c **** /** @defgroup MISC_Private_FunctionPrototypes
  69:stm32f10x_lib/STM32F10x_StdPeriph_Driver/src/misc.c ****   * @{
  70:stm32f10x_lib/STM32F10x_StdPeriph_Driver/src/misc.c ****   */
  71:stm32f10x_lib/STM32F10x_StdPeriph_Driver/src/misc.c **** 
  72:stm32f10x_lib/STM32F10x_StdPeriph_Driver/src/misc.c **** /**
  73:stm32f10x_lib/STM32F10x_StdPeriph_Driver/src/misc.c ****   * @}
  74:stm32f10x_lib/STM32F10x_StdPeriph_Driver/src/misc.c ****   */
  75:stm32f10x_lib/STM32F10x_StdPeriph_Driver/src/misc.c **** 
  76:stm32f10x_lib/STM32F10x_StdPeriph_Driver/src/misc.c **** /** @defgroup MISC_Private_Functions
  77:stm32f10x_lib/STM32F10x_StdPeriph_Driver/src/misc.c ****   * @{
  78:stm32f10x_lib/STM32F10x_StdPeriph_Driver/src/misc.c ****   */
  79:stm32f10x_lib/STM32F10x_StdPeriph_Driver/src/misc.c **** 
  80:stm32f10x_lib/STM32F10x_StdPeriph_Driver/src/misc.c **** /**
  81:stm32f10x_lib/STM32F10x_StdPeriph_Driver/src/misc.c ****   * @brief  Configures the priority grouping: pre-emption priority and subpriority.
  82:stm32f10x_lib/STM32F10x_StdPeriph_Driver/src/misc.c ****   * @param  NVIC_PriorityGroup: specifies the priority grouping bits length. 
  83:stm32f10x_lib/STM32F10x_StdPeriph_Driver/src/misc.c ****   *   This parameter can be one of the following values:
  84:stm32f10x_lib/STM32F10x_StdPeriph_Driver/src/misc.c ****   *     @arg NVIC_PriorityGroup_0: 0 bits for pre-emption priority
ARM GAS  C:\Users\ADMINI~1\AppData\Local\Temp\ccdLdlM3.s 			page 4


  85:stm32f10x_lib/STM32F10x_StdPeriph_Driver/src/misc.c ****   *                                4 bits for subpriority
  86:stm32f10x_lib/STM32F10x_StdPeriph_Driver/src/misc.c ****   *     @arg NVIC_PriorityGroup_1: 1 bits for pre-emption priority
  87:stm32f10x_lib/STM32F10x_StdPeriph_Driver/src/misc.c ****   *                                3 bits for subpriority
  88:stm32f10x_lib/STM32F10x_StdPeriph_Driver/src/misc.c ****   *     @arg NVIC_PriorityGroup_2: 2 bits for pre-emption priority
  89:stm32f10x_lib/STM32F10x_StdPeriph_Driver/src/misc.c ****   *                                2 bits for subpriority
  90:stm32f10x_lib/STM32F10x_StdPeriph_Driver/src/misc.c ****   *     @arg NVIC_PriorityGroup_3: 3 bits for pre-emption priority
  91:stm32f10x_lib/STM32F10x_StdPeriph_Driver/src/misc.c ****   *                                1 bits for subpriority
  92:stm32f10x_lib/STM32F10x_StdPeriph_Driver/src/misc.c ****   *     @arg NVIC_PriorityGroup_4: 4 bits for pre-emption priority
  93:stm32f10x_lib/STM32F10x_StdPeriph_Driver/src/misc.c ****   *                                0 bits for subpriority
  94:stm32f10x_lib/STM32F10x_StdPeriph_Driver/src/misc.c ****   * @retval None
  95:stm32f10x_lib/STM32F10x_StdPeriph_Driver/src/misc.c ****   */
  96:stm32f10x_lib/STM32F10x_StdPeriph_Driver/src/misc.c **** void NVIC_PriorityGroupConfig(uint32_t NVIC_PriorityGroup)
  97:stm32f10x_lib/STM32F10x_StdPeriph_Driver/src/misc.c **** {
  88              		.loc 1 97 1 view -0
  89              		.cfi_startproc
  90              		@ args = 0, pretend = 0, frame = 0
  91              		@ frame_needed = 0, uses_anonymous_args = 0
  92              		@ link register save eliminated.
  98:stm32f10x_lib/STM32F10x_StdPeriph_Driver/src/misc.c ****   /* Check the parameters */
  99:stm32f10x_lib/STM32F10x_StdPeriph_Driver/src/misc.c ****   assert_param(IS_NVIC_PRIORITY_GROUP(NVIC_PriorityGroup));
  93              		.loc 1 99 3 view .LVU1
 100:stm32f10x_lib/STM32F10x_StdPeriph_Driver/src/misc.c ****   
 101:stm32f10x_lib/STM32F10x_StdPeriph_Driver/src/misc.c ****   /* Set the PRIGROUP[10:8] bits according to NVIC_PriorityGroup value */
 102:stm32f10x_lib/STM32F10x_StdPeriph_Driver/src/misc.c ****   SCB->AIRCR = AIRCR_VECTKEY_MASK | NVIC_PriorityGroup;
  94              		.loc 1 102 3 view .LVU2
  95              	@ stm32f10x_lib/STM32F10x_StdPeriph_Driver/src/misc.c:102:   SCB->AIRCR = AIRCR_VECTKEY_MASK | NVIC
  96              		.loc 1 102 14 is_stmt 0 view .LVU3
  97 0000 034B     		ldr	r3, .L2	@ tmp116,
  98              	@ stm32f10x_lib/STM32F10x_StdPeriph_Driver/src/misc.c:102:   SCB->AIRCR = AIRCR_VECTKEY_MASK | NVIC
  99              		.loc 1 102 35 view .LVU4
 100 0002 40F0BF60 		orr	r0, r0, #100139008	@ _1, tmp117,
 101              	.LVL1:
 102              		.loc 1 102 35 view .LVU5
 103 0006 40F40030 		orr	r0, r0, #131072	@ _1, _1,
 104              	@ stm32f10x_lib/STM32F10x_StdPeriph_Driver/src/misc.c:102:   SCB->AIRCR = AIRCR_VECTKEY_MASK | NVIC
 105              		.loc 1 102 14 view .LVU6
 106 000a D860     		str	r0, [r3, #12]	@ _1, MEM[(struct SCB_Type *)3758157056B].AIRCR
 107              	@ stm32f10x_lib/STM32F10x_StdPeriph_Driver/src/misc.c:103: }
 103:stm32f10x_lib/STM32F10x_StdPeriph_Driver/src/misc.c **** }
 108              		.loc 1 103 1 view .LVU7
 109 000c 7047     		bx	lr	@
 110              	.L3:
 111 000e 00BF     		.align	2
 112              	.L2:
 113 0010 00ED00E0 		.word	-536810240
 114              		.cfi_endproc
 115              	.LFE29:
 116              		.size	NVIC_PriorityGroupConfig, .-NVIC_PriorityGroupConfig
 117              		.align	1
 118              		.global	NVIC_Init
 119              		.syntax unified
 120              		.thumb
 121              		.thumb_func
 122              		.type	NVIC_Init, %function
 123              	NVIC_Init:
 124              	.LVL2:
 125              	.LFB30:
ARM GAS  C:\Users\ADMINI~1\AppData\Local\Temp\ccdLdlM3.s 			page 5


 104:stm32f10x_lib/STM32F10x_StdPeriph_Driver/src/misc.c **** 
 105:stm32f10x_lib/STM32F10x_StdPeriph_Driver/src/misc.c **** /**
 106:stm32f10x_lib/STM32F10x_StdPeriph_Driver/src/misc.c ****   * @brief  Initializes the NVIC peripheral according to the specified
 107:stm32f10x_lib/STM32F10x_StdPeriph_Driver/src/misc.c ****   *         parameters in the NVIC_InitStruct.
 108:stm32f10x_lib/STM32F10x_StdPeriph_Driver/src/misc.c ****   * @param  NVIC_InitStruct: pointer to a NVIC_InitTypeDef structure that contains
 109:stm32f10x_lib/STM32F10x_StdPeriph_Driver/src/misc.c ****   *         the configuration information for the specified NVIC peripheral.
 110:stm32f10x_lib/STM32F10x_StdPeriph_Driver/src/misc.c ****   * @retval None
 111:stm32f10x_lib/STM32F10x_StdPeriph_Driver/src/misc.c ****   */
 112:stm32f10x_lib/STM32F10x_StdPeriph_Driver/src/misc.c **** void NVIC_Init(NVIC_InitTypeDef* NVIC_InitStruct)
 113:stm32f10x_lib/STM32F10x_StdPeriph_Driver/src/misc.c **** {
 126              		.loc 1 113 1 is_stmt 1 view -0
 127              		.cfi_startproc
 128              		@ args = 0, pretend = 0, frame = 0
 129              		@ frame_needed = 0, uses_anonymous_args = 0
 114:stm32f10x_lib/STM32F10x_StdPeriph_Driver/src/misc.c ****   uint32_t tmppriority = 0x00, tmppre = 0x00, tmpsub = 0x0F;
 130              		.loc 1 114 3 view .LVU9
 115:stm32f10x_lib/STM32F10x_StdPeriph_Driver/src/misc.c ****   
 116:stm32f10x_lib/STM32F10x_StdPeriph_Driver/src/misc.c ****   /* Check the parameters */
 117:stm32f10x_lib/STM32F10x_StdPeriph_Driver/src/misc.c ****   assert_param(IS_FUNCTIONAL_STATE(NVIC_InitStruct->NVIC_IRQChannelCmd));
 131              		.loc 1 117 3 view .LVU10
 118:stm32f10x_lib/STM32F10x_StdPeriph_Driver/src/misc.c ****   assert_param(IS_NVIC_PREEMPTION_PRIORITY(NVIC_InitStruct->NVIC_IRQChannelPreemptionPriority));  
 132              		.loc 1 118 3 view .LVU11
 119:stm32f10x_lib/STM32F10x_StdPeriph_Driver/src/misc.c ****   assert_param(IS_NVIC_SUB_PRIORITY(NVIC_InitStruct->NVIC_IRQChannelSubPriority));
 133              		.loc 1 119 3 view .LVU12
 120:stm32f10x_lib/STM32F10x_StdPeriph_Driver/src/misc.c ****     
 121:stm32f10x_lib/STM32F10x_StdPeriph_Driver/src/misc.c ****   if (NVIC_InitStruct->NVIC_IRQChannelCmd != DISABLE)
 134              		.loc 1 121 3 view .LVU13
 135              	@ stm32f10x_lib/STM32F10x_StdPeriph_Driver/src/misc.c:113: {
 113:stm32f10x_lib/STM32F10x_StdPeriph_Driver/src/misc.c ****   uint32_t tmppriority = 0x00, tmppre = 0x00, tmpsub = 0x0F;
 136              		.loc 1 113 1 is_stmt 0 view .LVU14
 137 0014 70B5     		push	{r4, r5, r6, lr}	@
 138              	.LCFI0:
 139              		.cfi_def_cfa_offset 16
 140              		.cfi_offset 4, -16
 141              		.cfi_offset 5, -12
 142              		.cfi_offset 6, -8
 143              		.cfi_offset 14, -4
 144              	@ stm32f10x_lib/STM32F10x_StdPeriph_Driver/src/misc.c:136:       (uint32_t)0x01 << (NVIC_InitStruct
 122:stm32f10x_lib/STM32F10x_StdPeriph_Driver/src/misc.c ****   {
 123:stm32f10x_lib/STM32F10x_StdPeriph_Driver/src/misc.c ****     /* Compute the Corresponding IRQ Priority --------------------------------*/    
 124:stm32f10x_lib/STM32F10x_StdPeriph_Driver/src/misc.c ****     tmppriority = (0x700 - ((SCB->AIRCR) & (uint32_t)0x700))>> 0x08;
 125:stm32f10x_lib/STM32F10x_StdPeriph_Driver/src/misc.c ****     tmppre = (0x4 - tmppriority);
 126:stm32f10x_lib/STM32F10x_StdPeriph_Driver/src/misc.c ****     tmpsub = tmpsub >> tmppriority;
 127:stm32f10x_lib/STM32F10x_StdPeriph_Driver/src/misc.c **** 
 128:stm32f10x_lib/STM32F10x_StdPeriph_Driver/src/misc.c ****     tmppriority = (uint32_t)NVIC_InitStruct->NVIC_IRQChannelPreemptionPriority << tmppre;
 129:stm32f10x_lib/STM32F10x_StdPeriph_Driver/src/misc.c ****     tmppriority |=  NVIC_InitStruct->NVIC_IRQChannelSubPriority & tmpsub;
 130:stm32f10x_lib/STM32F10x_StdPeriph_Driver/src/misc.c ****     tmppriority = tmppriority << 0x04;
 131:stm32f10x_lib/STM32F10x_StdPeriph_Driver/src/misc.c ****         
 132:stm32f10x_lib/STM32F10x_StdPeriph_Driver/src/misc.c ****     NVIC->IP[NVIC_InitStruct->NVIC_IRQChannel] = tmppriority;
 133:stm32f10x_lib/STM32F10x_StdPeriph_Driver/src/misc.c ****     
 134:stm32f10x_lib/STM32F10x_StdPeriph_Driver/src/misc.c ****     /* Enable the Selected IRQ Channels --------------------------------------*/
 135:stm32f10x_lib/STM32F10x_StdPeriph_Driver/src/misc.c ****     NVIC->ISER[NVIC_InitStruct->NVIC_IRQChannel >> 0x05] =
 136:stm32f10x_lib/STM32F10x_StdPeriph_Driver/src/misc.c ****       (uint32_t)0x01 << (NVIC_InitStruct->NVIC_IRQChannel & (uint8_t)0x1F);
 145              		.loc 1 136 22 view .LVU15
 146 0016 0125     		movs	r5, #1	@ tmp140,
 147              	@ stm32f10x_lib/STM32F10x_StdPeriph_Driver/src/misc.c:132:     NVIC->IP[NVIC_InitStruct->NVIC_IRQCh
 132:stm32f10x_lib/STM32F10x_StdPeriph_Driver/src/misc.c ****     
ARM GAS  C:\Users\ADMINI~1\AppData\Local\Temp\ccdLdlM3.s 			page 6


 148              		.loc 1 132 29 view .LVU16
 149 0018 0178     		ldrb	r1, [r0]	@ zero_extendqisi2	@ pretmp_36, NVIC_InitStruct_26(D)->NVIC_IRQChannel
 150              	@ stm32f10x_lib/STM32F10x_StdPeriph_Driver/src/misc.c:136:       (uint32_t)0x01 << (NVIC_InitStruct
 151              		.loc 1 136 59 view .LVU17
 152 001a 01F01F03 		and	r3, r1, #31	@ tmp139, pretmp_36,
 153              	@ stm32f10x_lib/STM32F10x_StdPeriph_Driver/src/misc.c:136:       (uint32_t)0x01 << (NVIC_InitStruct
 154              		.loc 1 136 22 view .LVU18
 155 001e 9D40     		lsls	r5, r5, r3	@ _41, tmp140, tmp139
 156              	@ stm32f10x_lib/STM32F10x_StdPeriph_Driver/src/misc.c:121:   if (NVIC_InitStruct->NVIC_IRQChannelCm
 121:stm32f10x_lib/STM32F10x_StdPeriph_Driver/src/misc.c ****   {
 157              		.loc 1 121 6 view .LVU19
 158 0020 C378     		ldrb	r3, [r0, #3]	@ zero_extendqisi2	@ NVIC_InitStruct_26(D)->NVIC_IRQChannelCmd, NVIC_InitStruct_
 159              	@ stm32f10x_lib/STM32F10x_StdPeriph_Driver/src/misc.c:135:     NVIC->ISER[NVIC_InitStruct->NVIC_IRQ
 135:stm32f10x_lib/STM32F10x_StdPeriph_Driver/src/misc.c ****       (uint32_t)0x01 << (NVIC_InitStruct->NVIC_IRQChannel & (uint8_t)0x1F);
 160              		.loc 1 135 49 view .LVU20
 161 0022 4C09     		lsrs	r4, r1, #5	@ _40, pretmp_36,
 162              	@ stm32f10x_lib/STM32F10x_StdPeriph_Driver/src/misc.c:121:   if (NVIC_InitStruct->NVIC_IRQChannelCm
 121:stm32f10x_lib/STM32F10x_StdPeriph_Driver/src/misc.c ****   {
 163              		.loc 1 121 6 view .LVU21
 164 0024 C3B1     		cbz	r3, .L5	@ NVIC_InitStruct_26(D)->NVIC_IRQChannelCmd,
 124:stm32f10x_lib/STM32F10x_StdPeriph_Driver/src/misc.c ****     tmppre = (0x4 - tmppriority);
 165              		.loc 1 124 5 is_stmt 1 view .LVU22
 166              	@ stm32f10x_lib/STM32F10x_StdPeriph_Driver/src/misc.c:124:     tmppriority = (0x700 - ((SCB->AIRCR)
 124:stm32f10x_lib/STM32F10x_StdPeriph_Driver/src/misc.c ****     tmppre = (0x4 - tmppriority);
 167              		.loc 1 124 33 is_stmt 0 view .LVU23
 168 0026 0F4B     		ldr	r3, .L7	@ tmp142,
 169 0028 DA68     		ldr	r2, [r3, #12]	@ _2, MEM[(struct SCB_Type *)3758157056B].AIRCR
 170              	@ stm32f10x_lib/STM32F10x_StdPeriph_Driver/src/misc.c:128:     tmppriority = (uint32_t)NVIC_InitStr
 128:stm32f10x_lib/STM32F10x_StdPeriph_Driver/src/misc.c ****     tmppriority |=  NVIC_InitStruct->NVIC_IRQChannelSubPriority & tmpsub;
 171              		.loc 1 128 19 view .LVU24
 172 002a 4378     		ldrb	r3, [r0, #1]	@ zero_extendqisi2	@ NVIC_InitStruct_26(D)->NVIC_IRQChannelPreemptionPriority, N
 173              	@ stm32f10x_lib/STM32F10x_StdPeriph_Driver/src/misc.c:124:     tmppriority = (0x700 - ((SCB->AIRCR)
 124:stm32f10x_lib/STM32F10x_StdPeriph_Driver/src/misc.c ****     tmppre = (0x4 - tmppriority);
 174              		.loc 1 124 26 view .LVU25
 175 002c D243     		mvns	r2, r2	@ tmp143, _2
 176              	@ stm32f10x_lib/STM32F10x_StdPeriph_Driver/src/misc.c:124:     tmppriority = (0x700 - ((SCB->AIRCR)
 124:stm32f10x_lib/STM32F10x_StdPeriph_Driver/src/misc.c ****     tmppre = (0x4 - tmppriority);
 177              		.loc 1 124 17 view .LVU26
 178 002e C2F30222 		ubfx	r2, r2, #8, #3	@ tmppriority, tmp143,,
 179              	.LVL3:
 125:stm32f10x_lib/STM32F10x_StdPeriph_Driver/src/misc.c ****     tmpsub = tmpsub >> tmppriority;
 180              		.loc 1 125 5 is_stmt 1 view .LVU27
 181              	@ stm32f10x_lib/STM32F10x_StdPeriph_Driver/src/misc.c:125:     tmppre = (0x4 - tmppriority);
 125:stm32f10x_lib/STM32F10x_StdPeriph_Driver/src/misc.c ****     tmpsub = tmpsub >> tmppriority;
 182              		.loc 1 125 12 is_stmt 0 view .LVU28
 183 0032 C2F10406 		rsb	r6, r2, #4	@ tmppre, tmppriority,
 184              	.LVL4:
 126:stm32f10x_lib/STM32F10x_StdPeriph_Driver/src/misc.c **** 
 185              		.loc 1 126 5 is_stmt 1 view .LVU29
 128:stm32f10x_lib/STM32F10x_StdPeriph_Driver/src/misc.c ****     tmppriority |=  NVIC_InitStruct->NVIC_IRQChannelSubPriority & tmpsub;
 186              		.loc 1 128 5 view .LVU30
 187              	@ stm32f10x_lib/STM32F10x_StdPeriph_Driver/src/misc.c:128:     tmppriority = (uint32_t)NVIC_InitStr
 128:stm32f10x_lib/STM32F10x_StdPeriph_Driver/src/misc.c ****     tmppriority |=  NVIC_InitStruct->NVIC_IRQChannelSubPriority & tmpsub;
 188              		.loc 1 128 17 is_stmt 0 view .LVU31
 189 0036 03FA06F6 		lsl	r6, r3, r6	@ tmppriority, NVIC_InitStruct_26(D)->NVIC_IRQChannelPreemptionPriority, tmppre
 190              	.LVL5:
 129:stm32f10x_lib/STM32F10x_StdPeriph_Driver/src/misc.c ****     tmppriority = tmppriority << 0x04;
ARM GAS  C:\Users\ADMINI~1\AppData\Local\Temp\ccdLdlM3.s 			page 7


 191              		.loc 1 129 5 is_stmt 1 view .LVU32
 192              	@ stm32f10x_lib/STM32F10x_StdPeriph_Driver/src/misc.c:129:     tmppriority |=  NVIC_InitStruct->NVI
 129:stm32f10x_lib/STM32F10x_StdPeriph_Driver/src/misc.c ****     tmppriority = tmppriority << 0x04;
 193              		.loc 1 129 36 is_stmt 0 view .LVU33
 194 003a 8378     		ldrb	r3, [r0, #2]	@ zero_extendqisi2	@ NVIC_InitStruct_26(D)->NVIC_IRQChannelSubPriority, NVIC_Ini
 195              	@ stm32f10x_lib/STM32F10x_StdPeriph_Driver/src/misc.c:126:     tmpsub = tmpsub >> tmppriority;
 126:stm32f10x_lib/STM32F10x_StdPeriph_Driver/src/misc.c **** 
 196              		.loc 1 126 12 view .LVU34
 197 003c 0F20     		movs	r0, #15	@ tmp148,
 198              	.LVL6:
 126:stm32f10x_lib/STM32F10x_StdPeriph_Driver/src/misc.c **** 
 199              		.loc 1 126 12 view .LVU35
 200 003e 20FA02F2 		lsr	r2, r0, r2	@ tmpsub, tmp148, tmppriority
 201              	.LVL7:
 202              	@ stm32f10x_lib/STM32F10x_StdPeriph_Driver/src/misc.c:129:     tmppriority |=  NVIC_InitStruct->NVI
 129:stm32f10x_lib/STM32F10x_StdPeriph_Driver/src/misc.c ****     tmppriority = tmppriority << 0x04;
 203              		.loc 1 129 65 view .LVU36
 204 0042 1340     		ands	r3, r3, r2	@, _9, NVIC_InitStruct_26(D)->NVIC_IRQChannelSubPriority, tmpsub
 205              	@ stm32f10x_lib/STM32F10x_StdPeriph_Driver/src/misc.c:129:     tmppriority |=  NVIC_InitStruct->NVI
 129:stm32f10x_lib/STM32F10x_StdPeriph_Driver/src/misc.c ****     tmppriority = tmppriority << 0x04;
 206              		.loc 1 129 17 view .LVU37
 207 0044 3343     		orrs	r3, r3, r6	@, tmppriority, _9, tmppriority
 208              	.LVL8:
 130:stm32f10x_lib/STM32F10x_StdPeriph_Driver/src/misc.c ****         
 209              		.loc 1 130 5 is_stmt 1 view .LVU38
 132:stm32f10x_lib/STM32F10x_StdPeriph_Driver/src/misc.c ****     
 210              		.loc 1 132 5 view .LVU39
 211              	@ stm32f10x_lib/STM32F10x_StdPeriph_Driver/src/misc.c:132:     NVIC->IP[NVIC_InitStruct->NVIC_IRQCh
 132:stm32f10x_lib/STM32F10x_StdPeriph_Driver/src/misc.c ****     
 212              		.loc 1 132 48 is_stmt 0 view .LVU40
 213 0046 084A     		ldr	r2, .L7+4	@ tmp150,
 214              	.LVL9:
 215              	@ stm32f10x_lib/STM32F10x_StdPeriph_Driver/src/misc.c:130:     tmppriority = tmppriority << 0x04;
 130:stm32f10x_lib/STM32F10x_StdPeriph_Driver/src/misc.c ****         
 216              		.loc 1 130 17 view .LVU41
 217 0048 1B01     		lsls	r3, r3, #4	@ tmppriority, tmppriority,
 218              	.LVL10:
 219              	@ stm32f10x_lib/STM32F10x_StdPeriph_Driver/src/misc.c:132:     NVIC->IP[NVIC_InitStruct->NVIC_IRQCh
 132:stm32f10x_lib/STM32F10x_StdPeriph_Driver/src/misc.c ****     
 220              		.loc 1 132 48 view .LVU42
 221 004a DBB2     		uxtb	r3, r3	@ _12, tmppriority
 222              	.LVL11:
 132:stm32f10x_lib/STM32F10x_StdPeriph_Driver/src/misc.c ****     
 223              		.loc 1 132 48 view .LVU43
 224 004c 1144     		add	r1, r1, r2	@ tmp151, tmp150
 225 004e 81F80033 		strb	r3, [r1, #768]	@ _12, MEM[(struct NVIC_Type *)3758153984B].IP[_11]
 135:stm32f10x_lib/STM32F10x_StdPeriph_Driver/src/misc.c ****       (uint32_t)0x01 << (NVIC_InitStruct->NVIC_IRQChannel & (uint8_t)0x1F);
 226              		.loc 1 135 5 is_stmt 1 view .LVU44
 227              	@ stm32f10x_lib/STM32F10x_StdPeriph_Driver/src/misc.c:135:     NVIC->ISER[NVIC_InitStruct->NVIC_IRQ
 135:stm32f10x_lib/STM32F10x_StdPeriph_Driver/src/misc.c ****       (uint32_t)0x01 << (NVIC_InitStruct->NVIC_IRQChannel & (uint8_t)0x1F);
 228              		.loc 1 135 58 is_stmt 0 view .LVU45
 229 0052 42F82450 		str	r5, [r2, r4, lsl #2]	@ _41, MEM[(struct NVIC_Type *)3758153984B].ISER[_40]
 230              	.L4:
 231              	@ stm32f10x_lib/STM32F10x_StdPeriph_Driver/src/misc.c:144: }
 137:stm32f10x_lib/STM32F10x_StdPeriph_Driver/src/misc.c ****   }
 138:stm32f10x_lib/STM32F10x_StdPeriph_Driver/src/misc.c ****   else
 139:stm32f10x_lib/STM32F10x_StdPeriph_Driver/src/misc.c ****   {
ARM GAS  C:\Users\ADMINI~1\AppData\Local\Temp\ccdLdlM3.s 			page 8


 140:stm32f10x_lib/STM32F10x_StdPeriph_Driver/src/misc.c ****     /* Disable the Selected IRQ Channels -------------------------------------*/
 141:stm32f10x_lib/STM32F10x_StdPeriph_Driver/src/misc.c ****     NVIC->ICER[NVIC_InitStruct->NVIC_IRQChannel >> 0x05] =
 142:stm32f10x_lib/STM32F10x_StdPeriph_Driver/src/misc.c ****       (uint32_t)0x01 << (NVIC_InitStruct->NVIC_IRQChannel & (uint8_t)0x1F);
 143:stm32f10x_lib/STM32F10x_StdPeriph_Driver/src/misc.c ****   }
 144:stm32f10x_lib/STM32F10x_StdPeriph_Driver/src/misc.c **** }
 232              		.loc 1 144 1 view .LVU46
 233 0056 70BD     		pop	{r4, r5, r6, pc}	@
 234              	.LVL12:
 235              	.L5:
 141:stm32f10x_lib/STM32F10x_StdPeriph_Driver/src/misc.c ****       (uint32_t)0x01 << (NVIC_InitStruct->NVIC_IRQChannel & (uint8_t)0x1F);
 236              		.loc 1 141 5 is_stmt 1 view .LVU47
 237              	@ stm32f10x_lib/STM32F10x_StdPeriph_Driver/src/misc.c:141:     NVIC->ICER[NVIC_InitStruct->NVIC_IRQ
 141:stm32f10x_lib/STM32F10x_StdPeriph_Driver/src/misc.c ****       (uint32_t)0x01 << (NVIC_InitStruct->NVIC_IRQChannel & (uint8_t)0x1F);
 238              		.loc 1 141 58 is_stmt 0 view .LVU48
 239 0058 034B     		ldr	r3, .L7+4	@ tmp154,
 240 005a 2034     		adds	r4, r4, #32	@ tmp155, _40,
 241 005c 43F82450 		str	r5, [r3, r4, lsl #2]	@ _41, MEM[(struct NVIC_Type *)3758153984B].ICER[_40]
 242              	@ stm32f10x_lib/STM32F10x_StdPeriph_Driver/src/misc.c:144: }
 243              		.loc 1 144 1 view .LVU49
 244 0060 F9E7     		b	.L4		@
 245              	.L8:
 246 0062 00BF     		.align	2
 247              	.L7:
 248 0064 00ED00E0 		.word	-536810240
 249 0068 00E100E0 		.word	-536813312
 250              		.cfi_endproc
 251              	.LFE30:
 252              		.size	NVIC_Init, .-NVIC_Init
 253              		.align	1
 254              		.global	NVIC_SetVectorTable
 255              		.syntax unified
 256              		.thumb
 257              		.thumb_func
 258              		.type	NVIC_SetVectorTable, %function
 259              	NVIC_SetVectorTable:
 260              	.LVL13:
 261              	.LFB31:
 145:stm32f10x_lib/STM32F10x_StdPeriph_Driver/src/misc.c **** 
 146:stm32f10x_lib/STM32F10x_StdPeriph_Driver/src/misc.c **** /**
 147:stm32f10x_lib/STM32F10x_StdPeriph_Driver/src/misc.c ****   * @brief  Sets the vector table location and Offset.
 148:stm32f10x_lib/STM32F10x_StdPeriph_Driver/src/misc.c ****   * @param  NVIC_VectTab: specifies if the vector table is in RAM or FLASH memory.
 149:stm32f10x_lib/STM32F10x_StdPeriph_Driver/src/misc.c ****   *   This parameter can be one of the following values:
 150:stm32f10x_lib/STM32F10x_StdPeriph_Driver/src/misc.c ****   *     @arg NVIC_VectTab_RAM
 151:stm32f10x_lib/STM32F10x_StdPeriph_Driver/src/misc.c ****   *     @arg NVIC_VectTab_FLASH
 152:stm32f10x_lib/STM32F10x_StdPeriph_Driver/src/misc.c ****   * @param  Offset: Vector Table base offset field. This value must be a multiple 
 153:stm32f10x_lib/STM32F10x_StdPeriph_Driver/src/misc.c ****   *         of 0x200.
 154:stm32f10x_lib/STM32F10x_StdPeriph_Driver/src/misc.c ****   * @retval None
 155:stm32f10x_lib/STM32F10x_StdPeriph_Driver/src/misc.c ****   */
 156:stm32f10x_lib/STM32F10x_StdPeriph_Driver/src/misc.c **** void NVIC_SetVectorTable(uint32_t NVIC_VectTab, uint32_t Offset)
 157:stm32f10x_lib/STM32F10x_StdPeriph_Driver/src/misc.c **** { 
 262              		.loc 1 157 1 is_stmt 1 view -0
 263              		.cfi_startproc
 264              		@ args = 0, pretend = 0, frame = 0
 265              		@ frame_needed = 0, uses_anonymous_args = 0
 266              		@ link register save eliminated.
 158:stm32f10x_lib/STM32F10x_StdPeriph_Driver/src/misc.c ****   /* Check the parameters */
 159:stm32f10x_lib/STM32F10x_StdPeriph_Driver/src/misc.c ****   assert_param(IS_NVIC_VECTTAB(NVIC_VectTab));
ARM GAS  C:\Users\ADMINI~1\AppData\Local\Temp\ccdLdlM3.s 			page 9


 267              		.loc 1 159 3 view .LVU51
 160:stm32f10x_lib/STM32F10x_StdPeriph_Driver/src/misc.c ****   assert_param(IS_NVIC_OFFSET(Offset));  
 268              		.loc 1 160 3 view .LVU52
 161:stm32f10x_lib/STM32F10x_StdPeriph_Driver/src/misc.c ****    
 162:stm32f10x_lib/STM32F10x_StdPeriph_Driver/src/misc.c ****   SCB->VTOR = NVIC_VectTab | (Offset & (uint32_t)0x1FFFFF80);
 269              		.loc 1 162 3 view .LVU53
 270              	@ stm32f10x_lib/STM32F10x_StdPeriph_Driver/src/misc.c:162:   SCB->VTOR = NVIC_VectTab | (Offset & (
 271              		.loc 1 162 38 is_stmt 0 view .LVU54
 272 006c 21F06041 		bic	r1, r1, #-536870912	@ tmp117, tmp121,
 273              	.LVL14:
 274              	@ stm32f10x_lib/STM32F10x_StdPeriph_Driver/src/misc.c:162:   SCB->VTOR = NVIC_VectTab | (Offset & (
 275              		.loc 1 162 13 view .LVU55
 276 0070 024B     		ldr	r3, .L10	@ tmp119,
 277              	@ stm32f10x_lib/STM32F10x_StdPeriph_Driver/src/misc.c:162:   SCB->VTOR = NVIC_VectTab | (Offset & (
 278              		.loc 1 162 38 view .LVU56
 279 0072 21F07F01 		bic	r1, r1, #127	@ tmp117, tmp117,
 280              	@ stm32f10x_lib/STM32F10x_StdPeriph_Driver/src/misc.c:162:   SCB->VTOR = NVIC_VectTab | (Offset & (
 281              		.loc 1 162 28 view .LVU57
 282 0076 0143     		orrs	r1, r1, r0	@, _2, tmp117, tmp120
 283              	@ stm32f10x_lib/STM32F10x_StdPeriph_Driver/src/misc.c:162:   SCB->VTOR = NVIC_VectTab | (Offset & (
 284              		.loc 1 162 13 view .LVU58
 285 0078 9960     		str	r1, [r3, #8]	@ _2, MEM[(struct SCB_Type *)3758157056B].VTOR
 286              	@ stm32f10x_lib/STM32F10x_StdPeriph_Driver/src/misc.c:163: }
 163:stm32f10x_lib/STM32F10x_StdPeriph_Driver/src/misc.c **** }
 287              		.loc 1 163 1 view .LVU59
 288 007a 7047     		bx	lr	@
 289              	.L11:
 290              		.align	2
 291              	.L10:
 292 007c 00ED00E0 		.word	-536810240
 293              		.cfi_endproc
 294              	.LFE31:
 295              		.size	NVIC_SetVectorTable, .-NVIC_SetVectorTable
 296              		.align	1
 297              		.global	NVIC_SystemLPConfig
 298              		.syntax unified
 299              		.thumb
 300              		.thumb_func
 301              		.type	NVIC_SystemLPConfig, %function
 302              	NVIC_SystemLPConfig:
 303              	.LVL15:
 304              	.LFB32:
 164:stm32f10x_lib/STM32F10x_StdPeriph_Driver/src/misc.c **** 
 165:stm32f10x_lib/STM32F10x_StdPeriph_Driver/src/misc.c **** /**
 166:stm32f10x_lib/STM32F10x_StdPeriph_Driver/src/misc.c ****   * @brief  Selects the condition for the system to enter low power mode.
 167:stm32f10x_lib/STM32F10x_StdPeriph_Driver/src/misc.c ****   * @param  LowPowerMode: Specifies the new mode for the system to enter low power mode.
 168:stm32f10x_lib/STM32F10x_StdPeriph_Driver/src/misc.c ****   *   This parameter can be one of the following values:
 169:stm32f10x_lib/STM32F10x_StdPeriph_Driver/src/misc.c ****   *     @arg NVIC_LP_SEVONPEND
 170:stm32f10x_lib/STM32F10x_StdPeriph_Driver/src/misc.c ****   *     @arg NVIC_LP_SLEEPDEEP
 171:stm32f10x_lib/STM32F10x_StdPeriph_Driver/src/misc.c ****   *     @arg NVIC_LP_SLEEPONEXIT
 172:stm32f10x_lib/STM32F10x_StdPeriph_Driver/src/misc.c ****   * @param  NewState: new state of LP condition. This parameter can be: ENABLE or DISABLE.
 173:stm32f10x_lib/STM32F10x_StdPeriph_Driver/src/misc.c ****   * @retval None
 174:stm32f10x_lib/STM32F10x_StdPeriph_Driver/src/misc.c ****   */
 175:stm32f10x_lib/STM32F10x_StdPeriph_Driver/src/misc.c **** void NVIC_SystemLPConfig(uint8_t LowPowerMode, FunctionalState NewState)
 176:stm32f10x_lib/STM32F10x_StdPeriph_Driver/src/misc.c **** {
 305              		.loc 1 176 1 is_stmt 1 view -0
 306              		.cfi_startproc
ARM GAS  C:\Users\ADMINI~1\AppData\Local\Temp\ccdLdlM3.s 			page 10


 307              		@ args = 0, pretend = 0, frame = 0
 308              		@ frame_needed = 0, uses_anonymous_args = 0
 309              		@ link register save eliminated.
 177:stm32f10x_lib/STM32F10x_StdPeriph_Driver/src/misc.c ****   /* Check the parameters */
 178:stm32f10x_lib/STM32F10x_StdPeriph_Driver/src/misc.c ****   assert_param(IS_NVIC_LP(LowPowerMode));
 310              		.loc 1 178 3 view .LVU61
 179:stm32f10x_lib/STM32F10x_StdPeriph_Driver/src/misc.c ****   assert_param(IS_FUNCTIONAL_STATE(NewState));  
 311              		.loc 1 179 3 view .LVU62
 180:stm32f10x_lib/STM32F10x_StdPeriph_Driver/src/misc.c ****   
 181:stm32f10x_lib/STM32F10x_StdPeriph_Driver/src/misc.c ****   if (NewState != DISABLE)
 312              		.loc 1 181 3 view .LVU63
 313 0080 044B     		ldr	r3, .L16	@ tmp126,
 314              	@ stm32f10x_lib/STM32F10x_StdPeriph_Driver/src/misc.c:183:     SCB->SCR |= LowPowerMode;
 182:stm32f10x_lib/STM32F10x_StdPeriph_Driver/src/misc.c ****   {
 183:stm32f10x_lib/STM32F10x_StdPeriph_Driver/src/misc.c ****     SCB->SCR |= LowPowerMode;
 315              		.loc 1 183 14 is_stmt 0 view .LVU64
 316 0082 1A69     		ldr	r2, [r3, #16]	@ _1,
 317              	@ stm32f10x_lib/STM32F10x_StdPeriph_Driver/src/misc.c:181:   if (NewState != DISABLE)
 181:stm32f10x_lib/STM32F10x_StdPeriph_Driver/src/misc.c ****   {
 318              		.loc 1 181 6 view .LVU65
 319 0084 11B1     		cbz	r1, .L13	@ tmp128,
 320              		.loc 1 183 5 is_stmt 1 view .LVU66
 321              	@ stm32f10x_lib/STM32F10x_StdPeriph_Driver/src/misc.c:183:     SCB->SCR |= LowPowerMode;
 322              		.loc 1 183 14 is_stmt 0 view .LVU67
 323 0086 1043     		orrs	r0, r0, r2	@, _3, LowPowerMode, _1
 324              	.LVL16:
 325              	.L15:
 326              	@ stm32f10x_lib/STM32F10x_StdPeriph_Driver/src/misc.c:187:     SCB->SCR &= (uint32_t)(~(uint32_t)Lo
 184:stm32f10x_lib/STM32F10x_StdPeriph_Driver/src/misc.c ****   }
 185:stm32f10x_lib/STM32F10x_StdPeriph_Driver/src/misc.c ****   else
 186:stm32f10x_lib/STM32F10x_StdPeriph_Driver/src/misc.c ****   {
 187:stm32f10x_lib/STM32F10x_StdPeriph_Driver/src/misc.c ****     SCB->SCR &= (uint32_t)(~(uint32_t)LowPowerMode);
 327              		.loc 1 187 14 view .LVU68
 328 0088 1861     		str	r0, [r3, #16]	@ _7,
 329              	@ stm32f10x_lib/STM32F10x_StdPeriph_Driver/src/misc.c:189: }
 188:stm32f10x_lib/STM32F10x_StdPeriph_Driver/src/misc.c ****   }
 189:stm32f10x_lib/STM32F10x_StdPeriph_Driver/src/misc.c **** }
 330              		.loc 1 189 1 view .LVU69
 331 008a 7047     		bx	lr	@
 332              	.LVL17:
 333              	.L13:
 187:stm32f10x_lib/STM32F10x_StdPeriph_Driver/src/misc.c ****   }
 334              		.loc 1 187 5 is_stmt 1 view .LVU70
 335              	@ stm32f10x_lib/STM32F10x_StdPeriph_Driver/src/misc.c:187:     SCB->SCR &= (uint32_t)(~(uint32_t)Lo
 187:stm32f10x_lib/STM32F10x_StdPeriph_Driver/src/misc.c ****   }
 336              		.loc 1 187 14 is_stmt 0 view .LVU71
 337 008c 22EA0000 		bic	r0, r2, r0	@ _7, _4, LowPowerMode
 338              	.LVL18:
 187:stm32f10x_lib/STM32F10x_StdPeriph_Driver/src/misc.c ****   }
 339              		.loc 1 187 14 view .LVU72
 340 0090 FAE7     		b	.L15		@
 341              	.L17:
 342 0092 00BF     		.align	2
 343              	.L16:
 344 0094 00ED00E0 		.word	-536810240
 345              		.cfi_endproc
 346              	.LFE32:
ARM GAS  C:\Users\ADMINI~1\AppData\Local\Temp\ccdLdlM3.s 			page 11


 347              		.size	NVIC_SystemLPConfig, .-NVIC_SystemLPConfig
 348              		.align	1
 349              		.global	SysTick_CLKSourceConfig
 350              		.syntax unified
 351              		.thumb
 352              		.thumb_func
 353              		.type	SysTick_CLKSourceConfig, %function
 354              	SysTick_CLKSourceConfig:
 355              	.LVL19:
 356              	.LFB33:
 190:stm32f10x_lib/STM32F10x_StdPeriph_Driver/src/misc.c **** 
 191:stm32f10x_lib/STM32F10x_StdPeriph_Driver/src/misc.c **** /**
 192:stm32f10x_lib/STM32F10x_StdPeriph_Driver/src/misc.c ****   * @brief  Configures the SysTick clock source.
 193:stm32f10x_lib/STM32F10x_StdPeriph_Driver/src/misc.c ****   * @param  SysTick_CLKSource: specifies the SysTick clock source.
 194:stm32f10x_lib/STM32F10x_StdPeriph_Driver/src/misc.c ****   *   This parameter can be one of the following values:
 195:stm32f10x_lib/STM32F10x_StdPeriph_Driver/src/misc.c ****   *     @arg SysTick_CLKSource_HCLK_Div8: AHB clock divided by 8 selected as SysTick clock source.
 196:stm32f10x_lib/STM32F10x_StdPeriph_Driver/src/misc.c ****   *     @arg SysTick_CLKSource_HCLK: AHB clock selected as SysTick clock source.
 197:stm32f10x_lib/STM32F10x_StdPeriph_Driver/src/misc.c ****   * @retval None
 198:stm32f10x_lib/STM32F10x_StdPeriph_Driver/src/misc.c ****   */
 199:stm32f10x_lib/STM32F10x_StdPeriph_Driver/src/misc.c **** void SysTick_CLKSourceConfig(uint32_t SysTick_CLKSource)
 200:stm32f10x_lib/STM32F10x_StdPeriph_Driver/src/misc.c **** {
 357              		.loc 1 200 1 is_stmt 1 view -0
 358              		.cfi_startproc
 359              		@ args = 0, pretend = 0, frame = 0
 360              		@ frame_needed = 0, uses_anonymous_args = 0
 361              		@ link register save eliminated.
 201:stm32f10x_lib/STM32F10x_StdPeriph_Driver/src/misc.c ****   /* Check the parameters */
 202:stm32f10x_lib/STM32F10x_StdPeriph_Driver/src/misc.c ****   assert_param(IS_SYSTICK_CLK_SOURCE(SysTick_CLKSource));
 362              		.loc 1 202 3 view .LVU74
 203:stm32f10x_lib/STM32F10x_StdPeriph_Driver/src/misc.c ****   if (SysTick_CLKSource == SysTick_CLKSource_HCLK)
 363              		.loc 1 203 3 view .LVU75
 364 0098 4FF0E023 		mov	r3, #-536813568	@ tmp122,
 365              	@ stm32f10x_lib/STM32F10x_StdPeriph_Driver/src/misc.c:205:     SysTick->CTRL |= SysTick_CLKSource_H
 204:stm32f10x_lib/STM32F10x_StdPeriph_Driver/src/misc.c ****   {
 205:stm32f10x_lib/STM32F10x_StdPeriph_Driver/src/misc.c ****     SysTick->CTRL |= SysTick_CLKSource_HCLK;
 366              		.loc 1 205 19 is_stmt 0 view .LVU76
 367 009c 1A69     		ldr	r2, [r3, #16]	@ _1,
 368              		.loc 1 205 5 is_stmt 1 view .LVU77
 369              	@ stm32f10x_lib/STM32F10x_StdPeriph_Driver/src/misc.c:203:   if (SysTick_CLKSource == SysTick_CLKSo
 203:stm32f10x_lib/STM32F10x_StdPeriph_Driver/src/misc.c ****   if (SysTick_CLKSource == SysTick_CLKSource_HCLK)
 370              		.loc 1 203 6 is_stmt 0 view .LVU78
 371 009e 0428     		cmp	r0, #4	@ tmp123,
 372              	@ stm32f10x_lib/STM32F10x_StdPeriph_Driver/src/misc.c:205:     SysTick->CTRL |= SysTick_CLKSource_H
 373              		.loc 1 205 19 view .LVU79
 374 00a0 0CBF     		ite	eq
 375 00a2 42F00402 		orreq	r2, r2, #4	@ _2, _1,
 206:stm32f10x_lib/STM32F10x_StdPeriph_Driver/src/misc.c ****   }
 207:stm32f10x_lib/STM32F10x_StdPeriph_Driver/src/misc.c ****   else
 208:stm32f10x_lib/STM32F10x_StdPeriph_Driver/src/misc.c ****   {
 209:stm32f10x_lib/STM32F10x_StdPeriph_Driver/src/misc.c ****     SysTick->CTRL &= SysTick_CLKSource_HCLK_Div8;
 376              		.loc 1 209 5 is_stmt 1 view .LVU80
 377              	@ stm32f10x_lib/STM32F10x_StdPeriph_Driver/src/misc.c:209:     SysTick->CTRL &= SysTick_CLKSource_H
 378              		.loc 1 209 19 is_stmt 0 view .LVU81
 379 00a6 22F00402 		bicne	r2, r2, #4	@ _4, _3,
 380 00aa 1A61     		str	r2, [r3, #16]	@ _4,
 381              	@ stm32f10x_lib/STM32F10x_StdPeriph_Driver/src/misc.c:211: }
 210:stm32f10x_lib/STM32F10x_StdPeriph_Driver/src/misc.c ****   }
ARM GAS  C:\Users\ADMINI~1\AppData\Local\Temp\ccdLdlM3.s 			page 12


 211:stm32f10x_lib/STM32F10x_StdPeriph_Driver/src/misc.c **** }
 382              		.loc 1 211 1 view .LVU82
 383 00ac 7047     		bx	lr	@
 384              		.cfi_endproc
 385              	.LFE33:
 386              		.size	SysTick_CLKSourceConfig, .-SysTick_CLKSourceConfig
 387              	.Letext0:
 388              		.file 2 "c:\\program files (x86)\\gnu arm embedded toolchain\\10 2021.10\\arm-none-eabi\\include\\
 389              		.file 3 "c:\\program files (x86)\\gnu arm embedded toolchain\\10 2021.10\\arm-none-eabi\\include\\
 390              		.file 4 "./stm32f10x_lib/CMSIS/CM3/CoreSupport/core_cm3.h"
 391              		.file 5 "./stm32f10x_lib/CMSIS/CM3/DeviceSupport/ST/STM32F10x/stm32f10x.h"
 392              		.file 6 "./stm32f10x_lib/STM32F10x_StdPeriph_Driver/inc/misc.h"
 393 00ae 00BF     		.section	.debug_info,"",%progbits
 394              	.Ldebug_info0:
 395 0000 8F050000 		.4byte	0x58f
 396 0004 0200     		.2byte	0x2
 397 0006 00000000 		.4byte	.Ldebug_abbrev0
 398 000a 04       		.byte	0x4
 399 000b 01       		.uleb128 0x1
 400 000c 52010000 		.4byte	.LASF66
 401 0010 0C       		.byte	0xc
 402 0011 81000000 		.4byte	.LASF67
 403 0015 C6000000 		.4byte	.LASF68
 404 0019 00000000 		.4byte	.Ltext0
 405 001d AE000000 		.4byte	.Letext0
 406 0021 00000000 		.4byte	.Ldebug_line0
 407 0025 02       		.uleb128 0x2
 408 0026 01       		.byte	0x1
 409 0027 06       		.byte	0x6
 410 0028 21020000 		.4byte	.LASF0
 411 002c 03       		.uleb128 0x3
 412 002d E0010000 		.4byte	.LASF5
 413 0031 02       		.byte	0x2
 414 0032 2B       		.byte	0x2b
 415 0033 18       		.byte	0x18
 416 0034 38000000 		.4byte	0x38
 417 0038 02       		.uleb128 0x2
 418 0039 01       		.byte	0x1
 419 003a 08       		.byte	0x8
 420 003b F5010000 		.4byte	.LASF1
 421 003f 02       		.uleb128 0x2
 422 0040 02       		.byte	0x2
 423 0041 05       		.byte	0x5
 424 0042 6D000000 		.4byte	.LASF2
 425 0046 02       		.uleb128 0x2
 426 0047 02       		.byte	0x2
 427 0048 07       		.byte	0x7
 428 0049 A2020000 		.4byte	.LASF3
 429 004d 02       		.uleb128 0x2
 430 004e 04       		.byte	0x4
 431 004f 05       		.byte	0x5
 432 0050 D7010000 		.4byte	.LASF4
 433 0054 03       		.uleb128 0x3
 434 0055 B5000000 		.4byte	.LASF6
 435 0059 02       		.byte	0x2
 436 005a 4F       		.byte	0x4f
 437 005b 19       		.byte	0x19
ARM GAS  C:\Users\ADMINI~1\AppData\Local\Temp\ccdLdlM3.s 			page 13


 438 005c 60000000 		.4byte	0x60
 439 0060 02       		.uleb128 0x2
 440 0061 04       		.byte	0x4
 441 0062 07       		.byte	0x7
 442 0063 41030000 		.4byte	.LASF7
 443 0067 02       		.uleb128 0x2
 444 0068 08       		.byte	0x8
 445 0069 05       		.byte	0x5
 446 006a 3D010000 		.4byte	.LASF8
 447 006e 02       		.uleb128 0x2
 448 006f 08       		.byte	0x8
 449 0070 07       		.byte	0x7
 450 0071 2D020000 		.4byte	.LASF9
 451 0075 04       		.uleb128 0x4
 452 0076 04       		.byte	0x4
 453 0077 05       		.byte	0x5
 454 0078 696E7400 		.ascii	"int\000"
 455 007c 02       		.uleb128 0x2
 456 007d 04       		.byte	0x4
 457 007e 07       		.byte	0x7
 458 007f 50020000 		.4byte	.LASF10
 459 0083 03       		.uleb128 0x3
 460 0084 08010000 		.4byte	.LASF11
 461 0088 03       		.byte	0x3
 462 0089 18       		.byte	0x18
 463 008a 13       		.byte	0x13
 464 008b 2C000000 		.4byte	0x2c
 465 008f 05       		.uleb128 0x5
 466 0090 83000000 		.4byte	0x83
 467 0094 03       		.uleb128 0x3
 468 0095 00000000 		.4byte	.LASF12
 469 0099 03       		.byte	0x3
 470 009a 30       		.byte	0x30
 471 009b 14       		.byte	0x14
 472 009c 54000000 		.4byte	0x54
 473 00a0 05       		.uleb128 0x5
 474 00a1 94000000 		.4byte	0x94
 475 00a5 06       		.uleb128 0x6
 476 00a6 A0000000 		.4byte	0xa0
 477 00aa 07       		.uleb128 0x7
 478 00ab 040E     		.2byte	0xe04
 479 00ad 04       		.byte	0x4
 480 00ae 84       		.byte	0x84
 481 00af 09       		.byte	0x9
 482 00b0 82010000 		.4byte	0x182
 483 00b4 08       		.uleb128 0x8
 484 00b5 05030000 		.4byte	.LASF13
 485 00b9 04       		.byte	0x4
 486 00ba 86       		.byte	0x86
 487 00bb 11       		.byte	0x11
 488 00bc 92010000 		.4byte	0x192
 489 00c0 02       		.byte	0x2
 490 00c1 23       		.byte	0x23
 491 00c2 00       		.uleb128 0
 492 00c3 08       		.uleb128 0x8
 493 00c4 0F030000 		.4byte	.LASF14
 494 00c8 04       		.byte	0x4
ARM GAS  C:\Users\ADMINI~1\AppData\Local\Temp\ccdLdlM3.s 			page 14


 495 00c9 87       		.byte	0x87
 496 00ca 11       		.byte	0x11
 497 00cb 97010000 		.4byte	0x197
 498 00cf 02       		.byte	0x2
 499 00d0 23       		.byte	0x23
 500 00d1 20       		.uleb128 0x20
 501 00d2 08       		.uleb128 0x8
 502 00d3 5D020000 		.4byte	.LASF15
 503 00d7 04       		.byte	0x4
 504 00d8 88       		.byte	0x88
 505 00d9 11       		.byte	0x11
 506 00da 92010000 		.4byte	0x192
 507 00de 03       		.byte	0x3
 508 00df 23       		.byte	0x23
 509 00e0 8001     		.uleb128 0x80
 510 00e2 08       		.uleb128 0x8
 511 00e3 34010000 		.4byte	.LASF16
 512 00e7 04       		.byte	0x4
 513 00e8 89       		.byte	0x89
 514 00e9 11       		.byte	0x11
 515 00ea 97010000 		.4byte	0x197
 516 00ee 03       		.byte	0x3
 517 00ef 23       		.byte	0x23
 518 00f0 A001     		.uleb128 0xa0
 519 00f2 08       		.uleb128 0x8
 520 00f3 CB020000 		.4byte	.LASF17
 521 00f7 04       		.byte	0x4
 522 00f8 8A       		.byte	0x8a
 523 00f9 11       		.byte	0x11
 524 00fa 92010000 		.4byte	0x192
 525 00fe 03       		.byte	0x3
 526 00ff 23       		.byte	0x23
 527 0100 8002     		.uleb128 0x100
 528 0102 08       		.uleb128 0x8
 529 0103 19030000 		.4byte	.LASF18
 530 0107 04       		.byte	0x4
 531 0108 8B       		.byte	0x8b
 532 0109 11       		.byte	0x11
 533 010a 97010000 		.4byte	0x197
 534 010e 03       		.byte	0x3
 535 010f 23       		.byte	0x23
 536 0110 A002     		.uleb128 0x120
 537 0112 08       		.uleb128 0x8
 538 0113 1C020000 		.4byte	.LASF19
 539 0117 04       		.byte	0x4
 540 0118 8C       		.byte	0x8c
 541 0119 11       		.byte	0x11
 542 011a 92010000 		.4byte	0x192
 543 011e 03       		.byte	0x3
 544 011f 23       		.byte	0x23
 545 0120 8003     		.uleb128 0x180
 546 0122 08       		.uleb128 0x8
 547 0123 23030000 		.4byte	.LASF20
 548 0127 04       		.byte	0x4
 549 0128 8D       		.byte	0x8d
 550 0129 11       		.byte	0x11
 551 012a 97010000 		.4byte	0x197
ARM GAS  C:\Users\ADMINI~1\AppData\Local\Temp\ccdLdlM3.s 			page 15


 552 012e 03       		.byte	0x3
 553 012f 23       		.byte	0x23
 554 0130 A003     		.uleb128 0x1a0
 555 0132 08       		.uleb128 0x8
 556 0133 09000000 		.4byte	.LASF21
 557 0137 04       		.byte	0x4
 558 0138 8E       		.byte	0x8e
 559 0139 11       		.byte	0x11
 560 013a 92010000 		.4byte	0x192
 561 013e 03       		.byte	0x3
 562 013f 23       		.byte	0x23
 563 0140 8004     		.uleb128 0x200
 564 0142 08       		.uleb128 0x8
 565 0143 2D030000 		.4byte	.LASF22
 566 0147 04       		.byte	0x4
 567 0148 8F       		.byte	0x8f
 568 0149 11       		.byte	0x11
 569 014a A7010000 		.4byte	0x1a7
 570 014e 03       		.byte	0x3
 571 014f 23       		.byte	0x23
 572 0150 A004     		.uleb128 0x220
 573 0152 09       		.uleb128 0x9
 574 0153 495000   		.ascii	"IP\000"
 575 0156 04       		.byte	0x4
 576 0157 90       		.byte	0x90
 577 0158 11       		.byte	0x11
 578 0159 C7010000 		.4byte	0x1c7
 579 015d 03       		.byte	0x3
 580 015e 23       		.byte	0x23
 581 015f 8006     		.uleb128 0x300
 582 0161 08       		.uleb128 0x8
 583 0162 37030000 		.4byte	.LASF23
 584 0166 04       		.byte	0x4
 585 0167 91       		.byte	0x91
 586 0168 11       		.byte	0x11
 587 0169 CC010000 		.4byte	0x1cc
 588 016d 03       		.byte	0x3
 589 016e 23       		.byte	0x23
 590 016f F007     		.uleb128 0x3f0
 591 0171 08       		.uleb128 0x8
 592 0172 22010000 		.4byte	.LASF24
 593 0176 04       		.byte	0x4
 594 0177 92       		.byte	0x92
 595 0178 11       		.byte	0x11
 596 0179 A0000000 		.4byte	0xa0
 597 017d 03       		.byte	0x3
 598 017e 23       		.byte	0x23
 599 017f 801C     		.uleb128 0xe00
 600 0181 00       		.byte	0
 601 0182 0A       		.uleb128 0xa
 602 0183 A0000000 		.4byte	0xa0
 603 0187 92010000 		.4byte	0x192
 604 018b 0B       		.uleb128 0xb
 605 018c 7C000000 		.4byte	0x7c
 606 0190 07       		.byte	0x7
 607 0191 00       		.byte	0
 608 0192 05       		.uleb128 0x5
ARM GAS  C:\Users\ADMINI~1\AppData\Local\Temp\ccdLdlM3.s 			page 16


 609 0193 82010000 		.4byte	0x182
 610 0197 0A       		.uleb128 0xa
 611 0198 94000000 		.4byte	0x94
 612 019c A7010000 		.4byte	0x1a7
 613 01a0 0B       		.uleb128 0xb
 614 01a1 7C000000 		.4byte	0x7c
 615 01a5 17       		.byte	0x17
 616 01a6 00       		.byte	0
 617 01a7 0A       		.uleb128 0xa
 618 01a8 94000000 		.4byte	0x94
 619 01ac B7010000 		.4byte	0x1b7
 620 01b0 0B       		.uleb128 0xb
 621 01b1 7C000000 		.4byte	0x7c
 622 01b5 37       		.byte	0x37
 623 01b6 00       		.byte	0
 624 01b7 0A       		.uleb128 0xa
 625 01b8 8F000000 		.4byte	0x8f
 626 01bc C7010000 		.4byte	0x1c7
 627 01c0 0B       		.uleb128 0xb
 628 01c1 7C000000 		.4byte	0x7c
 629 01c5 EF       		.byte	0xef
 630 01c6 00       		.byte	0
 631 01c7 05       		.uleb128 0x5
 632 01c8 B7010000 		.4byte	0x1b7
 633 01cc 0A       		.uleb128 0xa
 634 01cd 94000000 		.4byte	0x94
 635 01d1 DD010000 		.4byte	0x1dd
 636 01d5 0C       		.uleb128 0xc
 637 01d6 7C000000 		.4byte	0x7c
 638 01da 8302     		.2byte	0x283
 639 01dc 00       		.byte	0
 640 01dd 03       		.uleb128 0x3
 641 01de 53030000 		.4byte	.LASF25
 642 01e2 04       		.byte	0x4
 643 01e3 93       		.byte	0x93
 644 01e4 04       		.byte	0x4
 645 01e5 AA000000 		.4byte	0xaa
 646 01e9 0D       		.uleb128 0xd
 647 01ea 74       		.byte	0x74
 648 01eb 04       		.byte	0x4
 649 01ec 9B       		.byte	0x9b
 650 01ed 09       		.byte	0x9
 651 01ee 10030000 		.4byte	0x310
 652 01f2 08       		.uleb128 0x8
 653 01f3 C0000000 		.4byte	.LASF26
 654 01f7 04       		.byte	0x4
 655 01f8 9D       		.byte	0x9d
 656 01f9 11       		.byte	0x11
 657 01fa A5000000 		.4byte	0xa5
 658 01fe 02       		.byte	0x2
 659 01ff 23       		.byte	0x23
 660 0200 00       		.uleb128 0
 661 0201 08       		.uleb128 0x8
 662 0202 2F010000 		.4byte	.LASF27
 663 0206 04       		.byte	0x4
 664 0207 9E       		.byte	0x9e
 665 0208 11       		.byte	0x11
ARM GAS  C:\Users\ADMINI~1\AppData\Local\Temp\ccdLdlM3.s 			page 17


 666 0209 A0000000 		.4byte	0xa0
 667 020d 02       		.byte	0x2
 668 020e 23       		.byte	0x23
 669 020f 04       		.uleb128 0x4
 670 0210 08       		.uleb128 0x8
 671 0211 C1020000 		.4byte	.LASF28
 672 0215 04       		.byte	0x4
 673 0216 9F       		.byte	0x9f
 674 0217 11       		.byte	0x11
 675 0218 A0000000 		.4byte	0xa0
 676 021c 02       		.byte	0x2
 677 021d 23       		.byte	0x23
 678 021e 08       		.uleb128 0x8
 679 021f 08       		.uleb128 0x8
 680 0220 EF010000 		.4byte	.LASF29
 681 0224 04       		.byte	0x4
 682 0225 A0       		.byte	0xa0
 683 0226 11       		.byte	0x11
 684 0227 A0000000 		.4byte	0xa0
 685 022b 02       		.byte	0x2
 686 022c 23       		.byte	0x23
 687 022d 0C       		.uleb128 0xc
 688 022e 09       		.uleb128 0x9
 689 022f 53435200 		.ascii	"SCR\000"
 690 0233 04       		.byte	0x4
 691 0234 A1       		.byte	0xa1
 692 0235 11       		.byte	0x11
 693 0236 A0000000 		.4byte	0xa0
 694 023a 02       		.byte	0x2
 695 023b 23       		.byte	0x23
 696 023c 10       		.uleb128 0x10
 697 023d 09       		.uleb128 0x9
 698 023e 43435200 		.ascii	"CCR\000"
 699 0242 04       		.byte	0x4
 700 0243 A2       		.byte	0xa2
 701 0244 11       		.byte	0x11
 702 0245 A0000000 		.4byte	0xa0
 703 0249 02       		.byte	0x2
 704 024a 23       		.byte	0x23
 705 024b 14       		.uleb128 0x14
 706 024c 09       		.uleb128 0x9
 707 024d 53485000 		.ascii	"SHP\000"
 708 0251 04       		.byte	0x4
 709 0252 A3       		.byte	0xa3
 710 0253 11       		.byte	0x11
 711 0254 20030000 		.4byte	0x320
 712 0258 02       		.byte	0x2
 713 0259 23       		.byte	0x23
 714 025a 18       		.uleb128 0x18
 715 025b 08       		.uleb128 0x8
 716 025c 4A020000 		.4byte	.LASF30
 717 0260 04       		.byte	0x4
 718 0261 A4       		.byte	0xa4
 719 0262 11       		.byte	0x11
 720 0263 A0000000 		.4byte	0xa0
 721 0267 02       		.byte	0x2
 722 0268 23       		.byte	0x23
ARM GAS  C:\Users\ADMINI~1\AppData\Local\Temp\ccdLdlM3.s 			page 18


 723 0269 24       		.uleb128 0x24
 724 026a 08       		.uleb128 0x8
 725 026b EA010000 		.4byte	.LASF31
 726 026f 04       		.byte	0x4
 727 0270 A5       		.byte	0xa5
 728 0271 11       		.byte	0x11
 729 0272 A0000000 		.4byte	0xa0
 730 0276 02       		.byte	0x2
 731 0277 23       		.byte	0x23
 732 0278 28       		.uleb128 0x28
 733 0279 08       		.uleb128 0x8
 734 027a 00030000 		.4byte	.LASF32
 735 027e 04       		.byte	0x4
 736 027f A6       		.byte	0xa6
 737 0280 11       		.byte	0x11
 738 0281 A0000000 		.4byte	0xa0
 739 0285 02       		.byte	0x2
 740 0286 23       		.byte	0x23
 741 0287 2C       		.uleb128 0x2c
 742 0288 08       		.uleb128 0x8
 743 0289 D0020000 		.4byte	.LASF33
 744 028d 04       		.byte	0x4
 745 028e A7       		.byte	0xa7
 746 028f 11       		.byte	0x11
 747 0290 A0000000 		.4byte	0xa0
 748 0294 02       		.byte	0x2
 749 0295 23       		.byte	0x23
 750 0296 30       		.uleb128 0x30
 751 0297 08       		.uleb128 0x8
 752 0298 67000000 		.4byte	.LASF34
 753 029c 04       		.byte	0x4
 754 029d A8       		.byte	0xa8
 755 029e 11       		.byte	0x11
 756 029f A0000000 		.4byte	0xa0
 757 02a3 02       		.byte	0x2
 758 02a4 23       		.byte	0x23
 759 02a5 34       		.uleb128 0x34
 760 02a6 08       		.uleb128 0x8
 761 02a7 D2010000 		.4byte	.LASF35
 762 02ab 04       		.byte	0x4
 763 02ac A9       		.byte	0xa9
 764 02ad 11       		.byte	0x11
 765 02ae A0000000 		.4byte	0xa0
 766 02b2 02       		.byte	0x2
 767 02b3 23       		.byte	0x23
 768 02b4 38       		.uleb128 0x38
 769 02b5 08       		.uleb128 0x8
 770 02b6 A1030000 		.4byte	.LASF36
 771 02ba 04       		.byte	0x4
 772 02bb AA       		.byte	0xaa
 773 02bc 11       		.byte	0x11
 774 02bd A0000000 		.4byte	0xa0
 775 02c1 02       		.byte	0x2
 776 02c2 23       		.byte	0x23
 777 02c3 3C       		.uleb128 0x3c
 778 02c4 09       		.uleb128 0x9
 779 02c5 50465200 		.ascii	"PFR\000"
ARM GAS  C:\Users\ADMINI~1\AppData\Local\Temp\ccdLdlM3.s 			page 19


 780 02c9 04       		.byte	0x4
 781 02ca AB       		.byte	0xab
 782 02cb 11       		.byte	0x11
 783 02cc 3A030000 		.4byte	0x33a
 784 02d0 02       		.byte	0x2
 785 02d1 23       		.byte	0x23
 786 02d2 40       		.uleb128 0x40
 787 02d3 09       		.uleb128 0x9
 788 02d4 44465200 		.ascii	"DFR\000"
 789 02d8 04       		.byte	0x4
 790 02d9 AC       		.byte	0xac
 791 02da 11       		.byte	0x11
 792 02db A5000000 		.4byte	0xa5
 793 02df 02       		.byte	0x2
 794 02e0 23       		.byte	0x23
 795 02e1 48       		.uleb128 0x48
 796 02e2 09       		.uleb128 0x9
 797 02e3 41445200 		.ascii	"ADR\000"
 798 02e7 04       		.byte	0x4
 799 02e8 AD       		.byte	0xad
 800 02e9 11       		.byte	0x11
 801 02ea A5000000 		.4byte	0xa5
 802 02ee 02       		.byte	0x2
 803 02ef 23       		.byte	0x23
 804 02f0 4C       		.uleb128 0x4c
 805 02f1 08       		.uleb128 0x8
 806 02f2 0A030000 		.4byte	.LASF37
 807 02f6 04       		.byte	0x4
 808 02f7 AE       		.byte	0xae
 809 02f8 11       		.byte	0x11
 810 02f9 54030000 		.4byte	0x354
 811 02fd 02       		.byte	0x2
 812 02fe 23       		.byte	0x23
 813 02ff 50       		.uleb128 0x50
 814 0300 08       		.uleb128 0x8
 815 0301 C6020000 		.4byte	.LASF38
 816 0305 04       		.byte	0x4
 817 0306 AF       		.byte	0xaf
 818 0307 11       		.byte	0x11
 819 0308 6E030000 		.4byte	0x36e
 820 030c 02       		.byte	0x2
 821 030d 23       		.byte	0x23
 822 030e 60       		.uleb128 0x60
 823 030f 00       		.byte	0
 824 0310 0A       		.uleb128 0xa
 825 0311 8F000000 		.4byte	0x8f
 826 0315 20030000 		.4byte	0x320
 827 0319 0B       		.uleb128 0xb
 828 031a 7C000000 		.4byte	0x7c
 829 031e 0B       		.byte	0xb
 830 031f 00       		.byte	0
 831 0320 05       		.uleb128 0x5
 832 0321 10030000 		.4byte	0x310
 833 0325 0A       		.uleb128 0xa
 834 0326 A5000000 		.4byte	0xa5
 835 032a 35030000 		.4byte	0x335
 836 032e 0B       		.uleb128 0xb
ARM GAS  C:\Users\ADMINI~1\AppData\Local\Temp\ccdLdlM3.s 			page 20


 837 032f 7C000000 		.4byte	0x7c
 838 0333 01       		.byte	0x1
 839 0334 00       		.byte	0
 840 0335 06       		.uleb128 0x6
 841 0336 25030000 		.4byte	0x325
 842 033a 05       		.uleb128 0x5
 843 033b 35030000 		.4byte	0x335
 844 033f 0A       		.uleb128 0xa
 845 0340 A5000000 		.4byte	0xa5
 846 0344 4F030000 		.4byte	0x34f
 847 0348 0B       		.uleb128 0xb
 848 0349 7C000000 		.4byte	0x7c
 849 034d 03       		.byte	0x3
 850 034e 00       		.byte	0
 851 034f 06       		.uleb128 0x6
 852 0350 3F030000 		.4byte	0x33f
 853 0354 05       		.uleb128 0x5
 854 0355 4F030000 		.4byte	0x34f
 855 0359 0A       		.uleb128 0xa
 856 035a A5000000 		.4byte	0xa5
 857 035e 69030000 		.4byte	0x369
 858 0362 0B       		.uleb128 0xb
 859 0363 7C000000 		.4byte	0x7c
 860 0367 04       		.byte	0x4
 861 0368 00       		.byte	0
 862 0369 06       		.uleb128 0x6
 863 036a 59030000 		.4byte	0x359
 864 036e 05       		.uleb128 0x5
 865 036f 69030000 		.4byte	0x369
 866 0373 03       		.uleb128 0x3
 867 0374 10010000 		.4byte	.LASF39
 868 0378 04       		.byte	0x4
 869 0379 B0       		.byte	0xb0
 870 037a 03       		.byte	0x3
 871 037b E9010000 		.4byte	0x1e9
 872 037f 0E       		.uleb128 0xe
 873 0380 10       		.byte	0x10
 874 0381 04       		.byte	0x4
 875 0382 6D01     		.2byte	0x16d
 876 0384 09       		.byte	0x9
 877 0385 CA030000 		.4byte	0x3ca
 878 0389 0F       		.uleb128 0xf
 879 038a 03020000 		.4byte	.LASF40
 880 038e 04       		.byte	0x4
 881 038f 6F01     		.2byte	0x16f
 882 0391 11       		.byte	0x11
 883 0392 A0000000 		.4byte	0xa0
 884 0396 02       		.byte	0x2
 885 0397 23       		.byte	0x23
 886 0398 00       		.uleb128 0
 887 0399 0F       		.uleb128 0xf
 888 039a 9C030000 		.4byte	.LASF41
 889 039e 04       		.byte	0x4
 890 039f 7001     		.2byte	0x170
 891 03a1 11       		.byte	0x11
 892 03a2 A0000000 		.4byte	0xa0
 893 03a6 02       		.byte	0x2
ARM GAS  C:\Users\ADMINI~1\AppData\Local\Temp\ccdLdlM3.s 			page 21


 894 03a7 23       		.byte	0x23
 895 03a8 04       		.uleb128 0x4
 896 03a9 10       		.uleb128 0x10
 897 03aa 56414C00 		.ascii	"VAL\000"
 898 03ae 04       		.byte	0x4
 899 03af 7101     		.2byte	0x171
 900 03b1 11       		.byte	0x11
 901 03b2 A0000000 		.4byte	0xa0
 902 03b6 02       		.byte	0x2
 903 03b7 23       		.byte	0x23
 904 03b8 08       		.uleb128 0x8
 905 03b9 0F       		.uleb128 0xf
 906 03ba 44020000 		.4byte	.LASF42
 907 03be 04       		.byte	0x4
 908 03bf 7201     		.2byte	0x172
 909 03c1 11       		.byte	0x11
 910 03c2 A5000000 		.4byte	0xa5
 911 03c6 02       		.byte	0x2
 912 03c7 23       		.byte	0x23
 913 03c8 0C       		.uleb128 0xc
 914 03c9 00       		.byte	0
 915 03ca 11       		.uleb128 0x11
 916 03cb 95020000 		.4byte	.LASF43
 917 03cf 04       		.byte	0x4
 918 03d0 7301     		.2byte	0x173
 919 03d2 03       		.byte	0x3
 920 03d3 7F030000 		.4byte	0x37f
 921 03d7 12       		.uleb128 0x12
 922 03d8 07       		.byte	0x7
 923 03d9 01       		.byte	0x1
 924 03da 38000000 		.4byte	0x38
 925 03de 05       		.byte	0x5
 926 03df 0902     		.2byte	0x209
 927 03e1 0E       		.byte	0xe
 928 03e2 F3030000 		.4byte	0x3f3
 929 03e6 13       		.uleb128 0x13
 930 03e7 27010000 		.4byte	.LASF44
 931 03eb 00       		.byte	0
 932 03ec 13       		.uleb128 0x13
 933 03ed B3030000 		.4byte	.LASF45
 934 03f1 01       		.byte	0x1
 935 03f2 00       		.byte	0
 936 03f3 11       		.uleb128 0x11
 937 03f4 7F030000 		.4byte	.LASF46
 938 03f8 05       		.byte	0x5
 939 03f9 0902     		.2byte	0x209
 940 03fb 2F       		.byte	0x2f
 941 03fc D7030000 		.4byte	0x3d7
 942 0400 0D       		.uleb128 0xd
 943 0401 04       		.byte	0x4
 944 0402 06       		.byte	0x6
 945 0403 32       		.byte	0x32
 946 0404 09       		.byte	0x9
 947 0405 46040000 		.4byte	0x446
 948 0409 08       		.uleb128 0x8
 949 040a D5020000 		.4byte	.LASF47
 950 040e 06       		.byte	0x6
ARM GAS  C:\Users\ADMINI~1\AppData\Local\Temp\ccdLdlM3.s 			page 22


 951 040f 34       		.byte	0x34
 952 0410 0B       		.byte	0xb
 953 0411 83000000 		.4byte	0x83
 954 0415 02       		.byte	0x2
 955 0416 23       		.byte	0x23
 956 0417 00       		.uleb128 0
 957 0418 08       		.uleb128 0x8
 958 0419 5D030000 		.4byte	.LASF48
 959 041d 06       		.byte	0x6
 960 041e 39       		.byte	0x39
 961 041f 0B       		.byte	0xb
 962 0420 83000000 		.4byte	0x83
 963 0424 02       		.byte	0x2
 964 0425 23       		.byte	0x23
 965 0426 01       		.uleb128 0x1
 966 0427 08       		.uleb128 0x8
 967 0428 E5020000 		.4byte	.LASF49
 968 042c 06       		.byte	0x6
 969 042d 3D       		.byte	0x3d
 970 042e 0B       		.byte	0xb
 971 042f 83000000 		.4byte	0x83
 972 0433 02       		.byte	0x2
 973 0434 23       		.byte	0x23
 974 0435 02       		.uleb128 0x2
 975 0436 08       		.uleb128 0x8
 976 0437 1F000000 		.4byte	.LASF50
 977 043b 06       		.byte	0x6
 978 043c 41       		.byte	0x41
 979 043d 13       		.byte	0x13
 980 043e F3030000 		.4byte	0x3f3
 981 0442 02       		.byte	0x2
 982 0443 23       		.byte	0x23
 983 0444 03       		.uleb128 0x3
 984 0445 00       		.byte	0
 985 0446 03       		.uleb128 0x3
 986 0447 0E000000 		.4byte	.LASF51
 987 044b 06       		.byte	0x6
 988 044c 44       		.byte	0x44
 989 044d 03       		.byte	0x3
 990 044e 00040000 		.4byte	0x400
 991 0452 14       		.uleb128 0x14
 992 0453 01       		.byte	0x1
 993 0454 7D020000 		.4byte	.LASF52
 994 0458 01       		.byte	0x1
 995 0459 C7       		.byte	0xc7
 996 045a 06       		.byte	0x6
 997 045b 01       		.byte	0x1
 998 045c 98000000 		.4byte	.LFB33
 999 0460 AE000000 		.4byte	.LFE33
 1000 0464 02       		.byte	0x2
 1001 0465 7D       		.byte	0x7d
 1002 0466 00       		.sleb128 0
 1003 0467 01       		.byte	0x1
 1004 0468 7B040000 		.4byte	0x47b
 1005 046c 15       		.uleb128 0x15
 1006 046d 32000000 		.4byte	.LASF54
 1007 0471 01       		.byte	0x1
ARM GAS  C:\Users\ADMINI~1\AppData\Local\Temp\ccdLdlM3.s 			page 23


 1008 0472 C7       		.byte	0xc7
 1009 0473 27       		.byte	0x27
 1010 0474 94000000 		.4byte	0x94
 1011 0478 01       		.byte	0x1
 1012 0479 50       		.byte	0x50
 1013 047a 00       		.byte	0
 1014 047b 14       		.uleb128 0x14
 1015 047c 01       		.byte	0x1
 1016 047d 69020000 		.4byte	.LASF53
 1017 0481 01       		.byte	0x1
 1018 0482 AF       		.byte	0xaf
 1019 0483 06       		.byte	0x6
 1020 0484 01       		.byte	0x1
 1021 0485 80000000 		.4byte	.LFB32
 1022 0489 98000000 		.4byte	.LFE32
 1023 048d 02       		.byte	0x2
 1024 048e 7D       		.byte	0x7d
 1025 048f 00       		.sleb128 0
 1026 0490 01       		.byte	0x1
 1027 0491 B8040000 		.4byte	0x4b8
 1028 0495 16       		.uleb128 0x16
 1029 0496 A6030000 		.4byte	.LASF58
 1030 049a 01       		.byte	0x1
 1031 049b AF       		.byte	0xaf
 1032 049c 22       		.byte	0x22
 1033 049d 83000000 		.4byte	0x83
 1034 04a1 08000000 		.4byte	.LLST7
 1035 04a5 00000000 		.4byte	.LVUS7
 1036 04a9 15       		.uleb128 0x15
 1037 04aa 19010000 		.4byte	.LASF55
 1038 04ae 01       		.byte	0x1
 1039 04af AF       		.byte	0xaf
 1040 04b0 40       		.byte	0x40
 1041 04b1 F3030000 		.4byte	0x3f3
 1042 04b5 01       		.byte	0x1
 1043 04b6 51       		.byte	0x51
 1044 04b7 00       		.byte	0
 1045 04b8 14       		.uleb128 0x14
 1046 04b9 01       		.byte	0x1
 1047 04ba 08020000 		.4byte	.LASF56
 1048 04be 01       		.byte	0x1
 1049 04bf 9C       		.byte	0x9c
 1050 04c0 06       		.byte	0x6
 1051 04c1 01       		.byte	0x1
 1052 04c2 6C000000 		.4byte	.LFB31
 1053 04c6 80000000 		.4byte	.LFE31
 1054 04ca 02       		.byte	0x2
 1055 04cb 7D       		.byte	0x7d
 1056 04cc 00       		.sleb128 0
 1057 04cd 01       		.byte	0x1
 1058 04ce F5040000 		.4byte	0x4f5
 1059 04d2 15       		.uleb128 0x15
 1060 04d3 8F030000 		.4byte	.LASF57
 1061 04d7 01       		.byte	0x1
 1062 04d8 9C       		.byte	0x9c
 1063 04d9 23       		.byte	0x23
 1064 04da 94000000 		.4byte	0x94
ARM GAS  C:\Users\ADMINI~1\AppData\Local\Temp\ccdLdlM3.s 			page 24


 1065 04de 01       		.byte	0x1
 1066 04df 50       		.byte	0x50
 1067 04e0 16       		.uleb128 0x16
 1068 04e1 4B010000 		.4byte	.LASF59
 1069 04e5 01       		.byte	0x1
 1070 04e6 9C       		.byte	0x9c
 1071 04e7 3A       		.byte	0x3a
 1072 04e8 94000000 		.4byte	0x94
 1073 04ec 46000000 		.4byte	.LLST6
 1074 04f0 42000000 		.4byte	.LVUS6
 1075 04f4 00       		.byte	0
 1076 04f5 17       		.uleb128 0x17
 1077 04f6 01       		.byte	0x1
 1078 04f7 77000000 		.4byte	.LASF60
 1079 04fb 01       		.byte	0x1
 1080 04fc 70       		.byte	0x70
 1081 04fd 06       		.byte	0x6
 1082 04fe 01       		.byte	0x1
 1083 04ff 14000000 		.4byte	.LFB30
 1084 0503 6C000000 		.4byte	.LFE30
 1085 0507 67000000 		.4byte	.LLST1
 1086 050b 01       		.byte	0x1
 1087 050c 61050000 		.4byte	0x561
 1088 0510 16       		.uleb128 0x16
 1089 0511 44000000 		.4byte	.LASF61
 1090 0515 01       		.byte	0x1
 1091 0516 70       		.byte	0x70
 1092 0517 22       		.byte	0x22
 1093 0518 61050000 		.4byte	0x561
 1094 051c 8D000000 		.4byte	.LLST2
 1095 0520 87000000 		.4byte	.LVUS2
 1096 0524 18       		.uleb128 0x18
 1097 0525 B5020000 		.4byte	.LASF62
 1098 0529 01       		.byte	0x1
 1099 052a 72       		.byte	0x72
 1100 052b 0C       		.byte	0xc
 1101 052c 94000000 		.4byte	0x94
 1102 0530 C7000000 		.4byte	.LLST3
 1103 0534 B9000000 		.4byte	.LVUS3
 1104 0538 18       		.uleb128 0x18
 1105 0539 01010000 		.4byte	.LASF63
 1106 053d 01       		.byte	0x1
 1107 053e 72       		.byte	0x72
 1108 053f 20       		.byte	0x20
 1109 0540 94000000 		.4byte	0x94
 1110 0544 2A010000 		.4byte	.LLST4
 1111 0548 22010000 		.4byte	.LVUS4
 1112 054c 18       		.uleb128 0x18
 1113 054d 62020000 		.4byte	.LASF64
 1114 0551 01       		.byte	0x1
 1115 0552 72       		.byte	0x72
 1116 0553 2F       		.byte	0x2f
 1117 0554 94000000 		.4byte	0x94
 1118 0558 6C010000 		.4byte	.LLST5
 1119 055c 64010000 		.4byte	.LVUS5
 1120 0560 00       		.byte	0
 1121 0561 19       		.uleb128 0x19
ARM GAS  C:\Users\ADMINI~1\AppData\Local\Temp\ccdLdlM3.s 			page 25


 1122 0562 04       		.byte	0x4
 1123 0563 46040000 		.4byte	0x446
 1124 0567 1A       		.uleb128 0x1a
 1125 0568 01       		.byte	0x1
 1126 0569 BA030000 		.4byte	.LASF69
 1127 056d 01       		.byte	0x1
 1128 056e 60       		.byte	0x60
 1129 056f 06       		.byte	0x6
 1130 0570 01       		.byte	0x1
 1131 0571 00000000 		.4byte	.LFB29
 1132 0575 14000000 		.4byte	.LFE29
 1133 0579 02       		.byte	0x2
 1134 057a 7D       		.byte	0x7d
 1135 057b 00       		.sleb128 0
 1136 057c 01       		.byte	0x1
 1137 057d 16       		.uleb128 0x16
 1138 057e 54000000 		.4byte	.LASF65
 1139 0582 01       		.byte	0x1
 1140 0583 60       		.byte	0x60
 1141 0584 28       		.byte	0x28
 1142 0585 94000000 		.4byte	0x94
 1143 0589 AA010000 		.4byte	.LLST0
 1144 058d A6010000 		.4byte	.LVUS0
 1145 0591 00       		.byte	0
 1146 0592 00       		.byte	0
 1147              		.section	.debug_abbrev,"",%progbits
 1148              	.Ldebug_abbrev0:
 1149 0000 01       		.uleb128 0x1
 1150 0001 11       		.uleb128 0x11
 1151 0002 01       		.byte	0x1
 1152 0003 25       		.uleb128 0x25
 1153 0004 0E       		.uleb128 0xe
 1154 0005 13       		.uleb128 0x13
 1155 0006 0B       		.uleb128 0xb
 1156 0007 03       		.uleb128 0x3
 1157 0008 0E       		.uleb128 0xe
 1158 0009 1B       		.uleb128 0x1b
 1159 000a 0E       		.uleb128 0xe
 1160 000b 11       		.uleb128 0x11
 1161 000c 01       		.uleb128 0x1
 1162 000d 12       		.uleb128 0x12
 1163 000e 01       		.uleb128 0x1
 1164 000f 10       		.uleb128 0x10
 1165 0010 06       		.uleb128 0x6
 1166 0011 00       		.byte	0
 1167 0012 00       		.byte	0
 1168 0013 02       		.uleb128 0x2
 1169 0014 24       		.uleb128 0x24
 1170 0015 00       		.byte	0
 1171 0016 0B       		.uleb128 0xb
 1172 0017 0B       		.uleb128 0xb
 1173 0018 3E       		.uleb128 0x3e
 1174 0019 0B       		.uleb128 0xb
 1175 001a 03       		.uleb128 0x3
 1176 001b 0E       		.uleb128 0xe
 1177 001c 00       		.byte	0
 1178 001d 00       		.byte	0
ARM GAS  C:\Users\ADMINI~1\AppData\Local\Temp\ccdLdlM3.s 			page 26


 1179 001e 03       		.uleb128 0x3
 1180 001f 16       		.uleb128 0x16
 1181 0020 00       		.byte	0
 1182 0021 03       		.uleb128 0x3
 1183 0022 0E       		.uleb128 0xe
 1184 0023 3A       		.uleb128 0x3a
 1185 0024 0B       		.uleb128 0xb
 1186 0025 3B       		.uleb128 0x3b
 1187 0026 0B       		.uleb128 0xb
 1188 0027 39       		.uleb128 0x39
 1189 0028 0B       		.uleb128 0xb
 1190 0029 49       		.uleb128 0x49
 1191 002a 13       		.uleb128 0x13
 1192 002b 00       		.byte	0
 1193 002c 00       		.byte	0
 1194 002d 04       		.uleb128 0x4
 1195 002e 24       		.uleb128 0x24
 1196 002f 00       		.byte	0
 1197 0030 0B       		.uleb128 0xb
 1198 0031 0B       		.uleb128 0xb
 1199 0032 3E       		.uleb128 0x3e
 1200 0033 0B       		.uleb128 0xb
 1201 0034 03       		.uleb128 0x3
 1202 0035 08       		.uleb128 0x8
 1203 0036 00       		.byte	0
 1204 0037 00       		.byte	0
 1205 0038 05       		.uleb128 0x5
 1206 0039 35       		.uleb128 0x35
 1207 003a 00       		.byte	0
 1208 003b 49       		.uleb128 0x49
 1209 003c 13       		.uleb128 0x13
 1210 003d 00       		.byte	0
 1211 003e 00       		.byte	0
 1212 003f 06       		.uleb128 0x6
 1213 0040 26       		.uleb128 0x26
 1214 0041 00       		.byte	0
 1215 0042 49       		.uleb128 0x49
 1216 0043 13       		.uleb128 0x13
 1217 0044 00       		.byte	0
 1218 0045 00       		.byte	0
 1219 0046 07       		.uleb128 0x7
 1220 0047 13       		.uleb128 0x13
 1221 0048 01       		.byte	0x1
 1222 0049 0B       		.uleb128 0xb
 1223 004a 05       		.uleb128 0x5
 1224 004b 3A       		.uleb128 0x3a
 1225 004c 0B       		.uleb128 0xb
 1226 004d 3B       		.uleb128 0x3b
 1227 004e 0B       		.uleb128 0xb
 1228 004f 39       		.uleb128 0x39
 1229 0050 0B       		.uleb128 0xb
 1230 0051 01       		.uleb128 0x1
 1231 0052 13       		.uleb128 0x13
 1232 0053 00       		.byte	0
 1233 0054 00       		.byte	0
 1234 0055 08       		.uleb128 0x8
 1235 0056 0D       		.uleb128 0xd
ARM GAS  C:\Users\ADMINI~1\AppData\Local\Temp\ccdLdlM3.s 			page 27


 1236 0057 00       		.byte	0
 1237 0058 03       		.uleb128 0x3
 1238 0059 0E       		.uleb128 0xe
 1239 005a 3A       		.uleb128 0x3a
 1240 005b 0B       		.uleb128 0xb
 1241 005c 3B       		.uleb128 0x3b
 1242 005d 0B       		.uleb128 0xb
 1243 005e 39       		.uleb128 0x39
 1244 005f 0B       		.uleb128 0xb
 1245 0060 49       		.uleb128 0x49
 1246 0061 13       		.uleb128 0x13
 1247 0062 38       		.uleb128 0x38
 1248 0063 0A       		.uleb128 0xa
 1249 0064 00       		.byte	0
 1250 0065 00       		.byte	0
 1251 0066 09       		.uleb128 0x9
 1252 0067 0D       		.uleb128 0xd
 1253 0068 00       		.byte	0
 1254 0069 03       		.uleb128 0x3
 1255 006a 08       		.uleb128 0x8
 1256 006b 3A       		.uleb128 0x3a
 1257 006c 0B       		.uleb128 0xb
 1258 006d 3B       		.uleb128 0x3b
 1259 006e 0B       		.uleb128 0xb
 1260 006f 39       		.uleb128 0x39
 1261 0070 0B       		.uleb128 0xb
 1262 0071 49       		.uleb128 0x49
 1263 0072 13       		.uleb128 0x13
 1264 0073 38       		.uleb128 0x38
 1265 0074 0A       		.uleb128 0xa
 1266 0075 00       		.byte	0
 1267 0076 00       		.byte	0
 1268 0077 0A       		.uleb128 0xa
 1269 0078 01       		.uleb128 0x1
 1270 0079 01       		.byte	0x1
 1271 007a 49       		.uleb128 0x49
 1272 007b 13       		.uleb128 0x13
 1273 007c 01       		.uleb128 0x1
 1274 007d 13       		.uleb128 0x13
 1275 007e 00       		.byte	0
 1276 007f 00       		.byte	0
 1277 0080 0B       		.uleb128 0xb
 1278 0081 21       		.uleb128 0x21
 1279 0082 00       		.byte	0
 1280 0083 49       		.uleb128 0x49
 1281 0084 13       		.uleb128 0x13
 1282 0085 2F       		.uleb128 0x2f
 1283 0086 0B       		.uleb128 0xb
 1284 0087 00       		.byte	0
 1285 0088 00       		.byte	0
 1286 0089 0C       		.uleb128 0xc
 1287 008a 21       		.uleb128 0x21
 1288 008b 00       		.byte	0
 1289 008c 49       		.uleb128 0x49
 1290 008d 13       		.uleb128 0x13
 1291 008e 2F       		.uleb128 0x2f
 1292 008f 05       		.uleb128 0x5
ARM GAS  C:\Users\ADMINI~1\AppData\Local\Temp\ccdLdlM3.s 			page 28


 1293 0090 00       		.byte	0
 1294 0091 00       		.byte	0
 1295 0092 0D       		.uleb128 0xd
 1296 0093 13       		.uleb128 0x13
 1297 0094 01       		.byte	0x1
 1298 0095 0B       		.uleb128 0xb
 1299 0096 0B       		.uleb128 0xb
 1300 0097 3A       		.uleb128 0x3a
 1301 0098 0B       		.uleb128 0xb
 1302 0099 3B       		.uleb128 0x3b
 1303 009a 0B       		.uleb128 0xb
 1304 009b 39       		.uleb128 0x39
 1305 009c 0B       		.uleb128 0xb
 1306 009d 01       		.uleb128 0x1
 1307 009e 13       		.uleb128 0x13
 1308 009f 00       		.byte	0
 1309 00a0 00       		.byte	0
 1310 00a1 0E       		.uleb128 0xe
 1311 00a2 13       		.uleb128 0x13
 1312 00a3 01       		.byte	0x1
 1313 00a4 0B       		.uleb128 0xb
 1314 00a5 0B       		.uleb128 0xb
 1315 00a6 3A       		.uleb128 0x3a
 1316 00a7 0B       		.uleb128 0xb
 1317 00a8 3B       		.uleb128 0x3b
 1318 00a9 05       		.uleb128 0x5
 1319 00aa 39       		.uleb128 0x39
 1320 00ab 0B       		.uleb128 0xb
 1321 00ac 01       		.uleb128 0x1
 1322 00ad 13       		.uleb128 0x13
 1323 00ae 00       		.byte	0
 1324 00af 00       		.byte	0
 1325 00b0 0F       		.uleb128 0xf
 1326 00b1 0D       		.uleb128 0xd
 1327 00b2 00       		.byte	0
 1328 00b3 03       		.uleb128 0x3
 1329 00b4 0E       		.uleb128 0xe
 1330 00b5 3A       		.uleb128 0x3a
 1331 00b6 0B       		.uleb128 0xb
 1332 00b7 3B       		.uleb128 0x3b
 1333 00b8 05       		.uleb128 0x5
 1334 00b9 39       		.uleb128 0x39
 1335 00ba 0B       		.uleb128 0xb
 1336 00bb 49       		.uleb128 0x49
 1337 00bc 13       		.uleb128 0x13
 1338 00bd 38       		.uleb128 0x38
 1339 00be 0A       		.uleb128 0xa
 1340 00bf 00       		.byte	0
 1341 00c0 00       		.byte	0
 1342 00c1 10       		.uleb128 0x10
 1343 00c2 0D       		.uleb128 0xd
 1344 00c3 00       		.byte	0
 1345 00c4 03       		.uleb128 0x3
 1346 00c5 08       		.uleb128 0x8
 1347 00c6 3A       		.uleb128 0x3a
 1348 00c7 0B       		.uleb128 0xb
 1349 00c8 3B       		.uleb128 0x3b
ARM GAS  C:\Users\ADMINI~1\AppData\Local\Temp\ccdLdlM3.s 			page 29


 1350 00c9 05       		.uleb128 0x5
 1351 00ca 39       		.uleb128 0x39
 1352 00cb 0B       		.uleb128 0xb
 1353 00cc 49       		.uleb128 0x49
 1354 00cd 13       		.uleb128 0x13
 1355 00ce 38       		.uleb128 0x38
 1356 00cf 0A       		.uleb128 0xa
 1357 00d0 00       		.byte	0
 1358 00d1 00       		.byte	0
 1359 00d2 11       		.uleb128 0x11
 1360 00d3 16       		.uleb128 0x16
 1361 00d4 00       		.byte	0
 1362 00d5 03       		.uleb128 0x3
 1363 00d6 0E       		.uleb128 0xe
 1364 00d7 3A       		.uleb128 0x3a
 1365 00d8 0B       		.uleb128 0xb
 1366 00d9 3B       		.uleb128 0x3b
 1367 00da 05       		.uleb128 0x5
 1368 00db 39       		.uleb128 0x39
 1369 00dc 0B       		.uleb128 0xb
 1370 00dd 49       		.uleb128 0x49
 1371 00de 13       		.uleb128 0x13
 1372 00df 00       		.byte	0
 1373 00e0 00       		.byte	0
 1374 00e1 12       		.uleb128 0x12
 1375 00e2 04       		.uleb128 0x4
 1376 00e3 01       		.byte	0x1
 1377 00e4 3E       		.uleb128 0x3e
 1378 00e5 0B       		.uleb128 0xb
 1379 00e6 0B       		.uleb128 0xb
 1380 00e7 0B       		.uleb128 0xb
 1381 00e8 49       		.uleb128 0x49
 1382 00e9 13       		.uleb128 0x13
 1383 00ea 3A       		.uleb128 0x3a
 1384 00eb 0B       		.uleb128 0xb
 1385 00ec 3B       		.uleb128 0x3b
 1386 00ed 05       		.uleb128 0x5
 1387 00ee 39       		.uleb128 0x39
 1388 00ef 0B       		.uleb128 0xb
 1389 00f0 01       		.uleb128 0x1
 1390 00f1 13       		.uleb128 0x13
 1391 00f2 00       		.byte	0
 1392 00f3 00       		.byte	0
 1393 00f4 13       		.uleb128 0x13
 1394 00f5 28       		.uleb128 0x28
 1395 00f6 00       		.byte	0
 1396 00f7 03       		.uleb128 0x3
 1397 00f8 0E       		.uleb128 0xe
 1398 00f9 1C       		.uleb128 0x1c
 1399 00fa 0B       		.uleb128 0xb
 1400 00fb 00       		.byte	0
 1401 00fc 00       		.byte	0
 1402 00fd 14       		.uleb128 0x14
 1403 00fe 2E       		.uleb128 0x2e
 1404 00ff 01       		.byte	0x1
 1405 0100 3F       		.uleb128 0x3f
 1406 0101 0C       		.uleb128 0xc
ARM GAS  C:\Users\ADMINI~1\AppData\Local\Temp\ccdLdlM3.s 			page 30


 1407 0102 03       		.uleb128 0x3
 1408 0103 0E       		.uleb128 0xe
 1409 0104 3A       		.uleb128 0x3a
 1410 0105 0B       		.uleb128 0xb
 1411 0106 3B       		.uleb128 0x3b
 1412 0107 0B       		.uleb128 0xb
 1413 0108 39       		.uleb128 0x39
 1414 0109 0B       		.uleb128 0xb
 1415 010a 27       		.uleb128 0x27
 1416 010b 0C       		.uleb128 0xc
 1417 010c 11       		.uleb128 0x11
 1418 010d 01       		.uleb128 0x1
 1419 010e 12       		.uleb128 0x12
 1420 010f 01       		.uleb128 0x1
 1421 0110 40       		.uleb128 0x40
 1422 0111 0A       		.uleb128 0xa
 1423 0112 9742     		.uleb128 0x2117
 1424 0114 0C       		.uleb128 0xc
 1425 0115 01       		.uleb128 0x1
 1426 0116 13       		.uleb128 0x13
 1427 0117 00       		.byte	0
 1428 0118 00       		.byte	0
 1429 0119 15       		.uleb128 0x15
 1430 011a 05       		.uleb128 0x5
 1431 011b 00       		.byte	0
 1432 011c 03       		.uleb128 0x3
 1433 011d 0E       		.uleb128 0xe
 1434 011e 3A       		.uleb128 0x3a
 1435 011f 0B       		.uleb128 0xb
 1436 0120 3B       		.uleb128 0x3b
 1437 0121 0B       		.uleb128 0xb
 1438 0122 39       		.uleb128 0x39
 1439 0123 0B       		.uleb128 0xb
 1440 0124 49       		.uleb128 0x49
 1441 0125 13       		.uleb128 0x13
 1442 0126 02       		.uleb128 0x2
 1443 0127 0A       		.uleb128 0xa
 1444 0128 00       		.byte	0
 1445 0129 00       		.byte	0
 1446 012a 16       		.uleb128 0x16
 1447 012b 05       		.uleb128 0x5
 1448 012c 00       		.byte	0
 1449 012d 03       		.uleb128 0x3
 1450 012e 0E       		.uleb128 0xe
 1451 012f 3A       		.uleb128 0x3a
 1452 0130 0B       		.uleb128 0xb
 1453 0131 3B       		.uleb128 0x3b
 1454 0132 0B       		.uleb128 0xb
 1455 0133 39       		.uleb128 0x39
 1456 0134 0B       		.uleb128 0xb
 1457 0135 49       		.uleb128 0x49
 1458 0136 13       		.uleb128 0x13
 1459 0137 02       		.uleb128 0x2
 1460 0138 06       		.uleb128 0x6
 1461 0139 B742     		.uleb128 0x2137
 1462 013b 06       		.uleb128 0x6
 1463 013c 00       		.byte	0
ARM GAS  C:\Users\ADMINI~1\AppData\Local\Temp\ccdLdlM3.s 			page 31


 1464 013d 00       		.byte	0
 1465 013e 17       		.uleb128 0x17
 1466 013f 2E       		.uleb128 0x2e
 1467 0140 01       		.byte	0x1
 1468 0141 3F       		.uleb128 0x3f
 1469 0142 0C       		.uleb128 0xc
 1470 0143 03       		.uleb128 0x3
 1471 0144 0E       		.uleb128 0xe
 1472 0145 3A       		.uleb128 0x3a
 1473 0146 0B       		.uleb128 0xb
 1474 0147 3B       		.uleb128 0x3b
 1475 0148 0B       		.uleb128 0xb
 1476 0149 39       		.uleb128 0x39
 1477 014a 0B       		.uleb128 0xb
 1478 014b 27       		.uleb128 0x27
 1479 014c 0C       		.uleb128 0xc
 1480 014d 11       		.uleb128 0x11
 1481 014e 01       		.uleb128 0x1
 1482 014f 12       		.uleb128 0x12
 1483 0150 01       		.uleb128 0x1
 1484 0151 40       		.uleb128 0x40
 1485 0152 06       		.uleb128 0x6
 1486 0153 9742     		.uleb128 0x2117
 1487 0155 0C       		.uleb128 0xc
 1488 0156 01       		.uleb128 0x1
 1489 0157 13       		.uleb128 0x13
 1490 0158 00       		.byte	0
 1491 0159 00       		.byte	0
 1492 015a 18       		.uleb128 0x18
 1493 015b 34       		.uleb128 0x34
 1494 015c 00       		.byte	0
 1495 015d 03       		.uleb128 0x3
 1496 015e 0E       		.uleb128 0xe
 1497 015f 3A       		.uleb128 0x3a
 1498 0160 0B       		.uleb128 0xb
 1499 0161 3B       		.uleb128 0x3b
 1500 0162 0B       		.uleb128 0xb
 1501 0163 39       		.uleb128 0x39
 1502 0164 0B       		.uleb128 0xb
 1503 0165 49       		.uleb128 0x49
 1504 0166 13       		.uleb128 0x13
 1505 0167 02       		.uleb128 0x2
 1506 0168 06       		.uleb128 0x6
 1507 0169 B742     		.uleb128 0x2137
 1508 016b 06       		.uleb128 0x6
 1509 016c 00       		.byte	0
 1510 016d 00       		.byte	0
 1511 016e 19       		.uleb128 0x19
 1512 016f 0F       		.uleb128 0xf
 1513 0170 00       		.byte	0
 1514 0171 0B       		.uleb128 0xb
 1515 0172 0B       		.uleb128 0xb
 1516 0173 49       		.uleb128 0x49
 1517 0174 13       		.uleb128 0x13
 1518 0175 00       		.byte	0
 1519 0176 00       		.byte	0
 1520 0177 1A       		.uleb128 0x1a
ARM GAS  C:\Users\ADMINI~1\AppData\Local\Temp\ccdLdlM3.s 			page 32


 1521 0178 2E       		.uleb128 0x2e
 1522 0179 01       		.byte	0x1
 1523 017a 3F       		.uleb128 0x3f
 1524 017b 0C       		.uleb128 0xc
 1525 017c 03       		.uleb128 0x3
 1526 017d 0E       		.uleb128 0xe
 1527 017e 3A       		.uleb128 0x3a
 1528 017f 0B       		.uleb128 0xb
 1529 0180 3B       		.uleb128 0x3b
 1530 0181 0B       		.uleb128 0xb
 1531 0182 39       		.uleb128 0x39
 1532 0183 0B       		.uleb128 0xb
 1533 0184 27       		.uleb128 0x27
 1534 0185 0C       		.uleb128 0xc
 1535 0186 11       		.uleb128 0x11
 1536 0187 01       		.uleb128 0x1
 1537 0188 12       		.uleb128 0x12
 1538 0189 01       		.uleb128 0x1
 1539 018a 40       		.uleb128 0x40
 1540 018b 0A       		.uleb128 0xa
 1541 018c 9742     		.uleb128 0x2117
 1542 018e 0C       		.uleb128 0xc
 1543 018f 00       		.byte	0
 1544 0190 00       		.byte	0
 1545 0191 00       		.byte	0
 1546              		.section	.debug_loc,"",%progbits
 1547              	.Ldebug_loc0:
 1548              	.LVUS7:
 1549 0000 00       		.uleb128 0
 1550 0001 00       		.uleb128 .LVU68
 1551 0002 00       		.uleb128 .LVU68
 1552 0003 00       		.uleb128 .LVU70
 1553 0004 00       		.uleb128 .LVU70
 1554 0005 00       		.uleb128 .LVU72
 1555 0006 00       		.uleb128 .LVU72
 1556 0007 00       		.uleb128 0
 1557              	.LLST7:
 1558 0008 80000000 		.4byte	.LVL15-.Ltext0
 1559 000c 88000000 		.4byte	.LVL16-.Ltext0
 1560 0010 0100     		.2byte	0x1
 1561 0012 50       		.byte	0x50
 1562 0013 88000000 		.4byte	.LVL16-.Ltext0
 1563 0017 8C000000 		.4byte	.LVL17-.Ltext0
 1564 001b 0400     		.2byte	0x4
 1565 001d F3       		.byte	0xf3
 1566 001e 01       		.uleb128 0x1
 1567 001f 50       		.byte	0x50
 1568 0020 9F       		.byte	0x9f
 1569 0021 8C000000 		.4byte	.LVL17-.Ltext0
 1570 0025 90000000 		.4byte	.LVL18-.Ltext0
 1571 0029 0100     		.2byte	0x1
 1572 002b 50       		.byte	0x50
 1573 002c 90000000 		.4byte	.LVL18-.Ltext0
 1574 0030 98000000 		.4byte	.LFE32-.Ltext0
 1575 0034 0400     		.2byte	0x4
 1576 0036 F3       		.byte	0xf3
 1577 0037 01       		.uleb128 0x1
ARM GAS  C:\Users\ADMINI~1\AppData\Local\Temp\ccdLdlM3.s 			page 33


 1578 0038 50       		.byte	0x50
 1579 0039 9F       		.byte	0x9f
 1580 003a 00000000 		.4byte	0
 1581 003e 00000000 		.4byte	0
 1582              	.LVUS6:
 1583 0042 00       		.uleb128 0
 1584 0043 00       		.uleb128 .LVU55
 1585 0044 00       		.uleb128 .LVU55
 1586 0045 00       		.uleb128 0
 1587              	.LLST6:
 1588 0046 6C000000 		.4byte	.LVL13-.Ltext0
 1589 004a 70000000 		.4byte	.LVL14-.Ltext0
 1590 004e 0100     		.2byte	0x1
 1591 0050 51       		.byte	0x51
 1592 0051 70000000 		.4byte	.LVL14-.Ltext0
 1593 0055 80000000 		.4byte	.LFE31-.Ltext0
 1594 0059 0400     		.2byte	0x4
 1595 005b F3       		.byte	0xf3
 1596 005c 01       		.uleb128 0x1
 1597 005d 51       		.byte	0x51
 1598 005e 9F       		.byte	0x9f
 1599 005f 00000000 		.4byte	0
 1600 0063 00000000 		.4byte	0
 1601              	.LLST1:
 1602 0067 14000000 		.4byte	.LFB30-.Ltext0
 1603 006b 16000000 		.4byte	.LCFI0-.Ltext0
 1604 006f 0200     		.2byte	0x2
 1605 0071 7D       		.byte	0x7d
 1606 0072 00       		.sleb128 0
 1607 0073 16000000 		.4byte	.LCFI0-.Ltext0
 1608 0077 6C000000 		.4byte	.LFE30-.Ltext0
 1609 007b 0200     		.2byte	0x2
 1610 007d 7D       		.byte	0x7d
 1611 007e 10       		.sleb128 16
 1612 007f 00000000 		.4byte	0
 1613 0083 00000000 		.4byte	0
 1614              	.LVUS2:
 1615 0087 00       		.uleb128 0
 1616 0088 00       		.uleb128 .LVU35
 1617 0089 00       		.uleb128 .LVU35
 1618 008a 00       		.uleb128 .LVU47
 1619 008b 00       		.uleb128 .LVU47
 1620 008c 00       		.uleb128 0
 1621              	.LLST2:
 1622 008d 14000000 		.4byte	.LVL2-.Ltext0
 1623 0091 3E000000 		.4byte	.LVL6-.Ltext0
 1624 0095 0100     		.2byte	0x1
 1625 0097 50       		.byte	0x50
 1626 0098 3E000000 		.4byte	.LVL6-.Ltext0
 1627 009c 58000000 		.4byte	.LVL12-.Ltext0
 1628 00a0 0400     		.2byte	0x4
 1629 00a2 F3       		.byte	0xf3
 1630 00a3 01       		.uleb128 0x1
 1631 00a4 50       		.byte	0x50
 1632 00a5 9F       		.byte	0x9f
 1633 00a6 58000000 		.4byte	.LVL12-.Ltext0
 1634 00aa 6C000000 		.4byte	.LFE30-.Ltext0
ARM GAS  C:\Users\ADMINI~1\AppData\Local\Temp\ccdLdlM3.s 			page 34


 1635 00ae 0100     		.2byte	0x1
 1636 00b0 50       		.byte	0x50
 1637 00b1 00000000 		.4byte	0
 1638 00b5 00000000 		.4byte	0
 1639              	.LVUS3:
 1640 00b9 02       		.uleb128 .LVU10
 1641 00ba 00       		.uleb128 .LVU27
 1642 00bb 00       		.uleb128 .LVU27
 1643 00bc 00       		.uleb128 .LVU32
 1644 00bd 00       		.uleb128 .LVU32
 1645 00be 00       		.uleb128 .LVU38
 1646 00bf 00       		.uleb128 .LVU38
 1647 00c0 01       		.uleb128 .LVU39
 1648 00c1 01       		.uleb128 .LVU39
 1649 00c2 00       		.uleb128 .LVU42
 1650 00c3 00       		.uleb128 .LVU42
 1651 00c4 00       		.uleb128 .LVU43
 1652 00c5 00       		.uleb128 .LVU47
 1653 00c6 00       		.uleb128 0
 1654              	.LLST3:
 1655 00c7 14000000 		.4byte	.LVL2-.Ltext0
 1656 00cb 32000000 		.4byte	.LVL3-.Ltext0
 1657 00cf 0200     		.2byte	0x2
 1658 00d1 30       		.byte	0x30
 1659 00d2 9F       		.byte	0x9f
 1660 00d3 32000000 		.4byte	.LVL3-.Ltext0
 1661 00d7 3A000000 		.4byte	.LVL5-.Ltext0
 1662 00db 0100     		.2byte	0x1
 1663 00dd 52       		.byte	0x52
 1664 00de 3A000000 		.4byte	.LVL5-.Ltext0
 1665 00e2 46000000 		.4byte	.LVL8-.Ltext0
 1666 00e6 0100     		.2byte	0x1
 1667 00e8 56       		.byte	0x56
 1668 00e9 46000000 		.4byte	.LVL8-.Ltext0
 1669 00ed 46000000 		.4byte	.LVL8-.Ltext0
 1670 00f1 0100     		.2byte	0x1
 1671 00f3 53       		.byte	0x53
 1672 00f4 46000000 		.4byte	.LVL8-.Ltext0
 1673 00f8 4A000000 		.4byte	.LVL10-.Ltext0
 1674 00fc 0500     		.2byte	0x5
 1675 00fe 73       		.byte	0x73
 1676 00ff 00       		.sleb128 0
 1677 0100 34       		.byte	0x34
 1678 0101 24       		.byte	0x24
 1679 0102 9F       		.byte	0x9f
 1680 0103 4A000000 		.4byte	.LVL10-.Ltext0
 1681 0107 4C000000 		.4byte	.LVL11-.Ltext0
 1682 010b 0100     		.2byte	0x1
 1683 010d 53       		.byte	0x53
 1684 010e 58000000 		.4byte	.LVL12-.Ltext0
 1685 0112 6C000000 		.4byte	.LFE30-.Ltext0
 1686 0116 0200     		.2byte	0x2
 1687 0118 30       		.byte	0x30
 1688 0119 9F       		.byte	0x9f
 1689 011a 00000000 		.4byte	0
 1690 011e 00000000 		.4byte	0
 1691              	.LVUS4:
ARM GAS  C:\Users\ADMINI~1\AppData\Local\Temp\ccdLdlM3.s 			page 35


 1692 0122 02       		.uleb128 .LVU10
 1693 0123 00       		.uleb128 .LVU29
 1694 0124 00       		.uleb128 .LVU29
 1695 0125 00       		.uleb128 .LVU32
 1696 0126 00       		.uleb128 .LVU32
 1697 0127 00       		.uleb128 .LVU36
 1698 0128 00       		.uleb128 .LVU47
 1699 0129 00       		.uleb128 0
 1700              	.LLST4:
 1701 012a 14000000 		.4byte	.LVL2-.Ltext0
 1702 012e 36000000 		.4byte	.LVL4-.Ltext0
 1703 0132 0200     		.2byte	0x2
 1704 0134 30       		.byte	0x30
 1705 0135 9F       		.byte	0x9f
 1706 0136 36000000 		.4byte	.LVL4-.Ltext0
 1707 013a 3A000000 		.4byte	.LVL5-.Ltext0
 1708 013e 0100     		.2byte	0x1
 1709 0140 56       		.byte	0x56
 1710 0141 3A000000 		.4byte	.LVL5-.Ltext0
 1711 0145 42000000 		.4byte	.LVL7-.Ltext0
 1712 0149 0500     		.2byte	0x5
 1713 014b 34       		.byte	0x34
 1714 014c 72       		.byte	0x72
 1715 014d 00       		.sleb128 0
 1716 014e 1C       		.byte	0x1c
 1717 014f 9F       		.byte	0x9f
 1718 0150 58000000 		.4byte	.LVL12-.Ltext0
 1719 0154 6C000000 		.4byte	.LFE30-.Ltext0
 1720 0158 0200     		.2byte	0x2
 1721 015a 30       		.byte	0x30
 1722 015b 9F       		.byte	0x9f
 1723 015c 00000000 		.4byte	0
 1724 0160 00000000 		.4byte	0
 1725              	.LVUS5:
 1726 0164 02       		.uleb128 .LVU10
 1727 0165 01       		.uleb128 .LVU30
 1728 0166 01       		.uleb128 .LVU30
 1729 0167 00       		.uleb128 .LVU36
 1730 0168 00       		.uleb128 .LVU36
 1731 0169 00       		.uleb128 .LVU41
 1732 016a 00       		.uleb128 .LVU47
 1733 016b 00       		.uleb128 0
 1734              	.LLST5:
 1735 016c 14000000 		.4byte	.LVL2-.Ltext0
 1736 0170 36000000 		.4byte	.LVL4-.Ltext0
 1737 0174 0200     		.2byte	0x2
 1738 0176 3F       		.byte	0x3f
 1739 0177 9F       		.byte	0x9f
 1740 0178 36000000 		.4byte	.LVL4-.Ltext0
 1741 017c 42000000 		.4byte	.LVL7-.Ltext0
 1742 0180 0500     		.2byte	0x5
 1743 0182 3F       		.byte	0x3f
 1744 0183 72       		.byte	0x72
 1745 0184 00       		.sleb128 0
 1746 0185 25       		.byte	0x25
 1747 0186 9F       		.byte	0x9f
 1748 0187 42000000 		.4byte	.LVL7-.Ltext0
ARM GAS  C:\Users\ADMINI~1\AppData\Local\Temp\ccdLdlM3.s 			page 36


 1749 018b 48000000 		.4byte	.LVL9-.Ltext0
 1750 018f 0100     		.2byte	0x1
 1751 0191 52       		.byte	0x52
 1752 0192 58000000 		.4byte	.LVL12-.Ltext0
 1753 0196 6C000000 		.4byte	.LFE30-.Ltext0
 1754 019a 0200     		.2byte	0x2
 1755 019c 3F       		.byte	0x3f
 1756 019d 9F       		.byte	0x9f
 1757 019e 00000000 		.4byte	0
 1758 01a2 00000000 		.4byte	0
 1759              	.LVUS0:
 1760 01a6 00       		.uleb128 0
 1761 01a7 00       		.uleb128 .LVU5
 1762 01a8 00       		.uleb128 .LVU5
 1763 01a9 00       		.uleb128 0
 1764              	.LLST0:
 1765 01aa 00000000 		.4byte	.LVL0-.Ltext0
 1766 01ae 06000000 		.4byte	.LVL1-.Ltext0
 1767 01b2 0100     		.2byte	0x1
 1768 01b4 50       		.byte	0x50
 1769 01b5 06000000 		.4byte	.LVL1-.Ltext0
 1770 01b9 14000000 		.4byte	.LFE29-.Ltext0
 1771 01bd 0400     		.2byte	0x4
 1772 01bf F3       		.byte	0xf3
 1773 01c0 01       		.uleb128 0x1
 1774 01c1 50       		.byte	0x50
 1775 01c2 9F       		.byte	0x9f
 1776 01c3 00000000 		.4byte	0
 1777 01c7 00000000 		.4byte	0
 1778              		.section	.debug_aranges,"",%progbits
 1779 0000 1C000000 		.4byte	0x1c
 1780 0004 0200     		.2byte	0x2
 1781 0006 00000000 		.4byte	.Ldebug_info0
 1782 000a 04       		.byte	0x4
 1783 000b 00       		.byte	0
 1784 000c 0000     		.2byte	0
 1785 000e 0000     		.2byte	0
 1786 0010 00000000 		.4byte	.Ltext0
 1787 0014 AE000000 		.4byte	.Letext0-.Ltext0
 1788 0018 00000000 		.4byte	0
 1789 001c 00000000 		.4byte	0
 1790              		.section	.debug_line,"",%progbits
 1791              	.Ldebug_line0:
 1792 0000 03030000 		.section	.debug_str,"MS",%progbits,1
 1792      0300CE01 
 1792      00000201 
 1792      FB0E0D00 
 1792      01010101 
 1793              	.LASF12:
 1794 0000 75696E74 		.ascii	"uint32_t\000"
 1794      33325F74 
 1794      00
 1795              	.LASF21:
 1796 0009 49414252 		.ascii	"IABR\000"
 1796      00
 1797              	.LASF51:
 1798 000e 4E564943 		.ascii	"NVIC_InitTypeDef\000"
ARM GAS  C:\Users\ADMINI~1\AppData\Local\Temp\ccdLdlM3.s 			page 37


 1798      5F496E69 
 1798      74547970 
 1798      65446566 
 1798      00
 1799              	.LASF50:
 1800 001f 4E564943 		.ascii	"NVIC_IRQChannelCmd\000"
 1800      5F495251 
 1800      4368616E 
 1800      6E656C43 
 1800      6D6400
 1801              	.LASF54:
 1802 0032 53797354 		.ascii	"SysTick_CLKSource\000"
 1802      69636B5F 
 1802      434C4B53 
 1802      6F757263 
 1802      6500
 1803              	.LASF61:
 1804 0044 4E564943 		.ascii	"NVIC_InitStruct\000"
 1804      5F496E69 
 1804      74537472 
 1804      75637400 
 1805              	.LASF65:
 1806 0054 4E564943 		.ascii	"NVIC_PriorityGroup\000"
 1806      5F507269 
 1806      6F726974 
 1806      7947726F 
 1806      757000
 1807              	.LASF34:
 1808 0067 4D4D4641 		.ascii	"MMFAR\000"
 1808      5200
 1809              	.LASF2:
 1810 006d 73686F72 		.ascii	"short int\000"
 1810      7420696E 
 1810      7400
 1811              	.LASF60:
 1812 0077 4E564943 		.ascii	"NVIC_Init\000"
 1812      5F496E69 
 1812      7400
 1813              	.LASF67:
 1814 0081 73746D33 		.ascii	"stm32f10x_lib/STM32F10x_StdPeriph_Driver/src/misc.c"
 1814      32663130 
 1814      785F6C69 
 1814      622F5354 
 1814      4D333246 
 1815 00b4 00       		.ascii	"\000"
 1816              	.LASF6:
 1817 00b5 5F5F7569 		.ascii	"__uint32_t\000"
 1817      6E743332 
 1817      5F7400
 1818              	.LASF26:
 1819 00c0 43505549 		.ascii	"CPUID\000"
 1819      4400
 1820              	.LASF68:
 1821 00c6 443A5C6C 		.ascii	"D:\\liwei_gcc_stm32\\save\\stm32f10x_makefile_freer"
 1821      69776569 
 1821      5F676363 
 1821      5F73746D 
ARM GAS  C:\Users\ADMINI~1\AppData\Local\Temp\ccdLdlM3.s 			page 38


 1821      33325C73 
 1822 00f6 746F732D 		.ascii	"tos-master\000"
 1822      6D617374 
 1822      657200
 1823              	.LASF63:
 1824 0101 746D7070 		.ascii	"tmppre\000"
 1824      726500
 1825              	.LASF11:
 1826 0108 75696E74 		.ascii	"uint8_t\000"
 1826      385F7400 
 1827              	.LASF39:
 1828 0110 5343425F 		.ascii	"SCB_Type\000"
 1828      54797065 
 1828      00
 1829              	.LASF55:
 1830 0119 4E657753 		.ascii	"NewState\000"
 1830      74617465 
 1830      00
 1831              	.LASF24:
 1832 0122 53544952 		.ascii	"STIR\000"
 1832      00
 1833              	.LASF44:
 1834 0127 44495341 		.ascii	"DISABLE\000"
 1834      424C4500 
 1835              	.LASF27:
 1836 012f 49435352 		.ascii	"ICSR\000"
 1836      00
 1837              	.LASF16:
 1838 0134 52534552 		.ascii	"RSERVED1\000"
 1838      56454431 
 1838      00
 1839              	.LASF8:
 1840 013d 6C6F6E67 		.ascii	"long long int\000"
 1840      206C6F6E 
 1840      6720696E 
 1840      7400
 1841              	.LASF59:
 1842 014b 4F666673 		.ascii	"Offset\000"
 1842      657400
 1843              	.LASF66:
 1844 0152 474E5520 		.ascii	"GNU C17 10.3.1 20210824 (release) -mcpu=cortex-m3 -"
 1844      43313720 
 1844      31302E33 
 1844      2E312032 
 1844      30323130 
 1845 0185 6D746875 		.ascii	"mthumb -mfloat-abi=soft -march=armv7-m -g -gdwarf-2"
 1845      6D62202D 
 1845      6D666C6F 
 1845      61742D61 
 1845      62693D73 
 1846 01b8 202D4F73 		.ascii	" -Os -fomit-frame-pointer\000"
 1846      202D666F 
 1846      6D69742D 
 1846      6672616D 
 1846      652D706F 
 1847              	.LASF35:
 1848 01d2 42464152 		.ascii	"BFAR\000"
ARM GAS  C:\Users\ADMINI~1\AppData\Local\Temp\ccdLdlM3.s 			page 39


 1848      00
 1849              	.LASF4:
 1850 01d7 6C6F6E67 		.ascii	"long int\000"
 1850      20696E74 
 1850      00
 1851              	.LASF5:
 1852 01e0 5F5F7569 		.ascii	"__uint8_t\000"
 1852      6E74385F 
 1852      7400
 1853              	.LASF31:
 1854 01ea 43465352 		.ascii	"CFSR\000"
 1854      00
 1855              	.LASF29:
 1856 01ef 41495243 		.ascii	"AIRCR\000"
 1856      5200
 1857              	.LASF1:
 1858 01f5 756E7369 		.ascii	"unsigned char\000"
 1858      676E6564 
 1858      20636861 
 1858      7200
 1859              	.LASF40:
 1860 0203 4354524C 		.ascii	"CTRL\000"
 1860      00
 1861              	.LASF56:
 1862 0208 4E564943 		.ascii	"NVIC_SetVectorTable\000"
 1862      5F536574 
 1862      56656374 
 1862      6F725461 
 1862      626C6500 
 1863              	.LASF19:
 1864 021c 49435052 		.ascii	"ICPR\000"
 1864      00
 1865              	.LASF0:
 1866 0221 7369676E 		.ascii	"signed char\000"
 1866      65642063 
 1866      68617200 
 1867              	.LASF9:
 1868 022d 6C6F6E67 		.ascii	"long long unsigned int\000"
 1868      206C6F6E 
 1868      6720756E 
 1868      7369676E 
 1868      65642069 
 1869              	.LASF42:
 1870 0244 43414C49 		.ascii	"CALIB\000"
 1870      4200
 1871              	.LASF30:
 1872 024a 53484353 		.ascii	"SHCSR\000"
 1872      5200
 1873              	.LASF10:
 1874 0250 756E7369 		.ascii	"unsigned int\000"
 1874      676E6564 
 1874      20696E74 
 1874      00
 1875              	.LASF15:
 1876 025d 49434552 		.ascii	"ICER\000"
 1876      00
 1877              	.LASF64:
ARM GAS  C:\Users\ADMINI~1\AppData\Local\Temp\ccdLdlM3.s 			page 40


 1878 0262 746D7073 		.ascii	"tmpsub\000"
 1878      756200
 1879              	.LASF53:
 1880 0269 4E564943 		.ascii	"NVIC_SystemLPConfig\000"
 1880      5F537973 
 1880      74656D4C 
 1880      50436F6E 
 1880      66696700 
 1881              	.LASF52:
 1882 027d 53797354 		.ascii	"SysTick_CLKSourceConfig\000"
 1882      69636B5F 
 1882      434C4B53 
 1882      6F757263 
 1882      65436F6E 
 1883              	.LASF43:
 1884 0295 53797354 		.ascii	"SysTick_Type\000"
 1884      69636B5F 
 1884      54797065 
 1884      00
 1885              	.LASF3:
 1886 02a2 73686F72 		.ascii	"short unsigned int\000"
 1886      7420756E 
 1886      7369676E 
 1886      65642069 
 1886      6E7400
 1887              	.LASF62:
 1888 02b5 746D7070 		.ascii	"tmppriority\000"
 1888      72696F72 
 1888      69747900 
 1889              	.LASF28:
 1890 02c1 56544F52 		.ascii	"VTOR\000"
 1890      00
 1891              	.LASF38:
 1892 02c6 49534152 		.ascii	"ISAR\000"
 1892      00
 1893              	.LASF17:
 1894 02cb 49535052 		.ascii	"ISPR\000"
 1894      00
 1895              	.LASF33:
 1896 02d0 44465352 		.ascii	"DFSR\000"
 1896      00
 1897              	.LASF47:
 1898 02d5 4E564943 		.ascii	"NVIC_IRQChannel\000"
 1898      5F495251 
 1898      4368616E 
 1898      6E656C00 
 1899              	.LASF49:
 1900 02e5 4E564943 		.ascii	"NVIC_IRQChannelSubPriority\000"
 1900      5F495251 
 1900      4368616E 
 1900      6E656C53 
 1900      75625072 
 1901              	.LASF32:
 1902 0300 48465352 		.ascii	"HFSR\000"
 1902      00
 1903              	.LASF13:
 1904 0305 49534552 		.ascii	"ISER\000"
ARM GAS  C:\Users\ADMINI~1\AppData\Local\Temp\ccdLdlM3.s 			page 41


 1904      00
 1905              	.LASF37:
 1906 030a 4D4D4652 		.ascii	"MMFR\000"
 1906      00
 1907              	.LASF14:
 1908 030f 52455345 		.ascii	"RESERVED0\000"
 1908      52564544 
 1908      3000
 1909              	.LASF18:
 1910 0319 52455345 		.ascii	"RESERVED2\000"
 1910      52564544 
 1910      3200
 1911              	.LASF20:
 1912 0323 52455345 		.ascii	"RESERVED3\000"
 1912      52564544 
 1912      3300
 1913              	.LASF22:
 1914 032d 52455345 		.ascii	"RESERVED4\000"
 1914      52564544 
 1914      3400
 1915              	.LASF23:
 1916 0337 52455345 		.ascii	"RESERVED5\000"
 1916      52564544 
 1916      3500
 1917              	.LASF7:
 1918 0341 6C6F6E67 		.ascii	"long unsigned int\000"
 1918      20756E73 
 1918      69676E65 
 1918      6420696E 
 1918      7400
 1919              	.LASF25:
 1920 0353 4E564943 		.ascii	"NVIC_Type\000"
 1920      5F547970 
 1920      6500
 1921              	.LASF48:
 1922 035d 4E564943 		.ascii	"NVIC_IRQChannelPreemptionPriority\000"
 1922      5F495251 
 1922      4368616E 
 1922      6E656C50 
 1922      7265656D 
 1923              	.LASF46:
 1924 037f 46756E63 		.ascii	"FunctionalState\000"
 1924      74696F6E 
 1924      616C5374 
 1924      61746500 
 1925              	.LASF57:
 1926 038f 4E564943 		.ascii	"NVIC_VectTab\000"
 1926      5F566563 
 1926      74546162 
 1926      00
 1927              	.LASF41:
 1928 039c 4C4F4144 		.ascii	"LOAD\000"
 1928      00
 1929              	.LASF36:
 1930 03a1 41465352 		.ascii	"AFSR\000"
 1930      00
 1931              	.LASF58:
ARM GAS  C:\Users\ADMINI~1\AppData\Local\Temp\ccdLdlM3.s 			page 42


 1932 03a6 4C6F7750 		.ascii	"LowPowerMode\000"
 1932      6F776572 
 1932      4D6F6465 
 1932      00
 1933              	.LASF45:
 1934 03b3 454E4142 		.ascii	"ENABLE\000"
 1934      4C4500
 1935              	.LASF69:
 1936 03ba 4E564943 		.ascii	"NVIC_PriorityGroupConfig\000"
 1936      5F507269 
 1936      6F726974 
 1936      7947726F 
 1936      7570436F 
 1937              		.ident	"GCC: (GNU Arm Embedded Toolchain 10.3-2021.10) 10.3.1 20210824 (release)"
ARM GAS  C:\Users\ADMINI~1\AppData\Local\Temp\ccdLdlM3.s 			page 43


DEFINED SYMBOLS
                            *ABS*:00000000 misc.c
C:\Users\ADMINI~1\AppData\Local\Temp\ccdLdlM3.s:78     .text:00000000 $t
C:\Users\ADMINI~1\AppData\Local\Temp\ccdLdlM3.s:84     .text:00000000 NVIC_PriorityGroupConfig
C:\Users\ADMINI~1\AppData\Local\Temp\ccdLdlM3.s:113    .text:00000010 $d
C:\Users\ADMINI~1\AppData\Local\Temp\ccdLdlM3.s:117    .text:00000014 $t
C:\Users\ADMINI~1\AppData\Local\Temp\ccdLdlM3.s:123    .text:00000014 NVIC_Init
C:\Users\ADMINI~1\AppData\Local\Temp\ccdLdlM3.s:248    .text:00000064 $d
C:\Users\ADMINI~1\AppData\Local\Temp\ccdLdlM3.s:253    .text:0000006c $t
C:\Users\ADMINI~1\AppData\Local\Temp\ccdLdlM3.s:259    .text:0000006c NVIC_SetVectorTable
C:\Users\ADMINI~1\AppData\Local\Temp\ccdLdlM3.s:292    .text:0000007c $d
C:\Users\ADMINI~1\AppData\Local\Temp\ccdLdlM3.s:296    .text:00000080 $t
C:\Users\ADMINI~1\AppData\Local\Temp\ccdLdlM3.s:302    .text:00000080 NVIC_SystemLPConfig
C:\Users\ADMINI~1\AppData\Local\Temp\ccdLdlM3.s:344    .text:00000094 $d
C:\Users\ADMINI~1\AppData\Local\Temp\ccdLdlM3.s:348    .text:00000098 $t
C:\Users\ADMINI~1\AppData\Local\Temp\ccdLdlM3.s:354    .text:00000098 SysTick_CLKSourceConfig

NO UNDEFINED SYMBOLS
