ARM GAS  C:\Users\ADMINI~1\AppData\Local\Temp\ccdLdlM3.s 			page 1


   1              		.cpu cortex-m3
   2              		.arch armv7-m
   3              		.fpu softvfp
   4              		.eabi_attribute 20, 1	@ Tag_ABI_FP_denormal
   5              		.eabi_attribute 21, 1	@ Tag_ABI_FP_exceptions
   6              		.eabi_attribute 23, 3	@ Tag_ABI_FP_number_model
   7              		.eabi_attribute 24, 1	@ Tag_ABI_align8_needed
   8              		.eabi_attribute 25, 1	@ Tag_ABI_align8_preserved
   9              		.eabi_attribute 26, 1	@ Tag_ABI_enum_size
  10              		.eabi_attribute 30, 4	@ Tag_ABI_optimization_goals
  11              		.eabi_attribute 34, 1	@ Tag_CPU_unaligned_access
  12              		.eabi_attribute 18, 4	@ Tag_ABI_PCS_wchar_t
  13              		.file	"misc.c"
  14              	@ GNU C17 (GNU Arm Embedded Toolchain 10.3-2021.10) version 10.3.1 20210824 (release) (arm-none-eab
  15              	@	compiled by GNU C version 7.3-win32 20180312, GMP version 6.1.0, MPFR version 3.1.4, MPC version 
  16              	
  17              	@ GGC heuristics: --param ggc-min-expand=100 --param ggc-min-heapsize=131072
  18              	@ options passed:  -I . -I ./user -I ./stm32f10x_lib/CMSIS/CM3/CoreSupport
  19              	@ -I ./stm32f10x_lib/CMSIS/CM3/DeviceSupport/ST/STM32F10x
  20              	@ -I ./stm32f10x_lib/STM32F10x_StdPeriph_Driver/inc
  21              	@ -I ./stm32f10x_lib/STM32F10x_StdPeriph_Driver -I ./freertos/include
  22              	@ -I ./freertos/portable/GCC/ARM_CM3 -imultilib thumb/v7-m/nofp
  23              	@ -iprefix c:\program files (x86)\gnu arm embedded toolchain\10 2021.10\bin\../lib/gcc/arm-none-eab
  24              	@ -isysroot c:\program files (x86)\gnu arm embedded toolchain\10 2021.10\bin\../arm-none-eabi
  25              	@ -D__USES_INITFINI__ -D STM32F10X_MD -D USE_STDPERIPH_DRIVER
  26              	@ -D HSE_VALUE=8000000 -D RUN_FROM_FLASH=1
  27              	@ stm32f10x_lib/STM32F10x_StdPeriph_Driver/src/misc.c -mcpu=cortex-m3
  28              	@ -mthumb -mfloat-abi=soft -mlibarch=armv7-m -march=armv7-m
  29              	@ -auxbase-strip stm32f10x_lib/STM32F10x_StdPeriph_Driver/src/misc.o -g
  30              	@ -gdwarf-2 -Os -Wall -fomit-frame-pointer -fverbose-asm
  31              	@ options enabled:  -faggressive-loop-optimizations -fallocation-dce
  32              	@ -fauto-inc-dec -fbranch-count-reg -fcaller-saves -fcode-hoisting
  33              	@ -fcombine-stack-adjustments -fcompare-elim -fcprop-registers
  34              	@ -fcrossjumping -fcse-follow-jumps -fdefer-pop
  35              	@ -fdelete-null-pointer-checks -fdevirtualize -fdevirtualize-speculatively
  36              	@ -fdwarf2-cfi-asm -fearly-inlining -feliminate-unused-debug-symbols
  37              	@ -feliminate-unused-debug-types -fexpensive-optimizations
  38              	@ -fforward-propagate -ffp-int-builtin-inexact -ffunction-cse -fgcse
  39              	@ -fgcse-lm -fgnu-unique -fguess-branch-probability -fhoist-adjacent-loads
  40              	@ -fident -fif-conversion -fif-conversion2 -findirect-inlining -finline
  41              	@ -finline-atomics -finline-functions -finline-functions-called-once
  42              	@ -finline-small-functions -fipa-bit-cp -fipa-cp -fipa-icf
  43              	@ -fipa-icf-functions -fipa-icf-variables -fipa-profile -fipa-pure-const
  44              	@ -fipa-ra -fipa-reference -fipa-reference-addressable -fipa-sra
  45              	@ -fipa-stack-alignment -fipa-vrp -fira-hoist-pressure
  46              	@ -fira-share-save-slots -fira-share-spill-slots
  47              	@ -fisolate-erroneous-paths-dereference -fivopts -fkeep-static-consts
  48              	@ -fleading-underscore -flifetime-dse -flra-remat -fmath-errno
  49              	@ -fmerge-constants -fmerge-debug-strings -fmove-loop-invariants
  50              	@ -fomit-frame-pointer -foptimize-sibling-calls -fpartial-inlining
  51              	@ -fpeephole -fpeephole2 -fplt -fprefetch-loop-arrays -freg-struct-return
  52              	@ -freorder-blocks -freorder-functions -frerun-cse-after-loop
  53              	@ -fsched-critical-path-heuristic -fsched-dep-count-heuristic
  54              	@ -fsched-group-heuristic -fsched-interblock -fsched-last-insn-heuristic
  55              	@ -fsched-pressure -fsched-rank-heuristic -fsched-spec
  56              	@ -fsched-spec-insn-heuristic -fsched-stalled-insns-dep -fschedule-insns2
  57              	@ -fsection-anchors -fsemantic-interposition -fshow-column
ARM GAS  C:\Users\ADMINI~1\AppData\Local\Temp\ccdLdlM3.s 			page 2


  58              	@ -fshrink-wrap-separate -fsigned-zeros -fsplit-ivs-in-unroller
  59              	@ -fsplit-wide-types -fssa-backprop -fssa-phiopt -fstdarg-opt
  60              	@ -fstore-merging -fstrict-aliasing -fstrict-volatile-bitfields
  61              	@ -fsync-libcalls -fthread-jumps -ftoplevel-reorder -ftrapping-math
  62              	@ -ftree-bit-ccp -ftree-builtin-call-dce -ftree-ccp -ftree-ch
  63              	@ -ftree-coalesce-vars -ftree-copy-prop -ftree-cselim -ftree-dce
  64              	@ -ftree-dominator-opts -ftree-dse -ftree-forwprop -ftree-fre
  65              	@ -ftree-loop-distribute-patterns -ftree-loop-if-convert -ftree-loop-im
  66              	@ -ftree-loop-ivcanon -ftree-loop-optimize -ftree-parallelize-loops=
  67              	@ -ftree-phiprop -ftree-pre -ftree-pta -ftree-reassoc -ftree-scev-cprop
  68              	@ -ftree-sink -ftree-slsr -ftree-sra -ftree-switch-conversion
  69              	@ -ftree-tail-merge -ftree-ter -ftree-vrp -funit-at-a-time -fvar-tracking
  70              	@ -fvar-tracking-assignments -fverbose-asm -fzero-initialized-in-bss
  71              	@ -masm-syntax-unified -mbe32 -mfix-cortex-m3-ldrd -mlittle-endian
  72              	@ -mpic-data-is-text-relative -msched-prolog -mthumb -munaligned-access
  73              	@ -mvectorize-with-neon-quad
  74              	
  75              		.text
  76              	.Ltext0:
  77              		.cfi_sections	.debug_frame
  78              		.align	1
  79              		.global	NVIC_PriorityGroupConfig
  80              		.syntax unified
  81              		.thumb
  82              		.thumb_func
  83              		.type	NVIC_PriorityGroupConfig, %function
  84              	NVIC_PriorityGroupConfig:
  85              	.LVL0:
  86              	.LFB29:
  87              		.file 1 "stm32f10x_lib/STM32F10x_StdPeriph_Driver/src/misc.c"
   1:stm32f10x_lib/STM32F10x_StdPeriph_Driver/src/misc.c **** /**
   2:stm32f10x_lib/STM32F10x_StdPeriph_Driver/src/misc.c ****   ******************************************************************************
   3:stm32f10x_lib/STM32F10x_StdPeriph_Driver/src/misc.c ****   * @file    misc.c
   4:stm32f10x_lib/STM32F10x_StdPeriph_Driver/src/misc.c ****   * @author  MCD Application Team
   5:stm32f10x_lib/STM32F10x_StdPeriph_Driver/src/misc.c ****   * @version V3.5.0
   6:stm32f10x_lib/STM32F10x_StdPeriph_Driver/src/misc.c ****   * @date    11-March-2011
   7:stm32f10x_lib/STM32F10x_StdPeriph_Driver/src/misc.c ****   * @brief   This file provides all the miscellaneous firmware functions (add-on
   8:stm32f10x_lib/STM32F10x_StdPeriph_Driver/src/misc.c ****   *          to CMSIS functions).
   9:stm32f10x_lib/STM32F10x_StdPeriph_Driver/src/misc.c ****   ******************************************************************************
  10:stm32f10x_lib/STM32F10x_StdPeriph_Driver/src/misc.c ****   * @attention
  11:stm32f10x_lib/STM32F10x_StdPeriph_Driver/src/misc.c ****   *
  12:stm32f10x_lib/STM32F10x_StdPeriph_Driver/src/misc.c ****   * THE PRESENT FIRMWARE WHICH IS FOR GUIDANCE ONLY AIMS AT PROVIDING CUSTOMERS
  13:stm32f10x_lib/STM32F10x_StdPeriph_Driver/src/misc.c ****   * WITH CODING INFORMATION REGARDING THEIR PRODUCTS IN ORDER FOR THEM TO SAVE
  14:stm32f10x_lib/STM32F10x_StdPeriph_Driver/src/misc.c ****   * TIME. AS A RESULT, STMICROELECTRONICS SHALL NOT BE HELD LIABLE FOR ANY
  15:stm32f10x_lib/STM32F10x_StdPeriph_Driver/src/misc.c ****   * DIRECT, INDIRECT OR CONSEQUENTIAL DAMAGES WITH RESPECT TO ANY CLAIMS ARISING
  16:stm32f10x_lib/STM32F10x_StdPeriph_Driver/src/misc.c ****   * FROM THE CONTENT OF SUCH FIRMWARE AND/OR THE USE MADE BY CUSTOMERS OF THE
  17:stm32f10x_lib/STM32F10x_StdPeriph_Driver/src/misc.c ****   * CODING INFORMATION CONTAINED HEREIN IN CONNECTION WITH THEIR PRODUCTS.
  18:stm32f10x_lib/STM32F10x_StdPeriph_Driver/src/misc.c ****   *
  19:stm32f10x_lib/STM32F10x_StdPeriph_Driver/src/misc.c ****   * <h2><center>&copy; COPYRIGHT 2011 STMicroelectronics</center></h2>
  20:stm32f10x_lib/STM32F10x_StdPeriph_Driver/src/misc.c ****   ******************************************************************************
  21:stm32f10x_lib/STM32F10x_StdPeriph_Driver/src/misc.c ****   */
  22:stm32f10x_lib/STM32F10x_StdPeriph_Driver/src/misc.c **** 
  23:stm32f10x_lib/STM32F10x_StdPeriph_Driver/src/misc.c **** /* Includes ------------------------------------------------------------------*/
  24:stm32f10x_lib/STM32F10x_StdPeriph_Driver/src/misc.c **** #include "misc.h"
  25:stm32f10x_lib/STM32F10x_StdPeriph_Driver/src/misc.c **** 
  26:stm32f10x_lib/STM32F10x_StdPeriph_Driver/src/misc.c **** /** @addtogroup STM32F10x_StdPeriph_Driver
  27:stm32f10x_lib/STM32F10x_StdPeriph_Driver/src/misc.c ****   * @{
ARM GAS  C:\Users\ADMINI~1\AppData\Local\Temp\ccdLdlM3.s 			page 3


  28:stm32f10x_lib/STM32F10x_StdPeriph_Driver/src/misc.c ****   */
  29:stm32f10x_lib/STM32F10x_StdPeriph_Driver/src/misc.c **** 
  30:stm32f10x_lib/STM32F10x_StdPeriph_Driver/src/misc.c **** /** @defgroup MISC 
  31:stm32f10x_lib/STM32F10x_StdPeriph_Driver/src/misc.c ****   * @brief MISC driver modules
  32:stm32f10x_lib/STM32F10x_StdPeriph_Driver/src/misc.c ****   * @{
  33:stm32f10x_lib/STM32F10x_StdPeriph_Driver/src/misc.c ****   */
  34:stm32f10x_lib/STM32F10x_StdPeriph_Driver/src/misc.c **** 
  35:stm32f10x_lib/STM32F10x_StdPeriph_Driver/src/misc.c **** /** @defgroup MISC_Private_TypesDefinitions
  36:stm32f10x_lib/STM32F10x_StdPeriph_Driver/src/misc.c ****   * @{
  37:stm32f10x_lib/STM32F10x_StdPeriph_Driver/src/misc.c ****   */
  38:stm32f10x_lib/STM32F10x_StdPeriph_Driver/src/misc.c **** 
  39:stm32f10x_lib/STM32F10x_StdPeriph_Driver/src/misc.c **** /**
  40:stm32f10x_lib/STM32F10x_StdPeriph_Driver/src/misc.c ****   * @}
  41:stm32f10x_lib/STM32F10x_StdPeriph_Driver/src/misc.c ****   */ 
  42:stm32f10x_lib/STM32F10x_StdPeriph_Driver/src/misc.c **** 
  43:stm32f10x_lib/STM32F10x_StdPeriph_Driver/src/misc.c **** /** @defgroup MISC_Private_Defines
  44:stm32f10x_lib/STM32F10x_StdPeriph_Driver/src/misc.c ****   * @{
  45:stm32f10x_lib/STM32F10x_StdPeriph_Driver/src/misc.c ****   */
  46:stm32f10x_lib/STM32F10x_StdPeriph_Driver/src/misc.c **** 
  47:stm32f10x_lib/STM32F10x_StdPeriph_Driver/src/misc.c **** #define AIRCR_VECTKEY_MASK    ((uint32_t)0x05FA0000)
  48:stm32f10x_lib/STM32F10x_StdPeriph_Driver/src/misc.c **** /**
  49:stm32f10x_lib/STM32F10x_StdPeriph_Driver/src/misc.c ****   * @}
  50:stm32f10x_lib/STM32F10x_StdPeriph_Driver/src/misc.c ****   */
  51:stm32f10x_lib/STM32F10x_StdPeriph_Driver/src/misc.c **** 
  52:stm32f10x_lib/STM32F10x_StdPeriph_Driver/src/misc.c **** /** @defgroup MISC_Private_Macros
  53:stm32f10x_lib/STM32F10x_StdPeriph_Driver/src/misc.c ****   * @{
  54:stm32f10x_lib/STM32F10x_StdPeriph_Driver/src/misc.c ****   */
  55:stm32f10x_lib/STM32F10x_StdPeriph_Driver/src/misc.c **** 
  56:stm32f10x_lib/STM32F10x_StdPeriph_Driver/src/misc.c **** /**
  57:stm32f10x_lib/STM32F10x_StdPeriph_Driver/src/misc.c ****   * @}
  58:stm32f10x_lib/STM32F10x_StdPeriph_Driver/src/misc.c ****   */
  59:stm32f10x_lib/STM32F10x_StdPeriph_Driver/src/misc.c **** 
  60:stm32f10x_lib/STM32F10x_StdPeriph_Driver/src/misc.c **** /** @defgroup MISC_Private_Variables
  61:stm32f10x_lib/STM32F10x_StdPeriph_Driver/src/misc.c ****   * @{
  62:stm32f10x_lib/STM32F10x_StdPeriph_Driver/src/misc.c ****   */
  63:stm32f10x_lib/STM32F10x_StdPeriph_Driver/src/misc.c **** 
  64:stm32f10x_lib/STM32F10x_StdPeriph_Driver/src/misc.c **** /**
  65:stm32f10x_lib/STM32F10x_StdPeriph_Driver/src/misc.c ****   * @}
  66:stm32f10x_lib/STM32F10x_StdPeriph_Driver/src/misc.c ****   */
  67:stm32f10x_lib/STM32F10x_StdPeriph_Driver/src/misc.c **** 
  68:stm32f10x_lib/STM32F10x_StdPeriph_Driver/src/misc.c **** /** @defgroup MISC_Private_FunctionPrototypes
  69:stm32f10x_lib/STM32F10x_StdPeriph_Driver/src/misc.c ****   * @{
  70:stm32f10x_lib/STM32F10x_StdPeriph_Driver/src/misc.c ****   */
  71:stm32f10x_lib/STM32F10x_StdPeriph_Driver/src/misc.c **** 
  72:stm32f10x_lib/STM32F10x_StdPeriph_Driver/src/misc.c **** /**
  73:stm32f10x_lib/STM32F10x_StdPeriph_Driver/src/misc.c ****   * @}
  74:stm32f10x_lib/STM32F10x_StdPeriph_Driver/src/misc.c ****   */
  75:stm32f10x_lib/STM32F10x_StdPeriph_Driver/src/misc.c **** 
  76:stm32f10x_lib/STM32F10x_StdPeriph_Driver/src/misc.c **** /** @defgroup MISC_Private_Functions
  77:stm32f10x_lib/STM32F10x_StdPeriph_Driver/src/misc.c ****   * @{
  78:stm32f10x_lib/STM32F10x_StdPeriph_Driver/src/misc.c ****   */
  79:stm32f10x_lib/STM32F10x_StdPeriph_Driver/src/misc.c **** 
  80:stm32f10x_lib/STM32F10x_StdPeriph_Driver/src/misc.c **** /**
  81:stm32f10x_lib/STM32F10x_StdPeriph_Driver/src/misc.c ****   * @brief  Configures the priority grouping: pre-emption priority and subpriority.
  82:stm32f10x_lib/STM32F10x_StdPeriph_Driver/src/misc.c ****   * @param  NVIC_PriorityGroup: specifies the priority grouping bits length. 
  83:stm32f10x_lib/STM32F10x_StdPeriph_Driver/src/misc.c ****   *   This parameter can be one of the following values:
  84:stm32f10x_lib/STM32F10x_StdPeriph_Driver/src/misc.c ****   *     @arg NVIC_PriorityGroup_0: 0 bits for pre-emption priority
ARM GAS  C:\Users\ADMINI~1\AppData\Local\Temp\ccdLdlM3.s 			page 4


  85:stm32f10x_lib/STM32F10x_StdPeriph_Driver/src/misc.c ****   *                                4 bits for subpriority
  86:stm32f10x_lib/STM32F10x_StdPeriph_Driver/src/misc.c ****   *     @arg NVIC_PriorityGroup_1: 1 bits for pre-emption priority
  87:stm32f10x_lib/STM32F10x_StdPeriph_Driver/src/misc.c ****   *                                3 bits for subpriority
  88:stm32f10x_lib/STM32F10x_StdPeriph_Driver/src/misc.c ****   *     @arg NVIC_PriorityGroup_2: 2 bits for pre-emption priority
  89:stm32f10x_lib/STM32F10x_StdPeriph_Driver/src/misc.c ****   *                                2 bits for subpriority
  90:stm32f10x_lib/STM32F10x_StdPeriph_Driver/src/misc.c ****   *     @arg NVIC_PriorityGroup_3: 3 bits for pre-emption priority
  91:stm32f10x_lib/STM32F10x_StdPeriph_Driver/src/misc.c ****   *                                1 bits for subpriority
  92:stm32f10x_lib/STM32F10x_StdPeriph_Driver/src/misc.c ****   *     @arg NVIC_PriorityGroup_4: 4 bits for pre-emption priority
  93:stm32f10x_lib/STM32F10x_StdPeriph_Driver/src/misc.c ****   *                                0 bits for subpriority
  94:stm32f10x_lib/STM32F10x_StdPeriph_Driver/src/misc.c ****   * @retval None
  95:stm32f10x_lib/STM32F10x_StdPeriph_Driver/src/misc.c ****   */
  96:stm32f10x_lib/STM32F10x_StdPeriph_Driver/src/misc.c **** void NVIC_PriorityGroupConfig(uint32_t NVIC_PriorityGroup)
  97:stm32f10x_lib/STM32F10x_StdPeriph_Driver/src/misc.c **** {
  88              		.loc 1 97 1 view -0
  89              		.cfi_startproc
  90              		@ args = 0, pretend = 0, frame = 0
  91              		@ frame_needed = 0, uses_anonymous_args = 0
  92              		@ link register save eliminated.
  98:stm32f10x_lib/STM32F10x_StdPeriph_Driver/src/misc.c ****   /* Check the parameters */
  99:stm32f10x_lib/STM32F10x_StdPeriph_Driver/src/misc.c ****   assert_param(IS_NVIC_PRIORITY_GROUP(NVIC_PriorityGroup));
  93              		.loc 1 99 3 view .LVU1
 100:stm32f10x_lib/STM32F10x_StdPeriph_Driver/src/misc.c ****   
 101:stm32f10x_lib/STM32F10x_StdPeriph_Driver/src/misc.c ****   /* Set the PRIGROUP[10:8] bits according to NVIC_PriorityGroup value */
 102:stm32f10x_lib/STM32F10x_StdPeriph_Driver/src/misc.c ****   SCB->AIRCR = AIRCR_VECTKEY_MASK | NVIC_PriorityGroup;
  94              		.loc 1 102 3 view .LVU2
  95              	@ stm32f10x_lib/STM32F10x_StdPeriph_Driver/src/misc.c:102:   SCB->AIRCR = AIRCR_VECTKEY_MASK | NVIC
  96              		.loc 1 102 14 is_stmt 0 view .LVU3
  97 0000 034B     		ldr	r3, .L2	@ tmp116,
  98              	@ stm32f10x_lib/STM32F10x_StdPeriph_Driver/src/misc.c:102:   SCB->AIRCR = AIRCR_VECTKEY_MASK | NVIC
  99              		.loc 1 102 35 view .LVU4
 100 0002 40F0BF60 		orr	r0, r0, #100139008	@ _1, tmp117,
 101              	.LVL1:
 102              		.loc 1 102 35 view .LVU5
 103 0006 40F40030 		orr	r0, r0, #131072	@ _1, _1,
 104              	@ stm32f10x_lib/STM32F10x_StdPeriph_Driver/src/misc.c:102:   SCB->AIRCR = AIRCR_VECTKEY_MASK | NVIC
 105              		.loc 1 102 14 view .LVU6
 106 000a D860     		str	r0, [r3, #12]	@ _1, MEM[(struct SCB_Type *)3758157056B].AIRCR
 107              	@ stm32f10x_lib/STM32F10x_StdPeriph_Driver/src/misc.c:103: }
 103:stm32f10x_lib/STM32F10x_StdPeriph_Driver/src/misc.c **** }
 108              		.loc 1 103 1 view .LVU7
 109 000c 7047     		bx	lr	@
 110              	.L3:
 111 000e 00BF     		.align	2
 112              	.L2:
 113 0010 00ED00E0 		.word	-536810240
 114              		.cfi_endproc
 115              	.LFE29:
 116              		.size	NVIC_PriorityGroupConfig, .-NVIC_PriorityGroupConfig
 117              		.align	1
 118              		.global	NVIC_Init
 119              		.syntax unified
 120              		.thumb
 121              		.thumb_func
 122              		.type	NVIC_Init, %function
 123              	NVIC_Init:
 124              	.LVL2:
 125              	.LFB30:
ARM GAS  C:\Users\ADMINI~1\AppData\Local\Temp\ccdLdlM3.s 			page 5


 104:stm32f10x_lib/STM32F10x_StdPeriph_Driver/src/misc.c **** 
 105:stm32f10x_lib/STM32F10x_StdPeriph_Driver/src/misc.c **** /**
 106:stm32f10x_lib/STM32F10x_StdPeriph_Driver/src/misc.c ****   * @brief  Initializes the NVIC peripheral according to the specified
 107:stm32f10x_lib/STM32F10x_StdPeriph_Driver/src/misc.c ****   *         parameters in the NVIC_InitStruct.
 108:stm32f10x_lib/STM32F10x_StdPeriph_Driver/src/misc.c ****   * @param  NVIC_InitStruct: pointer to a NVIC_InitTypeDef structure that contains
 109:stm32f10x_lib/STM32F10x_StdPeriph_Driver/src/misc.c ****   *         the configuration information for the specified NVIC peripheral.
 110:stm32f10x_lib/STM32F10x_StdPeriph_Driver/src/misc.c ****   * @retval None
 111:stm32f10x_lib/STM32F10x_StdPeriph_Driver/src/misc.c ****   */
 112:stm32f10x_lib/STM32F10x_StdPeriph_Driver/src/misc.c **** void NVIC_Init(NVIC_InitTypeDef* NVIC_InitStruct)
 113:stm32f10x_lib/STM32F10x_StdPeriph_Driver/src/misc.c **** {
 126              		.loc 1 113 1 is_stmt 1 view -0
 127              		.cfi_startproc
 128              		@ args = 0, pretend = 0, frame = 0
 129              		@ frame_needed = 0, uses_anonymous_args = 0
 114:stm32f10x_lib/STM32F10x_StdPeriph_Driver/src/misc.c ****   uint32_t tmppriority = 0x00, tmppre = 0x00, tmpsub = 0x0F;
 130              		.loc 1 114 3 view .LVU9
 115:stm32f10x_lib/STM32F10x_StdPeriph_Driver/src/misc.c ****   
 116:stm32f10x_lib/STM32F10x_StdPeriph_Driver/src/misc.c ****   /* Check the parameters */
 117:stm32f10x_lib/STM32F10x_StdPeriph_Driver/src/misc.c ****   assert_param(IS_FUNCTIONAL_STATE(NVIC_InitStruct->NVIC_IRQChannelCmd));
 131              		.loc 1 117 3 view .LVU10
 118:stm32f10x_lib/STM32F10x_StdPeriph_Driver/src/misc.c ****   assert_param(IS_NVIC_PREEMPTION_PRIORITY(NVIC_InitStruct->NVIC_IRQChannelPreemptionPriority));  
 132              		.loc 1 118 3 view .LVU11
 119:stm32f10x_lib/STM32F10x_StdPeriph_Driver/src/misc.c ****   assert_param(IS_NVIC_SUB_PRIORITY(NVIC_InitStruct->NVIC_IRQChannelSubPriority));
 133              		.loc 1 119 3 view .LVU12
 120:stm32f10x_lib/STM32F10x_StdPeriph_Driver/src/misc.c ****     
 121:stm32f10x_lib/STM32F10x_StdPeriph_Driver/src/misc.c ****   if (NVIC_InitStruct->NVIC_IRQChannelCmd != DISABLE)
 134              		.loc 1 121 3 view .LVU13
 135              	@ stm32f10x_lib/STM32F10x_StdPeriph_Driver/src/misc.c:113: {
 113:stm32f10x_lib/STM32F10x_StdPeriph_Driver/src/misc.c ****   uint32_t tmppriority = 0x00, tmppre = 0x00, tmpsub = 0x0F;
 136              		.loc 1 113 1 is_stmt 0 view .LVU14
 137 0014 70B5     		push	{r4, r5, r6, lr}	@
 138              	.LCFI0:
 139              		.cfi_def_cfa_offset 16
 140              		.cfi_offset 4, -16
 141              		.cfi_offset 5, -12
 142              		.cfi_offset 6, -8
 143              		.cfi_offset 14, -4
 144              	@ stm32f10x_lib/STM32F10x_StdPeriph_Driver/src/misc.c:136:       (uint32_t)0x01 << (NVIC_InitStruct
 122:stm32f10x_lib/STM32F10x_StdPeriph_Driver/src/misc.c ****   {
 123:stm32f10x_lib/STM32F10x_StdPeriph_Driver/src/misc.c ****     /* Compute the Corresponding IRQ Priority --------------------------------*/    
 124:stm32f10x_lib/STM32F10x_StdPeriph_Driver/src/misc.c ****     tmppriority = (0x700 - ((SCB->AIRCR) & (uint32_t)0x700))>> 0x08;
 125:stm32f10x_lib/STM32F10x_StdPeriph_Driver/src/misc.c ****     tmppre = (0x4 - tmppriority);
 126:stm32f10x_lib/STM32F10x_StdPeriph_Driver/src/misc.c ****     tmpsub = tmpsub >> tmppriority;
 127:stm32f10x_lib/STM32F10x_StdPeriph_Driver/src/misc.c **** 
 128:stm32f10x_lib/STM32F10x_StdPeriph_Driver/src/misc.c ****     tmppriority = (uint32_t)NVIC_InitStruct->NVIC_IRQChannelPreemptionPriority << tmppre;
 129:stm32f10x_lib/STM32F10x_StdPeriph_Driver/src/misc.c ****     tmppriority |=  NVIC_InitStruct->NVIC_IRQChannelSubPriority & tmpsub;
 130:stm32f10x_lib/STM32F10x_StdPeriph_Driver/src/misc.c ****     tmppriority = tmppriority << 0x04;
 131:stm32f10x_lib/STM32F10x_StdPeriph_Driver/src/misc.c ****         
 132:stm32f10x_lib/STM32F10x_StdPeriph_Driver/src/misc.c ****     NVIC->IP[NVIC_InitStruct->NVIC_IRQChannel] = tmppriority;
 133:stm32f10x_lib/STM32F10x_StdPeriph_Driver/src/misc.c ****     
 134:stm32f10x_lib/STM32F10x_StdPeriph_Driver/src/misc.c ****     /* Enable the Selected IRQ Channels --------------------------------------*/
 135:stm32f10x_lib/STM32F10x_StdPeriph_Driver/src/misc.c ****     NVIC->ISER[NVIC_InitStruct->NVIC_IRQChannel >> 0x05] =
 136:stm32f10x_lib/STM32F10x_StdPeriph_Driver/src/misc.c ****       (uint32_t)0x01 << (NVIC_InitStruct->NVIC_IRQChannel & (uint8_t)0x1F);
 145              		.loc 1 136 22 view .LVU15
 146 0016 0125     		movs	r5, #1	@ tmp140,
 147              	@ stm32f10x_lib/STM32F10x_StdPeriph_Driver/src/misc.c:132:     NVIC->IP[NVIC_InitStruct->NVIC_IRQCh
 132:stm32f10x_lib/STM32F10x_StdPeriph_Driver/src/misc.c ****     
ARM GAS  C:\Users\ADMINI~1\AppData\Local\Temp\ccdLdlM3.s 			page 6


 148              		.loc 1 132 29 view .LVU16
 149 0018 0178     		ldrb	r1, [r0]	@ zero_extendqisi2	@ pretmp_36, NVIC_InitStruct_26(D)->NVIC_IRQChannel
 150              	@ stm32f10x_lib/STM32F10x_StdPeriph_Driver/src/misc.c:136:       (uint32_t)0x01 << (NVIC_InitStruct
 151              		.loc 1 136 59 view .LVU17
 152 001a 01F01F03 		and	r3, r1, #31	@ tmp139, pretmp_36,
 153              	@ stm32f10x_lib/STM32F10x_StdPeriph_Driver/src/misc.c:136:       (uint32_t)0x01 << (NVIC_InitStruct
 154              		.loc 1 136 22 view .LVU18
 155 001e 9D40     		lsls	r5, r5, r3	@ _41, tmp140, tmp139
 156              	@ stm32f10x_lib/STM32F10x_StdPeriph_Driver/src/misc.c:121:   if (NVIC_InitStruct->NVIC_IRQChannelCm
 121:stm32f10x_lib/STM32F10x_StdPeriph_Driver/src/misc.c ****   {
 157              		.loc 1 121 6 view .LVU19
 158 0020 C378     		ldrb	r3, [r0, #3]	@ zero_extendqisi2	@ NVIC_InitStruct_26(D)->NVIC_IRQChannelCmd, NVIC_InitStruct_
 159              	@ stm32f10x_lib/STM32F10x_StdPeriph_Driver/src/misc.c:135:     NVIC->ISER[NVIC_InitStruct->NVIC_IRQ
 135:stm32f10x_lib/STM32F10x_StdPeriph_Driver/src/misc.c ****       (uint32_t)0x01 << (NVIC_InitStruct->NVIC_IRQChannel & (uint8_t)0x1F);
 160              		.loc 1 135 49 view .LVU20
 161 0022 4C09     		lsrs	r4, r1, #5	@ _40, pretmp_36,
 162              	@ stm32f10x_lib/STM32F10x_StdPeriph_Driver/src/misc.c:121:   if (NVIC_InitStruct->NVIC_IRQChannelCm
 121:stm32f10x_lib/STM32F10x_StdPeriph_Driver/src/misc.c ****   {
 163              		.loc 1 121 6 view .LVU21
 164 0024 C3B1     		cbz	r3, .L5	@ NVIC_InitStruct_26(D)->NVIC_IRQChannelCmd,
 124:stm32f10x_lib/STM32F10x_StdPeriph_Driver/src/misc.c ****     tmppre = (0x4 - tmppriority);
 165              		.loc 1 124 5 is_stmt 1 view .LVU22
 166              	@ stm32f10x_lib/STM32F10x_StdPeriph_Driver/src/misc.c:124:     tmppriority = (0x700 - ((SCB->AIRCR)
 124:stm32f10x_lib/STM32F10x_StdPeriph_Driver/src/misc.c ****     tmppre = (0x4 - tmppriority);
 167              		.loc 1 124 33 is_stmt 0 view .LVU23
 168 0026 0F4B     		ldr	r3, .L7	@ tmp142,
 169 0028 DA68     		ldr	r2, [r3, #12]	@ _2, MEM[(struct SCB_Type *)3758157056B].AIRCR
 170              	@ stm32f10x_lib/STM32F10x_StdPeriph_Driver/src/misc.c:128:     tmppriority = (uint32_t)NVIC_InitStr
 128:stm32f10x_lib/STM32F10x_StdPeriph_Driver/src/misc.c ****     tmppriority |=  NVIC_InitStruct->NVIC_IRQChannelSubPriority & tmpsub;
 171              		.loc 1 128 19 view .LVU24
 172 002a 4378     		ldrb	r3, [r0, #1]	@ zero_extendqisi2	@ NVIC_InitStruct_26(D)->NVIC_IRQChannelPreemptionPriority, N
 173              	@ stm32f10x_lib/STM32F10x_StdPeriph_Driver/src/misc.c:124:     tmppriority = (0x700 - ((SCB->AIRCR)
 124:stm32f10x_lib/STM32F10x_StdPeriph_Driver/src/misc.c ****     tmppre = (0x4 - tmppriority);
 174              		.loc 1 124 26 view .LVU25
 175 002c D243     		mvns	r2, r2	@ tmp143, _2
 176              	@ stm32f10x_lib/STM32F10x_StdPeriph_Driver/src/misc.c:124:     tmppriority = (0x700 - ((SCB->AIRCR)
 124:stm32f10x_lib/STM32F10x_StdPeriph_Driver/src/misc.c ****     tmppre = (0x4 - tmppriority);
 177              		.loc 1 124 17 view .LVU26
 178 002e C2F30222 		ubfx	r2, r2, #8, #3	@ tmppriority, tmp143,,
 179              	.LVL3:
 125:stm32f10x_lib/STM32F10x_StdPeriph_Driver/src/misc.c ****     tmpsub = tmpsub >> tmppriority;
 180              		.loc 1 125 5 is_stmt 1 view .LVU27
 181              	@ stm32f10x_lib/STM32F10x_StdPeriph_Driver/src/misc.c:125:     tmppre = (0x4 - tmppriority);
 125:stm32f10x_lib/STM32F10x_StdPeriph_Driver/src/misc.c ****     tmpsub = tmpsub >> tmppriority;
 182              		.loc 1 125 12 is_stmt 0 view .LVU28
 183 0032 C2F10406 		rsb	r6, r2, #4	@ tmppre, tmppriority,
 184              	.LVL4:
 126:stm32f10x_lib/STM32F10x_StdPeriph_Driver/src/misc.c **** 
 185              		.loc 1 126 5 is_stmt 1 view .LVU29
 128:stm32f10x_lib/STM32F10x_StdPeriph_Driver/src/misc.c ****     tmppriority |=  NVIC_InitStruct->NVIC_IRQChannelSubPriority & tmpsub;
 186              		.loc 1 128 5 view .LVU30
 187              	@ stm32f10x_lib/STM32F10x_StdPeriph_Driver/src/misc.c:128:     tmppriority = (uint32_t)NVIC_InitStr
 128:stm32f10x_lib/STM32F10x_StdPeriph_Driver/src/misc.c ****     tmppriority |=  NVIC_InitStruct->NVIC_IRQChannelSubPriority & tmpsub;
 188              		.loc 1 128 17 is_stmt 0 view .LVU31
 189 0036 03FA06F6 		lsl	r6, r3, r6	@ tmppriority, NVIC_InitStruct_26(D)->NVIC_IRQChannelPreemptionPriority, tmppre
 190              	.LVL5:
 129:stm32f10x_lib/STM32F10x_StdPeriph_Driver/src/misc.c ****     tmppriority = tmppriority << 0x04;
ARM GAS  C:\Users\ADMINI~1\AppData\Local\Temp\ccdLdlM3.s 			page 7


 191              		.loc 1 129 5 is_stmt 1 view .LVU32
 192              	@ stm32f10x_lib/STM32F10x_StdPeriph_Driver/src/misc.c:129:     tmppriority |=  NVIC_InitStruct->NVI
 129:stm32f10x_lib/STM32F10x_StdPeriph_Driver/src/misc.c ****     tmppriority = tmppriority << 0x04;
 193              		.loc 1 129 36 is_stmt 0 view .LVU33
 194 003a 8378     		ldrb	r3, [r0, #2]	@ zero_extendqisi2	@ NVIC_InitStruct_26(D)->NVIC_IRQChannelSubPriority, NVIC_Ini
 195              	@ stm32f10x_lib/STM32F10x_StdPeriph_Driver/src/misc.c:126:     tmpsub = tmpsub >> tmppriority;
 126:stm32f10x_lib/STM32F10x_StdPeriph_Driver/src/misc.c **** 
 196              		.loc 1 126 12 view .LVU34
 197 003c 0F20     		movs	r0, #15	@ tmp148,
 198              	.LVL6:
 126:stm32f10x_lib/STM32F10x_StdPeriph_Driver/src/misc.c **** 
 199              		.loc 1 126 12 view .LVU35
 200 003e 20FA02F2 		lsr	r2, r0, r2	@ tmpsub, tmp148, tmppriority
 201              	.LVL7:
 202              	@ stm32f10x_lib/STM32F10x_StdPeriph_Driver/src/misc.c:129:     tmppriority |=  NVIC_InitStruct->NVI
 129:stm32f10x_lib/STM32F10x_StdPeriph_Driver/src/misc.c ****     tmppriority = tmppriority << 0x04;
 203              		.loc 1 129 65 view .LVU36
 204 0042 1340     		ands	r3, r3, r2	@, _9, NVIC_InitStruct_26(D)->NVIC_IRQChannelSubPriority, tmpsub
 205              	@ stm32f10x_lib/STM32F10x_StdPeriph_Driver/src/misc.c:129:     tmppriority |=  NVIC_InitStruct->NVI
 129:stm32f10x_lib/STM32F10x_StdPeriph_Driver/src/misc.c ****     tmppriority = tmppriority << 0x04;
 206              		.loc 1 129 17 view .LVU37
 207 0044 3343     		orrs	r3, r3, r6	@, tmppriority, _9, tmppriority
 208              	.LVL8:
 130:stm32f10x_lib/STM32F10x_StdPeriph_Driver/src/misc.c ****         
 209              		.loc 1 130 5 is_stmt 1 view .LVU38
 132:stm32f10x_lib/STM32F10x_StdPeriph_Driver/src/misc.c ****     
 210              		.loc 1 132 5 view .LVU39
 211              	@ stm32f10x_lib/STM32F10x_StdPeriph_Driver/src/misc.c:132:     NVIC->IP[NVIC_InitStruct->NVIC_IRQCh
 132:stm32f10x_lib/STM32F10x_StdPeriph_Driver/src/misc.c ****     
 212              		.loc 1 132 48 is_stmt 0 view .LVU40
 213 0046 084A     		ldr	r2, .L7+4	@ tmp150,
 214              	.LVL9:
 215              	@ stm32f10x_lib/STM32F10x_StdPeriph_Driver/src/misc.c:130:     tmppriority = tmppriority << 0x04;
 130:stm32f10x_lib/STM32F10x_StdPeriph_Driver/src/misc.c ****         
 216              		.loc 1 130 17 view .LVU41
 217 0048 1B01     		lsls	r3, r3, #4	@ tmppriority, tmppriority,
 218              	.LVL10:
 219              	@ stm32f10x_lib/STM32F10x_StdPeriph_Driver/src/misc.c:132:     NVIC->IP[NVIC_InitStruct->NVIC_IRQCh
 132:stm32f10x_lib/STM32F10x_StdPeriph_Driver/src/misc.c ****     
 220              		.loc 1 132 48 view .LVU42
 221 004a DBB2     		uxtb	r3, r3	@ _12, tmppriority
 222              	.LVL11:
 132:stm32f10x_lib/STM32F10x_StdPeriph_Driver/src/misc.c ****     
 223              		.loc 1 132 48 view .LVU43
 224 004c 1144     		add	r1, r1, r2	@ tmp151, tmp150
 225 004e 81F80033 		strb	r3, [r1, #768]	@ _12, MEM[(struct NVIC_Type *)3758153984B].IP[_11]
 135:stm32f10x_lib/STM32F10x_StdPeriph_Driver/src/misc.c ****       (uint32_t)0x01 << (NVIC_InitStruct->NVIC_IRQChannel & (uint8_t)0x1F);
 226              		.loc 1 135 5 is_stmt 1 view .LVU44
 227              	@ stm32f10x_lib/STM32F10x_StdPeriph_Driver/src/misc.c:135:     NVIC->ISER[NVIC_InitStruct->NVIC_IRQ
 135:stm32f10x_lib/STM32F10x_StdPeriph_Driver/src/misc.c ****       (uint32_t)0x01 << (NVIC_InitStruct->NVIC_IRQChannel & (uint8_t)0x1F);
 228              		.loc 1 135 58 is_stmt 0 view .LVU45
 229 0052 42F82450 		str	r5, [r2, r4, lsl #2]	@ _41, MEM[(struct NVIC_Type *)3758153984B].ISER[_40]
 230              	.L4:
 231              	@ stm32f10x_lib/STM32F10x_StdPeriph_Driver/src/misc.c:144: }
 137:stm32f10x_lib/STM32F10x_StdPeriph_Driver/src/misc.c ****   }
 138:stm32f10x_lib/STM32F10x_StdPeriph_Driver/src/misc.c ****   else
 139:stm32f10x_lib/STM32F10x_StdPeriph_Driver/src/misc.c ****   {
ARM GAS  C:\Users\ADMINI~1\AppData\Local\Temp\ccdLdlM3.s 			page 8


 140:stm32f10x_lib/STM32F10x_StdPeriph_Driver/src/misc.c ****     /* Disable the Selected IRQ Channels -------------------------------------*/
 141:stm32f10x_lib/STM32F10x_StdPeriph_Driver/src/misc.c ****     NVIC->ICER[NVIC_InitStruct->NVIC_IRQChannel >> 0x05] =
 142:stm32f10x_lib/STM32F10x_StdPeriph_Driver/src/misc.c ****       (uint32_t)0x01 << (NVIC_InitStruct->NVIC_IRQChannel & (uint8_t)0x1F);
 143:stm32f10x_lib/STM32F10x_StdPeriph_Driver/src/misc.c ****   }
 144:stm32f10x_lib/STM32F10x_StdPeriph_Driver/src/misc.c **** }
 232              		.loc 1 144 1 view .LVU46
 233 0056 70BD     		pop	{r4, r5, r6, pc}	@
 234              	.LVL12:
 235              	.L5:
 141:stm32f10x_lib/STM32F10x_StdPeriph_Driver/src/misc.c ****       (uint32_t)0x01 << (NVIC_InitStruct->NVIC_IRQChannel & (uint8_t)0x1F);
 236              		.loc 1 141 5 is_stmt 1 view .LVU47
 237              	@ stm32f10x_lib/STM32F10x_StdPeriph_Driver/src/misc.c:141:     NVIC->ICER[NVIC_InitStruct->NVIC_IRQ
 141:stm32f10x_lib/STM32F10x_StdPeriph_Driver/src/misc.c ****       (uint32_t)0x01 << (NVIC_InitStruct->NVIC_IRQChannel & (uint8_t)0x1F);
 238              		.loc 1 141 58 is_stmt 0 view .LVU48
 239 0058 034B     		ldr	r3, .L7+4	@ tmp154,
 240 005a 2034     		adds	r4, r4, #32	@ tmp155, _40,
 241 005c 43F82450 		str	r5, [r3, r4, lsl #2]	@ _41, MEM[(struct NVIC_Type *)3758153984B].ICER[_40]
 242              	@ stm32f10x_lib/STM32F10x_StdPeriph_Driver/src/misc.c:144: }
 243              		.loc 1 144 1 view .LVU49
 244 0060 F9E7     		b	.L4		@
 245              	.L8:
 246 0062 00BF     		.align	2
 247              	.L7:
 248 0064 00ED00E0 		.word	-536810240
 249 0068 00E100E0 		.word	-536813312
 250              		.cfi_endproc
 251              	.LFE30:
 252              		.size	NVIC_Init, .-NVIC_Init
 253              		.align	1
 254              		.global	NVIC_SetVectorTable
 255              		.syntax unified
 256              		.thumb
 257              		.thumb_func
 258              		.type	NVIC_SetVectorTable, %function
 259              	NVIC_SetVectorTable:
 260              	.LVL13:
 261              	.LFB31:
 145:stm32f10x_lib/STM32F10x_StdPeriph_Driver/src/misc.c **** 
 146:stm32f10x_lib/STM32F10x_StdPeriph_Driver/src/misc.c **** /**
 147:stm32f10x_lib/STM32F10x_StdPeriph_Driver/src/misc.c ****   * @brief  Sets the vector table location and Offset.
 148:stm32f10x_lib/STM32F10x_StdPeriph_Driver/src/misc.c ****   * @param  NVIC_VectTab: specifies if the vector table is in RAM or FLASH memory.
 149:stm32f10x_lib/STM32F10x_StdPeriph_Driver/src/misc.c ****   *   This parameter can be one of the following values:
 150:stm32f10x_lib/STM32F10x_StdPeriph_Driver/src/misc.c ****   *     @arg NVIC_VectTab_RAM
 151:stm32f10x_lib/STM32F10x_StdPeriph_Driver/src/misc.c ****   *     @arg NVIC_VectTab_FLASH
 152:stm32f10x_lib/STM32F10x_StdPeriph_Driver/src/misc.c ****   * @param  Offset: Vector Table base offset field. This value must be a multiple 
 153:stm32f10x_lib/STM32F10x_StdPeriph_Driver/src/misc.c ****   *         of 0x200.
 154:stm32f10x_lib/STM32F10x_StdPeriph_Driver/src/misc.c ****   * @retval None
 155:stm32f10x_lib/STM32F10x_StdPeriph_Driver/src/misc.c ****   */
 156:stm32f10x_lib/STM32F10x_StdPeriph_Driver/src/misc.c **** void NVIC_SetVectorTable(uint32_t NVIC_VectTab, uint32_t Offset)
 157:stm32f10x_lib/STM32F10x_StdPeriph_Driver/src/misc.c **** { 
 262              		.loc 1 157 1 is_stmt 1 view -0
 263              		.cfi_startproc
 264              		@ args = 0, pretend = 0, frame = 0
 265              		@ frame_needed = 0, uses_anonymous_args = 0
 266              		@ link register save eliminated.
 158:stm32f10x_lib/STM32F10x_StdPeriph_Driver/src/misc.c ****   /* Check the parameters */
 159:stm32f10x_lib/STM32F10x_StdPeriph_Driver/src/misc.c ****   assert_param(IS_NVIC_VECTTAB(NVIC_VectTab));
ARM GAS  C:\Users\ADMINI~1\AppData\Local\Temp\ccdLdlM3.s 			page 9


 267              		.loc 1 159 3 view .LVU51
 160:stm32f10x_lib/STM32F10x_StdPeriph_Driver/src/misc.c ****   assert_param(IS_NVIC_OFFSET(Offset));  
 268              		.loc 1 160 3 view .LVU52
 161:stm32f10x_lib/STM32F10x_StdPeriph_Driver/src/misc.c ****    
 162:stm32f10x_lib/STM32F10x_StdPeriph_Driver/src/misc.c ****   SCB->VTOR = NVIC_VectTab | (Offset & (uint32_t)0x1FFFFF80);
 269              		.loc 1 162 3 view .LVU53
 270              	@ stm32f10x_lib/STM32F10x_StdPeriph_Driver/src/misc.c:162:   SCB->VTOR = NVIC_VectTab | (Offset & (
 271              		.loc 1 162 38 is_stmt 0 view .LVU54
 272 006c 21F06041 		bic	r1, r1, #-536870912	@ tmp117, tmp121,
 273              	.LVL14:
 274              	@ stm32f10x_lib/STM32F10x_StdPeriph_Driver/src/misc.c:162:   SCB->VTOR = NVIC_VectTab | (Offset & (
 275              		.loc 1 162 13 view .LVU55
 276 0070 024B     		ldr	r3, .L10	@ tmp119,
 277              	@ stm32f10x_lib/STM32F10x_StdPeriph_Driver/src/misc.c:162:   SCB->VTOR = NVIC_VectTab | (Offset & (
 278              		.loc 1 162 38 view .LVU56
 279 0072 21F07F01 		bic	r1, r1, #127	@ tmp117, tmp117,
 280              	@ stm32f10x_lib/STM32F10x_StdPeriph_Driver/src/misc.c:162:   SCB->VTOR = NVIC_VectTab | (Offset & (
 281              		.loc 1 162 28 view .LVU57
 282 0076 0143     		orrs	r1, r1, r0	@, _2, tmp117, tmp120
 283              	@ stm32f10x_lib/STM32F10x_StdPeriph_Driver/src/misc.c:162:   SCB->VTOR = NVIC_VectTab | (Offset & (
 284              		.loc 1 162 13 view .LVU58
 285 0078 9960     		str	r1, [r3, #8]	@ _2, MEM[(struct SCB_Type *)3758157056B].VTOR
 286              	@ stm32f10x_lib/STM32F10x_StdPeriph_Driver/src/misc.c:163: }
 163:stm32f10x_lib/STM32F10x_StdPeriph_Driver/src/misc.c **** }
 287              		.loc 1 163 1 view .LVU59
 288 007a 7047     		bx	lr	@
 289              	.L11:
 290              		.align	2
 291              	.L10:
 292 007c 00ED00E0 		.word	-536810240
 293              		.cfi_endproc
 294              	.LFE31:
 295              		.size	NVIC_SetVectorTable, .-NVIC_SetVectorTable
 296              		.align	1
 297              		.global	NVIC_SystemLPConfig
 298              		.syntax unified
 299              		.thumb
 300              		.thumb_func
 301              		.type	NVIC_SystemLPConfig, %function
 302              	NVIC_SystemLPConfig:
 303              	.LVL15:
 304              	.LFB32:
 164:stm32f10x_lib/STM32F10x_StdPeriph_Driver/src/misc.c **** 
 165:stm32f10x_lib/STM32F10x_StdPeriph_Driver/src/misc.c **** /**
 166:stm32f10x_lib/STM32F10x_StdPeriph_Driver/src/misc.c ****   * @brief  Selects the condition for the system to enter low power mode.
 167:stm32f10x_lib/STM32F10x_StdPeriph_Driver/src/misc.c ****   * @param  LowPowerMode: Specifies the new mode for the system to enter low power mode.
 168:stm32f10x_lib/STM32F10x_StdPeriph_Driver/src/misc.c ****   *   This parameter can be one of the following values:
 169:stm32f10x_lib/STM32F10x_StdPeriph_Driver/src/misc.c ****   *     @arg NVIC_LP_SEVONPEND
 170:stm32f10x_lib/STM32F10x_StdPeriph_Driver/src/misc.c ****   *     @arg NVIC_LP_SLEEPDEEP
 171:stm32f10x_lib/STM32F10x_StdPeriph_Driver/src/misc.c ****   *     @arg NVIC_LP_SLEEPONEXIT
 172:stm32f10x_lib/STM32F10x_StdPeriph_Driver/src/misc.c ****   * @param  NewState: new state of LP condition. This parameter can be: ENABLE or DISABLE.
 173:stm32f10x_lib/STM32F10x_StdPeriph_Driver/src/misc.c ****   * @retval None
 174:stm32f10x_lib/STM32F10x_StdPeriph_Driver/src/misc.c ****   */
 175:stm32f10x_lib/STM32F10x_StdPeriph_Driver/src/misc.c **** void NVIC_SystemLPConfig(uint8_t LowPowerMode, FunctionalState NewState)
 176:stm32f10x_lib/STM32F10x_StdPeriph_Driver/src/misc.c **** {
 305              		.loc 1 176 1 is_stmt 1 view -0
 306              		.cfi_startproc
ARM GAS  C:\Users\ADMINI~1\AppData\Local\Temp\ccdLdlM3.s 			page 10


 307              		@ args = 0, pretend = 0, frame = 0
 308              		@ frame_needed = 0, uses_anonymous_args = 0
 309              		@ link register save eliminated.
 177:stm32f10x_lib/STM32F10x_StdPeriph_Driver/src/misc.c ****   /* Check the parameters */
 178:stm32f10x_lib/STM32F10x_StdPeriph_Driver/src/misc.c ****   assert_param(IS_NVIC_LP(LowPowerMode));
 310              		.loc 1 178 3 view .LVU61
 179:stm32f10x_lib/STM32F10x_StdPeriph_Driver/src/misc.c ****   assert_param(IS_FUNCTIONAL_STATE(NewState));  
 311              		.loc 1 179 3 view .LVU62
 180:stm32f10x_lib/STM32F10x_StdPeriph_Driver/src/misc.c ****   
 181:stm32f10x_lib/STM32F10x_StdPeriph_Driver/src/misc.c ****   if (NewState != DISABLE)
 312              		.loc 1 181 3 view .LVU63
 313 0080 044B     		ldr	r3, .L16	@ tmp126,
 314              	@ stm32f10x_lib/STM32F10x_StdPeriph_Driver/src/misc.c:183:     SCB->SCR |= LowPowerMode;
 182:stm32f10x_lib/STM32F10x_StdPeriph_Driver/src/misc.c ****   {
 183:stm32f10x_lib/STM32F10x_StdPeriph_Driver/src/misc.c ****     SCB->SCR |= LowPowerMode;
 315              		.loc 1 183 14 is_stmt 0 view .LVU64
 316 0082 1A69     		ldr	r2, [r3, #16]	@ _1,
 317              	@ stm32f10x_lib/STM32F10x_StdPeriph_Driver/src/misc.c:181:   if (NewState != DISABLE)
 181:stm32f10x_lib/STM32F10x_StdPeriph_Driver/src/misc.c ****   {
 318              		.loc 1 181 6 view .LVU65
 319 0084 11B1     		cbz	r1, .L13	@ tmp128,
 320              		.loc 1 183 5 is_stmt 1 view .LVU66
 321              	@ stm32f10x_lib/STM32F10x_StdPeriph_Driver/src/misc.c:183:     SCB->SCR |= LowPowerMode;
 322              		.loc 1 183 14 is_stmt 0 view .LVU67
 323 0086 1043     		orrs	r0, r0, r2	@, _3, LowPowerMode, _1
 324              	.LVL16:
 325              	.L15:
 326              	@ stm32f10x_lib/STM32F10x_StdPeriph_Driver/src/misc.c:187:     SCB->SCR &= (uint32_t)(~(uint32_t)Lo
 184:stm32f10x_lib/STM32F10x_StdPeriph_Driver/src/misc.c ****   }
 185:stm32f10x_lib/STM32F10x_StdPeriph_Driver/src/misc.c ****   else
 186:stm32f10x_lib/STM32F10x_StdPeriph_Driver/src/misc.c ****   {
 187:stm32f10x_lib/STM32F10x_StdPeriph_Driver/src/misc.c ****     SCB->SCR &= (uint32_t)(~(uint32_t)LowPowerMode);
 327              		.loc 1 187 14 view .LVU68
 328 0088 1861     		str	r0, [r3, #16]	@ _7,
 329              	@ stm32f10x_lib/STM32F10x_StdPeriph_Driver/src/misc.c:189: }
 188:stm32f10x_lib/STM32F10x_StdPeriph_Driver/src/misc.c ****   }
 189:stm32f10x_lib/STM32F10x_StdPeriph_Driver/src/misc.c **** }
 330              		.loc 1 189 1 view .LVU69
 331 008a 7047     		bx	lr	@
 332              	.LVL17:
 333              	.L13:
 187:stm32f10x_lib/STM32F10x_StdPeriph_Driver/src/misc.c ****   }
 334              		.loc 1 187 5 is_stmt 1 view .LVU70
 335              	@ stm32f10x_lib/STM32F10x_StdPeriph_Driver/src/misc.c:187:     SCB->SCR &= (uint32_t)(~(uint32_t)Lo
 187:stm32f10x_lib/STM32F10x_StdPeriph_Driver/src/misc.c ****   }
 336              		.loc 1 187 14 is_stmt 0 view .LVU71
 337 008c 22EA0000 		bic	r0, r2, r0	@ _7, _4, LowPowerMode
 338              	.LVL18:
 187:stm32f10x_lib/STM32F10x_StdPeriph_Driver/src/misc.c ****   }
 339              		.loc 1 187 14 view .LVU72
 340 0090 FAE7     		b	.L15		@
 341              	.L17:
 342 0092 00BF     		.align	2
 343              	.L16:
 344 0094 00ED00E0 		.word	-536810240
 345              		.cfi_endproc
 346              	.LFE32:
ARM GAS  C:\Users\ADMINI~1\AppData\Local\Temp\ccdLdlM3.s 			page 11


 347              		.size	NVIC_SystemLPConfig, .-NVIC_SystemLPConfig
 348              		.align	1
 349              		.global	SysTick_CLKSourceConfig
 350              		.syntax unified
 351              		.thumb
 352              		.thumb_func
 353              		.type	SysTick_CLKSourceConfig, %function
 354              	SysTick_CLKSourceConfig:
 355              	.LVL19:
 356              	.LFB33:
 190:stm32f10x_lib/STM32F10x_StdPeriph_Driver/src/misc.c **** 
 191:stm32f10x_lib/STM32F10x_StdPeriph_Driver/src/misc.c **** /**
 192:stm32f10x_lib/STM32F10x_StdPeriph_Driver/src/misc.c ****   * @brief  Configures the SysTick clock source.
 193:stm32f10x_lib/STM32F10x_StdPeriph_Driver/src/misc.c ****   * @param  SysTick_CLKSource: specifies the SysTick clock source.
 194:stm32f10x_lib/STM32F10x_StdPeriph_Driver/src/misc.c ****   *   This parameter can be one of the following values:
 195:stm32f10x_lib/STM32F10x_StdPeriph_Driver/src/misc.c ****   *     @arg SysTick_CLKSource_HCLK_Div8: AHB clock divided by 8 selected as SysTick clock source.
 196:stm32f10x_lib/STM32F10x_StdPeriph_Driver/src/misc.c ****   *     @arg SysTick_CLKSource_HCLK: AHB clock selected as SysTick clock source.
 197:stm32f10x_lib/STM32F10x_StdPeriph_Driver/src/misc.c ****   * @retval None
 198:stm32f10x_lib/STM32F10x_StdPeriph_Driver/src/misc.c ****   */
 199:stm32f10x_lib/STM32F10x_StdPeriph_Driver/src/misc.c **** void SysTick_CLKSourceConfig(uint32_t SysTick_CLKSource)
 200:stm32f10x_lib/STM32F10x_StdPeriph_Driver/src/misc.c **** {
 357              		.loc 1 200 1 is_stmt 1 view -0
 358              		.cfi_startproc
 359              		@ args = 0, pretend = 0, frame = 0
 360              		@ frame_needed = 0, uses_anonymous_args = 0
 361              		@ link register save eliminated.
 201:stm32f10x_lib/STM32F10x_StdPeriph_Driver/src/misc.c ****   /* Check the parameters */
 202:stm32f10x_lib/STM32F10x_StdPeriph_Driver/src/misc.c ****   assert_param(IS_SYSTICK_CLK_SOURCE(SysTick_CLKSource));
 362              		.loc 1 202 3 view .LVU74
 203:stm32f10x_lib/STM32F10x_StdPeriph_Driver/src/misc.c ****   if (SysTick_CLKSource == SysTick_CLKSource_HCLK)
 363              		.loc 1 203 3 view .LVU75
 364 0098 4FF0E023 		mov	r3, #-536813568	@ tmp122,
 365              	@ stm32f10x_lib/STM32F10x_StdPeriph_Driver/src/misc.c:205:     SysTick->CTRL |= SysTick_CLKSource_H
 204:stm32f10x_lib/STM32F10x_StdPeriph_Driver/src/misc.c ****   {
 205:stm32f10x_lib/STM32F10x_StdPeriph_Driver/src/misc.c ****     SysTick->CTRL |= SysTick_CLKSource_HCLK;
 366              		.loc 1 205 19 is_stmt 0 view .LVU76
 367 009c 1A69     		ldr	r2, [r3, #16]	@ _1,
 368              		.loc 1 205 5 is_stmt 1 view .LVU77
 369              	@ stm32f10x_lib/STM32F10x_StdPeriph_Driver/src/misc.c:203:   if (SysTick_CLKSource == SysTick_CLKSo
 203:stm32f10x_lib/STM32F10x_StdPeriph_Driver/src/misc.c ****   if (SysTick_CLKSource == SysTick_CLKSource_HCLK)
 370              		.loc 1 203 6 is_stmt 0 view .LVU78
 371 009e 0428     		cmp	r0, #4	@ tmp123,
 372              	@ stm32f10x_lib/STM32F10x_StdPeriph_Driver/src/misc.c:205:     SysTick->CTRL |= SysTick_CLKSource_H
 373              		.loc 1 205 19 view .LVU79
 374 00a0 0CBF     		ite	eq
 375 00a2 42F00402 		orreq	r2, r2, #4	@ _2, _1,
 206:stm32f10x_lib/STM32F10x_StdPeriph_Driver/src/misc.c ****   }
 207:stm32f10x_lib/STM32F10x_StdPeriph_Driver/src/misc.c ****   else
 208:stm32f10x_lib/STM32F10x_StdPeriph_Driver/src/misc.c ****   {
 209:stm32f10x_lib/STM32F10x_StdPeriph_Driver/src/misc.c ****     SysTick->CTRL &= SysTick_CLKSource_HCLK_Div8;
 376              		.loc 1 209 5 is_stmt 1 view .LVU80
 377              	@ stm32f10x_lib/STM32F10x_StdPeriph_Driver/src/misc.c:209:     SysTick->CTRL &= SysTick_CLKSource_H
 378              		.loc 1 209 19 is_stmt 0 view .LVU81
 379 00a6 22F00402 		bicne	r2, r2, #4	@ _4, _3,
 380 00aa 1A61     		str	r2, [r3, #16]	@ _4,
 381              	@ stm32f10x_lib/STM32F10x_StdPeriph_Driver/src/misc.c:211: }
 210:stm32f10x_lib/STM32F10x_StdPeriph_Driver/src/misc.c ****   }
ARM GAS  C:\Users\ADMINI~1\AppData\Local\Temp\ccdLdlM3.s 			page 12


 211:stm32f10x_lib/STM32F10x_StdPeriph_Driver/src/misc.c **** }
 382              		.loc 1 211 1 view .LVU82
 383 00ac 7047     		bx	lr	@
 384              		.cfi_endproc
 385              	.LFE33:
 386              		.size	SysTick_CLKSourceConfig, .-SysTick_CLKSourceConfig
 387              	.Letext0:
 388              		.file 2 "c:\\program files (x86)\\gnu arm embedded toolchain\\10 2021.10\\arm-none-eabi\\include\\
 389              		.file 3 "c:\\program files (x86)\\gnu arm embedded toolchain\\10 2021.10\\arm-none-eabi\\include\\
 390              		.file 4 "./stm32f10x_lib/CMSIS/CM3/CoreSupport/core_cm3.h"
 391              		.file 5 "./stm32f10x_lib/CMSIS/CM3/DeviceSupport/ST/STM32F10x/stm32f10x.h"
 392              		.file 6 "./stm32f10x_lib/STM32F10x_StdPeriph_Driver/inc/misc.h"