ARM GAS  C:\Users\ADMINI~1\AppData\Local\Temp\cc5aRzqp.s 			page 1


   1              		.cpu cortex-m3
   2              		.arch armv7-m
   3              		.fpu softvfp
   4              		.eabi_attribute 20, 1	@ Tag_ABI_FP_denormal
   5              		.eabi_attribute 21, 1	@ Tag_ABI_FP_exceptions
   6              		.eabi_attribute 23, 3	@ Tag_ABI_FP_number_model
   7              		.eabi_attribute 24, 1	@ Tag_ABI_align8_needed
   8              		.eabi_attribute 25, 1	@ Tag_ABI_align8_preserved
   9              		.eabi_attribute 26, 1	@ Tag_ABI_enum_size
  10              		.eabi_attribute 30, 4	@ Tag_ABI_optimization_goals
  11              		.eabi_attribute 34, 1	@ Tag_CPU_unaligned_access
  12              		.eabi_attribute 18, 4	@ Tag_ABI_PCS_wchar_t
  13              		.file	"stm32f10x_gpio.c"
  14              	@ GNU C17 (GNU Arm Embedded Toolchain 10.3-2021.10) version 10.3.1 20210824 (release) (arm-none-eab
  15              	@	compiled by GNU C version 7.3-win32 20180312, GMP version 6.1.0, MPFR version 3.1.4, MPC version 
  16              	
  17              	@ GGC heuristics: --param ggc-min-expand=100 --param ggc-min-heapsize=131072
  18              	@ options passed:  -I . -I ./user -I ./stm32f10x_lib/CMSIS/CM3/CoreSupport
  19              	@ -I ./stm32f10x_lib/CMSIS/CM3/DeviceSupport/ST/STM32F10x
  20              	@ -I ./stm32f10x_lib/STM32F10x_StdPeriph_Driver/inc
  21              	@ -I ./stm32f10x_lib/STM32F10x_StdPeriph_Driver -I ./freertos/include
  22              	@ -I ./freertos/portable/GCC/ARM_CM3 -imultilib thumb/v7-m/nofp
  23              	@ -iprefix c:\program files (x86)\gnu arm embedded toolchain\10 2021.10\bin\../lib/gcc/arm-none-eab
  24              	@ -isysroot c:\program files (x86)\gnu arm embedded toolchain\10 2021.10\bin\../arm-none-eabi
  25              	@ -D__USES_INITFINI__ -D STM32F10X_MD -D USE_STDPERIPH_DRIVER
  26              	@ -D HSE_VALUE=8000000 -D RUN_FROM_FLASH=1
  27              	@ stm32f10x_lib/STM32F10x_StdPeriph_Driver/src/stm32f10x_gpio.c
  28              	@ -mcpu=cortex-m3 -mthumb -mfloat-abi=soft -mlibarch=armv7-m -march=armv7-m
  29              	@ -auxbase-strip stm32f10x_lib/STM32F10x_StdPeriph_Driver/src/stm32f10x_gpio.o
  30              	@ -g -gdwarf-2 -Os -Wall -fomit-frame-pointer -fverbose-asm
  31              	@ options enabled:  -faggressive-loop-optimizations -fallocation-dce
  32              	@ -fauto-inc-dec -fbranch-count-reg -fcaller-saves -fcode-hoisting
  33              	@ -fcombine-stack-adjustments -fcompare-elim -fcprop-registers
  34              	@ -fcrossjumping -fcse-follow-jumps -fdefer-pop
  35              	@ -fdelete-null-pointer-checks -fdevirtualize -fdevirtualize-speculatively
  36              	@ -fdwarf2-cfi-asm -fearly-inlining -feliminate-unused-debug-symbols
  37              	@ -feliminate-unused-debug-types -fexpensive-optimizations
  38              	@ -fforward-propagate -ffp-int-builtin-inexact -ffunction-cse -fgcse
  39              	@ -fgcse-lm -fgnu-unique -fguess-branch-probability -fhoist-adjacent-loads
  40              	@ -fident -fif-conversion -fif-conversion2 -findirect-inlining -finline
  41              	@ -finline-atomics -finline-functions -finline-functions-called-once
  42              	@ -finline-small-functions -fipa-bit-cp -fipa-cp -fipa-icf
  43              	@ -fipa-icf-functions -fipa-icf-variables -fipa-profile -fipa-pure-const
  44              	@ -fipa-ra -fipa-reference -fipa-reference-addressable -fipa-sra
  45              	@ -fipa-stack-alignment -fipa-vrp -fira-hoist-pressure
  46              	@ -fira-share-save-slots -fira-share-spill-slots
  47              	@ -fisolate-erroneous-paths-dereference -fivopts -fkeep-static-consts
  48              	@ -fleading-underscore -flifetime-dse -flra-remat -fmath-errno
  49              	@ -fmerge-constants -fmerge-debug-strings -fmove-loop-invariants
  50              	@ -fomit-frame-pointer -foptimize-sibling-calls -fpartial-inlining
  51              	@ -fpeephole -fpeephole2 -fplt -fprefetch-loop-arrays -freg-struct-return
  52              	@ -freorder-blocks -freorder-functions -frerun-cse-after-loop
  53              	@ -fsched-critical-path-heuristic -fsched-dep-count-heuristic
  54              	@ -fsched-group-heuristic -fsched-interblock -fsched-last-insn-heuristic
  55              	@ -fsched-pressure -fsched-rank-heuristic -fsched-spec
  56              	@ -fsched-spec-insn-heuristic -fsched-stalled-insns-dep -fschedule-insns2
  57              	@ -fsection-anchors -fsemantic-interposition -fshow-column
ARM GAS  C:\Users\ADMINI~1\AppData\Local\Temp\cc5aRzqp.s 			page 2


  58              	@ -fshrink-wrap-separate -fsigned-zeros -fsplit-ivs-in-unroller
  59              	@ -fsplit-wide-types -fssa-backprop -fssa-phiopt -fstdarg-opt
  60              	@ -fstore-merging -fstrict-aliasing -fstrict-volatile-bitfields
  61              	@ -fsync-libcalls -fthread-jumps -ftoplevel-reorder -ftrapping-math
  62              	@ -ftree-bit-ccp -ftree-builtin-call-dce -ftree-ccp -ftree-ch
  63              	@ -ftree-coalesce-vars -ftree-copy-prop -ftree-cselim -ftree-dce
  64              	@ -ftree-dominator-opts -ftree-dse -ftree-forwprop -ftree-fre
  65              	@ -ftree-loop-distribute-patterns -ftree-loop-if-convert -ftree-loop-im
  66              	@ -ftree-loop-ivcanon -ftree-loop-optimize -ftree-parallelize-loops=
  67              	@ -ftree-phiprop -ftree-pre -ftree-pta -ftree-reassoc -ftree-scev-cprop
  68              	@ -ftree-sink -ftree-slsr -ftree-sra -ftree-switch-conversion
  69              	@ -ftree-tail-merge -ftree-ter -ftree-vrp -funit-at-a-time -fvar-tracking
  70              	@ -fvar-tracking-assignments -fverbose-asm -fzero-initialized-in-bss
  71              	@ -masm-syntax-unified -mbe32 -mfix-cortex-m3-ldrd -mlittle-endian
  72              	@ -mpic-data-is-text-relative -msched-prolog -mthumb -munaligned-access
  73              	@ -mvectorize-with-neon-quad
  74              	
  75              		.text
  76              	.Ltext0:
  77              		.cfi_sections	.debug_frame
  78              		.align	1
  79              		.global	GPIO_DeInit
  80              		.syntax unified
  81              		.thumb
  82              		.thumb_func
  83              		.type	GPIO_DeInit, %function
  84              	GPIO_DeInit:
  85              	.LVL0:
  86              	.LFB29:
  87              		.file 1 "stm32f10x_lib/STM32F10x_StdPeriph_Driver/src/stm32f10x_gpio.c"
   1:stm32f10x_lib/STM32F10x_StdPeriph_Driver/src/stm32f10x_gpio.c **** /**
   2:stm32f10x_lib/STM32F10x_StdPeriph_Driver/src/stm32f10x_gpio.c ****   ******************************************************************************
   3:stm32f10x_lib/STM32F10x_StdPeriph_Driver/src/stm32f10x_gpio.c ****   * @file    stm32f10x_gpio.c
   4:stm32f10x_lib/STM32F10x_StdPeriph_Driver/src/stm32f10x_gpio.c ****   * @author  MCD Application Team
   5:stm32f10x_lib/STM32F10x_StdPeriph_Driver/src/stm32f10x_gpio.c ****   * @version V3.5.0
   6:stm32f10x_lib/STM32F10x_StdPeriph_Driver/src/stm32f10x_gpio.c ****   * @date    11-March-2011
   7:stm32f10x_lib/STM32F10x_StdPeriph_Driver/src/stm32f10x_gpio.c ****   * @brief   This file provides all the GPIO firmware functions.
   8:stm32f10x_lib/STM32F10x_StdPeriph_Driver/src/stm32f10x_gpio.c ****   ******************************************************************************
   9:stm32f10x_lib/STM32F10x_StdPeriph_Driver/src/stm32f10x_gpio.c ****   * @attention
  10:stm32f10x_lib/STM32F10x_StdPeriph_Driver/src/stm32f10x_gpio.c ****   *
  11:stm32f10x_lib/STM32F10x_StdPeriph_Driver/src/stm32f10x_gpio.c ****   * THE PRESENT FIRMWARE WHICH IS FOR GUIDANCE ONLY AIMS AT PROVIDING CUSTOMERS
  12:stm32f10x_lib/STM32F10x_StdPeriph_Driver/src/stm32f10x_gpio.c ****   * WITH CODING INFORMATION REGARDING THEIR PRODUCTS IN ORDER FOR THEM TO SAVE
  13:stm32f10x_lib/STM32F10x_StdPeriph_Driver/src/stm32f10x_gpio.c ****   * TIME. AS A RESULT, STMICROELECTRONICS SHALL NOT BE HELD LIABLE FOR ANY
  14:stm32f10x_lib/STM32F10x_StdPeriph_Driver/src/stm32f10x_gpio.c ****   * DIRECT, INDIRECT OR CONSEQUENTIAL DAMAGES WITH RESPECT TO ANY CLAIMS ARISING
  15:stm32f10x_lib/STM32F10x_StdPeriph_Driver/src/stm32f10x_gpio.c ****   * FROM THE CONTENT OF SUCH FIRMWARE AND/OR THE USE MADE BY CUSTOMERS OF THE
  16:stm32f10x_lib/STM32F10x_StdPeriph_Driver/src/stm32f10x_gpio.c ****   * CODING INFORMATION CONTAINED HEREIN IN CONNECTION WITH THEIR PRODUCTS.
  17:stm32f10x_lib/STM32F10x_StdPeriph_Driver/src/stm32f10x_gpio.c ****   *
  18:stm32f10x_lib/STM32F10x_StdPeriph_Driver/src/stm32f10x_gpio.c ****   * <h2><center>&copy; COPYRIGHT 2011 STMicroelectronics</center></h2>
  19:stm32f10x_lib/STM32F10x_StdPeriph_Driver/src/stm32f10x_gpio.c ****   ******************************************************************************
  20:stm32f10x_lib/STM32F10x_StdPeriph_Driver/src/stm32f10x_gpio.c ****   */
  21:stm32f10x_lib/STM32F10x_StdPeriph_Driver/src/stm32f10x_gpio.c **** 
  22:stm32f10x_lib/STM32F10x_StdPeriph_Driver/src/stm32f10x_gpio.c **** /* Includes ------------------------------------------------------------------*/
  23:stm32f10x_lib/STM32F10x_StdPeriph_Driver/src/stm32f10x_gpio.c **** #include "stm32f10x_gpio.h"
  24:stm32f10x_lib/STM32F10x_StdPeriph_Driver/src/stm32f10x_gpio.c **** #include "stm32f10x_rcc.h"
  25:stm32f10x_lib/STM32F10x_StdPeriph_Driver/src/stm32f10x_gpio.c **** 
  26:stm32f10x_lib/STM32F10x_StdPeriph_Driver/src/stm32f10x_gpio.c **** /** @addtogroup STM32F10x_StdPeriph_Driver
  27:stm32f10x_lib/STM32F10x_StdPeriph_Driver/src/stm32f10x_gpio.c ****   * @{
ARM GAS  C:\Users\ADMINI~1\AppData\Local\Temp\cc5aRzqp.s 			page 3


  28:stm32f10x_lib/STM32F10x_StdPeriph_Driver/src/stm32f10x_gpio.c ****   */
  29:stm32f10x_lib/STM32F10x_StdPeriph_Driver/src/stm32f10x_gpio.c **** 
  30:stm32f10x_lib/STM32F10x_StdPeriph_Driver/src/stm32f10x_gpio.c **** /** @defgroup GPIO 
  31:stm32f10x_lib/STM32F10x_StdPeriph_Driver/src/stm32f10x_gpio.c ****   * @brief GPIO driver modules
  32:stm32f10x_lib/STM32F10x_StdPeriph_Driver/src/stm32f10x_gpio.c ****   * @{
  33:stm32f10x_lib/STM32F10x_StdPeriph_Driver/src/stm32f10x_gpio.c ****   */ 
  34:stm32f10x_lib/STM32F10x_StdPeriph_Driver/src/stm32f10x_gpio.c **** 
  35:stm32f10x_lib/STM32F10x_StdPeriph_Driver/src/stm32f10x_gpio.c **** /** @defgroup GPIO_Private_TypesDefinitions
  36:stm32f10x_lib/STM32F10x_StdPeriph_Driver/src/stm32f10x_gpio.c ****   * @{
  37:stm32f10x_lib/STM32F10x_StdPeriph_Driver/src/stm32f10x_gpio.c ****   */
  38:stm32f10x_lib/STM32F10x_StdPeriph_Driver/src/stm32f10x_gpio.c **** 
  39:stm32f10x_lib/STM32F10x_StdPeriph_Driver/src/stm32f10x_gpio.c **** /**
  40:stm32f10x_lib/STM32F10x_StdPeriph_Driver/src/stm32f10x_gpio.c ****   * @}
  41:stm32f10x_lib/STM32F10x_StdPeriph_Driver/src/stm32f10x_gpio.c ****   */
  42:stm32f10x_lib/STM32F10x_StdPeriph_Driver/src/stm32f10x_gpio.c **** 
  43:stm32f10x_lib/STM32F10x_StdPeriph_Driver/src/stm32f10x_gpio.c **** /** @defgroup GPIO_Private_Defines
  44:stm32f10x_lib/STM32F10x_StdPeriph_Driver/src/stm32f10x_gpio.c ****   * @{
  45:stm32f10x_lib/STM32F10x_StdPeriph_Driver/src/stm32f10x_gpio.c ****   */
  46:stm32f10x_lib/STM32F10x_StdPeriph_Driver/src/stm32f10x_gpio.c **** 
  47:stm32f10x_lib/STM32F10x_StdPeriph_Driver/src/stm32f10x_gpio.c **** /* ------------ RCC registers bit address in the alias region ----------------*/
  48:stm32f10x_lib/STM32F10x_StdPeriph_Driver/src/stm32f10x_gpio.c **** #define AFIO_OFFSET                 (AFIO_BASE - PERIPH_BASE)
  49:stm32f10x_lib/STM32F10x_StdPeriph_Driver/src/stm32f10x_gpio.c **** 
  50:stm32f10x_lib/STM32F10x_StdPeriph_Driver/src/stm32f10x_gpio.c **** /* --- EVENTCR Register -----*/
  51:stm32f10x_lib/STM32F10x_StdPeriph_Driver/src/stm32f10x_gpio.c **** 
  52:stm32f10x_lib/STM32F10x_StdPeriph_Driver/src/stm32f10x_gpio.c **** /* Alias word address of EVOE bit */
  53:stm32f10x_lib/STM32F10x_StdPeriph_Driver/src/stm32f10x_gpio.c **** #define EVCR_OFFSET                 (AFIO_OFFSET + 0x00)
  54:stm32f10x_lib/STM32F10x_StdPeriph_Driver/src/stm32f10x_gpio.c **** #define EVOE_BitNumber              ((uint8_t)0x07)
  55:stm32f10x_lib/STM32F10x_StdPeriph_Driver/src/stm32f10x_gpio.c **** #define EVCR_EVOE_BB                (PERIPH_BB_BASE + (EVCR_OFFSET * 32) + (EVOE_BitNumber * 4))
  56:stm32f10x_lib/STM32F10x_StdPeriph_Driver/src/stm32f10x_gpio.c **** 
  57:stm32f10x_lib/STM32F10x_StdPeriph_Driver/src/stm32f10x_gpio.c **** 
  58:stm32f10x_lib/STM32F10x_StdPeriph_Driver/src/stm32f10x_gpio.c **** /* ---  MAPR Register ---*/ 
  59:stm32f10x_lib/STM32F10x_StdPeriph_Driver/src/stm32f10x_gpio.c **** /* Alias word address of MII_RMII_SEL bit */ 
  60:stm32f10x_lib/STM32F10x_StdPeriph_Driver/src/stm32f10x_gpio.c **** #define MAPR_OFFSET                 (AFIO_OFFSET + 0x04) 
  61:stm32f10x_lib/STM32F10x_StdPeriph_Driver/src/stm32f10x_gpio.c **** #define MII_RMII_SEL_BitNumber      ((u8)0x17) 
  62:stm32f10x_lib/STM32F10x_StdPeriph_Driver/src/stm32f10x_gpio.c **** #define MAPR_MII_RMII_SEL_BB        (PERIPH_BB_BASE + (MAPR_OFFSET * 32) + (MII_RMII_SEL_BitNumber 
  63:stm32f10x_lib/STM32F10x_StdPeriph_Driver/src/stm32f10x_gpio.c **** 
  64:stm32f10x_lib/STM32F10x_StdPeriph_Driver/src/stm32f10x_gpio.c **** 
  65:stm32f10x_lib/STM32F10x_StdPeriph_Driver/src/stm32f10x_gpio.c **** #define EVCR_PORTPINCONFIG_MASK     ((uint16_t)0xFF80)
  66:stm32f10x_lib/STM32F10x_StdPeriph_Driver/src/stm32f10x_gpio.c **** #define LSB_MASK                    ((uint16_t)0xFFFF)
  67:stm32f10x_lib/STM32F10x_StdPeriph_Driver/src/stm32f10x_gpio.c **** #define DBGAFR_POSITION_MASK        ((uint32_t)0x000F0000)
  68:stm32f10x_lib/STM32F10x_StdPeriph_Driver/src/stm32f10x_gpio.c **** #define DBGAFR_SWJCFG_MASK          ((uint32_t)0xF0FFFFFF)
  69:stm32f10x_lib/STM32F10x_StdPeriph_Driver/src/stm32f10x_gpio.c **** #define DBGAFR_LOCATION_MASK        ((uint32_t)0x00200000)
  70:stm32f10x_lib/STM32F10x_StdPeriph_Driver/src/stm32f10x_gpio.c **** #define DBGAFR_NUMBITS_MASK         ((uint32_t)0x00100000)
  71:stm32f10x_lib/STM32F10x_StdPeriph_Driver/src/stm32f10x_gpio.c **** /**
  72:stm32f10x_lib/STM32F10x_StdPeriph_Driver/src/stm32f10x_gpio.c ****   * @}
  73:stm32f10x_lib/STM32F10x_StdPeriph_Driver/src/stm32f10x_gpio.c ****   */
  74:stm32f10x_lib/STM32F10x_StdPeriph_Driver/src/stm32f10x_gpio.c **** 
  75:stm32f10x_lib/STM32F10x_StdPeriph_Driver/src/stm32f10x_gpio.c **** /** @defgroup GPIO_Private_Macros
  76:stm32f10x_lib/STM32F10x_StdPeriph_Driver/src/stm32f10x_gpio.c ****   * @{
  77:stm32f10x_lib/STM32F10x_StdPeriph_Driver/src/stm32f10x_gpio.c ****   */
  78:stm32f10x_lib/STM32F10x_StdPeriph_Driver/src/stm32f10x_gpio.c **** 
  79:stm32f10x_lib/STM32F10x_StdPeriph_Driver/src/stm32f10x_gpio.c **** /**
  80:stm32f10x_lib/STM32F10x_StdPeriph_Driver/src/stm32f10x_gpio.c ****   * @}
  81:stm32f10x_lib/STM32F10x_StdPeriph_Driver/src/stm32f10x_gpio.c ****   */
  82:stm32f10x_lib/STM32F10x_StdPeriph_Driver/src/stm32f10x_gpio.c **** 
  83:stm32f10x_lib/STM32F10x_StdPeriph_Driver/src/stm32f10x_gpio.c **** /** @defgroup GPIO_Private_Variables
  84:stm32f10x_lib/STM32F10x_StdPeriph_Driver/src/stm32f10x_gpio.c ****   * @{
ARM GAS  C:\Users\ADMINI~1\AppData\Local\Temp\cc5aRzqp.s 			page 4


  85:stm32f10x_lib/STM32F10x_StdPeriph_Driver/src/stm32f10x_gpio.c ****   */
  86:stm32f10x_lib/STM32F10x_StdPeriph_Driver/src/stm32f10x_gpio.c **** 
  87:stm32f10x_lib/STM32F10x_StdPeriph_Driver/src/stm32f10x_gpio.c **** /**
  88:stm32f10x_lib/STM32F10x_StdPeriph_Driver/src/stm32f10x_gpio.c ****   * @}
  89:stm32f10x_lib/STM32F10x_StdPeriph_Driver/src/stm32f10x_gpio.c ****   */
  90:stm32f10x_lib/STM32F10x_StdPeriph_Driver/src/stm32f10x_gpio.c **** 
  91:stm32f10x_lib/STM32F10x_StdPeriph_Driver/src/stm32f10x_gpio.c **** /** @defgroup GPIO_Private_FunctionPrototypes
  92:stm32f10x_lib/STM32F10x_StdPeriph_Driver/src/stm32f10x_gpio.c ****   * @{
  93:stm32f10x_lib/STM32F10x_StdPeriph_Driver/src/stm32f10x_gpio.c ****   */
  94:stm32f10x_lib/STM32F10x_StdPeriph_Driver/src/stm32f10x_gpio.c **** 
  95:stm32f10x_lib/STM32F10x_StdPeriph_Driver/src/stm32f10x_gpio.c **** /**
  96:stm32f10x_lib/STM32F10x_StdPeriph_Driver/src/stm32f10x_gpio.c ****   * @}
  97:stm32f10x_lib/STM32F10x_StdPeriph_Driver/src/stm32f10x_gpio.c ****   */
  98:stm32f10x_lib/STM32F10x_StdPeriph_Driver/src/stm32f10x_gpio.c **** 
  99:stm32f10x_lib/STM32F10x_StdPeriph_Driver/src/stm32f10x_gpio.c **** /** @defgroup GPIO_Private_Functions
 100:stm32f10x_lib/STM32F10x_StdPeriph_Driver/src/stm32f10x_gpio.c ****   * @{
 101:stm32f10x_lib/STM32F10x_StdPeriph_Driver/src/stm32f10x_gpio.c ****   */
 102:stm32f10x_lib/STM32F10x_StdPeriph_Driver/src/stm32f10x_gpio.c **** 
 103:stm32f10x_lib/STM32F10x_StdPeriph_Driver/src/stm32f10x_gpio.c **** /**
 104:stm32f10x_lib/STM32F10x_StdPeriph_Driver/src/stm32f10x_gpio.c ****   * @brief  Deinitializes the GPIOx peripheral registers to their default reset values.
 105:stm32f10x_lib/STM32F10x_StdPeriph_Driver/src/stm32f10x_gpio.c ****   * @param  GPIOx: where x can be (A..G) to select the GPIO peripheral.
 106:stm32f10x_lib/STM32F10x_StdPeriph_Driver/src/stm32f10x_gpio.c ****   * @retval None
 107:stm32f10x_lib/STM32F10x_StdPeriph_Driver/src/stm32f10x_gpio.c ****   */
 108:stm32f10x_lib/STM32F10x_StdPeriph_Driver/src/stm32f10x_gpio.c **** void GPIO_DeInit(GPIO_TypeDef* GPIOx)
 109:stm32f10x_lib/STM32F10x_StdPeriph_Driver/src/stm32f10x_gpio.c **** {
  88              		.loc 1 109 1 view -0
  89              		.cfi_startproc
  90              		@ args = 0, pretend = 0, frame = 0
  91              		@ frame_needed = 0, uses_anonymous_args = 0
 110:stm32f10x_lib/STM32F10x_StdPeriph_Driver/src/stm32f10x_gpio.c ****   /* Check the parameters */
 111:stm32f10x_lib/STM32F10x_StdPeriph_Driver/src/stm32f10x_gpio.c ****   assert_param(IS_GPIO_ALL_PERIPH(GPIOx));
  92              		.loc 1 111 3 view .LVU1
 112:stm32f10x_lib/STM32F10x_StdPeriph_Driver/src/stm32f10x_gpio.c ****   
 113:stm32f10x_lib/STM32F10x_StdPeriph_Driver/src/stm32f10x_gpio.c ****   if (GPIOx == GPIOA)
  93              		.loc 1 113 3 view .LVU2
  94              	@ stm32f10x_lib/STM32F10x_StdPeriph_Driver/src/stm32f10x_gpio.c:109: {
 109:stm32f10x_lib/STM32F10x_StdPeriph_Driver/src/stm32f10x_gpio.c ****   /* Check the parameters */
  95              		.loc 1 109 1 is_stmt 0 view .LVU3
  96 0000 08B5     		push	{r3, lr}	@
  97              	.LCFI0:
  98              		.cfi_def_cfa_offset 8
  99              		.cfi_offset 3, -8
 100              		.cfi_offset 14, -4
 101              	@ stm32f10x_lib/STM32F10x_StdPeriph_Driver/src/stm32f10x_gpio.c:113:   if (GPIOx == GPIOA)
 102              		.loc 1 113 6 view .LVU4
 103 0002 264B     		ldr	r3, .L10	@ tmp114,
 104 0004 9842     		cmp	r0, r3	@ GPIOx, tmp114
 105 0006 09D1     		bne	.L2		@,
 114:stm32f10x_lib/STM32F10x_StdPeriph_Driver/src/stm32f10x_gpio.c ****   {
 115:stm32f10x_lib/STM32F10x_StdPeriph_Driver/src/stm32f10x_gpio.c ****     RCC_APB2PeriphResetCmd(RCC_APB2Periph_GPIOA, ENABLE);
 106              		.loc 1 115 5 is_stmt 1 view .LVU5
 107 0008 0121     		movs	r1, #1	@,
 108 000a 0420     		movs	r0, #4	@,
 109              	.LVL1:
 110              		.loc 1 115 5 is_stmt 0 view .LVU6
 111 000c FFF7FEFF 		bl	RCC_APB2PeriphResetCmd		@
 112              	.LVL2:
ARM GAS  C:\Users\ADMINI~1\AppData\Local\Temp\cc5aRzqp.s 			page 5


 116:stm32f10x_lib/STM32F10x_StdPeriph_Driver/src/stm32f10x_gpio.c ****     RCC_APB2PeriphResetCmd(RCC_APB2Periph_GPIOA, DISABLE);
 113              		.loc 1 116 5 is_stmt 1 view .LVU7
 114 0010 0021     		movs	r1, #0	@,
 115 0012 0420     		movs	r0, #4	@,
 116              	.L9:
 117              	@ stm32f10x_lib/STM32F10x_StdPeriph_Driver/src/stm32f10x_gpio.c:151: }
 117:stm32f10x_lib/STM32F10x_StdPeriph_Driver/src/stm32f10x_gpio.c ****   }
 118:stm32f10x_lib/STM32F10x_StdPeriph_Driver/src/stm32f10x_gpio.c ****   else if (GPIOx == GPIOB)
 119:stm32f10x_lib/STM32F10x_StdPeriph_Driver/src/stm32f10x_gpio.c ****   {
 120:stm32f10x_lib/STM32F10x_StdPeriph_Driver/src/stm32f10x_gpio.c ****     RCC_APB2PeriphResetCmd(RCC_APB2Periph_GPIOB, ENABLE);
 121:stm32f10x_lib/STM32F10x_StdPeriph_Driver/src/stm32f10x_gpio.c ****     RCC_APB2PeriphResetCmd(RCC_APB2Periph_GPIOB, DISABLE);
 122:stm32f10x_lib/STM32F10x_StdPeriph_Driver/src/stm32f10x_gpio.c ****   }
 123:stm32f10x_lib/STM32F10x_StdPeriph_Driver/src/stm32f10x_gpio.c ****   else if (GPIOx == GPIOC)
 124:stm32f10x_lib/STM32F10x_StdPeriph_Driver/src/stm32f10x_gpio.c ****   {
 125:stm32f10x_lib/STM32F10x_StdPeriph_Driver/src/stm32f10x_gpio.c ****     RCC_APB2PeriphResetCmd(RCC_APB2Periph_GPIOC, ENABLE);
 126:stm32f10x_lib/STM32F10x_StdPeriph_Driver/src/stm32f10x_gpio.c ****     RCC_APB2PeriphResetCmd(RCC_APB2Periph_GPIOC, DISABLE);
 127:stm32f10x_lib/STM32F10x_StdPeriph_Driver/src/stm32f10x_gpio.c ****   }
 128:stm32f10x_lib/STM32F10x_StdPeriph_Driver/src/stm32f10x_gpio.c ****   else if (GPIOx == GPIOD)
 129:stm32f10x_lib/STM32F10x_StdPeriph_Driver/src/stm32f10x_gpio.c ****   {
 130:stm32f10x_lib/STM32F10x_StdPeriph_Driver/src/stm32f10x_gpio.c ****     RCC_APB2PeriphResetCmd(RCC_APB2Periph_GPIOD, ENABLE);
 131:stm32f10x_lib/STM32F10x_StdPeriph_Driver/src/stm32f10x_gpio.c ****     RCC_APB2PeriphResetCmd(RCC_APB2Periph_GPIOD, DISABLE);
 132:stm32f10x_lib/STM32F10x_StdPeriph_Driver/src/stm32f10x_gpio.c ****   }    
 133:stm32f10x_lib/STM32F10x_StdPeriph_Driver/src/stm32f10x_gpio.c ****   else if (GPIOx == GPIOE)
 134:stm32f10x_lib/STM32F10x_StdPeriph_Driver/src/stm32f10x_gpio.c ****   {
 135:stm32f10x_lib/STM32F10x_StdPeriph_Driver/src/stm32f10x_gpio.c ****     RCC_APB2PeriphResetCmd(RCC_APB2Periph_GPIOE, ENABLE);
 136:stm32f10x_lib/STM32F10x_StdPeriph_Driver/src/stm32f10x_gpio.c ****     RCC_APB2PeriphResetCmd(RCC_APB2Periph_GPIOE, DISABLE);
 137:stm32f10x_lib/STM32F10x_StdPeriph_Driver/src/stm32f10x_gpio.c ****   } 
 138:stm32f10x_lib/STM32F10x_StdPeriph_Driver/src/stm32f10x_gpio.c ****   else if (GPIOx == GPIOF)
 139:stm32f10x_lib/STM32F10x_StdPeriph_Driver/src/stm32f10x_gpio.c ****   {
 140:stm32f10x_lib/STM32F10x_StdPeriph_Driver/src/stm32f10x_gpio.c ****     RCC_APB2PeriphResetCmd(RCC_APB2Periph_GPIOF, ENABLE);
 141:stm32f10x_lib/STM32F10x_StdPeriph_Driver/src/stm32f10x_gpio.c ****     RCC_APB2PeriphResetCmd(RCC_APB2Periph_GPIOF, DISABLE);
 142:stm32f10x_lib/STM32F10x_StdPeriph_Driver/src/stm32f10x_gpio.c ****   }
 143:stm32f10x_lib/STM32F10x_StdPeriph_Driver/src/stm32f10x_gpio.c ****   else
 144:stm32f10x_lib/STM32F10x_StdPeriph_Driver/src/stm32f10x_gpio.c ****   {
 145:stm32f10x_lib/STM32F10x_StdPeriph_Driver/src/stm32f10x_gpio.c ****     if (GPIOx == GPIOG)
 146:stm32f10x_lib/STM32F10x_StdPeriph_Driver/src/stm32f10x_gpio.c ****     {
 147:stm32f10x_lib/STM32F10x_StdPeriph_Driver/src/stm32f10x_gpio.c ****       RCC_APB2PeriphResetCmd(RCC_APB2Periph_GPIOG, ENABLE);
 148:stm32f10x_lib/STM32F10x_StdPeriph_Driver/src/stm32f10x_gpio.c ****       RCC_APB2PeriphResetCmd(RCC_APB2Periph_GPIOG, DISABLE);
 149:stm32f10x_lib/STM32F10x_StdPeriph_Driver/src/stm32f10x_gpio.c ****     }
 150:stm32f10x_lib/STM32F10x_StdPeriph_Driver/src/stm32f10x_gpio.c ****   }
 151:stm32f10x_lib/STM32F10x_StdPeriph_Driver/src/stm32f10x_gpio.c **** }
 118              		.loc 1 151 1 is_stmt 0 view .LVU8
 119 0014 BDE80840 		pop	{r3, lr}	@
 120              	.LCFI1:
 121              		.cfi_remember_state
 122              		.cfi_restore 14
 123              		.cfi_restore 3
 124              		.cfi_def_cfa_offset 0
 125              	@ stm32f10x_lib/STM32F10x_StdPeriph_Driver/src/stm32f10x_gpio.c:148:       RCC_APB2PeriphResetCmd(R
 148:stm32f10x_lib/STM32F10x_StdPeriph_Driver/src/stm32f10x_gpio.c ****     }
 126              		.loc 1 148 7 view .LVU9
 127 0018 FFF7FEBF 		b	RCC_APB2PeriphResetCmd		@
 128              	.LVL3:
 129              	.L2:
 130              	.LCFI2:
 131              		.cfi_restore_state
 118:stm32f10x_lib/STM32F10x_StdPeriph_Driver/src/stm32f10x_gpio.c ****   {
ARM GAS  C:\Users\ADMINI~1\AppData\Local\Temp\cc5aRzqp.s 			page 6


 132              		.loc 1 118 8 is_stmt 1 view .LVU10
 133              	@ stm32f10x_lib/STM32F10x_StdPeriph_Driver/src/stm32f10x_gpio.c:118:   else if (GPIOx == GPIOB)
 118:stm32f10x_lib/STM32F10x_StdPeriph_Driver/src/stm32f10x_gpio.c ****   {
 134              		.loc 1 118 11 is_stmt 0 view .LVU11
 135 001c 204B     		ldr	r3, .L10+4	@ tmp115,
 136 001e 9842     		cmp	r0, r3	@ GPIOx, tmp115
 137 0020 06D1     		bne	.L3		@,
 120:stm32f10x_lib/STM32F10x_StdPeriph_Driver/src/stm32f10x_gpio.c ****     RCC_APB2PeriphResetCmd(RCC_APB2Periph_GPIOB, DISABLE);
 138              		.loc 1 120 5 is_stmt 1 view .LVU12
 139 0022 0121     		movs	r1, #1	@,
 140 0024 0820     		movs	r0, #8	@,
 141              	.LVL4:
 120:stm32f10x_lib/STM32F10x_StdPeriph_Driver/src/stm32f10x_gpio.c ****     RCC_APB2PeriphResetCmd(RCC_APB2Periph_GPIOB, DISABLE);
 142              		.loc 1 120 5 is_stmt 0 view .LVU13
 143 0026 FFF7FEFF 		bl	RCC_APB2PeriphResetCmd		@
 144              	.LVL5:
 121:stm32f10x_lib/STM32F10x_StdPeriph_Driver/src/stm32f10x_gpio.c ****   }
 145              		.loc 1 121 5 is_stmt 1 view .LVU14
 146 002a 0021     		movs	r1, #0	@,
 147 002c 0820     		movs	r0, #8	@,
 148 002e F1E7     		b	.L9		@
 149              	.LVL6:
 150              	.L3:
 123:stm32f10x_lib/STM32F10x_StdPeriph_Driver/src/stm32f10x_gpio.c ****   {
 151              		.loc 1 123 8 view .LVU15
 152              	@ stm32f10x_lib/STM32F10x_StdPeriph_Driver/src/stm32f10x_gpio.c:123:   else if (GPIOx == GPIOC)
 123:stm32f10x_lib/STM32F10x_StdPeriph_Driver/src/stm32f10x_gpio.c ****   {
 153              		.loc 1 123 11 is_stmt 0 view .LVU16
 154 0030 1C4B     		ldr	r3, .L10+8	@ tmp116,
 155 0032 9842     		cmp	r0, r3	@ GPIOx, tmp116
 156 0034 06D1     		bne	.L4		@,
 125:stm32f10x_lib/STM32F10x_StdPeriph_Driver/src/stm32f10x_gpio.c ****     RCC_APB2PeriphResetCmd(RCC_APB2Periph_GPIOC, DISABLE);
 157              		.loc 1 125 5 is_stmt 1 view .LVU17
 158 0036 0121     		movs	r1, #1	@,
 159 0038 1020     		movs	r0, #16	@,
 160              	.LVL7:
 125:stm32f10x_lib/STM32F10x_StdPeriph_Driver/src/stm32f10x_gpio.c ****     RCC_APB2PeriphResetCmd(RCC_APB2Periph_GPIOC, DISABLE);
 161              		.loc 1 125 5 is_stmt 0 view .LVU18
 162 003a FFF7FEFF 		bl	RCC_APB2PeriphResetCmd		@
 163              	.LVL8:
 126:stm32f10x_lib/STM32F10x_StdPeriph_Driver/src/stm32f10x_gpio.c ****   }
 164              		.loc 1 126 5 is_stmt 1 view .LVU19
 165 003e 0021     		movs	r1, #0	@,
 166 0040 1020     		movs	r0, #16	@,
 167 0042 E7E7     		b	.L9		@
 168              	.LVL9:
 169              	.L4:
 128:stm32f10x_lib/STM32F10x_StdPeriph_Driver/src/stm32f10x_gpio.c ****   {
 170              		.loc 1 128 8 view .LVU20
 171              	@ stm32f10x_lib/STM32F10x_StdPeriph_Driver/src/stm32f10x_gpio.c:128:   else if (GPIOx == GPIOD)
 128:stm32f10x_lib/STM32F10x_StdPeriph_Driver/src/stm32f10x_gpio.c ****   {
 172              		.loc 1 128 11 is_stmt 0 view .LVU21
 173 0044 184B     		ldr	r3, .L10+12	@ tmp117,
 174 0046 9842     		cmp	r0, r3	@ GPIOx, tmp117
 175 0048 06D1     		bne	.L5		@,
 130:stm32f10x_lib/STM32F10x_StdPeriph_Driver/src/stm32f10x_gpio.c ****     RCC_APB2PeriphResetCmd(RCC_APB2Periph_GPIOD, DISABLE);
 176              		.loc 1 130 5 is_stmt 1 view .LVU22
ARM GAS  C:\Users\ADMINI~1\AppData\Local\Temp\cc5aRzqp.s 			page 7


 177 004a 0121     		movs	r1, #1	@,
 178 004c 2020     		movs	r0, #32	@,
 179              	.LVL10:
 130:stm32f10x_lib/STM32F10x_StdPeriph_Driver/src/stm32f10x_gpio.c ****     RCC_APB2PeriphResetCmd(RCC_APB2Periph_GPIOD, DISABLE);
 180              		.loc 1 130 5 is_stmt 0 view .LVU23
 181 004e FFF7FEFF 		bl	RCC_APB2PeriphResetCmd		@
 182              	.LVL11:
 131:stm32f10x_lib/STM32F10x_StdPeriph_Driver/src/stm32f10x_gpio.c ****   }    
 183              		.loc 1 131 5 is_stmt 1 view .LVU24
 184 0052 0021     		movs	r1, #0	@,
 185 0054 2020     		movs	r0, #32	@,
 186 0056 DDE7     		b	.L9		@
 187              	.LVL12:
 188              	.L5:
 133:stm32f10x_lib/STM32F10x_StdPeriph_Driver/src/stm32f10x_gpio.c ****   {
 189              		.loc 1 133 8 view .LVU25
 190              	@ stm32f10x_lib/STM32F10x_StdPeriph_Driver/src/stm32f10x_gpio.c:133:   else if (GPIOx == GPIOE)
 133:stm32f10x_lib/STM32F10x_StdPeriph_Driver/src/stm32f10x_gpio.c ****   {
 191              		.loc 1 133 11 is_stmt 0 view .LVU26
 192 0058 144B     		ldr	r3, .L10+16	@ tmp118,
 193 005a 9842     		cmp	r0, r3	@ GPIOx, tmp118
 194 005c 06D1     		bne	.L6		@,
 135:stm32f10x_lib/STM32F10x_StdPeriph_Driver/src/stm32f10x_gpio.c ****     RCC_APB2PeriphResetCmd(RCC_APB2Periph_GPIOE, DISABLE);
 195              		.loc 1 135 5 is_stmt 1 view .LVU27
 196 005e 0121     		movs	r1, #1	@,
 197 0060 4020     		movs	r0, #64	@,
 198              	.LVL13:
 135:stm32f10x_lib/STM32F10x_StdPeriph_Driver/src/stm32f10x_gpio.c ****     RCC_APB2PeriphResetCmd(RCC_APB2Periph_GPIOE, DISABLE);
 199              		.loc 1 135 5 is_stmt 0 view .LVU28
 200 0062 FFF7FEFF 		bl	RCC_APB2PeriphResetCmd		@
 201              	.LVL14:
 136:stm32f10x_lib/STM32F10x_StdPeriph_Driver/src/stm32f10x_gpio.c ****   } 
 202              		.loc 1 136 5 is_stmt 1 view .LVU29
 203 0066 0021     		movs	r1, #0	@,
 204 0068 4020     		movs	r0, #64	@,
 205 006a D3E7     		b	.L9		@
 206              	.LVL15:
 207              	.L6:
 138:stm32f10x_lib/STM32F10x_StdPeriph_Driver/src/stm32f10x_gpio.c ****   {
 208              		.loc 1 138 8 view .LVU30
 209              	@ stm32f10x_lib/STM32F10x_StdPeriph_Driver/src/stm32f10x_gpio.c:138:   else if (GPIOx == GPIOF)
 138:stm32f10x_lib/STM32F10x_StdPeriph_Driver/src/stm32f10x_gpio.c ****   {
 210              		.loc 1 138 11 is_stmt 0 view .LVU31
 211 006c 104B     		ldr	r3, .L10+20	@ tmp119,
 212 006e 9842     		cmp	r0, r3	@ GPIOx, tmp119
 213 0070 06D1     		bne	.L7		@,
 140:stm32f10x_lib/STM32F10x_StdPeriph_Driver/src/stm32f10x_gpio.c ****     RCC_APB2PeriphResetCmd(RCC_APB2Periph_GPIOF, DISABLE);
 214              		.loc 1 140 5 is_stmt 1 view .LVU32
 215 0072 0121     		movs	r1, #1	@,
 216 0074 8020     		movs	r0, #128	@,
 217              	.LVL16:
 140:stm32f10x_lib/STM32F10x_StdPeriph_Driver/src/stm32f10x_gpio.c ****     RCC_APB2PeriphResetCmd(RCC_APB2Periph_GPIOF, DISABLE);
 218              		.loc 1 140 5 is_stmt 0 view .LVU33
 219 0076 FFF7FEFF 		bl	RCC_APB2PeriphResetCmd		@
 220              	.LVL17:
 141:stm32f10x_lib/STM32F10x_StdPeriph_Driver/src/stm32f10x_gpio.c ****   }
 221              		.loc 1 141 5 is_stmt 1 view .LVU34
ARM GAS  C:\Users\ADMINI~1\AppData\Local\Temp\cc5aRzqp.s 			page 8


 222 007a 0021     		movs	r1, #0	@,
 223 007c 8020     		movs	r0, #128	@,
 224 007e C9E7     		b	.L9		@
 225              	.LVL18:
 226              	.L7:
 145:stm32f10x_lib/STM32F10x_StdPeriph_Driver/src/stm32f10x_gpio.c ****     {
 227              		.loc 1 145 5 view .LVU35
 228              	@ stm32f10x_lib/STM32F10x_StdPeriph_Driver/src/stm32f10x_gpio.c:145:     if (GPIOx == GPIOG)
 145:stm32f10x_lib/STM32F10x_StdPeriph_Driver/src/stm32f10x_gpio.c ****     {
 229              		.loc 1 145 8 is_stmt 0 view .LVU36
 230 0080 0C4B     		ldr	r3, .L10+24	@ tmp120,
 231 0082 9842     		cmp	r0, r3	@ GPIOx, tmp120
 232 0084 08D1     		bne	.L1		@,
 147:stm32f10x_lib/STM32F10x_StdPeriph_Driver/src/stm32f10x_gpio.c ****       RCC_APB2PeriphResetCmd(RCC_APB2Periph_GPIOG, DISABLE);
 233              		.loc 1 147 7 is_stmt 1 view .LVU37
 234 0086 0121     		movs	r1, #1	@,
 235 0088 4FF48070 		mov	r0, #256	@,
 236              	.LVL19:
 147:stm32f10x_lib/STM32F10x_StdPeriph_Driver/src/stm32f10x_gpio.c ****       RCC_APB2PeriphResetCmd(RCC_APB2Periph_GPIOG, DISABLE);
 237              		.loc 1 147 7 is_stmt 0 view .LVU38
 238 008c FFF7FEFF 		bl	RCC_APB2PeriphResetCmd		@
 239              	.LVL20:
 148:stm32f10x_lib/STM32F10x_StdPeriph_Driver/src/stm32f10x_gpio.c ****     }
 240              		.loc 1 148 7 is_stmt 1 view .LVU39
 241 0090 0021     		movs	r1, #0	@,
 242 0092 4FF48070 		mov	r0, #256	@,
 243 0096 BDE7     		b	.L9		@
 244              	.LVL21:
 245              	.L1:
 246              	@ stm32f10x_lib/STM32F10x_StdPeriph_Driver/src/stm32f10x_gpio.c:151: }
 247              		.loc 1 151 1 is_stmt 0 view .LVU40
 248 0098 08BD     		pop	{r3, pc}	@
 249              	.L11:
 250 009a 00BF     		.align	2
 251              	.L10:
 252 009c 00080140 		.word	1073809408
 253 00a0 000C0140 		.word	1073810432
 254 00a4 00100140 		.word	1073811456
 255 00a8 00140140 		.word	1073812480
 256 00ac 00180140 		.word	1073813504
 257 00b0 001C0140 		.word	1073814528
 258 00b4 00200140 		.word	1073815552
 259              		.cfi_endproc
 260              	.LFE29:
 261              		.size	GPIO_DeInit, .-GPIO_DeInit
 262              		.align	1
 263              		.global	GPIO_AFIODeInit
 264              		.syntax unified
 265              		.thumb
 266              		.thumb_func
 267              		.type	GPIO_AFIODeInit, %function
 268              	GPIO_AFIODeInit:
 269              	.LFB30:
 152:stm32f10x_lib/STM32F10x_StdPeriph_Driver/src/stm32f10x_gpio.c **** 
 153:stm32f10x_lib/STM32F10x_StdPeriph_Driver/src/stm32f10x_gpio.c **** /**
 154:stm32f10x_lib/STM32F10x_StdPeriph_Driver/src/stm32f10x_gpio.c ****   * @brief  Deinitializes the Alternate Functions (remap, event control
 155:stm32f10x_lib/STM32F10x_StdPeriph_Driver/src/stm32f10x_gpio.c ****   *   and EXTI configuration) registers to their default reset values.
ARM GAS  C:\Users\ADMINI~1\AppData\Local\Temp\cc5aRzqp.s 			page 9


 156:stm32f10x_lib/STM32F10x_StdPeriph_Driver/src/stm32f10x_gpio.c ****   * @param  None
 157:stm32f10x_lib/STM32F10x_StdPeriph_Driver/src/stm32f10x_gpio.c ****   * @retval None
 158:stm32f10x_lib/STM32F10x_StdPeriph_Driver/src/stm32f10x_gpio.c ****   */
 159:stm32f10x_lib/STM32F10x_StdPeriph_Driver/src/stm32f10x_gpio.c **** void GPIO_AFIODeInit(void)
 160:stm32f10x_lib/STM32F10x_StdPeriph_Driver/src/stm32f10x_gpio.c **** {
 270              		.loc 1 160 1 is_stmt 1 view -0
 271              		.cfi_startproc
 272              		@ args = 0, pretend = 0, frame = 0
 273              		@ frame_needed = 0, uses_anonymous_args = 0
 161:stm32f10x_lib/STM32F10x_StdPeriph_Driver/src/stm32f10x_gpio.c ****   RCC_APB2PeriphResetCmd(RCC_APB2Periph_AFIO, ENABLE);
 274              		.loc 1 161 3 view .LVU42
 275 00b8 0121     		movs	r1, #1	@,
 276              	@ stm32f10x_lib/STM32F10x_StdPeriph_Driver/src/stm32f10x_gpio.c:160: {
 160:stm32f10x_lib/STM32F10x_StdPeriph_Driver/src/stm32f10x_gpio.c ****   RCC_APB2PeriphResetCmd(RCC_APB2Periph_AFIO, ENABLE);
 277              		.loc 1 160 1 is_stmt 0 view .LVU43
 278 00ba 08B5     		push	{r3, lr}	@
 279              	.LCFI3:
 280              		.cfi_def_cfa_offset 8
 281              		.cfi_offset 3, -8
 282              		.cfi_offset 14, -4
 283              	@ stm32f10x_lib/STM32F10x_StdPeriph_Driver/src/stm32f10x_gpio.c:161:   RCC_APB2PeriphResetCmd(RCC_A
 284              		.loc 1 161 3 view .LVU44
 285 00bc 0846     		mov	r0, r1	@,
 286 00be FFF7FEFF 		bl	RCC_APB2PeriphResetCmd		@
 287              	.LVL22:
 162:stm32f10x_lib/STM32F10x_StdPeriph_Driver/src/stm32f10x_gpio.c ****   RCC_APB2PeriphResetCmd(RCC_APB2Periph_AFIO, DISABLE);
 288              		.loc 1 162 3 is_stmt 1 view .LVU45
 289              	@ stm32f10x_lib/STM32F10x_StdPeriph_Driver/src/stm32f10x_gpio.c:163: }
 163:stm32f10x_lib/STM32F10x_StdPeriph_Driver/src/stm32f10x_gpio.c **** }
 290              		.loc 1 163 1 is_stmt 0 view .LVU46
 291 00c2 BDE80840 		pop	{r3, lr}	@
 292              	.LCFI4:
 293              		.cfi_restore 14
 294              		.cfi_restore 3
 295              		.cfi_def_cfa_offset 0
 296              	@ stm32f10x_lib/STM32F10x_StdPeriph_Driver/src/stm32f10x_gpio.c:162:   RCC_APB2PeriphResetCmd(RCC_A
 162:stm32f10x_lib/STM32F10x_StdPeriph_Driver/src/stm32f10x_gpio.c ****   RCC_APB2PeriphResetCmd(RCC_APB2Periph_AFIO, DISABLE);
 297              		.loc 1 162 3 view .LVU47
 298 00c6 0021     		movs	r1, #0	@,
 299 00c8 0120     		movs	r0, #1	@,
 300 00ca FFF7FEBF 		b	RCC_APB2PeriphResetCmd		@
 301              	.LVL23:
 302              		.cfi_endproc
 303              	.LFE30:
 304              		.size	GPIO_AFIODeInit, .-GPIO_AFIODeInit
 305              		.align	1
 306              		.global	GPIO_Init
 307              		.syntax unified
 308              		.thumb
 309              		.thumb_func
 310              		.type	GPIO_Init, %function
 311              	GPIO_Init:
 312              	.LVL24:
 313              	.LFB31:
 164:stm32f10x_lib/STM32F10x_StdPeriph_Driver/src/stm32f10x_gpio.c **** 
 165:stm32f10x_lib/STM32F10x_StdPeriph_Driver/src/stm32f10x_gpio.c **** /**
 166:stm32f10x_lib/STM32F10x_StdPeriph_Driver/src/stm32f10x_gpio.c ****   * @brief  Initializes the GPIOx peripheral according to the specified
ARM GAS  C:\Users\ADMINI~1\AppData\Local\Temp\cc5aRzqp.s 			page 10


 167:stm32f10x_lib/STM32F10x_StdPeriph_Driver/src/stm32f10x_gpio.c ****   *         parameters in the GPIO_InitStruct.
 168:stm32f10x_lib/STM32F10x_StdPeriph_Driver/src/stm32f10x_gpio.c ****   * @param  GPIOx: where x can be (A..G) to select the GPIO peripheral.
 169:stm32f10x_lib/STM32F10x_StdPeriph_Driver/src/stm32f10x_gpio.c ****   * @param  GPIO_InitStruct: pointer to a GPIO_InitTypeDef structure that
 170:stm32f10x_lib/STM32F10x_StdPeriph_Driver/src/stm32f10x_gpio.c ****   *         contains the configuration information for the specified GPIO peripheral.
 171:stm32f10x_lib/STM32F10x_StdPeriph_Driver/src/stm32f10x_gpio.c ****   * @retval None
 172:stm32f10x_lib/STM32F10x_StdPeriph_Driver/src/stm32f10x_gpio.c ****   */
 173:stm32f10x_lib/STM32F10x_StdPeriph_Driver/src/stm32f10x_gpio.c **** void GPIO_Init(GPIO_TypeDef* GPIOx, GPIO_InitTypeDef* GPIO_InitStruct)
 174:stm32f10x_lib/STM32F10x_StdPeriph_Driver/src/stm32f10x_gpio.c **** {
 314              		.loc 1 174 1 is_stmt 1 view -0
 315              		.cfi_startproc
 316              		@ args = 0, pretend = 0, frame = 0
 317              		@ frame_needed = 0, uses_anonymous_args = 0
 175:stm32f10x_lib/STM32F10x_StdPeriph_Driver/src/stm32f10x_gpio.c ****   uint32_t currentmode = 0x00, currentpin = 0x00, pinpos = 0x00, pos = 0x00;
 318              		.loc 1 175 3 view .LVU49
 176:stm32f10x_lib/STM32F10x_StdPeriph_Driver/src/stm32f10x_gpio.c ****   uint32_t tmpreg = 0x00, pinmask = 0x00;
 319              		.loc 1 176 3 view .LVU50
 177:stm32f10x_lib/STM32F10x_StdPeriph_Driver/src/stm32f10x_gpio.c ****   /* Check the parameters */
 178:stm32f10x_lib/STM32F10x_StdPeriph_Driver/src/stm32f10x_gpio.c ****   assert_param(IS_GPIO_ALL_PERIPH(GPIOx));
 320              		.loc 1 178 3 view .LVU51
 179:stm32f10x_lib/STM32F10x_StdPeriph_Driver/src/stm32f10x_gpio.c ****   assert_param(IS_GPIO_MODE(GPIO_InitStruct->GPIO_Mode));
 321              		.loc 1 179 3 view .LVU52
 180:stm32f10x_lib/STM32F10x_StdPeriph_Driver/src/stm32f10x_gpio.c ****   assert_param(IS_GPIO_PIN(GPIO_InitStruct->GPIO_Pin));  
 322              		.loc 1 180 3 view .LVU53
 181:stm32f10x_lib/STM32F10x_StdPeriph_Driver/src/stm32f10x_gpio.c ****   
 182:stm32f10x_lib/STM32F10x_StdPeriph_Driver/src/stm32f10x_gpio.c **** /*---------------------------- GPIO Mode Configuration -----------------------*/
 183:stm32f10x_lib/STM32F10x_StdPeriph_Driver/src/stm32f10x_gpio.c ****   currentmode = ((uint32_t)GPIO_InitStruct->GPIO_Mode) & ((uint32_t)0x0F);
 323              		.loc 1 183 3 view .LVU54
 324              	@ stm32f10x_lib/STM32F10x_StdPeriph_Driver/src/stm32f10x_gpio.c:174: {
 174:stm32f10x_lib/STM32F10x_StdPeriph_Driver/src/stm32f10x_gpio.c ****   uint32_t currentmode = 0x00, currentpin = 0x00, pinpos = 0x00, pos = 0x00;
 325              		.loc 1 174 1 is_stmt 0 view .LVU55
 326 00ce 2DE9F041 		push	{r4, r5, r6, r7, r8, lr}	@
 327              	.LCFI5:
 328              		.cfi_def_cfa_offset 24
 329              		.cfi_offset 4, -24
 330              		.cfi_offset 5, -20
 331              		.cfi_offset 6, -16
 332              		.cfi_offset 7, -12
 333              		.cfi_offset 8, -8
 334              		.cfi_offset 14, -4
 335              	@ stm32f10x_lib/STM32F10x_StdPeriph_Driver/src/stm32f10x_gpio.c:183:   currentmode = ((uint32_t)GPI
 336              		.loc 1 183 43 view .LVU56
 337 00d2 CB78     		ldrb	r3, [r1, #3]	@ zero_extendqisi2	@ _1, GPIO_InitStruct_32(D)->GPIO_Mode
 338              	@ stm32f10x_lib/STM32F10x_StdPeriph_Driver/src/stm32f10x_gpio.c:193:   if (((uint32_t)GPIO_InitStru
 184:stm32f10x_lib/STM32F10x_StdPeriph_Driver/src/stm32f10x_gpio.c ****   if ((((uint32_t)GPIO_InitStruct->GPIO_Mode) & ((uint32_t)0x10)) != 0x00)
 185:stm32f10x_lib/STM32F10x_StdPeriph_Driver/src/stm32f10x_gpio.c ****   { 
 186:stm32f10x_lib/STM32F10x_StdPeriph_Driver/src/stm32f10x_gpio.c ****     /* Check the parameters */
 187:stm32f10x_lib/STM32F10x_StdPeriph_Driver/src/stm32f10x_gpio.c ****     assert_param(IS_GPIO_SPEED(GPIO_InitStruct->GPIO_Speed));
 188:stm32f10x_lib/STM32F10x_StdPeriph_Driver/src/stm32f10x_gpio.c ****     /* Output mode */
 189:stm32f10x_lib/STM32F10x_StdPeriph_Driver/src/stm32f10x_gpio.c ****     currentmode |= (uint32_t)GPIO_InitStruct->GPIO_Speed;
 190:stm32f10x_lib/STM32F10x_StdPeriph_Driver/src/stm32f10x_gpio.c ****   }
 191:stm32f10x_lib/STM32F10x_StdPeriph_Driver/src/stm32f10x_gpio.c **** /*---------------------------- GPIO CRL Configuration ------------------------*/
 192:stm32f10x_lib/STM32F10x_StdPeriph_Driver/src/stm32f10x_gpio.c ****   /* Configure the eight low port pins */
 193:stm32f10x_lib/STM32F10x_StdPeriph_Driver/src/stm32f10x_gpio.c ****   if (((uint32_t)GPIO_InitStruct->GPIO_Pin & ((uint32_t)0x00FF)) != 0x00)
 339              		.loc 1 193 33 view .LVU57
 340 00d4 0F88     		ldrh	r7, [r1]	@ _6, GPIO_InitStruct_32(D)->GPIO_Pin
 341              	@ stm32f10x_lib/STM32F10x_StdPeriph_Driver/src/stm32f10x_gpio.c:184:   if ((((uint32_t)GPIO_InitStr
 184:stm32f10x_lib/STM32F10x_StdPeriph_Driver/src/stm32f10x_gpio.c ****   if ((((uint32_t)GPIO_InitStruct->GPIO_Mode) & ((uint32_t)0x10)) != 0x00)
ARM GAS  C:\Users\ADMINI~1\AppData\Local\Temp\cc5aRzqp.s 			page 11


 342              		.loc 1 184 6 view .LVU58
 343 00d6 DA06     		lsls	r2, r3, #27	@, _1,
 344 00d8 48BF     		it	mi
 345 00da 8A78     		ldrbmi	r2, [r1, #2]	@ zero_extendqisi2	@ GPIO_InitStruct_32(D)->GPIO_Speed, GPIO_InitStruct_32(D)-
 346 00dc 03F00F05 		and	r5, r3, #15	@ _2, _1,
 347              	.LVL25:
 184:stm32f10x_lib/STM32F10x_StdPeriph_Driver/src/stm32f10x_gpio.c ****   if ((((uint32_t)GPIO_InitStruct->GPIO_Mode) & ((uint32_t)0x10)) != 0x00)
 348              		.loc 1 184 3 is_stmt 1 view .LVU59
 187:stm32f10x_lib/STM32F10x_StdPeriph_Driver/src/stm32f10x_gpio.c ****     /* Output mode */
 349              		.loc 1 187 5 view .LVU60
 189:stm32f10x_lib/STM32F10x_StdPeriph_Driver/src/stm32f10x_gpio.c ****   }
 350              		.loc 1 189 5 view .LVU61
 189:stm32f10x_lib/STM32F10x_StdPeriph_Driver/src/stm32f10x_gpio.c ****   }
 351              		.loc 1 189 5 is_stmt 0 view .LVU62
 352 00e0 48BF     		it	mi
 353 00e2 1543     		orrmi	r5, r5, r2	@ _2, _2, GPIO_InitStruct_32(D)->GPIO_Speed
 354              	.LVL26:
 355              		.loc 1 193 3 is_stmt 1 view .LVU63
 356              	@ stm32f10x_lib/STM32F10x_StdPeriph_Driver/src/stm32f10x_gpio.c:193:   if (((uint32_t)GPIO_InitStru
 357              		.loc 1 193 6 is_stmt 0 view .LVU64
 358 00e4 0A78     		ldrb	r2, [r1]	@ zero_extendqisi2	@ _6, GPIO_InitStruct_32(D)->GPIO_Pin
 359              	.LVL27:
 360              		.loc 1 193 6 view .LVU65
 361 00e6 D2B1     		cbz	r2, .L15	@ _6,
 194:stm32f10x_lib/STM32F10x_StdPeriph_Driver/src/stm32f10x_gpio.c ****   {
 195:stm32f10x_lib/STM32F10x_StdPeriph_Driver/src/stm32f10x_gpio.c ****     tmpreg = GPIOx->CRL;
 362              		.loc 1 195 5 is_stmt 1 view .LVU66
 363              	@ stm32f10x_lib/STM32F10x_StdPeriph_Driver/src/stm32f10x_gpio.c:196:     for (pinpos = 0x00; pinpos
 196:stm32f10x_lib/STM32F10x_StdPeriph_Driver/src/stm32f10x_gpio.c ****     for (pinpos = 0x00; pinpos < 0x08; pinpos++)
 364              		.loc 1 196 17 is_stmt 0 view .LVU67
 365 00e8 0021     		movs	r1, #0	@ pinpos,
 366              	.LVL28:
 367              	@ stm32f10x_lib/STM32F10x_StdPeriph_Driver/src/stm32f10x_gpio.c:198:       pos = ((uint32_t)0x01) <
 197:stm32f10x_lib/STM32F10x_StdPeriph_Driver/src/stm32f10x_gpio.c ****     {
 198:stm32f10x_lib/STM32F10x_StdPeriph_Driver/src/stm32f10x_gpio.c ****       pos = ((uint32_t)0x01) << pinpos;
 368              		.loc 1 198 11 view .LVU68
 369 00ea 4FF0010C 		mov	ip, #1	@ tmp152,
 370              	@ stm32f10x_lib/STM32F10x_StdPeriph_Driver/src/stm32f10x_gpio.c:205:         pinmask = ((uint32_t)0
 199:stm32f10x_lib/STM32F10x_StdPeriph_Driver/src/stm32f10x_gpio.c ****       /* Get the port pins position */
 200:stm32f10x_lib/STM32F10x_StdPeriph_Driver/src/stm32f10x_gpio.c ****       currentpin = (GPIO_InitStruct->GPIO_Pin) & pos;
 201:stm32f10x_lib/STM32F10x_StdPeriph_Driver/src/stm32f10x_gpio.c ****       if (currentpin == pos)
 202:stm32f10x_lib/STM32F10x_StdPeriph_Driver/src/stm32f10x_gpio.c ****       {
 203:stm32f10x_lib/STM32F10x_StdPeriph_Driver/src/stm32f10x_gpio.c ****         pos = pinpos << 2;
 204:stm32f10x_lib/STM32F10x_StdPeriph_Driver/src/stm32f10x_gpio.c ****         /* Clear the corresponding low control register bits */
 205:stm32f10x_lib/STM32F10x_StdPeriph_Driver/src/stm32f10x_gpio.c ****         pinmask = ((uint32_t)0x0F) << pos;
 371              		.loc 1 205 17 view .LVU69
 372 00ee 4FF00F0E 		mov	lr, #15	@ tmp168,
 373              	@ stm32f10x_lib/STM32F10x_StdPeriph_Driver/src/stm32f10x_gpio.c:195:     tmpreg = GPIOx->CRL;
 195:stm32f10x_lib/STM32F10x_StdPeriph_Driver/src/stm32f10x_gpio.c ****     for (pinpos = 0x00; pinpos < 0x08; pinpos++)
 374              		.loc 1 195 12 view .LVU70
 375 00f2 0268     		ldr	r2, [r0]	@ tmpreg, GPIOx_33(D)->CRL
 376              	.LVL29:
 196:stm32f10x_lib/STM32F10x_StdPeriph_Driver/src/stm32f10x_gpio.c ****     {
 377              		.loc 1 196 5 is_stmt 1 view .LVU71
 196:stm32f10x_lib/STM32F10x_StdPeriph_Driver/src/stm32f10x_gpio.c ****     {
 378              		.loc 1 196 25 view .LVU72
 379              	.L18:
ARM GAS  C:\Users\ADMINI~1\AppData\Local\Temp\cc5aRzqp.s 			page 12


 198:stm32f10x_lib/STM32F10x_StdPeriph_Driver/src/stm32f10x_gpio.c ****       /* Get the port pins position */
 380              		.loc 1 198 7 view .LVU73
 381              	@ stm32f10x_lib/STM32F10x_StdPeriph_Driver/src/stm32f10x_gpio.c:198:       pos = ((uint32_t)0x01) <
 198:stm32f10x_lib/STM32F10x_StdPeriph_Driver/src/stm32f10x_gpio.c ****       /* Get the port pins position */
 382              		.loc 1 198 11 is_stmt 0 view .LVU74
 383 00f4 0CFA01F6 		lsl	r6, ip, r1	@ pos, tmp152, pinpos
 384              	.LVL30:
 200:stm32f10x_lib/STM32F10x_StdPeriph_Driver/src/stm32f10x_gpio.c ****       if (currentpin == pos)
 385              		.loc 1 200 7 is_stmt 1 view .LVU75
 201:stm32f10x_lib/STM32F10x_StdPeriph_Driver/src/stm32f10x_gpio.c ****       {
 386              		.loc 1 201 7 view .LVU76
 387              	@ stm32f10x_lib/STM32F10x_StdPeriph_Driver/src/stm32f10x_gpio.c:201:       if (currentpin == pos)
 201:stm32f10x_lib/STM32F10x_StdPeriph_Driver/src/stm32f10x_gpio.c ****       {
 388              		.loc 1 201 10 is_stmt 0 view .LVU77
 389 00f8 36EA0704 		bics	r4, r6, r7	@ tmp174, pos, _6
 390 00fc 0BD1     		bne	.L16		@,
 203:stm32f10x_lib/STM32F10x_StdPeriph_Driver/src/stm32f10x_gpio.c ****         /* Clear the corresponding low control register bits */
 391              		.loc 1 203 9 is_stmt 1 view .LVU78
 392 00fe 8C00     		lsls	r4, r1, #2	@ _74, pinpos,
 393              	.LVL31:
 394              		.loc 1 205 9 view .LVU79
 206:stm32f10x_lib/STM32F10x_StdPeriph_Driver/src/stm32f10x_gpio.c ****         tmpreg &= ~pinmask;
 395              		.loc 1 206 9 view .LVU80
 396              	@ stm32f10x_lib/STM32F10x_StdPeriph_Driver/src/stm32f10x_gpio.c:205:         pinmask = ((uint32_t)0
 205:stm32f10x_lib/STM32F10x_StdPeriph_Driver/src/stm32f10x_gpio.c ****         tmpreg &= ~pinmask;
 397              		.loc 1 205 17 is_stmt 0 view .LVU81
 398 0100 0EFA04F8 		lsl	r8, lr, r4	@ pinmask, tmp168, _74
 399              	@ stm32f10x_lib/STM32F10x_StdPeriph_Driver/src/stm32f10x_gpio.c:206:         tmpreg &= ~pinmask;
 400              		.loc 1 206 16 view .LVU82
 401 0104 22EA0802 		bic	r2, r2, r8	@ tmpreg, tmpreg, pinmask
 402              	.LVL32:
 207:stm32f10x_lib/STM32F10x_StdPeriph_Driver/src/stm32f10x_gpio.c ****         /* Write the mode configuration in the corresponding bits */
 208:stm32f10x_lib/STM32F10x_StdPeriph_Driver/src/stm32f10x_gpio.c ****         tmpreg |= (currentmode << pos);
 403              		.loc 1 208 9 is_stmt 1 view .LVU83
 404              	@ stm32f10x_lib/STM32F10x_StdPeriph_Driver/src/stm32f10x_gpio.c:208:         tmpreg |= (currentmode
 405              		.loc 1 208 32 is_stmt 0 view .LVU84
 406 0108 05FA04F4 		lsl	r4, r5, r4	@ tmp157, _2, _74
 407              	.LVL33:
 408              	@ stm32f10x_lib/STM32F10x_StdPeriph_Driver/src/stm32f10x_gpio.c:210:         if (GPIO_InitStruct->G
 209:stm32f10x_lib/STM32F10x_StdPeriph_Driver/src/stm32f10x_gpio.c ****         /* Reset the corresponding ODR bit */
 210:stm32f10x_lib/STM32F10x_StdPeriph_Driver/src/stm32f10x_gpio.c ****         if (GPIO_InitStruct->GPIO_Mode == GPIO_Mode_IPD)
 409              		.loc 1 210 12 view .LVU85
 410 010c 282B     		cmp	r3, #40	@ _1,
 411              	@ stm32f10x_lib/STM32F10x_StdPeriph_Driver/src/stm32f10x_gpio.c:208:         tmpreg |= (currentmode
 208:stm32f10x_lib/STM32F10x_StdPeriph_Driver/src/stm32f10x_gpio.c ****         /* Reset the corresponding ODR bit */
 412              		.loc 1 208 16 view .LVU86
 413 010e 42EA0402 		orr	r2, r2, r4	@ tmpreg, tmpreg, tmp157
 414              	.LVL34:
 415              		.loc 1 210 9 is_stmt 1 view .LVU87
 416              	@ stm32f10x_lib/STM32F10x_StdPeriph_Driver/src/stm32f10x_gpio.c:210:         if (GPIO_InitStruct->G
 417              		.loc 1 210 12 is_stmt 0 view .LVU88
 418 0112 25D1     		bne	.L17		@,
 211:stm32f10x_lib/STM32F10x_StdPeriph_Driver/src/stm32f10x_gpio.c ****         {
 212:stm32f10x_lib/STM32F10x_StdPeriph_Driver/src/stm32f10x_gpio.c ****           GPIOx->BRR = (((uint32_t)0x01) << pinpos);
 419              		.loc 1 212 11 is_stmt 1 view .LVU89
 420              	@ stm32f10x_lib/STM32F10x_StdPeriph_Driver/src/stm32f10x_gpio.c:212:           GPIOx->BRR = (((uint
 421              		.loc 1 212 22 is_stmt 0 view .LVU90
ARM GAS  C:\Users\ADMINI~1\AppData\Local\Temp\cc5aRzqp.s 			page 13


 422 0114 4661     		str	r6, [r0, #20]	@ pos, GPIOx_33(D)->BRR
 423              	.LVL35:
 424              	.L16:
 196:stm32f10x_lib/STM32F10x_StdPeriph_Driver/src/stm32f10x_gpio.c ****     {
 425              		.loc 1 196 40 is_stmt 1 discriminator 2 view .LVU91
 426              	@ stm32f10x_lib/STM32F10x_StdPeriph_Driver/src/stm32f10x_gpio.c:196:     for (pinpos = 0x00; pinpos
 196:stm32f10x_lib/STM32F10x_StdPeriph_Driver/src/stm32f10x_gpio.c ****     {
 427              		.loc 1 196 46 is_stmt 0 discriminator 2 view .LVU92
 428 0116 0131     		adds	r1, r1, #1	@ pinpos, pinpos,
 429              	.LVL36:
 196:stm32f10x_lib/STM32F10x_StdPeriph_Driver/src/stm32f10x_gpio.c ****     {
 430              		.loc 1 196 25 is_stmt 1 discriminator 2 view .LVU93
 431              	@ stm32f10x_lib/STM32F10x_StdPeriph_Driver/src/stm32f10x_gpio.c:196:     for (pinpos = 0x00; pinpos
 196:stm32f10x_lib/STM32F10x_StdPeriph_Driver/src/stm32f10x_gpio.c ****     {
 432              		.loc 1 196 5 is_stmt 0 discriminator 2 view .LVU94
 433 0118 0829     		cmp	r1, #8	@ pinpos,
 434 011a EBD1     		bne	.L18		@,
 213:stm32f10x_lib/STM32F10x_StdPeriph_Driver/src/stm32f10x_gpio.c ****         }
 214:stm32f10x_lib/STM32F10x_StdPeriph_Driver/src/stm32f10x_gpio.c ****         else
 215:stm32f10x_lib/STM32F10x_StdPeriph_Driver/src/stm32f10x_gpio.c ****         {
 216:stm32f10x_lib/STM32F10x_StdPeriph_Driver/src/stm32f10x_gpio.c ****           /* Set the corresponding ODR bit */
 217:stm32f10x_lib/STM32F10x_StdPeriph_Driver/src/stm32f10x_gpio.c ****           if (GPIO_InitStruct->GPIO_Mode == GPIO_Mode_IPU)
 218:stm32f10x_lib/STM32F10x_StdPeriph_Driver/src/stm32f10x_gpio.c ****           {
 219:stm32f10x_lib/STM32F10x_StdPeriph_Driver/src/stm32f10x_gpio.c ****             GPIOx->BSRR = (((uint32_t)0x01) << pinpos);
 220:stm32f10x_lib/STM32F10x_StdPeriph_Driver/src/stm32f10x_gpio.c ****           }
 221:stm32f10x_lib/STM32F10x_StdPeriph_Driver/src/stm32f10x_gpio.c ****         }
 222:stm32f10x_lib/STM32F10x_StdPeriph_Driver/src/stm32f10x_gpio.c ****       }
 223:stm32f10x_lib/STM32F10x_StdPeriph_Driver/src/stm32f10x_gpio.c ****     }
 224:stm32f10x_lib/STM32F10x_StdPeriph_Driver/src/stm32f10x_gpio.c ****     GPIOx->CRL = tmpreg;
 435              		.loc 1 224 5 is_stmt 1 view .LVU95
 436              	@ stm32f10x_lib/STM32F10x_StdPeriph_Driver/src/stm32f10x_gpio.c:224:     GPIOx->CRL = tmpreg;
 437              		.loc 1 224 16 is_stmt 0 view .LVU96
 438 011c 0260     		str	r2, [r0]	@ tmpreg, GPIOx_33(D)->CRL
 439              	.LVL37:
 440              	.L15:
 225:stm32f10x_lib/STM32F10x_StdPeriph_Driver/src/stm32f10x_gpio.c ****   }
 226:stm32f10x_lib/STM32F10x_StdPeriph_Driver/src/stm32f10x_gpio.c **** /*---------------------------- GPIO CRH Configuration ------------------------*/
 227:stm32f10x_lib/STM32F10x_StdPeriph_Driver/src/stm32f10x_gpio.c ****   /* Configure the eight high port pins */
 228:stm32f10x_lib/STM32F10x_StdPeriph_Driver/src/stm32f10x_gpio.c ****   if (GPIO_InitStruct->GPIO_Pin > 0x00FF)
 441              		.loc 1 228 3 is_stmt 1 view .LVU97
 442              	@ stm32f10x_lib/STM32F10x_StdPeriph_Driver/src/stm32f10x_gpio.c:228:   if (GPIO_InitStruct->GPIO_Pi
 443              		.loc 1 228 6 is_stmt 0 view .LVU98
 444 011e FF2F     		cmp	r7, #255	@ _6,
 445 0120 1CD9     		bls	.L13		@,
 229:stm32f10x_lib/STM32F10x_StdPeriph_Driver/src/stm32f10x_gpio.c ****   {
 230:stm32f10x_lib/STM32F10x_StdPeriph_Driver/src/stm32f10x_gpio.c ****     tmpreg = GPIOx->CRH;
 446              		.loc 1 230 5 is_stmt 1 view .LVU99
 447              	@ stm32f10x_lib/STM32F10x_StdPeriph_Driver/src/stm32f10x_gpio.c:231:     for (pinpos = 0x00; pinpos
 231:stm32f10x_lib/STM32F10x_StdPeriph_Driver/src/stm32f10x_gpio.c ****     for (pinpos = 0x00; pinpos < 0x08; pinpos++)
 448              		.loc 1 231 17 is_stmt 0 view .LVU100
 449 0122 0021     		movs	r1, #0	@ pinpos,
 450              	@ stm32f10x_lib/STM32F10x_StdPeriph_Driver/src/stm32f10x_gpio.c:233:       pos = (((uint32_t)0x01) 
 232:stm32f10x_lib/STM32F10x_StdPeriph_Driver/src/stm32f10x_gpio.c ****     {
 233:stm32f10x_lib/STM32F10x_StdPeriph_Driver/src/stm32f10x_gpio.c ****       pos = (((uint32_t)0x01) << (pinpos + 0x08));
 451              		.loc 1 233 11 view .LVU101
 452 0124 4FF0010C 		mov	ip, #1	@ tmp161,
 453              	@ stm32f10x_lib/STM32F10x_StdPeriph_Driver/src/stm32f10x_gpio.c:240:         pinmask = ((uint32_t)0
ARM GAS  C:\Users\ADMINI~1\AppData\Local\Temp\cc5aRzqp.s 			page 14


 234:stm32f10x_lib/STM32F10x_StdPeriph_Driver/src/stm32f10x_gpio.c ****       /* Get the port pins position */
 235:stm32f10x_lib/STM32F10x_StdPeriph_Driver/src/stm32f10x_gpio.c ****       currentpin = ((GPIO_InitStruct->GPIO_Pin) & pos);
 236:stm32f10x_lib/STM32F10x_StdPeriph_Driver/src/stm32f10x_gpio.c ****       if (currentpin == pos)
 237:stm32f10x_lib/STM32F10x_StdPeriph_Driver/src/stm32f10x_gpio.c ****       {
 238:stm32f10x_lib/STM32F10x_StdPeriph_Driver/src/stm32f10x_gpio.c ****         pos = pinpos << 2;
 239:stm32f10x_lib/STM32F10x_StdPeriph_Driver/src/stm32f10x_gpio.c ****         /* Clear the corresponding high control register bits */
 240:stm32f10x_lib/STM32F10x_StdPeriph_Driver/src/stm32f10x_gpio.c ****         pinmask = ((uint32_t)0x0F) << pos;
 454              		.loc 1 240 17 view .LVU102
 455 0128 4FF00F0E 		mov	lr, #15	@ tmp167,
 456              	@ stm32f10x_lib/STM32F10x_StdPeriph_Driver/src/stm32f10x_gpio.c:230:     tmpreg = GPIOx->CRH;
 230:stm32f10x_lib/STM32F10x_StdPeriph_Driver/src/stm32f10x_gpio.c ****     for (pinpos = 0x00; pinpos < 0x08; pinpos++)
 457              		.loc 1 230 12 view .LVU103
 458 012c 4268     		ldr	r2, [r0, #4]	@ tmpreg, GPIOx_33(D)->CRH
 459              	.LVL38:
 231:stm32f10x_lib/STM32F10x_StdPeriph_Driver/src/stm32f10x_gpio.c ****     {
 460              		.loc 1 231 5 is_stmt 1 view .LVU104
 231:stm32f10x_lib/STM32F10x_StdPeriph_Driver/src/stm32f10x_gpio.c ****     {
 461              		.loc 1 231 25 view .LVU105
 462              	.L22:
 233:stm32f10x_lib/STM32F10x_StdPeriph_Driver/src/stm32f10x_gpio.c ****       /* Get the port pins position */
 463              		.loc 1 233 7 view .LVU106
 464              	@ stm32f10x_lib/STM32F10x_StdPeriph_Driver/src/stm32f10x_gpio.c:233:       pos = (((uint32_t)0x01) 
 233:stm32f10x_lib/STM32F10x_StdPeriph_Driver/src/stm32f10x_gpio.c ****       /* Get the port pins position */
 465              		.loc 1 233 11 is_stmt 0 view .LVU107
 466 012e 01F10804 		add	r4, r1, #8	@ tmp160, pinpos,
 467 0132 0CFA04F4 		lsl	r4, ip, r4	@ pos, tmp161, tmp160
 468              	.LVL39:
 235:stm32f10x_lib/STM32F10x_StdPeriph_Driver/src/stm32f10x_gpio.c ****       if (currentpin == pos)
 469              		.loc 1 235 7 is_stmt 1 view .LVU108
 236:stm32f10x_lib/STM32F10x_StdPeriph_Driver/src/stm32f10x_gpio.c ****       {
 470              		.loc 1 236 7 view .LVU109
 471              	@ stm32f10x_lib/STM32F10x_StdPeriph_Driver/src/stm32f10x_gpio.c:236:       if (currentpin == pos)
 236:stm32f10x_lib/STM32F10x_StdPeriph_Driver/src/stm32f10x_gpio.c ****       {
 472              		.loc 1 236 10 is_stmt 0 view .LVU110
 473 0136 34EA0706 		bics	r6, r4, r7	@ tmp175, pos, _6
 474 013a 0BD1     		bne	.L20		@,
 238:stm32f10x_lib/STM32F10x_StdPeriph_Driver/src/stm32f10x_gpio.c ****         /* Clear the corresponding high control register bits */
 475              		.loc 1 238 9 is_stmt 1 view .LVU111
 476 013c 8E00     		lsls	r6, r1, #2	@ _75, pinpos,
 477              	.LVL40:
 478              		.loc 1 240 9 view .LVU112
 241:stm32f10x_lib/STM32F10x_StdPeriph_Driver/src/stm32f10x_gpio.c ****         tmpreg &= ~pinmask;
 479              		.loc 1 241 9 view .LVU113
 480              	@ stm32f10x_lib/STM32F10x_StdPeriph_Driver/src/stm32f10x_gpio.c:240:         pinmask = ((uint32_t)0
 240:stm32f10x_lib/STM32F10x_StdPeriph_Driver/src/stm32f10x_gpio.c ****         tmpreg &= ~pinmask;
 481              		.loc 1 240 17 is_stmt 0 view .LVU114
 482 013e 0EFA06F8 		lsl	r8, lr, r6	@ pinmask, tmp167, _75
 483              	@ stm32f10x_lib/STM32F10x_StdPeriph_Driver/src/stm32f10x_gpio.c:241:         tmpreg &= ~pinmask;
 484              		.loc 1 241 16 view .LVU115
 485 0142 22EA0802 		bic	r2, r2, r8	@ tmpreg, tmpreg, pinmask
 486              	.LVL41:
 242:stm32f10x_lib/STM32F10x_StdPeriph_Driver/src/stm32f10x_gpio.c ****         /* Write the mode configuration in the corresponding bits */
 243:stm32f10x_lib/STM32F10x_StdPeriph_Driver/src/stm32f10x_gpio.c ****         tmpreg |= (currentmode << pos);
 487              		.loc 1 243 9 is_stmt 1 view .LVU116
 488              	@ stm32f10x_lib/STM32F10x_StdPeriph_Driver/src/stm32f10x_gpio.c:243:         tmpreg |= (currentmode
 489              		.loc 1 243 32 is_stmt 0 view .LVU117
 490 0146 05FA06F6 		lsl	r6, r5, r6	@ tmp166, _2, _75
ARM GAS  C:\Users\ADMINI~1\AppData\Local\Temp\cc5aRzqp.s 			page 15


 491              	.LVL42:
 492              	@ stm32f10x_lib/STM32F10x_StdPeriph_Driver/src/stm32f10x_gpio.c:245:         if (GPIO_InitStruct->G
 244:stm32f10x_lib/STM32F10x_StdPeriph_Driver/src/stm32f10x_gpio.c ****         /* Reset the corresponding ODR bit */
 245:stm32f10x_lib/STM32F10x_StdPeriph_Driver/src/stm32f10x_gpio.c ****         if (GPIO_InitStruct->GPIO_Mode == GPIO_Mode_IPD)
 493              		.loc 1 245 12 view .LVU118
 494 014a 282B     		cmp	r3, #40	@ _1,
 495              	@ stm32f10x_lib/STM32F10x_StdPeriph_Driver/src/stm32f10x_gpio.c:243:         tmpreg |= (currentmode
 243:stm32f10x_lib/STM32F10x_StdPeriph_Driver/src/stm32f10x_gpio.c ****         /* Reset the corresponding ODR bit */
 496              		.loc 1 243 16 view .LVU119
 497 014c 42EA0602 		orr	r2, r2, r6	@ tmpreg, tmpreg, tmp166
 498              	.LVL43:
 499              		.loc 1 245 9 is_stmt 1 view .LVU120
 500              	@ stm32f10x_lib/STM32F10x_StdPeriph_Driver/src/stm32f10x_gpio.c:245:         if (GPIO_InitStruct->G
 501              		.loc 1 245 12 is_stmt 0 view .LVU121
 502 0150 0AD1     		bne	.L21		@,
 246:stm32f10x_lib/STM32F10x_StdPeriph_Driver/src/stm32f10x_gpio.c ****         {
 247:stm32f10x_lib/STM32F10x_StdPeriph_Driver/src/stm32f10x_gpio.c ****           GPIOx->BRR = (((uint32_t)0x01) << (pinpos + 0x08));
 503              		.loc 1 247 11 is_stmt 1 view .LVU122
 504              	@ stm32f10x_lib/STM32F10x_StdPeriph_Driver/src/stm32f10x_gpio.c:247:           GPIOx->BRR = (((uint
 505              		.loc 1 247 22 is_stmt 0 view .LVU123
 506 0152 4461     		str	r4, [r0, #20]	@ pos, GPIOx_33(D)->BRR
 248:stm32f10x_lib/STM32F10x_StdPeriph_Driver/src/stm32f10x_gpio.c ****         }
 249:stm32f10x_lib/STM32F10x_StdPeriph_Driver/src/stm32f10x_gpio.c ****         /* Set the corresponding ODR bit */
 250:stm32f10x_lib/STM32F10x_StdPeriph_Driver/src/stm32f10x_gpio.c ****         if (GPIO_InitStruct->GPIO_Mode == GPIO_Mode_IPU)
 507              		.loc 1 250 9 is_stmt 1 view .LVU124
 508              	.LVL44:
 509              	.L20:
 231:stm32f10x_lib/STM32F10x_StdPeriph_Driver/src/stm32f10x_gpio.c ****     {
 510              		.loc 1 231 40 discriminator 2 view .LVU125
 511              	@ stm32f10x_lib/STM32F10x_StdPeriph_Driver/src/stm32f10x_gpio.c:231:     for (pinpos = 0x00; pinpos
 231:stm32f10x_lib/STM32F10x_StdPeriph_Driver/src/stm32f10x_gpio.c ****     {
 512              		.loc 1 231 46 is_stmt 0 discriminator 2 view .LVU126
 513 0154 0131     		adds	r1, r1, #1	@ pinpos, pinpos,
 514              	.LVL45:
 231:stm32f10x_lib/STM32F10x_StdPeriph_Driver/src/stm32f10x_gpio.c ****     {
 515              		.loc 1 231 25 is_stmt 1 discriminator 2 view .LVU127
 516              	@ stm32f10x_lib/STM32F10x_StdPeriph_Driver/src/stm32f10x_gpio.c:231:     for (pinpos = 0x00; pinpos
 231:stm32f10x_lib/STM32F10x_StdPeriph_Driver/src/stm32f10x_gpio.c ****     {
 517              		.loc 1 231 5 is_stmt 0 discriminator 2 view .LVU128
 518 0156 0829     		cmp	r1, #8	@ pinpos,
 519 0158 E9D1     		bne	.L22		@,
 251:stm32f10x_lib/STM32F10x_StdPeriph_Driver/src/stm32f10x_gpio.c ****         {
 252:stm32f10x_lib/STM32F10x_StdPeriph_Driver/src/stm32f10x_gpio.c ****           GPIOx->BSRR = (((uint32_t)0x01) << (pinpos + 0x08));
 253:stm32f10x_lib/STM32F10x_StdPeriph_Driver/src/stm32f10x_gpio.c ****         }
 254:stm32f10x_lib/STM32F10x_StdPeriph_Driver/src/stm32f10x_gpio.c ****       }
 255:stm32f10x_lib/STM32F10x_StdPeriph_Driver/src/stm32f10x_gpio.c ****     }
 256:stm32f10x_lib/STM32F10x_StdPeriph_Driver/src/stm32f10x_gpio.c ****     GPIOx->CRH = tmpreg;
 520              		.loc 1 256 5 is_stmt 1 view .LVU129
 521              	@ stm32f10x_lib/STM32F10x_StdPeriph_Driver/src/stm32f10x_gpio.c:256:     GPIOx->CRH = tmpreg;
 522              		.loc 1 256 16 is_stmt 0 view .LVU130
 523 015a 4260     		str	r2, [r0, #4]	@ tmpreg, GPIOx_33(D)->CRH
 524              	.LVL46:
 525              	.L13:
 526              	@ stm32f10x_lib/STM32F10x_StdPeriph_Driver/src/stm32f10x_gpio.c:258: }
 257:stm32f10x_lib/STM32F10x_StdPeriph_Driver/src/stm32f10x_gpio.c ****   }
 258:stm32f10x_lib/STM32F10x_StdPeriph_Driver/src/stm32f10x_gpio.c **** }
 527              		.loc 1 258 1 view .LVU131
ARM GAS  C:\Users\ADMINI~1\AppData\Local\Temp\cc5aRzqp.s 			page 16


 528 015c BDE8F081 		pop	{r4, r5, r6, r7, r8, pc}	@
 529              	.LVL47:
 530              	.L17:
 217:stm32f10x_lib/STM32F10x_StdPeriph_Driver/src/stm32f10x_gpio.c ****           {
 531              		.loc 1 217 11 is_stmt 1 view .LVU132
 532              	@ stm32f10x_lib/STM32F10x_StdPeriph_Driver/src/stm32f10x_gpio.c:217:           if (GPIO_InitStruct-
 217:stm32f10x_lib/STM32F10x_StdPeriph_Driver/src/stm32f10x_gpio.c ****           {
 533              		.loc 1 217 14 is_stmt 0 view .LVU133
 534 0160 482B     		cmp	r3, #72	@ _1,
 219:stm32f10x_lib/STM32F10x_StdPeriph_Driver/src/stm32f10x_gpio.c ****           }
 535              		.loc 1 219 13 is_stmt 1 view .LVU134
 536              	@ stm32f10x_lib/STM32F10x_StdPeriph_Driver/src/stm32f10x_gpio.c:219:             GPIOx->BSRR = (((u
 219:stm32f10x_lib/STM32F10x_StdPeriph_Driver/src/stm32f10x_gpio.c ****           }
 537              		.loc 1 219 25 is_stmt 0 view .LVU135
 538 0162 08BF     		it	eq
 539 0164 0661     		streq	r6, [r0, #16]	@ pos, GPIOx_33(D)->BSRR
 540 0166 D6E7     		b	.L16		@
 541              	.LVL48:
 542              	.L21:
 250:stm32f10x_lib/STM32F10x_StdPeriph_Driver/src/stm32f10x_gpio.c ****         {
 543              		.loc 1 250 9 is_stmt 1 view .LVU136
 544              	@ stm32f10x_lib/STM32F10x_StdPeriph_Driver/src/stm32f10x_gpio.c:250:         if (GPIO_InitStruct->G
 250:stm32f10x_lib/STM32F10x_StdPeriph_Driver/src/stm32f10x_gpio.c ****         {
 545              		.loc 1 250 12 is_stmt 0 view .LVU137
 546 0168 482B     		cmp	r3, #72	@ _1,
 252:stm32f10x_lib/STM32F10x_StdPeriph_Driver/src/stm32f10x_gpio.c ****         }
 547              		.loc 1 252 11 is_stmt 1 view .LVU138
 548              	@ stm32f10x_lib/STM32F10x_StdPeriph_Driver/src/stm32f10x_gpio.c:252:           GPIOx->BSRR = (((uin
 252:stm32f10x_lib/STM32F10x_StdPeriph_Driver/src/stm32f10x_gpio.c ****         }
 549              		.loc 1 252 23 is_stmt 0 view .LVU139
 550 016a 08BF     		it	eq
 551 016c 0461     		streq	r4, [r0, #16]	@ pos, GPIOx_33(D)->BSRR
 552 016e F1E7     		b	.L20		@
 553              		.cfi_endproc
 554              	.LFE31:
 555              		.size	GPIO_Init, .-GPIO_Init
 556              		.align	1
 557              		.global	GPIO_StructInit
 558              		.syntax unified
 559              		.thumb
 560              		.thumb_func
 561              		.type	GPIO_StructInit, %function
 562              	GPIO_StructInit:
 563              	.LVL49:
 564              	.LFB32:
 259:stm32f10x_lib/STM32F10x_StdPeriph_Driver/src/stm32f10x_gpio.c **** 
 260:stm32f10x_lib/STM32F10x_StdPeriph_Driver/src/stm32f10x_gpio.c **** /**
 261:stm32f10x_lib/STM32F10x_StdPeriph_Driver/src/stm32f10x_gpio.c ****   * @brief  Fills each GPIO_InitStruct member with its default value.
 262:stm32f10x_lib/STM32F10x_StdPeriph_Driver/src/stm32f10x_gpio.c ****   * @param  GPIO_InitStruct : pointer to a GPIO_InitTypeDef structure which will
 263:stm32f10x_lib/STM32F10x_StdPeriph_Driver/src/stm32f10x_gpio.c ****   *         be initialized.
 264:stm32f10x_lib/STM32F10x_StdPeriph_Driver/src/stm32f10x_gpio.c ****   * @retval None
 265:stm32f10x_lib/STM32F10x_StdPeriph_Driver/src/stm32f10x_gpio.c ****   */
 266:stm32f10x_lib/STM32F10x_StdPeriph_Driver/src/stm32f10x_gpio.c **** void GPIO_StructInit(GPIO_InitTypeDef* GPIO_InitStruct)
 267:stm32f10x_lib/STM32F10x_StdPeriph_Driver/src/stm32f10x_gpio.c **** {
 565              		.loc 1 267 1 is_stmt 1 view -0
 566              		.cfi_startproc
 567              		@ args = 0, pretend = 0, frame = 0
ARM GAS  C:\Users\ADMINI~1\AppData\Local\Temp\cc5aRzqp.s 			page 17


 568              		@ frame_needed = 0, uses_anonymous_args = 0
 569              		@ link register save eliminated.
 268:stm32f10x_lib/STM32F10x_StdPeriph_Driver/src/stm32f10x_gpio.c ****   /* Reset GPIO init structure parameters values */
 269:stm32f10x_lib/STM32F10x_StdPeriph_Driver/src/stm32f10x_gpio.c ****   GPIO_InitStruct->GPIO_Pin  = GPIO_Pin_All;
 570              		.loc 1 269 3 view .LVU141
 270:stm32f10x_lib/STM32F10x_StdPeriph_Driver/src/stm32f10x_gpio.c ****   GPIO_InitStruct->GPIO_Speed = GPIO_Speed_2MHz;
 571              		.loc 1 270 3 view .LVU142
 271:stm32f10x_lib/STM32F10x_StdPeriph_Driver/src/stm32f10x_gpio.c ****   GPIO_InitStruct->GPIO_Mode = GPIO_Mode_IN_FLOATING;
 572              		.loc 1 271 3 view .LVU143
 573              	@ stm32f10x_lib/STM32F10x_StdPeriph_Driver/src/stm32f10x_gpio.c:269:   GPIO_InitStruct->GPIO_Pin  =
 269:stm32f10x_lib/STM32F10x_StdPeriph_Driver/src/stm32f10x_gpio.c ****   GPIO_InitStruct->GPIO_Speed = GPIO_Speed_2MHz;
 574              		.loc 1 269 30 is_stmt 0 view .LVU144
 575 0170 4FF6FF73 		movw	r3, #65535	@ tmp115,
 576 0174 0380     		strh	r3, [r0]	@ movhi	@ tmp115, GPIO_InitStruct_2(D)->GPIO_Pin
 577              	@ stm32f10x_lib/STM32F10x_StdPeriph_Driver/src/stm32f10x_gpio.c:270:   GPIO_InitStruct->GPIO_Speed 
 270:stm32f10x_lib/STM32F10x_StdPeriph_Driver/src/stm32f10x_gpio.c ****   GPIO_InitStruct->GPIO_Speed = GPIO_Speed_2MHz;
 578              		.loc 1 270 31 view .LVU145
 579 0176 40F20243 		movw	r3, #1026	@ tmp117,
 580 017a 4380     		strh	r3, [r0, #2]	@ movhi	@ tmp117, MEM <unsigned short> [(void *)GPIO_InitStruct_2(D) + 2B]
 581              	@ stm32f10x_lib/STM32F10x_StdPeriph_Driver/src/stm32f10x_gpio.c:272: }
 272:stm32f10x_lib/STM32F10x_StdPeriph_Driver/src/stm32f10x_gpio.c **** }
 582              		.loc 1 272 1 view .LVU146
 583 017c 7047     		bx	lr	@
 584              		.cfi_endproc
 585              	.LFE32:
 586              		.size	GPIO_StructInit, .-GPIO_StructInit
 587              		.align	1
 588              		.global	GPIO_ReadInputDataBit
 589              		.syntax unified
 590              		.thumb
 591              		.thumb_func
 592              		.type	GPIO_ReadInputDataBit, %function
 593              	GPIO_ReadInputDataBit:
 594              	.LVL50:
 595              	.LFB33:
 273:stm32f10x_lib/STM32F10x_StdPeriph_Driver/src/stm32f10x_gpio.c **** 
 274:stm32f10x_lib/STM32F10x_StdPeriph_Driver/src/stm32f10x_gpio.c **** /**
 275:stm32f10x_lib/STM32F10x_StdPeriph_Driver/src/stm32f10x_gpio.c ****   * @brief  Reads the specified input port pin.
 276:stm32f10x_lib/STM32F10x_StdPeriph_Driver/src/stm32f10x_gpio.c ****   * @param  GPIOx: where x can be (A..G) to select the GPIO peripheral.
 277:stm32f10x_lib/STM32F10x_StdPeriph_Driver/src/stm32f10x_gpio.c ****   * @param  GPIO_Pin:  specifies the port bit to read.
 278:stm32f10x_lib/STM32F10x_StdPeriph_Driver/src/stm32f10x_gpio.c ****   *   This parameter can be GPIO_Pin_x where x can be (0..15).
 279:stm32f10x_lib/STM32F10x_StdPeriph_Driver/src/stm32f10x_gpio.c ****   * @retval The input port pin value.
 280:stm32f10x_lib/STM32F10x_StdPeriph_Driver/src/stm32f10x_gpio.c ****   */
 281:stm32f10x_lib/STM32F10x_StdPeriph_Driver/src/stm32f10x_gpio.c **** uint8_t GPIO_ReadInputDataBit(GPIO_TypeDef* GPIOx, uint16_t GPIO_Pin)
 282:stm32f10x_lib/STM32F10x_StdPeriph_Driver/src/stm32f10x_gpio.c **** {
 596              		.loc 1 282 1 is_stmt 1 view -0
 597              		.cfi_startproc
 598              		@ args = 0, pretend = 0, frame = 0
 599              		@ frame_needed = 0, uses_anonymous_args = 0
 600              		@ link register save eliminated.
 283:stm32f10x_lib/STM32F10x_StdPeriph_Driver/src/stm32f10x_gpio.c ****   uint8_t bitstatus = 0x00;
 601              		.loc 1 283 3 view .LVU148
 284:stm32f10x_lib/STM32F10x_StdPeriph_Driver/src/stm32f10x_gpio.c ****   
 285:stm32f10x_lib/STM32F10x_StdPeriph_Driver/src/stm32f10x_gpio.c ****   /* Check the parameters */
 286:stm32f10x_lib/STM32F10x_StdPeriph_Driver/src/stm32f10x_gpio.c ****   assert_param(IS_GPIO_ALL_PERIPH(GPIOx));
 602              		.loc 1 286 3 view .LVU149
 287:stm32f10x_lib/STM32F10x_StdPeriph_Driver/src/stm32f10x_gpio.c ****   assert_param(IS_GET_GPIO_PIN(GPIO_Pin)); 
ARM GAS  C:\Users\ADMINI~1\AppData\Local\Temp\cc5aRzqp.s 			page 18


 603              		.loc 1 287 3 view .LVU150
 288:stm32f10x_lib/STM32F10x_StdPeriph_Driver/src/stm32f10x_gpio.c ****   
 289:stm32f10x_lib/STM32F10x_StdPeriph_Driver/src/stm32f10x_gpio.c ****   if ((GPIOx->IDR & GPIO_Pin) != (uint32_t)Bit_RESET)
 604              		.loc 1 289 3 view .LVU151
 605              	@ stm32f10x_lib/STM32F10x_StdPeriph_Driver/src/stm32f10x_gpio.c:289:   if ((GPIOx->IDR & GPIO_Pin) 
 606              		.loc 1 289 13 is_stmt 0 view .LVU152
 607 017e 8368     		ldr	r3, [r0, #8]	@ _1, GPIOx_6(D)->IDR
 608              	.LVL51:
 290:stm32f10x_lib/STM32F10x_StdPeriph_Driver/src/stm32f10x_gpio.c ****   {
 291:stm32f10x_lib/STM32F10x_StdPeriph_Driver/src/stm32f10x_gpio.c ****     bitstatus = (uint8_t)Bit_SET;
 292:stm32f10x_lib/STM32F10x_StdPeriph_Driver/src/stm32f10x_gpio.c ****   }
 293:stm32f10x_lib/STM32F10x_StdPeriph_Driver/src/stm32f10x_gpio.c ****   else
 294:stm32f10x_lib/STM32F10x_StdPeriph_Driver/src/stm32f10x_gpio.c ****   {
 295:stm32f10x_lib/STM32F10x_StdPeriph_Driver/src/stm32f10x_gpio.c ****     bitstatus = (uint8_t)Bit_RESET;
 296:stm32f10x_lib/STM32F10x_StdPeriph_Driver/src/stm32f10x_gpio.c ****   }
 297:stm32f10x_lib/STM32F10x_StdPeriph_Driver/src/stm32f10x_gpio.c ****   return bitstatus;
 609              		.loc 1 297 3 is_stmt 1 view .LVU153
 610              	@ stm32f10x_lib/STM32F10x_StdPeriph_Driver/src/stm32f10x_gpio.c:289:   if ((GPIOx->IDR & GPIO_Pin) 
 289:stm32f10x_lib/STM32F10x_StdPeriph_Driver/src/stm32f10x_gpio.c ****   {
 611              		.loc 1 289 6 is_stmt 0 view .LVU154
 612 0180 1942     		tst	r1, r3	@ tmp125, _1
 613              	@ stm32f10x_lib/STM32F10x_StdPeriph_Driver/src/stm32f10x_gpio.c:298: }
 298:stm32f10x_lib/STM32F10x_StdPeriph_Driver/src/stm32f10x_gpio.c **** }
 614              		.loc 1 298 1 view .LVU155
 615 0182 14BF     		ite	ne
 616 0184 0120     		movne	r0, #1	@,
 617              	.LVL52:
 618              		.loc 1 298 1 view .LVU156
 619 0186 0020     		moveq	r0, #0	@,
 620 0188 7047     		bx	lr	@
 621              		.cfi_endproc
 622              	.LFE33:
 623              		.size	GPIO_ReadInputDataBit, .-GPIO_ReadInputDataBit
 624              		.align	1
 625              		.global	GPIO_ReadInputData
 626              		.syntax unified
 627              		.thumb
 628              		.thumb_func
 629              		.type	GPIO_ReadInputData, %function
 630              	GPIO_ReadInputData:
 631              	.LVL53:
 632              	.LFB34:
 299:stm32f10x_lib/STM32F10x_StdPeriph_Driver/src/stm32f10x_gpio.c **** 
 300:stm32f10x_lib/STM32F10x_StdPeriph_Driver/src/stm32f10x_gpio.c **** /**
 301:stm32f10x_lib/STM32F10x_StdPeriph_Driver/src/stm32f10x_gpio.c ****   * @brief  Reads the specified GPIO input data port.
 302:stm32f10x_lib/STM32F10x_StdPeriph_Driver/src/stm32f10x_gpio.c ****   * @param  GPIOx: where x can be (A..G) to select the GPIO peripheral.
 303:stm32f10x_lib/STM32F10x_StdPeriph_Driver/src/stm32f10x_gpio.c ****   * @retval GPIO input data port value.
 304:stm32f10x_lib/STM32F10x_StdPeriph_Driver/src/stm32f10x_gpio.c ****   */
 305:stm32f10x_lib/STM32F10x_StdPeriph_Driver/src/stm32f10x_gpio.c **** uint16_t GPIO_ReadInputData(GPIO_TypeDef* GPIOx)
 306:stm32f10x_lib/STM32F10x_StdPeriph_Driver/src/stm32f10x_gpio.c **** {
 633              		.loc 1 306 1 is_stmt 1 view -0
 634              		.cfi_startproc
 635              		@ args = 0, pretend = 0, frame = 0
 636              		@ frame_needed = 0, uses_anonymous_args = 0
 637              		@ link register save eliminated.
 307:stm32f10x_lib/STM32F10x_StdPeriph_Driver/src/stm32f10x_gpio.c ****   /* Check the parameters */
 308:stm32f10x_lib/STM32F10x_StdPeriph_Driver/src/stm32f10x_gpio.c ****   assert_param(IS_GPIO_ALL_PERIPH(GPIOx));
ARM GAS  C:\Users\ADMINI~1\AppData\Local\Temp\cc5aRzqp.s 			page 19


 638              		.loc 1 308 3 view .LVU158
 309:stm32f10x_lib/STM32F10x_StdPeriph_Driver/src/stm32f10x_gpio.c ****   
 310:stm32f10x_lib/STM32F10x_StdPeriph_Driver/src/stm32f10x_gpio.c ****   return ((uint16_t)GPIOx->IDR);
 639              		.loc 1 310 3 view .LVU159
 640              	@ stm32f10x_lib/STM32F10x_StdPeriph_Driver/src/stm32f10x_gpio.c:310:   return ((uint16_t)GPIOx->IDR
 641              		.loc 1 310 26 is_stmt 0 view .LVU160
 642 018a 8068     		ldr	r0, [r0, #8]	@ _1, GPIOx_3(D)->IDR
 643              	.LVL54:
 644              	@ stm32f10x_lib/STM32F10x_StdPeriph_Driver/src/stm32f10x_gpio.c:311: }
 311:stm32f10x_lib/STM32F10x_StdPeriph_Driver/src/stm32f10x_gpio.c **** }
 645              		.loc 1 311 1 view .LVU161
 646 018c 80B2     		uxth	r0, r0	@, _1
 647 018e 7047     		bx	lr	@
 648              		.cfi_endproc
 649              	.LFE34:
 650              		.size	GPIO_ReadInputData, .-GPIO_ReadInputData
 651              		.align	1
 652              		.global	GPIO_ReadOutputDataBit
 653              		.syntax unified
 654              		.thumb
 655              		.thumb_func
 656              		.type	GPIO_ReadOutputDataBit, %function
 657              	GPIO_ReadOutputDataBit:
 658              	.LVL55:
 659              	.LFB35:
 312:stm32f10x_lib/STM32F10x_StdPeriph_Driver/src/stm32f10x_gpio.c **** 
 313:stm32f10x_lib/STM32F10x_StdPeriph_Driver/src/stm32f10x_gpio.c **** /**
 314:stm32f10x_lib/STM32F10x_StdPeriph_Driver/src/stm32f10x_gpio.c ****   * @brief  Reads the specified output data port bit.
 315:stm32f10x_lib/STM32F10x_StdPeriph_Driver/src/stm32f10x_gpio.c ****   * @param  GPIOx: where x can be (A..G) to select the GPIO peripheral.
 316:stm32f10x_lib/STM32F10x_StdPeriph_Driver/src/stm32f10x_gpio.c ****   * @param  GPIO_Pin:  specifies the port bit to read.
 317:stm32f10x_lib/STM32F10x_StdPeriph_Driver/src/stm32f10x_gpio.c ****   *   This parameter can be GPIO_Pin_x where x can be (0..15).
 318:stm32f10x_lib/STM32F10x_StdPeriph_Driver/src/stm32f10x_gpio.c ****   * @retval The output port pin value.
 319:stm32f10x_lib/STM32F10x_StdPeriph_Driver/src/stm32f10x_gpio.c ****   */
 320:stm32f10x_lib/STM32F10x_StdPeriph_Driver/src/stm32f10x_gpio.c **** uint8_t GPIO_ReadOutputDataBit(GPIO_TypeDef* GPIOx, uint16_t GPIO_Pin)
 321:stm32f10x_lib/STM32F10x_StdPeriph_Driver/src/stm32f10x_gpio.c **** {
 660              		.loc 1 321 1 is_stmt 1 view -0
 661              		.cfi_startproc
 662              		@ args = 0, pretend = 0, frame = 0
 663              		@ frame_needed = 0, uses_anonymous_args = 0
 664              		@ link register save eliminated.
 322:stm32f10x_lib/STM32F10x_StdPeriph_Driver/src/stm32f10x_gpio.c ****   uint8_t bitstatus = 0x00;
 665              		.loc 1 322 3 view .LVU163
 323:stm32f10x_lib/STM32F10x_StdPeriph_Driver/src/stm32f10x_gpio.c ****   /* Check the parameters */
 324:stm32f10x_lib/STM32F10x_StdPeriph_Driver/src/stm32f10x_gpio.c ****   assert_param(IS_GPIO_ALL_PERIPH(GPIOx));
 666              		.loc 1 324 3 view .LVU164
 325:stm32f10x_lib/STM32F10x_StdPeriph_Driver/src/stm32f10x_gpio.c ****   assert_param(IS_GET_GPIO_PIN(GPIO_Pin)); 
 667              		.loc 1 325 3 view .LVU165
 326:stm32f10x_lib/STM32F10x_StdPeriph_Driver/src/stm32f10x_gpio.c ****   
 327:stm32f10x_lib/STM32F10x_StdPeriph_Driver/src/stm32f10x_gpio.c ****   if ((GPIOx->ODR & GPIO_Pin) != (uint32_t)Bit_RESET)
 668              		.loc 1 327 3 view .LVU166
 669              	@ stm32f10x_lib/STM32F10x_StdPeriph_Driver/src/stm32f10x_gpio.c:327:   if ((GPIOx->ODR & GPIO_Pin) 
 670              		.loc 1 327 13 is_stmt 0 view .LVU167
 671 0190 C368     		ldr	r3, [r0, #12]	@ _1, GPIOx_6(D)->ODR
 672              	.LVL56:
 328:stm32f10x_lib/STM32F10x_StdPeriph_Driver/src/stm32f10x_gpio.c ****   {
 329:stm32f10x_lib/STM32F10x_StdPeriph_Driver/src/stm32f10x_gpio.c ****     bitstatus = (uint8_t)Bit_SET;
 330:stm32f10x_lib/STM32F10x_StdPeriph_Driver/src/stm32f10x_gpio.c ****   }
ARM GAS  C:\Users\ADMINI~1\AppData\Local\Temp\cc5aRzqp.s 			page 20


 331:stm32f10x_lib/STM32F10x_StdPeriph_Driver/src/stm32f10x_gpio.c ****   else
 332:stm32f10x_lib/STM32F10x_StdPeriph_Driver/src/stm32f10x_gpio.c ****   {
 333:stm32f10x_lib/STM32F10x_StdPeriph_Driver/src/stm32f10x_gpio.c ****     bitstatus = (uint8_t)Bit_RESET;
 334:stm32f10x_lib/STM32F10x_StdPeriph_Driver/src/stm32f10x_gpio.c ****   }
 335:stm32f10x_lib/STM32F10x_StdPeriph_Driver/src/stm32f10x_gpio.c ****   return bitstatus;
 673              		.loc 1 335 3 is_stmt 1 view .LVU168
 674              	@ stm32f10x_lib/STM32F10x_StdPeriph_Driver/src/stm32f10x_gpio.c:327:   if ((GPIOx->ODR & GPIO_Pin) 
 327:stm32f10x_lib/STM32F10x_StdPeriph_Driver/src/stm32f10x_gpio.c ****   {
 675              		.loc 1 327 6 is_stmt 0 view .LVU169
 676 0192 1942     		tst	r1, r3	@ tmp125, _1
 677              	@ stm32f10x_lib/STM32F10x_StdPeriph_Driver/src/stm32f10x_gpio.c:336: }
 336:stm32f10x_lib/STM32F10x_StdPeriph_Driver/src/stm32f10x_gpio.c **** }
 678              		.loc 1 336 1 view .LVU170
 679 0194 14BF     		ite	ne
 680 0196 0120     		movne	r0, #1	@,
 681              	.LVL57:
 682              		.loc 1 336 1 view .LVU171
 683 0198 0020     		moveq	r0, #0	@,
 684 019a 7047     		bx	lr	@
 685              		.cfi_endproc
 686              	.LFE35:
 687              		.size	GPIO_ReadOutputDataBit, .-GPIO_ReadOutputDataBit
 688              		.align	1
 689              		.global	GPIO_ReadOutputData
 690              		.syntax unified
 691              		.thumb
 692              		.thumb_func
 693              		.type	GPIO_ReadOutputData, %function
 694              	GPIO_ReadOutputData:
 695              	.LVL58:
 696              	.LFB36:
 337:stm32f10x_lib/STM32F10x_StdPeriph_Driver/src/stm32f10x_gpio.c **** 
 338:stm32f10x_lib/STM32F10x_StdPeriph_Driver/src/stm32f10x_gpio.c **** /**
 339:stm32f10x_lib/STM32F10x_StdPeriph_Driver/src/stm32f10x_gpio.c ****   * @brief  Reads the specified GPIO output data port.
 340:stm32f10x_lib/STM32F10x_StdPeriph_Driver/src/stm32f10x_gpio.c ****   * @param  GPIOx: where x can be (A..G) to select the GPIO peripheral.
 341:stm32f10x_lib/STM32F10x_StdPeriph_Driver/src/stm32f10x_gpio.c ****   * @retval GPIO output data port value.
 342:stm32f10x_lib/STM32F10x_StdPeriph_Driver/src/stm32f10x_gpio.c ****   */
 343:stm32f10x_lib/STM32F10x_StdPeriph_Driver/src/stm32f10x_gpio.c **** uint16_t GPIO_ReadOutputData(GPIO_TypeDef* GPIOx)
 344:stm32f10x_lib/STM32F10x_StdPeriph_Driver/src/stm32f10x_gpio.c **** {
 697              		.loc 1 344 1 is_stmt 1 view -0
 698              		.cfi_startproc
 699              		@ args = 0, pretend = 0, frame = 0
 700              		@ frame_needed = 0, uses_anonymous_args = 0
 701              		@ link register save eliminated.
 345:stm32f10x_lib/STM32F10x_StdPeriph_Driver/src/stm32f10x_gpio.c ****   /* Check the parameters */
 346:stm32f10x_lib/STM32F10x_StdPeriph_Driver/src/stm32f10x_gpio.c ****   assert_param(IS_GPIO_ALL_PERIPH(GPIOx));
 702              		.loc 1 346 3 view .LVU173
 347:stm32f10x_lib/STM32F10x_StdPeriph_Driver/src/stm32f10x_gpio.c ****     
 348:stm32f10x_lib/STM32F10x_StdPeriph_Driver/src/stm32f10x_gpio.c ****   return ((uint16_t)GPIOx->ODR);
 703              		.loc 1 348 3 view .LVU174
 704              	@ stm32f10x_lib/STM32F10x_StdPeriph_Driver/src/stm32f10x_gpio.c:348:   return ((uint16_t)GPIOx->ODR
 705              		.loc 1 348 26 is_stmt 0 view .LVU175
 706 019c C068     		ldr	r0, [r0, #12]	@ _1, GPIOx_3(D)->ODR
 707              	.LVL59:
 708              	@ stm32f10x_lib/STM32F10x_StdPeriph_Driver/src/stm32f10x_gpio.c:349: }
 349:stm32f10x_lib/STM32F10x_StdPeriph_Driver/src/stm32f10x_gpio.c **** }
 709              		.loc 1 349 1 view .LVU176
ARM GAS  C:\Users\ADMINI~1\AppData\Local\Temp\cc5aRzqp.s 			page 21


 710 019e 80B2     		uxth	r0, r0	@, _1
 711 01a0 7047     		bx	lr	@
 712              		.cfi_endproc
 713              	.LFE36:
 714              		.size	GPIO_ReadOutputData, .-GPIO_ReadOutputData
 715              		.align	1
 716              		.global	GPIO_SetBits
 717              		.syntax unified
 718              		.thumb
 719              		.thumb_func
 720              		.type	GPIO_SetBits, %function
 721              	GPIO_SetBits:
 722              	.LVL60:
 723              	.LFB37:
 350:stm32f10x_lib/STM32F10x_StdPeriph_Driver/src/stm32f10x_gpio.c **** 
 351:stm32f10x_lib/STM32F10x_StdPeriph_Driver/src/stm32f10x_gpio.c **** /**
 352:stm32f10x_lib/STM32F10x_StdPeriph_Driver/src/stm32f10x_gpio.c ****   * @brief  Sets the selected data port bits.
 353:stm32f10x_lib/STM32F10x_StdPeriph_Driver/src/stm32f10x_gpio.c ****   * @param  GPIOx: where x can be (A..G) to select the GPIO peripheral.
 354:stm32f10x_lib/STM32F10x_StdPeriph_Driver/src/stm32f10x_gpio.c ****   * @param  GPIO_Pin: specifies the port bits to be written.
 355:stm32f10x_lib/STM32F10x_StdPeriph_Driver/src/stm32f10x_gpio.c ****   *   This parameter can be any combination of GPIO_Pin_x where x can be (0..15).
 356:stm32f10x_lib/STM32F10x_StdPeriph_Driver/src/stm32f10x_gpio.c ****   * @retval None
 357:stm32f10x_lib/STM32F10x_StdPeriph_Driver/src/stm32f10x_gpio.c ****   */
 358:stm32f10x_lib/STM32F10x_StdPeriph_Driver/src/stm32f10x_gpio.c **** void GPIO_SetBits(GPIO_TypeDef* GPIOx, uint16_t GPIO_Pin)
 359:stm32f10x_lib/STM32F10x_StdPeriph_Driver/src/stm32f10x_gpio.c **** {
 724              		.loc 1 359 1 is_stmt 1 view -0
 725              		.cfi_startproc
 726              		@ args = 0, pretend = 0, frame = 0
 727              		@ frame_needed = 0, uses_anonymous_args = 0
 728              		@ link register save eliminated.
 360:stm32f10x_lib/STM32F10x_StdPeriph_Driver/src/stm32f10x_gpio.c ****   /* Check the parameters */
 361:stm32f10x_lib/STM32F10x_StdPeriph_Driver/src/stm32f10x_gpio.c ****   assert_param(IS_GPIO_ALL_PERIPH(GPIOx));
 729              		.loc 1 361 3 view .LVU178
 362:stm32f10x_lib/STM32F10x_StdPeriph_Driver/src/stm32f10x_gpio.c ****   assert_param(IS_GPIO_PIN(GPIO_Pin));
 730              		.loc 1 362 3 view .LVU179
 363:stm32f10x_lib/STM32F10x_StdPeriph_Driver/src/stm32f10x_gpio.c ****   
 364:stm32f10x_lib/STM32F10x_StdPeriph_Driver/src/stm32f10x_gpio.c ****   GPIOx->BSRR = GPIO_Pin;
 731              		.loc 1 364 3 view .LVU180
 732              	@ stm32f10x_lib/STM32F10x_StdPeriph_Driver/src/stm32f10x_gpio.c:364:   GPIOx->BSRR = GPIO_Pin;
 733              		.loc 1 364 15 is_stmt 0 view .LVU181
 734 01a2 0161     		str	r1, [r0, #16]	@ GPIO_Pin, GPIOx_4(D)->BSRR
 735              	@ stm32f10x_lib/STM32F10x_StdPeriph_Driver/src/stm32f10x_gpio.c:365: }
 365:stm32f10x_lib/STM32F10x_StdPeriph_Driver/src/stm32f10x_gpio.c **** }
 736              		.loc 1 365 1 view .LVU182
 737 01a4 7047     		bx	lr	@
 738              		.cfi_endproc
 739              	.LFE37:
 740              		.size	GPIO_SetBits, .-GPIO_SetBits
 741              		.align	1
 742              		.global	GPIO_ResetBits
 743              		.syntax unified
 744              		.thumb
 745              		.thumb_func
 746              		.type	GPIO_ResetBits, %function
 747              	GPIO_ResetBits:
 748              	.LVL61:
 749              	.LFB38:
 366:stm32f10x_lib/STM32F10x_StdPeriph_Driver/src/stm32f10x_gpio.c **** 
ARM GAS  C:\Users\ADMINI~1\AppData\Local\Temp\cc5aRzqp.s 			page 22


 367:stm32f10x_lib/STM32F10x_StdPeriph_Driver/src/stm32f10x_gpio.c **** /**
 368:stm32f10x_lib/STM32F10x_StdPeriph_Driver/src/stm32f10x_gpio.c ****   * @brief  Clears the selected data port bits.
 369:stm32f10x_lib/STM32F10x_StdPeriph_Driver/src/stm32f10x_gpio.c ****   * @param  GPIOx: where x can be (A..G) to select the GPIO peripheral.
 370:stm32f10x_lib/STM32F10x_StdPeriph_Driver/src/stm32f10x_gpio.c ****   * @param  GPIO_Pin: specifies the port bits to be written.
 371:stm32f10x_lib/STM32F10x_StdPeriph_Driver/src/stm32f10x_gpio.c ****   *   This parameter can be any combination of GPIO_Pin_x where x can be (0..15).
 372:stm32f10x_lib/STM32F10x_StdPeriph_Driver/src/stm32f10x_gpio.c ****   * @retval None
 373:stm32f10x_lib/STM32F10x_StdPeriph_Driver/src/stm32f10x_gpio.c ****   */
 374:stm32f10x_lib/STM32F10x_StdPeriph_Driver/src/stm32f10x_gpio.c **** void GPIO_ResetBits(GPIO_TypeDef* GPIOx, uint16_t GPIO_Pin)
 375:stm32f10x_lib/STM32F10x_StdPeriph_Driver/src/stm32f10x_gpio.c **** {
 750              		.loc 1 375 1 is_stmt 1 view -0
 751              		.cfi_startproc
 752              		@ args = 0, pretend = 0, frame = 0
 753              		@ frame_needed = 0, uses_anonymous_args = 0
 754              		@ link register save eliminated.
 376:stm32f10x_lib/STM32F10x_StdPeriph_Driver/src/stm32f10x_gpio.c ****   /* Check the parameters */
 377:stm32f10x_lib/STM32F10x_StdPeriph_Driver/src/stm32f10x_gpio.c ****   assert_param(IS_GPIO_ALL_PERIPH(GPIOx));
 755              		.loc 1 377 3 view .LVU184
 378:stm32f10x_lib/STM32F10x_StdPeriph_Driver/src/stm32f10x_gpio.c ****   assert_param(IS_GPIO_PIN(GPIO_Pin));
 756              		.loc 1 378 3 view .LVU185
 379:stm32f10x_lib/STM32F10x_StdPeriph_Driver/src/stm32f10x_gpio.c ****   
 380:stm32f10x_lib/STM32F10x_StdPeriph_Driver/src/stm32f10x_gpio.c ****   GPIOx->BRR = GPIO_Pin;
 757              		.loc 1 380 3 view .LVU186
 758              	@ stm32f10x_lib/STM32F10x_StdPeriph_Driver/src/stm32f10x_gpio.c:380:   GPIOx->BRR = GPIO_Pin;
 759              		.loc 1 380 14 is_stmt 0 view .LVU187
 760 01a6 4161     		str	r1, [r0, #20]	@ GPIO_Pin, GPIOx_4(D)->BRR
 761              	@ stm32f10x_lib/STM32F10x_StdPeriph_Driver/src/stm32f10x_gpio.c:381: }
 381:stm32f10x_lib/STM32F10x_StdPeriph_Driver/src/stm32f10x_gpio.c **** }
 762              		.loc 1 381 1 view .LVU188
 763 01a8 7047     		bx	lr	@
 764              		.cfi_endproc
 765              	.LFE38:
 766              		.size	GPIO_ResetBits, .-GPIO_ResetBits
 767              		.align	1
 768              		.global	GPIO_WriteBit
 769              		.syntax unified
 770              		.thumb
 771              		.thumb_func
 772              		.type	GPIO_WriteBit, %function
 773              	GPIO_WriteBit:
 774              	.LVL62:
 775              	.LFB39:
 382:stm32f10x_lib/STM32F10x_StdPeriph_Driver/src/stm32f10x_gpio.c **** 
 383:stm32f10x_lib/STM32F10x_StdPeriph_Driver/src/stm32f10x_gpio.c **** /**
 384:stm32f10x_lib/STM32F10x_StdPeriph_Driver/src/stm32f10x_gpio.c ****   * @brief  Sets or clears the selected data port bit.
 385:stm32f10x_lib/STM32F10x_StdPeriph_Driver/src/stm32f10x_gpio.c ****   * @param  GPIOx: where x can be (A..G) to select the GPIO peripheral.
 386:stm32f10x_lib/STM32F10x_StdPeriph_Driver/src/stm32f10x_gpio.c ****   * @param  GPIO_Pin: specifies the port bit to be written.
 387:stm32f10x_lib/STM32F10x_StdPeriph_Driver/src/stm32f10x_gpio.c ****   *   This parameter can be one of GPIO_Pin_x where x can be (0..15).
 388:stm32f10x_lib/STM32F10x_StdPeriph_Driver/src/stm32f10x_gpio.c ****   * @param  BitVal: specifies the value to be written to the selected bit.
 389:stm32f10x_lib/STM32F10x_StdPeriph_Driver/src/stm32f10x_gpio.c ****   *   This parameter can be one of the BitAction enum values:
 390:stm32f10x_lib/STM32F10x_StdPeriph_Driver/src/stm32f10x_gpio.c ****   *     @arg Bit_RESET: to clear the port pin
 391:stm32f10x_lib/STM32F10x_StdPeriph_Driver/src/stm32f10x_gpio.c ****   *     @arg Bit_SET: to set the port pin
 392:stm32f10x_lib/STM32F10x_StdPeriph_Driver/src/stm32f10x_gpio.c ****   * @retval None
 393:stm32f10x_lib/STM32F10x_StdPeriph_Driver/src/stm32f10x_gpio.c ****   */
 394:stm32f10x_lib/STM32F10x_StdPeriph_Driver/src/stm32f10x_gpio.c **** void GPIO_WriteBit(GPIO_TypeDef* GPIOx, uint16_t GPIO_Pin, BitAction BitVal)
 395:stm32f10x_lib/STM32F10x_StdPeriph_Driver/src/stm32f10x_gpio.c **** {
 776              		.loc 1 395 1 is_stmt 1 view -0
 777              		.cfi_startproc
ARM GAS  C:\Users\ADMINI~1\AppData\Local\Temp\cc5aRzqp.s 			page 23


 778              		@ args = 0, pretend = 0, frame = 0
 779              		@ frame_needed = 0, uses_anonymous_args = 0
 780              		@ link register save eliminated.
 396:stm32f10x_lib/STM32F10x_StdPeriph_Driver/src/stm32f10x_gpio.c ****   /* Check the parameters */
 397:stm32f10x_lib/STM32F10x_StdPeriph_Driver/src/stm32f10x_gpio.c ****   assert_param(IS_GPIO_ALL_PERIPH(GPIOx));
 781              		.loc 1 397 3 view .LVU190
 398:stm32f10x_lib/STM32F10x_StdPeriph_Driver/src/stm32f10x_gpio.c ****   assert_param(IS_GET_GPIO_PIN(GPIO_Pin));
 782              		.loc 1 398 3 view .LVU191
 399:stm32f10x_lib/STM32F10x_StdPeriph_Driver/src/stm32f10x_gpio.c ****   assert_param(IS_GPIO_BIT_ACTION(BitVal)); 
 783              		.loc 1 399 3 view .LVU192
 400:stm32f10x_lib/STM32F10x_StdPeriph_Driver/src/stm32f10x_gpio.c ****   
 401:stm32f10x_lib/STM32F10x_StdPeriph_Driver/src/stm32f10x_gpio.c ****   if (BitVal != Bit_RESET)
 784              		.loc 1 401 3 view .LVU193
 785              	@ stm32f10x_lib/STM32F10x_StdPeriph_Driver/src/stm32f10x_gpio.c:401:   if (BitVal != Bit_RESET)
 786              		.loc 1 401 6 is_stmt 0 view .LVU194
 787 01aa 0AB1     		cbz	r2, .L39	@ tmp119,
 402:stm32f10x_lib/STM32F10x_StdPeriph_Driver/src/stm32f10x_gpio.c ****   {
 403:stm32f10x_lib/STM32F10x_StdPeriph_Driver/src/stm32f10x_gpio.c ****     GPIOx->BSRR = GPIO_Pin;
 788              		.loc 1 403 5 is_stmt 1 view .LVU195
 789              	@ stm32f10x_lib/STM32F10x_StdPeriph_Driver/src/stm32f10x_gpio.c:403:     GPIOx->BSRR = GPIO_Pin;
 790              		.loc 1 403 17 is_stmt 0 view .LVU196
 791 01ac 0161     		str	r1, [r0, #16]	@ GPIO_Pin, GPIOx_7(D)->BSRR
 792 01ae 7047     		bx	lr	@
 793              	.L39:
 404:stm32f10x_lib/STM32F10x_StdPeriph_Driver/src/stm32f10x_gpio.c ****   }
 405:stm32f10x_lib/STM32F10x_StdPeriph_Driver/src/stm32f10x_gpio.c ****   else
 406:stm32f10x_lib/STM32F10x_StdPeriph_Driver/src/stm32f10x_gpio.c ****   {
 407:stm32f10x_lib/STM32F10x_StdPeriph_Driver/src/stm32f10x_gpio.c ****     GPIOx->BRR = GPIO_Pin;
 794              		.loc 1 407 5 is_stmt 1 view .LVU197
 795              	@ stm32f10x_lib/STM32F10x_StdPeriph_Driver/src/stm32f10x_gpio.c:407:     GPIOx->BRR = GPIO_Pin;
 796              		.loc 1 407 16 is_stmt 0 view .LVU198
 797 01b0 4161     		str	r1, [r0, #20]	@ GPIO_Pin, GPIOx_7(D)->BRR
 798              	@ stm32f10x_lib/STM32F10x_StdPeriph_Driver/src/stm32f10x_gpio.c:409: }
 408:stm32f10x_lib/STM32F10x_StdPeriph_Driver/src/stm32f10x_gpio.c ****   }
 409:stm32f10x_lib/STM32F10x_StdPeriph_Driver/src/stm32f10x_gpio.c **** }
 799              		.loc 1 409 1 view .LVU199
 800 01b2 7047     		bx	lr	@
 801              		.cfi_endproc
 802              	.LFE39:
 803              		.size	GPIO_WriteBit, .-GPIO_WriteBit
 804              		.align	1
 805              		.global	GPIO_Write
 806              		.syntax unified
 807              		.thumb
 808              		.thumb_func
 809              		.type	GPIO_Write, %function
 810              	GPIO_Write:
 811              	.LVL63:
 812              	.LFB40:
 410:stm32f10x_lib/STM32F10x_StdPeriph_Driver/src/stm32f10x_gpio.c **** 
 411:stm32f10x_lib/STM32F10x_StdPeriph_Driver/src/stm32f10x_gpio.c **** /**
 412:stm32f10x_lib/STM32F10x_StdPeriph_Driver/src/stm32f10x_gpio.c ****   * @brief  Writes data to the specified GPIO data port.
 413:stm32f10x_lib/STM32F10x_StdPeriph_Driver/src/stm32f10x_gpio.c ****   * @param  GPIOx: where x can be (A..G) to select the GPIO peripheral.
 414:stm32f10x_lib/STM32F10x_StdPeriph_Driver/src/stm32f10x_gpio.c ****   * @param  PortVal: specifies the value to be written to the port output data register.
 415:stm32f10x_lib/STM32F10x_StdPeriph_Driver/src/stm32f10x_gpio.c ****   * @retval None
 416:stm32f10x_lib/STM32F10x_StdPeriph_Driver/src/stm32f10x_gpio.c ****   */
 417:stm32f10x_lib/STM32F10x_StdPeriph_Driver/src/stm32f10x_gpio.c **** void GPIO_Write(GPIO_TypeDef* GPIOx, uint16_t PortVal)
ARM GAS  C:\Users\ADMINI~1\AppData\Local\Temp\cc5aRzqp.s 			page 24


 418:stm32f10x_lib/STM32F10x_StdPeriph_Driver/src/stm32f10x_gpio.c **** {
 813              		.loc 1 418 1 is_stmt 1 view -0
 814              		.cfi_startproc
 815              		@ args = 0, pretend = 0, frame = 0
 816              		@ frame_needed = 0, uses_anonymous_args = 0
 817              		@ link register save eliminated.
 419:stm32f10x_lib/STM32F10x_StdPeriph_Driver/src/stm32f10x_gpio.c ****   /* Check the parameters */
 420:stm32f10x_lib/STM32F10x_StdPeriph_Driver/src/stm32f10x_gpio.c ****   assert_param(IS_GPIO_ALL_PERIPH(GPIOx));
 818              		.loc 1 420 3 view .LVU201
 421:stm32f10x_lib/STM32F10x_StdPeriph_Driver/src/stm32f10x_gpio.c ****   
 422:stm32f10x_lib/STM32F10x_StdPeriph_Driver/src/stm32f10x_gpio.c ****   GPIOx->ODR = PortVal;
 819              		.loc 1 422 3 view .LVU202
 820              	@ stm32f10x_lib/STM32F10x_StdPeriph_Driver/src/stm32f10x_gpio.c:422:   GPIOx->ODR = PortVal;
 821              		.loc 1 422 14 is_stmt 0 view .LVU203
 822 01b4 C160     		str	r1, [r0, #12]	@ PortVal, GPIOx_4(D)->ODR
 823              	@ stm32f10x_lib/STM32F10x_StdPeriph_Driver/src/stm32f10x_gpio.c:423: }
 423:stm32f10x_lib/STM32F10x_StdPeriph_Driver/src/stm32f10x_gpio.c **** }
 824              		.loc 1 423 1 view .LVU204
 825 01b6 7047     		bx	lr	@
 826              		.cfi_endproc
 827              	.LFE40:
 828              		.size	GPIO_Write, .-GPIO_Write
 829              		.align	1
 830              		.global	GPIO_PinLockConfig
 831              		.syntax unified
 832              		.thumb
 833              		.thumb_func
 834              		.type	GPIO_PinLockConfig, %function
 835              	GPIO_PinLockConfig:
 836              	.LVL64:
 837              	.LFB41:
 424:stm32f10x_lib/STM32F10x_StdPeriph_Driver/src/stm32f10x_gpio.c **** 
 425:stm32f10x_lib/STM32F10x_StdPeriph_Driver/src/stm32f10x_gpio.c **** /**
 426:stm32f10x_lib/STM32F10x_StdPeriph_Driver/src/stm32f10x_gpio.c ****   * @brief  Locks GPIO Pins configuration registers.
 427:stm32f10x_lib/STM32F10x_StdPeriph_Driver/src/stm32f10x_gpio.c ****   * @param  GPIOx: where x can be (A..G) to select the GPIO peripheral.
 428:stm32f10x_lib/STM32F10x_StdPeriph_Driver/src/stm32f10x_gpio.c ****   * @param  GPIO_Pin: specifies the port bit to be written.
 429:stm32f10x_lib/STM32F10x_StdPeriph_Driver/src/stm32f10x_gpio.c ****   *   This parameter can be any combination of GPIO_Pin_x where x can be (0..15).
 430:stm32f10x_lib/STM32F10x_StdPeriph_Driver/src/stm32f10x_gpio.c ****   * @retval None
 431:stm32f10x_lib/STM32F10x_StdPeriph_Driver/src/stm32f10x_gpio.c ****   */
 432:stm32f10x_lib/STM32F10x_StdPeriph_Driver/src/stm32f10x_gpio.c **** void GPIO_PinLockConfig(GPIO_TypeDef* GPIOx, uint16_t GPIO_Pin)
 433:stm32f10x_lib/STM32F10x_StdPeriph_Driver/src/stm32f10x_gpio.c **** {
 838              		.loc 1 433 1 is_stmt 1 view -0
 839              		.cfi_startproc
 840              		@ args = 0, pretend = 0, frame = 0
 841              		@ frame_needed = 0, uses_anonymous_args = 0
 842              		@ link register save eliminated.
 434:stm32f10x_lib/STM32F10x_StdPeriph_Driver/src/stm32f10x_gpio.c ****   uint32_t tmp = 0x00010000;
 843              		.loc 1 434 3 view .LVU206
 435:stm32f10x_lib/STM32F10x_StdPeriph_Driver/src/stm32f10x_gpio.c ****   
 436:stm32f10x_lib/STM32F10x_StdPeriph_Driver/src/stm32f10x_gpio.c ****   /* Check the parameters */
 437:stm32f10x_lib/STM32F10x_StdPeriph_Driver/src/stm32f10x_gpio.c ****   assert_param(IS_GPIO_ALL_PERIPH(GPIOx));
 844              		.loc 1 437 3 view .LVU207
 438:stm32f10x_lib/STM32F10x_StdPeriph_Driver/src/stm32f10x_gpio.c ****   assert_param(IS_GPIO_PIN(GPIO_Pin));
 845              		.loc 1 438 3 view .LVU208
 439:stm32f10x_lib/STM32F10x_StdPeriph_Driver/src/stm32f10x_gpio.c ****   
 440:stm32f10x_lib/STM32F10x_StdPeriph_Driver/src/stm32f10x_gpio.c ****   tmp |= GPIO_Pin;
 846              		.loc 1 440 3 view .LVU209
ARM GAS  C:\Users\ADMINI~1\AppData\Local\Temp\cc5aRzqp.s 			page 25


 847              	@ stm32f10x_lib/STM32F10x_StdPeriph_Driver/src/stm32f10x_gpio.c:440:   tmp |= GPIO_Pin;
 848              		.loc 1 440 7 is_stmt 0 view .LVU210
 849 01b8 41F48033 		orr	r3, r1, #65536	@ tmp, GPIO_Pin,
 850              	.LVL65:
 441:stm32f10x_lib/STM32F10x_StdPeriph_Driver/src/stm32f10x_gpio.c ****   /* Set LCKK bit */
 442:stm32f10x_lib/STM32F10x_StdPeriph_Driver/src/stm32f10x_gpio.c ****   GPIOx->LCKR = tmp;
 851              		.loc 1 442 3 is_stmt 1 view .LVU211
 852              	@ stm32f10x_lib/STM32F10x_StdPeriph_Driver/src/stm32f10x_gpio.c:442:   GPIOx->LCKR = tmp;
 853              		.loc 1 442 15 is_stmt 0 view .LVU212
 854 01bc 8361     		str	r3, [r0, #24]	@ tmp, GPIOx_5(D)->LCKR
 443:stm32f10x_lib/STM32F10x_StdPeriph_Driver/src/stm32f10x_gpio.c ****   /* Reset LCKK bit */
 444:stm32f10x_lib/STM32F10x_StdPeriph_Driver/src/stm32f10x_gpio.c ****   GPIOx->LCKR =  GPIO_Pin;
 855              		.loc 1 444 3 is_stmt 1 view .LVU213
 856              	@ stm32f10x_lib/STM32F10x_StdPeriph_Driver/src/stm32f10x_gpio.c:444:   GPIOx->LCKR =  GPIO_Pin;
 857              		.loc 1 444 15 is_stmt 0 view .LVU214
 858 01be 8161     		str	r1, [r0, #24]	@ GPIO_Pin, GPIOx_5(D)->LCKR
 445:stm32f10x_lib/STM32F10x_StdPeriph_Driver/src/stm32f10x_gpio.c ****   /* Set LCKK bit */
 446:stm32f10x_lib/STM32F10x_StdPeriph_Driver/src/stm32f10x_gpio.c ****   GPIOx->LCKR = tmp;
 859              		.loc 1 446 3 is_stmt 1 view .LVU215
 860              	@ stm32f10x_lib/STM32F10x_StdPeriph_Driver/src/stm32f10x_gpio.c:446:   GPIOx->LCKR = tmp;
 861              		.loc 1 446 15 is_stmt 0 view .LVU216
 862 01c0 8361     		str	r3, [r0, #24]	@ tmp, GPIOx_5(D)->LCKR
 447:stm32f10x_lib/STM32F10x_StdPeriph_Driver/src/stm32f10x_gpio.c ****   /* Read LCKK bit*/
 448:stm32f10x_lib/STM32F10x_StdPeriph_Driver/src/stm32f10x_gpio.c ****   tmp = GPIOx->LCKR;
 863              		.loc 1 448 3 is_stmt 1 view .LVU217
 864              	@ stm32f10x_lib/STM32F10x_StdPeriph_Driver/src/stm32f10x_gpio.c:448:   tmp = GPIOx->LCKR;
 865              		.loc 1 448 7 is_stmt 0 view .LVU218
 866 01c2 8369     		ldr	r3, [r0, #24]	@ tmp, GPIOx_5(D)->LCKR
 867              	.LVL66:
 449:stm32f10x_lib/STM32F10x_StdPeriph_Driver/src/stm32f10x_gpio.c ****   /* Read LCKK bit*/
 450:stm32f10x_lib/STM32F10x_StdPeriph_Driver/src/stm32f10x_gpio.c ****   tmp = GPIOx->LCKR;
 868              		.loc 1 450 3 is_stmt 1 view .LVU219
 869              	@ stm32f10x_lib/STM32F10x_StdPeriph_Driver/src/stm32f10x_gpio.c:450:   tmp = GPIOx->LCKR;
 870              		.loc 1 450 7 is_stmt 0 view .LVU220
 871 01c4 8369     		ldr	r3, [r0, #24]	@ tmp, GPIOx_5(D)->LCKR
 872              	@ stm32f10x_lib/STM32F10x_StdPeriph_Driver/src/stm32f10x_gpio.c:451: }
 451:stm32f10x_lib/STM32F10x_StdPeriph_Driver/src/stm32f10x_gpio.c **** }
 873              		.loc 1 451 1 view .LVU221
 874 01c6 7047     		bx	lr	@
 875              		.cfi_endproc
 876              	.LFE41:
 877              		.size	GPIO_PinLockConfig, .-GPIO_PinLockConfig
 878              		.align	1
 879              		.global	GPIO_EventOutputConfig
 880              		.syntax unified
 881              		.thumb
 882              		.thumb_func
 883              		.type	GPIO_EventOutputConfig, %function
 884              	GPIO_EventOutputConfig:
 885              	.LVL67:
 886              	.LFB42:
 452:stm32f10x_lib/STM32F10x_StdPeriph_Driver/src/stm32f10x_gpio.c **** 
 453:stm32f10x_lib/STM32F10x_StdPeriph_Driver/src/stm32f10x_gpio.c **** /**
 454:stm32f10x_lib/STM32F10x_StdPeriph_Driver/src/stm32f10x_gpio.c ****   * @brief  Selects the GPIO pin used as Event output.
 455:stm32f10x_lib/STM32F10x_StdPeriph_Driver/src/stm32f10x_gpio.c ****   * @param  GPIO_PortSource: selects the GPIO port to be used as source
 456:stm32f10x_lib/STM32F10x_StdPeriph_Driver/src/stm32f10x_gpio.c ****   *   for Event output.
 457:stm32f10x_lib/STM32F10x_StdPeriph_Driver/src/stm32f10x_gpio.c ****   *   This parameter can be GPIO_PortSourceGPIOx where x can be (A..E).
ARM GAS  C:\Users\ADMINI~1\AppData\Local\Temp\cc5aRzqp.s 			page 26


 458:stm32f10x_lib/STM32F10x_StdPeriph_Driver/src/stm32f10x_gpio.c ****   * @param  GPIO_PinSource: specifies the pin for the Event output.
 459:stm32f10x_lib/STM32F10x_StdPeriph_Driver/src/stm32f10x_gpio.c ****   *   This parameter can be GPIO_PinSourcex where x can be (0..15).
 460:stm32f10x_lib/STM32F10x_StdPeriph_Driver/src/stm32f10x_gpio.c ****   * @retval None
 461:stm32f10x_lib/STM32F10x_StdPeriph_Driver/src/stm32f10x_gpio.c ****   */
 462:stm32f10x_lib/STM32F10x_StdPeriph_Driver/src/stm32f10x_gpio.c **** void GPIO_EventOutputConfig(uint8_t GPIO_PortSource, uint8_t GPIO_PinSource)
 463:stm32f10x_lib/STM32F10x_StdPeriph_Driver/src/stm32f10x_gpio.c **** {
 887              		.loc 1 463 1 is_stmt 1 view -0
 888              		.cfi_startproc
 889              		@ args = 0, pretend = 0, frame = 0
 890              		@ frame_needed = 0, uses_anonymous_args = 0
 891              		@ link register save eliminated.
 464:stm32f10x_lib/STM32F10x_StdPeriph_Driver/src/stm32f10x_gpio.c ****   uint32_t tmpreg = 0x00;
 892              		.loc 1 464 3 view .LVU223
 465:stm32f10x_lib/STM32F10x_StdPeriph_Driver/src/stm32f10x_gpio.c ****   /* Check the parameters */
 466:stm32f10x_lib/STM32F10x_StdPeriph_Driver/src/stm32f10x_gpio.c ****   assert_param(IS_GPIO_EVENTOUT_PORT_SOURCE(GPIO_PortSource));
 893              		.loc 1 466 3 view .LVU224
 467:stm32f10x_lib/STM32F10x_StdPeriph_Driver/src/stm32f10x_gpio.c ****   assert_param(IS_GPIO_PIN_SOURCE(GPIO_PinSource));
 894              		.loc 1 467 3 view .LVU225
 468:stm32f10x_lib/STM32F10x_StdPeriph_Driver/src/stm32f10x_gpio.c ****     
 469:stm32f10x_lib/STM32F10x_StdPeriph_Driver/src/stm32f10x_gpio.c ****   tmpreg = AFIO->EVCR;
 895              		.loc 1 469 3 view .LVU226
 896              	@ stm32f10x_lib/STM32F10x_StdPeriph_Driver/src/stm32f10x_gpio.c:469:   tmpreg = AFIO->EVCR;
 897              		.loc 1 469 10 is_stmt 0 view .LVU227
 898 01c8 054A     		ldr	r2, .L44	@ tmp122,
 899 01ca 1368     		ldr	r3, [r2]	@ tmpreg, MEM[(struct AFIO_TypeDef *)1073807360B].EVCR
 900              	.LVL68:
 470:stm32f10x_lib/STM32F10x_StdPeriph_Driver/src/stm32f10x_gpio.c ****   /* Clear the PORT[6:4] and PIN[3:0] bits */
 471:stm32f10x_lib/STM32F10x_StdPeriph_Driver/src/stm32f10x_gpio.c ****   tmpreg &= EVCR_PORTPINCONFIG_MASK;
 901              		.loc 1 471 3 is_stmt 1 view .LVU228
 472:stm32f10x_lib/STM32F10x_StdPeriph_Driver/src/stm32f10x_gpio.c ****   tmpreg |= (uint32_t)GPIO_PortSource << 0x04;
 902              		.loc 1 472 3 view .LVU229
 473:stm32f10x_lib/STM32F10x_StdPeriph_Driver/src/stm32f10x_gpio.c ****   tmpreg |= GPIO_PinSource;
 903              		.loc 1 473 3 view .LVU230
 904              	@ stm32f10x_lib/STM32F10x_StdPeriph_Driver/src/stm32f10x_gpio.c:471:   tmpreg &= EVCR_PORTPINCONFIG
 471:stm32f10x_lib/STM32F10x_StdPeriph_Driver/src/stm32f10x_gpio.c ****   tmpreg |= (uint32_t)GPIO_PortSource << 0x04;
 905              		.loc 1 471 10 is_stmt 0 view .LVU231
 906 01cc 23F07F03 		bic	r3, r3, #127	@ tmpreg, tmpreg,
 907              	.LVL69:
 471:stm32f10x_lib/STM32F10x_StdPeriph_Driver/src/stm32f10x_gpio.c ****   tmpreg |= (uint32_t)GPIO_PortSource << 0x04;
 908              		.loc 1 471 10 view .LVU232
 909 01d0 1B04     		lsls	r3, r3, #16	@ tmpreg, tmpreg,
 910 01d2 1B0C     		lsrs	r3, r3, #16	@ tmpreg, tmpreg,
 911 01d4 0B43     		orrs	r3, r3, r1	@, _12, tmpreg, tmp128
 912              	@ stm32f10x_lib/STM32F10x_StdPeriph_Driver/src/stm32f10x_gpio.c:473:   tmpreg |= GPIO_PinSource;
 913              		.loc 1 473 10 view .LVU233
 914 01d6 43EA0013 		orr	r3, r3, r0, lsl #4	@ tmpreg, _12, tmp127,
 915              	.LVL70:
 474:stm32f10x_lib/STM32F10x_StdPeriph_Driver/src/stm32f10x_gpio.c ****   AFIO->EVCR = tmpreg;
 916              		.loc 1 474 3 is_stmt 1 view .LVU234
 917              	@ stm32f10x_lib/STM32F10x_StdPeriph_Driver/src/stm32f10x_gpio.c:474:   AFIO->EVCR = tmpreg;
 918              		.loc 1 474 14 is_stmt 0 view .LVU235
 919 01da 1360     		str	r3, [r2]	@ tmpreg, MEM[(struct AFIO_TypeDef *)1073807360B].EVCR
 920              	@ stm32f10x_lib/STM32F10x_StdPeriph_Driver/src/stm32f10x_gpio.c:475: }
 475:stm32f10x_lib/STM32F10x_StdPeriph_Driver/src/stm32f10x_gpio.c **** }
 921              		.loc 1 475 1 view .LVU236
 922 01dc 7047     		bx	lr	@
 923              	.L45:
ARM GAS  C:\Users\ADMINI~1\AppData\Local\Temp\cc5aRzqp.s 			page 27


 924 01de 00BF     		.align	2
 925              	.L44:
 926 01e0 00000140 		.word	1073807360
 927              		.cfi_endproc
 928              	.LFE42:
 929              		.size	GPIO_EventOutputConfig, .-GPIO_EventOutputConfig
 930              		.align	1
 931              		.global	GPIO_EventOutputCmd
 932              		.syntax unified
 933              		.thumb
 934              		.thumb_func
 935              		.type	GPIO_EventOutputCmd, %function
 936              	GPIO_EventOutputCmd:
 937              	.LVL71:
 938              	.LFB43:
 476:stm32f10x_lib/STM32F10x_StdPeriph_Driver/src/stm32f10x_gpio.c **** 
 477:stm32f10x_lib/STM32F10x_StdPeriph_Driver/src/stm32f10x_gpio.c **** /**
 478:stm32f10x_lib/STM32F10x_StdPeriph_Driver/src/stm32f10x_gpio.c ****   * @brief  Enables or disables the Event Output.
 479:stm32f10x_lib/STM32F10x_StdPeriph_Driver/src/stm32f10x_gpio.c ****   * @param  NewState: new state of the Event output.
 480:stm32f10x_lib/STM32F10x_StdPeriph_Driver/src/stm32f10x_gpio.c ****   *   This parameter can be: ENABLE or DISABLE.
 481:stm32f10x_lib/STM32F10x_StdPeriph_Driver/src/stm32f10x_gpio.c ****   * @retval None
 482:stm32f10x_lib/STM32F10x_StdPeriph_Driver/src/stm32f10x_gpio.c ****   */
 483:stm32f10x_lib/STM32F10x_StdPeriph_Driver/src/stm32f10x_gpio.c **** void GPIO_EventOutputCmd(FunctionalState NewState)
 484:stm32f10x_lib/STM32F10x_StdPeriph_Driver/src/stm32f10x_gpio.c **** {
 939              		.loc 1 484 1 is_stmt 1 view -0
 940              		.cfi_startproc
 941              		@ args = 0, pretend = 0, frame = 0
 942              		@ frame_needed = 0, uses_anonymous_args = 0
 943              		@ link register save eliminated.
 485:stm32f10x_lib/STM32F10x_StdPeriph_Driver/src/stm32f10x_gpio.c ****   /* Check the parameters */
 486:stm32f10x_lib/STM32F10x_StdPeriph_Driver/src/stm32f10x_gpio.c ****   assert_param(IS_FUNCTIONAL_STATE(NewState));
 944              		.loc 1 486 3 view .LVU238
 487:stm32f10x_lib/STM32F10x_StdPeriph_Driver/src/stm32f10x_gpio.c ****   
 488:stm32f10x_lib/STM32F10x_StdPeriph_Driver/src/stm32f10x_gpio.c ****   *(__IO uint32_t *) EVCR_EVOE_BB = (uint32_t)NewState;
 945              		.loc 1 488 3 view .LVU239
 946              	@ stm32f10x_lib/STM32F10x_StdPeriph_Driver/src/stm32f10x_gpio.c:488:   *(__IO uint32_t *) EVCR_EVOE
 947              		.loc 1 488 35 is_stmt 0 view .LVU240
 948 01e4 014B     		ldr	r3, .L47	@ tmp115,
 949 01e6 D861     		str	r0, [r3, #28]	@ NewState, MEM[(volatile uint32_t *)1109393436B]
 950              	@ stm32f10x_lib/STM32F10x_StdPeriph_Driver/src/stm32f10x_gpio.c:489: }
 489:stm32f10x_lib/STM32F10x_StdPeriph_Driver/src/stm32f10x_gpio.c **** }
 951              		.loc 1 489 1 view .LVU241
 952 01e8 7047     		bx	lr	@
 953              	.L48:
 954 01ea 00BF     		.align	2
 955              	.L47:
 956 01ec 00002042 		.word	1109393408
 957              		.cfi_endproc
 958              	.LFE43:
 959              		.size	GPIO_EventOutputCmd, .-GPIO_EventOutputCmd
 960              		.align	1
 961              		.global	GPIO_PinRemapConfig
 962              		.syntax unified
 963              		.thumb
 964              		.thumb_func
 965              		.type	GPIO_PinRemapConfig, %function
 966              	GPIO_PinRemapConfig:
ARM GAS  C:\Users\ADMINI~1\AppData\Local\Temp\cc5aRzqp.s 			page 28


 967              	.LVL72:
 968              	.LFB44:
 490:stm32f10x_lib/STM32F10x_StdPeriph_Driver/src/stm32f10x_gpio.c **** 
 491:stm32f10x_lib/STM32F10x_StdPeriph_Driver/src/stm32f10x_gpio.c **** /**
 492:stm32f10x_lib/STM32F10x_StdPeriph_Driver/src/stm32f10x_gpio.c ****   * @brief  Changes the mapping of the specified pin.
 493:stm32f10x_lib/STM32F10x_StdPeriph_Driver/src/stm32f10x_gpio.c ****   * @param  GPIO_Remap: selects the pin to remap.
 494:stm32f10x_lib/STM32F10x_StdPeriph_Driver/src/stm32f10x_gpio.c ****   *   This parameter can be one of the following values:
 495:stm32f10x_lib/STM32F10x_StdPeriph_Driver/src/stm32f10x_gpio.c ****   *     @arg GPIO_Remap_SPI1             : SPI1 Alternate Function mapping
 496:stm32f10x_lib/STM32F10x_StdPeriph_Driver/src/stm32f10x_gpio.c ****   *     @arg GPIO_Remap_I2C1             : I2C1 Alternate Function mapping
 497:stm32f10x_lib/STM32F10x_StdPeriph_Driver/src/stm32f10x_gpio.c ****   *     @arg GPIO_Remap_USART1           : USART1 Alternate Function mapping
 498:stm32f10x_lib/STM32F10x_StdPeriph_Driver/src/stm32f10x_gpio.c ****   *     @arg GPIO_Remap_USART2           : USART2 Alternate Function mapping
 499:stm32f10x_lib/STM32F10x_StdPeriph_Driver/src/stm32f10x_gpio.c ****   *     @arg GPIO_PartialRemap_USART3    : USART3 Partial Alternate Function mapping
 500:stm32f10x_lib/STM32F10x_StdPeriph_Driver/src/stm32f10x_gpio.c ****   *     @arg GPIO_FullRemap_USART3       : USART3 Full Alternate Function mapping
 501:stm32f10x_lib/STM32F10x_StdPeriph_Driver/src/stm32f10x_gpio.c ****   *     @arg GPIO_PartialRemap_TIM1      : TIM1 Partial Alternate Function mapping
 502:stm32f10x_lib/STM32F10x_StdPeriph_Driver/src/stm32f10x_gpio.c ****   *     @arg GPIO_FullRemap_TIM1         : TIM1 Full Alternate Function mapping
 503:stm32f10x_lib/STM32F10x_StdPeriph_Driver/src/stm32f10x_gpio.c ****   *     @arg GPIO_PartialRemap1_TIM2     : TIM2 Partial1 Alternate Function mapping
 504:stm32f10x_lib/STM32F10x_StdPeriph_Driver/src/stm32f10x_gpio.c ****   *     @arg GPIO_PartialRemap2_TIM2     : TIM2 Partial2 Alternate Function mapping
 505:stm32f10x_lib/STM32F10x_StdPeriph_Driver/src/stm32f10x_gpio.c ****   *     @arg GPIO_FullRemap_TIM2         : TIM2 Full Alternate Function mapping
 506:stm32f10x_lib/STM32F10x_StdPeriph_Driver/src/stm32f10x_gpio.c ****   *     @arg GPIO_PartialRemap_TIM3      : TIM3 Partial Alternate Function mapping
 507:stm32f10x_lib/STM32F10x_StdPeriph_Driver/src/stm32f10x_gpio.c ****   *     @arg GPIO_FullRemap_TIM3         : TIM3 Full Alternate Function mapping
 508:stm32f10x_lib/STM32F10x_StdPeriph_Driver/src/stm32f10x_gpio.c ****   *     @arg GPIO_Remap_TIM4             : TIM4 Alternate Function mapping
 509:stm32f10x_lib/STM32F10x_StdPeriph_Driver/src/stm32f10x_gpio.c ****   *     @arg GPIO_Remap1_CAN1            : CAN1 Alternate Function mapping
 510:stm32f10x_lib/STM32F10x_StdPeriph_Driver/src/stm32f10x_gpio.c ****   *     @arg GPIO_Remap2_CAN1            : CAN1 Alternate Function mapping
 511:stm32f10x_lib/STM32F10x_StdPeriph_Driver/src/stm32f10x_gpio.c ****   *     @arg GPIO_Remap_PD01             : PD01 Alternate Function mapping
 512:stm32f10x_lib/STM32F10x_StdPeriph_Driver/src/stm32f10x_gpio.c ****   *     @arg GPIO_Remap_TIM5CH4_LSI      : LSI connected to TIM5 Channel4 input capture for calibra
 513:stm32f10x_lib/STM32F10x_StdPeriph_Driver/src/stm32f10x_gpio.c ****   *     @arg GPIO_Remap_ADC1_ETRGINJ     : ADC1 External Trigger Injected Conversion remapping
 514:stm32f10x_lib/STM32F10x_StdPeriph_Driver/src/stm32f10x_gpio.c ****   *     @arg GPIO_Remap_ADC1_ETRGREG     : ADC1 External Trigger Regular Conversion remapping
 515:stm32f10x_lib/STM32F10x_StdPeriph_Driver/src/stm32f10x_gpio.c ****   *     @arg GPIO_Remap_ADC2_ETRGINJ     : ADC2 External Trigger Injected Conversion remapping
 516:stm32f10x_lib/STM32F10x_StdPeriph_Driver/src/stm32f10x_gpio.c ****   *     @arg GPIO_Remap_ADC2_ETRGREG     : ADC2 External Trigger Regular Conversion remapping
 517:stm32f10x_lib/STM32F10x_StdPeriph_Driver/src/stm32f10x_gpio.c ****   *     @arg GPIO_Remap_ETH              : Ethernet remapping (only for Connectivity line devices)
 518:stm32f10x_lib/STM32F10x_StdPeriph_Driver/src/stm32f10x_gpio.c ****   *     @arg GPIO_Remap_CAN2             : CAN2 remapping (only for Connectivity line devices)
 519:stm32f10x_lib/STM32F10x_StdPeriph_Driver/src/stm32f10x_gpio.c ****   *     @arg GPIO_Remap_SWJ_NoJTRST      : Full SWJ Enabled (JTAG-DP + SW-DP) but without JTRST
 520:stm32f10x_lib/STM32F10x_StdPeriph_Driver/src/stm32f10x_gpio.c ****   *     @arg GPIO_Remap_SWJ_JTAGDisable  : JTAG-DP Disabled and SW-DP Enabled
 521:stm32f10x_lib/STM32F10x_StdPeriph_Driver/src/stm32f10x_gpio.c ****   *     @arg GPIO_Remap_SWJ_Disable      : Full SWJ Disabled (JTAG-DP + SW-DP)
 522:stm32f10x_lib/STM32F10x_StdPeriph_Driver/src/stm32f10x_gpio.c ****   *     @arg GPIO_Remap_SPI3             : SPI3/I2S3 Alternate Function mapping (only for Connectiv
 523:stm32f10x_lib/STM32F10x_StdPeriph_Driver/src/stm32f10x_gpio.c ****   *                                        When the SPI3/I2S3 is remapped using this function, the 
 524:stm32f10x_lib/STM32F10x_StdPeriph_Driver/src/stm32f10x_gpio.c ****   *                                        to Full SWJ Enabled (JTAG-DP + SW-DP) but without JTRST.
 525:stm32f10x_lib/STM32F10x_StdPeriph_Driver/src/stm32f10x_gpio.c ****   *     @arg GPIO_Remap_TIM2ITR1_PTP_SOF : Ethernet PTP output or USB OTG SOF (Start of Frame) conn
 526:stm32f10x_lib/STM32F10x_StdPeriph_Driver/src/stm32f10x_gpio.c ****   *                                        to TIM2 Internal Trigger 1 for calibration (only for Con
 527:stm32f10x_lib/STM32F10x_StdPeriph_Driver/src/stm32f10x_gpio.c ****   *                                        If the GPIO_Remap_TIM2ITR1_PTP_SOF is enabled the TIM2 I
 528:stm32f10x_lib/STM32F10x_StdPeriph_Driver/src/stm32f10x_gpio.c ****   *                                        Ethernet PTP output. When Reset TIM2 ITR1 is connected t
 529:stm32f10x_lib/STM32F10x_StdPeriph_Driver/src/stm32f10x_gpio.c ****   *     @arg GPIO_Remap_PTP_PPS          : Ethernet MAC PPS_PTS output on PB05 (only for Connectivi
 530:stm32f10x_lib/STM32F10x_StdPeriph_Driver/src/stm32f10x_gpio.c ****   *     @arg GPIO_Remap_TIM15            : TIM15 Alternate Function mapping (only for Value line de
 531:stm32f10x_lib/STM32F10x_StdPeriph_Driver/src/stm32f10x_gpio.c ****   *     @arg GPIO_Remap_TIM16            : TIM16 Alternate Function mapping (only for Value line de
 532:stm32f10x_lib/STM32F10x_StdPeriph_Driver/src/stm32f10x_gpio.c ****   *     @arg GPIO_Remap_TIM17            : TIM17 Alternate Function mapping (only for Value line de
 533:stm32f10x_lib/STM32F10x_StdPeriph_Driver/src/stm32f10x_gpio.c ****   *     @arg GPIO_Remap_CEC              : CEC Alternate Function mapping (only for Value line devi
 534:stm32f10x_lib/STM32F10x_StdPeriph_Driver/src/stm32f10x_gpio.c ****   *     @arg GPIO_Remap_TIM1_DMA         : TIM1 DMA requests mapping (only for Value line devices)
 535:stm32f10x_lib/STM32F10x_StdPeriph_Driver/src/stm32f10x_gpio.c ****   *     @arg GPIO_Remap_TIM9             : TIM9 Alternate Function mapping (only for XL-density dev
 536:stm32f10x_lib/STM32F10x_StdPeriph_Driver/src/stm32f10x_gpio.c ****   *     @arg GPIO_Remap_TIM10            : TIM10 Alternate Function mapping (only for XL-density de
 537:stm32f10x_lib/STM32F10x_StdPeriph_Driver/src/stm32f10x_gpio.c ****   *     @arg GPIO_Remap_TIM11            : TIM11 Alternate Function mapping (only for XL-density de
 538:stm32f10x_lib/STM32F10x_StdPeriph_Driver/src/stm32f10x_gpio.c ****   *     @arg GPIO_Remap_TIM13            : TIM13 Alternate Function mapping (only for High density 
 539:stm32f10x_lib/STM32F10x_StdPeriph_Driver/src/stm32f10x_gpio.c ****   *     @arg GPIO_Remap_TIM14            : TIM14 Alternate Function mapping (only for High density 
 540:stm32f10x_lib/STM32F10x_StdPeriph_Driver/src/stm32f10x_gpio.c ****   *     @arg GPIO_Remap_FSMC_NADV        : FSMC_NADV Alternate Function mapping (only for High dens
 541:stm32f10x_lib/STM32F10x_StdPeriph_Driver/src/stm32f10x_gpio.c ****   *     @arg GPIO_Remap_TIM67_DAC_DMA    : TIM6/TIM7 and DAC DMA requests remapping (only for High 
 542:stm32f10x_lib/STM32F10x_StdPeriph_Driver/src/stm32f10x_gpio.c ****   *     @arg GPIO_Remap_TIM12            : TIM12 Alternate Function mapping (only for High density 
 543:stm32f10x_lib/STM32F10x_StdPeriph_Driver/src/stm32f10x_gpio.c ****   *     @arg GPIO_Remap_MISC             : Miscellaneous Remap (DMA2 Channel5 Position and DAC Trig
 544:stm32f10x_lib/STM32F10x_StdPeriph_Driver/src/stm32f10x_gpio.c ****   *                                        only for High density Value line devices)     
ARM GAS  C:\Users\ADMINI~1\AppData\Local\Temp\cc5aRzqp.s 			page 29


 545:stm32f10x_lib/STM32F10x_StdPeriph_Driver/src/stm32f10x_gpio.c ****   * @param  NewState: new state of the port pin remapping.
 546:stm32f10x_lib/STM32F10x_StdPeriph_Driver/src/stm32f10x_gpio.c ****   *   This parameter can be: ENABLE or DISABLE.
 547:stm32f10x_lib/STM32F10x_StdPeriph_Driver/src/stm32f10x_gpio.c ****   * @retval None
 548:stm32f10x_lib/STM32F10x_StdPeriph_Driver/src/stm32f10x_gpio.c ****   */
 549:stm32f10x_lib/STM32F10x_StdPeriph_Driver/src/stm32f10x_gpio.c **** void GPIO_PinRemapConfig(uint32_t GPIO_Remap, FunctionalState NewState)
 550:stm32f10x_lib/STM32F10x_StdPeriph_Driver/src/stm32f10x_gpio.c **** {
 969              		.loc 1 550 1 is_stmt 1 view -0
 970              		.cfi_startproc
 971              		@ args = 0, pretend = 0, frame = 0
 972              		@ frame_needed = 0, uses_anonymous_args = 0
 551:stm32f10x_lib/STM32F10x_StdPeriph_Driver/src/stm32f10x_gpio.c ****   uint32_t tmp = 0x00, tmp1 = 0x00, tmpreg = 0x00, tmpmask = 0x00;
 973              		.loc 1 551 3 view .LVU243
 552:stm32f10x_lib/STM32F10x_StdPeriph_Driver/src/stm32f10x_gpio.c **** 
 553:stm32f10x_lib/STM32F10x_StdPeriph_Driver/src/stm32f10x_gpio.c ****   /* Check the parameters */
 554:stm32f10x_lib/STM32F10x_StdPeriph_Driver/src/stm32f10x_gpio.c ****   assert_param(IS_GPIO_REMAP(GPIO_Remap));
 974              		.loc 1 554 3 view .LVU244
 555:stm32f10x_lib/STM32F10x_StdPeriph_Driver/src/stm32f10x_gpio.c ****   assert_param(IS_FUNCTIONAL_STATE(NewState));  
 975              		.loc 1 555 3 view .LVU245
 556:stm32f10x_lib/STM32F10x_StdPeriph_Driver/src/stm32f10x_gpio.c ****   
 557:stm32f10x_lib/STM32F10x_StdPeriph_Driver/src/stm32f10x_gpio.c ****   if((GPIO_Remap & 0x80000000) == 0x80000000)
 976              		.loc 1 557 3 view .LVU246
 977              	@ stm32f10x_lib/STM32F10x_StdPeriph_Driver/src/stm32f10x_gpio.c:557:   if((GPIO_Remap & 0x80000000)
 978              		.loc 1 557 5 is_stmt 0 view .LVU247
 979 01f0 0028     		cmp	r0, #0	@ GPIO_Remap
 980              		.loc 1 557 5 view .LVU248
 981 01f2 164A     		ldr	r2, .L62	@ tmp157,
 558:stm32f10x_lib/STM32F10x_StdPeriph_Driver/src/stm32f10x_gpio.c ****   {
 559:stm32f10x_lib/STM32F10x_StdPeriph_Driver/src/stm32f10x_gpio.c ****     tmpreg = AFIO->MAPR2;
 982              		.loc 1 559 5 is_stmt 1 view .LVU249
 983              	@ stm32f10x_lib/STM32F10x_StdPeriph_Driver/src/stm32f10x_gpio.c:550: {
 550:stm32f10x_lib/STM32F10x_StdPeriph_Driver/src/stm32f10x_gpio.c ****   uint32_t tmp = 0x00, tmp1 = 0x00, tmpreg = 0x00, tmpmask = 0x00;
 984              		.loc 1 550 1 is_stmt 0 view .LVU250
 985 01f4 30B5     		push	{r4, r5, lr}	@
 986              	.LCFI6:
 987              		.cfi_def_cfa_offset 12
 988              		.cfi_offset 4, -12
 989              		.cfi_offset 5, -8
 990              		.cfi_offset 14, -4
 991              	@ stm32f10x_lib/STM32F10x_StdPeriph_Driver/src/stm32f10x_gpio.c:569:   if ((GPIO_Remap & (DBGAFR_LO
 560:stm32f10x_lib/STM32F10x_StdPeriph_Driver/src/stm32f10x_gpio.c ****   }
 561:stm32f10x_lib/STM32F10x_StdPeriph_Driver/src/stm32f10x_gpio.c ****   else
 562:stm32f10x_lib/STM32F10x_StdPeriph_Driver/src/stm32f10x_gpio.c ****   {
 563:stm32f10x_lib/STM32F10x_StdPeriph_Driver/src/stm32f10x_gpio.c ****     tmpreg = AFIO->MAPR;
 564:stm32f10x_lib/STM32F10x_StdPeriph_Driver/src/stm32f10x_gpio.c ****   }
 565:stm32f10x_lib/STM32F10x_StdPeriph_Driver/src/stm32f10x_gpio.c **** 
 566:stm32f10x_lib/STM32F10x_StdPeriph_Driver/src/stm32f10x_gpio.c ****   tmpmask = (GPIO_Remap & DBGAFR_POSITION_MASK) >> 0x10;
 567:stm32f10x_lib/STM32F10x_StdPeriph_Driver/src/stm32f10x_gpio.c ****   tmp = GPIO_Remap & LSB_MASK;
 568:stm32f10x_lib/STM32F10x_StdPeriph_Driver/src/stm32f10x_gpio.c **** 
 569:stm32f10x_lib/STM32F10x_StdPeriph_Driver/src/stm32f10x_gpio.c ****   if ((GPIO_Remap & (DBGAFR_LOCATION_MASK | DBGAFR_NUMBITS_MASK)) == (DBGAFR_LOCATION_MASK | DBGAFR
 992              		.loc 1 569 19 view .LVU251
 993 01f6 00F44015 		and	r5, r0, #3145728	@ tmp139, GPIO_Remap,
 994              	@ stm32f10x_lib/STM32F10x_StdPeriph_Driver/src/stm32f10x_gpio.c:559:     tmpreg = AFIO->MAPR2;
 559:stm32f10x_lib/STM32F10x_StdPeriph_Driver/src/stm32f10x_gpio.c ****   }
 995              		.loc 1 559 12 view .LVU252
 996 01fa B4BF     		ite	lt
 997 01fc D369     		ldrlt	r3, [r2, #28]	@ tmpreg, MEM[(struct AFIO_TypeDef *)1073807360B].MAPR2
 998              	.LVL73:
ARM GAS  C:\Users\ADMINI~1\AppData\Local\Temp\cc5aRzqp.s 			page 30


 563:stm32f10x_lib/STM32F10x_StdPeriph_Driver/src/stm32f10x_gpio.c ****   }
 999              		.loc 1 563 5 is_stmt 1 view .LVU253
 1000              	@ stm32f10x_lib/STM32F10x_StdPeriph_Driver/src/stm32f10x_gpio.c:563:     tmpreg = AFIO->MAPR;
 563:stm32f10x_lib/STM32F10x_StdPeriph_Driver/src/stm32f10x_gpio.c ****   }
 1001              		.loc 1 563 12 is_stmt 0 view .LVU254
 1002 01fe 5368     		ldrge	r3, [r2, #4]	@ tmpreg, MEM[(struct AFIO_TypeDef *)1073807360B].MAPR
 1003              	.LVL74:
 566:stm32f10x_lib/STM32F10x_StdPeriph_Driver/src/stm32f10x_gpio.c ****   tmp = GPIO_Remap & LSB_MASK;
 1004              		.loc 1 566 3 is_stmt 1 view .LVU255
 567:stm32f10x_lib/STM32F10x_StdPeriph_Driver/src/stm32f10x_gpio.c **** 
 1005              		.loc 1 567 3 view .LVU256
 1006              	@ stm32f10x_lib/STM32F10x_StdPeriph_Driver/src/stm32f10x_gpio.c:569:   if ((GPIO_Remap & (DBGAFR_LO
 1007              		.loc 1 569 6 is_stmt 0 view .LVU257
 1008 0200 B5F5401F 		cmp	r5, #3145728	@ tmp139,
 1009              	@ stm32f10x_lib/STM32F10x_StdPeriph_Driver/src/stm32f10x_gpio.c:567:   tmp = GPIO_Remap & LSB_MASK;
 567:stm32f10x_lib/STM32F10x_StdPeriph_Driver/src/stm32f10x_gpio.c **** 
 1010              		.loc 1 567 7 view .LVU258
 1011 0204 84B2     		uxth	r4, r0	@ tmp, GPIO_Remap
 1012              	.LVL75:
 1013              		.loc 1 569 3 is_stmt 1 view .LVU259
 1014              	@ stm32f10x_lib/STM32F10x_StdPeriph_Driver/src/stm32f10x_gpio.c:569:   if ((GPIO_Remap & (DBGAFR_LO
 1015              		.loc 1 569 6 is_stmt 0 view .LVU260
 1016 0206 10D1     		bne	.L52		@,
 570:stm32f10x_lib/STM32F10x_StdPeriph_Driver/src/stm32f10x_gpio.c ****   {
 571:stm32f10x_lib/STM32F10x_StdPeriph_Driver/src/stm32f10x_gpio.c ****     tmpreg &= DBGAFR_SWJCFG_MASK;
 1017              		.loc 1 571 5 is_stmt 1 view .LVU261
 1018              	@ stm32f10x_lib/STM32F10x_StdPeriph_Driver/src/stm32f10x_gpio.c:572:     AFIO->MAPR &= DBGAFR_SWJCF
 572:stm32f10x_lib/STM32F10x_StdPeriph_Driver/src/stm32f10x_gpio.c ****     AFIO->MAPR &= DBGAFR_SWJCFG_MASK;
 1019              		.loc 1 572 16 is_stmt 0 view .LVU262
 1020 0208 5568     		ldr	r5, [r2, #4]	@ _4, MEM[(struct AFIO_TypeDef *)1073807360B].MAPR
 1021              	@ stm32f10x_lib/STM32F10x_StdPeriph_Driver/src/stm32f10x_gpio.c:571:     tmpreg &= DBGAFR_SWJCFG_MA
 571:stm32f10x_lib/STM32F10x_StdPeriph_Driver/src/stm32f10x_gpio.c ****     AFIO->MAPR &= DBGAFR_SWJCFG_MASK;
 1022              		.loc 1 571 12 view .LVU263
 1023 020a 23F07063 		bic	r3, r3, #251658240	@ tmpreg, tmpreg,
 1024              	.LVL76:
 1025              		.loc 1 572 5 is_stmt 1 view .LVU264
 1026              	@ stm32f10x_lib/STM32F10x_StdPeriph_Driver/src/stm32f10x_gpio.c:572:     AFIO->MAPR &= DBGAFR_SWJCF
 1027              		.loc 1 572 16 is_stmt 0 view .LVU265
 1028 020e 25F07065 		bic	r5, r5, #251658240	@ _5, _4,
 1029 0212 5560     		str	r5, [r2, #4]	@ _5, MEM[(struct AFIO_TypeDef *)1073807360B].MAPR
 1030              	.LVL77:
 1031              	.L53:
 573:stm32f10x_lib/STM32F10x_StdPeriph_Driver/src/stm32f10x_gpio.c ****   }
 574:stm32f10x_lib/STM32F10x_StdPeriph_Driver/src/stm32f10x_gpio.c ****   else if ((GPIO_Remap & DBGAFR_NUMBITS_MASK) == DBGAFR_NUMBITS_MASK)
 575:stm32f10x_lib/STM32F10x_StdPeriph_Driver/src/stm32f10x_gpio.c ****   {
 576:stm32f10x_lib/STM32F10x_StdPeriph_Driver/src/stm32f10x_gpio.c ****     tmp1 = ((uint32_t)0x03) << tmpmask;
 577:stm32f10x_lib/STM32F10x_StdPeriph_Driver/src/stm32f10x_gpio.c ****     tmpreg &= ~tmp1;
 578:stm32f10x_lib/STM32F10x_StdPeriph_Driver/src/stm32f10x_gpio.c ****     tmpreg |= ~DBGAFR_SWJCFG_MASK;
 579:stm32f10x_lib/STM32F10x_StdPeriph_Driver/src/stm32f10x_gpio.c ****   }
 580:stm32f10x_lib/STM32F10x_StdPeriph_Driver/src/stm32f10x_gpio.c ****   else
 581:stm32f10x_lib/STM32F10x_StdPeriph_Driver/src/stm32f10x_gpio.c ****   {
 582:stm32f10x_lib/STM32F10x_StdPeriph_Driver/src/stm32f10x_gpio.c ****     tmpreg &= ~(tmp << ((GPIO_Remap >> 0x15)*0x10));
 583:stm32f10x_lib/STM32F10x_StdPeriph_Driver/src/stm32f10x_gpio.c ****     tmpreg |= ~DBGAFR_SWJCFG_MASK;
 584:stm32f10x_lib/STM32F10x_StdPeriph_Driver/src/stm32f10x_gpio.c ****   }
 585:stm32f10x_lib/STM32F10x_StdPeriph_Driver/src/stm32f10x_gpio.c **** 
 586:stm32f10x_lib/STM32F10x_StdPeriph_Driver/src/stm32f10x_gpio.c ****   if (NewState != DISABLE)
 1032              		.loc 1 586 3 is_stmt 1 view .LVU266
ARM GAS  C:\Users\ADMINI~1\AppData\Local\Temp\cc5aRzqp.s 			page 31


 1033              	@ stm32f10x_lib/STM32F10x_StdPeriph_Driver/src/stm32f10x_gpio.c:586:   if (NewState != DISABLE)
 1034              		.loc 1 586 6 is_stmt 0 view .LVU267
 1035 0214 19B1     		cbz	r1, .L55	@ NewState,
 587:stm32f10x_lib/STM32F10x_StdPeriph_Driver/src/stm32f10x_gpio.c ****   {
 588:stm32f10x_lib/STM32F10x_StdPeriph_Driver/src/stm32f10x_gpio.c ****     tmpreg |= (tmp << ((GPIO_Remap >> 0x15)*0x10));
 1036              		.loc 1 588 5 is_stmt 1 view .LVU268
 1037              	@ stm32f10x_lib/STM32F10x_StdPeriph_Driver/src/stm32f10x_gpio.c:588:     tmpreg |= (tmp << ((GPIO_R
 1038              		.loc 1 588 36 is_stmt 0 view .LVU269
 1039 0216 420D     		lsrs	r2, r0, #21	@ tmp152, GPIO_Remap,
 1040              	@ stm32f10x_lib/STM32F10x_StdPeriph_Driver/src/stm32f10x_gpio.c:588:     tmpreg |= (tmp << ((GPIO_R
 1041              		.loc 1 588 44 view .LVU270
 1042 0218 1201     		lsls	r2, r2, #4	@ tmp153, tmp152,
 1043              	@ stm32f10x_lib/STM32F10x_StdPeriph_Driver/src/stm32f10x_gpio.c:588:     tmpreg |= (tmp << ((GPIO_R
 1044              		.loc 1 588 20 view .LVU271
 1045 021a 9440     		lsls	r4, r4, r2	@ tmp154, tmp, tmp153
 1046              	.LVL78:
 1047              	@ stm32f10x_lib/STM32F10x_StdPeriph_Driver/src/stm32f10x_gpio.c:588:     tmpreg |= (tmp << ((GPIO_R
 1048              		.loc 1 588 12 view .LVU272
 1049 021c 2343     		orrs	r3, r3, r4	@, tmpreg, tmpreg, tmp154
 1050              	.LVL79:
 1051              	.L55:
 589:stm32f10x_lib/STM32F10x_StdPeriph_Driver/src/stm32f10x_gpio.c ****   }
 590:stm32f10x_lib/STM32F10x_StdPeriph_Driver/src/stm32f10x_gpio.c **** 
 591:stm32f10x_lib/STM32F10x_StdPeriph_Driver/src/stm32f10x_gpio.c ****   if((GPIO_Remap & 0x80000000) == 0x80000000)
 1052              		.loc 1 591 3 is_stmt 1 view .LVU273
 1053 021e 0B4A     		ldr	r2, .L62	@ tmp158,
 592:stm32f10x_lib/STM32F10x_StdPeriph_Driver/src/stm32f10x_gpio.c ****   {
 593:stm32f10x_lib/STM32F10x_StdPeriph_Driver/src/stm32f10x_gpio.c ****     AFIO->MAPR2 = tmpreg;
 1054              		.loc 1 593 5 view .LVU274
 1055              	@ stm32f10x_lib/STM32F10x_StdPeriph_Driver/src/stm32f10x_gpio.c:591:   if((GPIO_Remap & 0x80000000)
 591:stm32f10x_lib/STM32F10x_StdPeriph_Driver/src/stm32f10x_gpio.c ****   {
 1056              		.loc 1 591 5 is_stmt 0 view .LVU275
 1057 0220 0028     		cmp	r0, #0	@ GPIO_Remap,
 1058              	@ stm32f10x_lib/STM32F10x_StdPeriph_Driver/src/stm32f10x_gpio.c:593:     AFIO->MAPR2 = tmpreg;
 1059              		.loc 1 593 17 view .LVU276
 1060 0222 B4BF     		ite	lt
 1061 0224 D361     		strlt	r3, [r2, #28]	@ tmpreg, MEM[(struct AFIO_TypeDef *)1073807360B].MAPR2
 594:stm32f10x_lib/STM32F10x_StdPeriph_Driver/src/stm32f10x_gpio.c ****   }
 595:stm32f10x_lib/STM32F10x_StdPeriph_Driver/src/stm32f10x_gpio.c ****   else
 596:stm32f10x_lib/STM32F10x_StdPeriph_Driver/src/stm32f10x_gpio.c ****   {
 597:stm32f10x_lib/STM32F10x_StdPeriph_Driver/src/stm32f10x_gpio.c ****     AFIO->MAPR = tmpreg;
 1062              		.loc 1 597 5 is_stmt 1 view .LVU277
 1063              	@ stm32f10x_lib/STM32F10x_StdPeriph_Driver/src/stm32f10x_gpio.c:597:     AFIO->MAPR = tmpreg;
 1064              		.loc 1 597 16 is_stmt 0 view .LVU278
 1065 0226 5360     		strge	r3, [r2, #4]	@ tmpreg, MEM[(struct AFIO_TypeDef *)1073807360B].MAPR
 1066              	@ stm32f10x_lib/STM32F10x_StdPeriph_Driver/src/stm32f10x_gpio.c:599: }
 598:stm32f10x_lib/STM32F10x_StdPeriph_Driver/src/stm32f10x_gpio.c ****   }  
 599:stm32f10x_lib/STM32F10x_StdPeriph_Driver/src/stm32f10x_gpio.c **** }
 1067              		.loc 1 599 1 view .LVU279
 1068 0228 30BD     		pop	{r4, r5, pc}	@
 1069              	.LVL80:
 1070              	.L52:
 574:stm32f10x_lib/STM32F10x_StdPeriph_Driver/src/stm32f10x_gpio.c ****   {
 1071              		.loc 1 574 8 is_stmt 1 view .LVU280
 1072              	@ stm32f10x_lib/STM32F10x_StdPeriph_Driver/src/stm32f10x_gpio.c:574:   else if ((GPIO_Remap & DBGAF
 574:stm32f10x_lib/STM32F10x_StdPeriph_Driver/src/stm32f10x_gpio.c ****   {
 1073              		.loc 1 574 11 is_stmt 0 view .LVU281
ARM GAS  C:\Users\ADMINI~1\AppData\Local\Temp\cc5aRzqp.s 			page 32


 1074 022a C202     		lsls	r2, r0, #11	@, GPIO_Remap,
 576:stm32f10x_lib/STM32F10x_StdPeriph_Driver/src/stm32f10x_gpio.c ****     tmpreg &= ~tmp1;
 1075              		.loc 1 576 5 is_stmt 1 view .LVU282
 1076              	.LVL81:
 577:stm32f10x_lib/STM32F10x_StdPeriph_Driver/src/stm32f10x_gpio.c ****     tmpreg |= ~DBGAFR_SWJCFG_MASK;
 1077              		.loc 1 577 5 view .LVU283
 1078              	@ stm32f10x_lib/STM32F10x_StdPeriph_Driver/src/stm32f10x_gpio.c:576:     tmp1 = ((uint32_t)0x03) <<
 576:stm32f10x_lib/STM32F10x_StdPeriph_Driver/src/stm32f10x_gpio.c ****     tmpreg &= ~tmp1;
 1079              		.loc 1 576 10 is_stmt 0 view .LVU284
 1080 022c 4DBF     		iteet	mi
 1081 022e 0322     		movmi	r2, #3	@ tmp146,
 1082              	@ stm32f10x_lib/STM32F10x_StdPeriph_Driver/src/stm32f10x_gpio.c:582:     tmpreg &= ~(tmp << ((GPIO_
 582:stm32f10x_lib/STM32F10x_StdPeriph_Driver/src/stm32f10x_gpio.c ****     tmpreg |= ~DBGAFR_SWJCFG_MASK;
 1083              		.loc 1 582 37 view .LVU285
 1084 0230 420D     		lsrpl	r2, r0, #21	@ tmp148, GPIO_Remap,
 1085              	@ stm32f10x_lib/STM32F10x_StdPeriph_Driver/src/stm32f10x_gpio.c:582:     tmpreg &= ~(tmp << ((GPIO_
 582:stm32f10x_lib/STM32F10x_StdPeriph_Driver/src/stm32f10x_gpio.c ****     tmpreg |= ~DBGAFR_SWJCFG_MASK;
 1086              		.loc 1 582 45 view .LVU286
 1087 0232 1201     		lslpl	r2, r2, #4	@ tmp149, tmp148,
 1088              	@ stm32f10x_lib/STM32F10x_StdPeriph_Driver/src/stm32f10x_gpio.c:566:   tmpmask = (GPIO_Remap & DBGA
 566:stm32f10x_lib/STM32F10x_StdPeriph_Driver/src/stm32f10x_gpio.c ****   tmp = GPIO_Remap & LSB_MASK;
 1089              		.loc 1 566 11 view .LVU287
 1090 0234 C0F30345 		ubfxmi	r5, r0, #16, #4	@ tmpmask, GPIO_Remap,,
 1091              	@ stm32f10x_lib/STM32F10x_StdPeriph_Driver/src/stm32f10x_gpio.c:576:     tmp1 = ((uint32_t)0x03) <<
 576:stm32f10x_lib/STM32F10x_StdPeriph_Driver/src/stm32f10x_gpio.c ****     tmpreg &= ~tmp1;
 1092              		.loc 1 576 10 view .LVU288
 1093 0238 4CBF     		ite	mi
 1094 023a AA40     		lslmi	r2, r2, r5	@ tmp1, tmp146, tmpmask
 582:stm32f10x_lib/STM32F10x_StdPeriph_Driver/src/stm32f10x_gpio.c ****     tmpreg |= ~DBGAFR_SWJCFG_MASK;
 1095              		.loc 1 582 5 is_stmt 1 view .LVU289
 1096              	@ stm32f10x_lib/STM32F10x_StdPeriph_Driver/src/stm32f10x_gpio.c:582:     tmpreg &= ~(tmp << ((GPIO_
 582:stm32f10x_lib/STM32F10x_StdPeriph_Driver/src/stm32f10x_gpio.c ****     tmpreg |= ~DBGAFR_SWJCFG_MASK;
 1097              		.loc 1 582 21 is_stmt 0 view .LVU290
 1098 023c 04FA02F2 		lslpl	r2, r4, r2	@ tmp150, tmp, tmp149
 1099              	@ stm32f10x_lib/STM32F10x_StdPeriph_Driver/src/stm32f10x_gpio.c:582:     tmpreg &= ~(tmp << ((GPIO_
 582:stm32f10x_lib/STM32F10x_StdPeriph_Driver/src/stm32f10x_gpio.c ****     tmpreg |= ~DBGAFR_SWJCFG_MASK;
 1100              		.loc 1 582 12 view .LVU291
 1101 0240 23EA0203 		bic	r3, r3, r2	@ tmpreg, tmpreg, tmp150
 1102              	.LVL82:
 583:stm32f10x_lib/STM32F10x_StdPeriph_Driver/src/stm32f10x_gpio.c ****   }
 1103              		.loc 1 583 5 is_stmt 1 view .LVU292
 1104              	@ stm32f10x_lib/STM32F10x_StdPeriph_Driver/src/stm32f10x_gpio.c:583:     tmpreg |= ~DBGAFR_SWJCFG_M
 583:stm32f10x_lib/STM32F10x_StdPeriph_Driver/src/stm32f10x_gpio.c ****   }
 1105              		.loc 1 583 12 is_stmt 0 view .LVU293
 1106 0244 43F07063 		orr	r3, r3, #251658240	@ tmpreg, tmpreg,
 1107              	.LVL83:
 583:stm32f10x_lib/STM32F10x_StdPeriph_Driver/src/stm32f10x_gpio.c ****   }
 1108              		.loc 1 583 12 view .LVU294
 1109 0248 E4E7     		b	.L53		@
 1110              	.L63:
 1111 024a 00BF     		.align	2
 1112              	.L62:
 1113 024c 00000140 		.word	1073807360
 1114              		.cfi_endproc
 1115              	.LFE44:
 1116              		.size	GPIO_PinRemapConfig, .-GPIO_PinRemapConfig
 1117              		.align	1
ARM GAS  C:\Users\ADMINI~1\AppData\Local\Temp\cc5aRzqp.s 			page 33


 1118              		.global	GPIO_EXTILineConfig
 1119              		.syntax unified
 1120              		.thumb
 1121              		.thumb_func
 1122              		.type	GPIO_EXTILineConfig, %function
 1123              	GPIO_EXTILineConfig:
 1124              	.LVL84:
 1125              	.LFB45:
 600:stm32f10x_lib/STM32F10x_StdPeriph_Driver/src/stm32f10x_gpio.c **** 
 601:stm32f10x_lib/STM32F10x_StdPeriph_Driver/src/stm32f10x_gpio.c **** /**
 602:stm32f10x_lib/STM32F10x_StdPeriph_Driver/src/stm32f10x_gpio.c ****   * @brief  Selects the GPIO pin used as EXTI Line.
 603:stm32f10x_lib/STM32F10x_StdPeriph_Driver/src/stm32f10x_gpio.c ****   * @param  GPIO_PortSource: selects the GPIO port to be used as source for EXTI lines.
 604:stm32f10x_lib/STM32F10x_StdPeriph_Driver/src/stm32f10x_gpio.c ****   *   This parameter can be GPIO_PortSourceGPIOx where x can be (A..G).
 605:stm32f10x_lib/STM32F10x_StdPeriph_Driver/src/stm32f10x_gpio.c ****   * @param  GPIO_PinSource: specifies the EXTI line to be configured.
 606:stm32f10x_lib/STM32F10x_StdPeriph_Driver/src/stm32f10x_gpio.c ****   *   This parameter can be GPIO_PinSourcex where x can be (0..15).
 607:stm32f10x_lib/STM32F10x_StdPeriph_Driver/src/stm32f10x_gpio.c ****   * @retval None
 608:stm32f10x_lib/STM32F10x_StdPeriph_Driver/src/stm32f10x_gpio.c ****   */
 609:stm32f10x_lib/STM32F10x_StdPeriph_Driver/src/stm32f10x_gpio.c **** void GPIO_EXTILineConfig(uint8_t GPIO_PortSource, uint8_t GPIO_PinSource)
 610:stm32f10x_lib/STM32F10x_StdPeriph_Driver/src/stm32f10x_gpio.c **** {
 1126              		.loc 1 610 1 is_stmt 1 view -0
 1127              		.cfi_startproc
 1128              		@ args = 0, pretend = 0, frame = 0
 1129              		@ frame_needed = 0, uses_anonymous_args = 0
 611:stm32f10x_lib/STM32F10x_StdPeriph_Driver/src/stm32f10x_gpio.c ****   uint32_t tmp = 0x00;
 1130              		.loc 1 611 3 view .LVU296
 612:stm32f10x_lib/STM32F10x_StdPeriph_Driver/src/stm32f10x_gpio.c ****   /* Check the parameters */
 613:stm32f10x_lib/STM32F10x_StdPeriph_Driver/src/stm32f10x_gpio.c ****   assert_param(IS_GPIO_EXTI_PORT_SOURCE(GPIO_PortSource));
 1131              		.loc 1 613 3 view .LVU297
 614:stm32f10x_lib/STM32F10x_StdPeriph_Driver/src/stm32f10x_gpio.c ****   assert_param(IS_GPIO_PIN_SOURCE(GPIO_PinSource));
 1132              		.loc 1 614 3 view .LVU298
 615:stm32f10x_lib/STM32F10x_StdPeriph_Driver/src/stm32f10x_gpio.c ****   
 616:stm32f10x_lib/STM32F10x_StdPeriph_Driver/src/stm32f10x_gpio.c ****   tmp = ((uint32_t)0x0F) << (0x04 * (GPIO_PinSource & (uint8_t)0x03));
 1133              		.loc 1 616 3 view .LVU299
 1134              	@ stm32f10x_lib/STM32F10x_StdPeriph_Driver/src/stm32f10x_gpio.c:610: {
 610:stm32f10x_lib/STM32F10x_StdPeriph_Driver/src/stm32f10x_gpio.c ****   uint32_t tmp = 0x00;
 1135              		.loc 1 610 1 is_stmt 0 view .LVU300
 1136 0250 10B5     		push	{r4, lr}	@
 1137              	.LCFI7:
 1138              		.cfi_def_cfa_offset 8
 1139              		.cfi_offset 4, -8
 1140              		.cfi_offset 14, -4
 1141              	@ stm32f10x_lib/STM32F10x_StdPeriph_Driver/src/stm32f10x_gpio.c:616:   tmp = ((uint32_t)0x0F) << (0
 1142              		.loc 1 616 7 view .LVU301
 1143 0252 0F24     		movs	r4, #15	@ tmp137,
 1144              	@ stm32f10x_lib/STM32F10x_StdPeriph_Driver/src/stm32f10x_gpio.c:616:   tmp = ((uint32_t)0x0F) << (0
 1145              		.loc 1 616 53 view .LVU302
 1146 0254 01F00303 		and	r3, r1, #3	@ tmp131, GPIO_PinSource,
 1147 0258 01F0FC01 		and	r1, r1, #252	@ tmp134, GPIO_PinSource,
 1148              	.LVL85:
 1149              		.loc 1 616 53 view .LVU303
 1150 025c 01F18041 		add	r1, r1, #1073741824	@ _21, tmp134,
 1151 0260 01F58031 		add	r1, r1, #65536	@ _21, _21,
 1152              	@ stm32f10x_lib/STM32F10x_StdPeriph_Driver/src/stm32f10x_gpio.c:617:   AFIO->EXTICR[GPIO_PinSource 
 617:stm32f10x_lib/STM32F10x_StdPeriph_Driver/src/stm32f10x_gpio.c ****   AFIO->EXTICR[GPIO_PinSource >> 0x02] &= ~tmp;
 1153              		.loc 1 617 40 view .LVU304
 1154 0264 8A68     		ldr	r2, [r1, #8]	@ _5, MEM <volatile uint32_t> [(struct AFIO_TypeDef *)_21 + 8B]
 1155              	@ stm32f10x_lib/STM32F10x_StdPeriph_Driver/src/stm32f10x_gpio.c:616:   tmp = ((uint32_t)0x0F) << (0
ARM GAS  C:\Users\ADMINI~1\AppData\Local\Temp\cc5aRzqp.s 			page 34


 616:stm32f10x_lib/STM32F10x_StdPeriph_Driver/src/stm32f10x_gpio.c ****   AFIO->EXTICR[GPIO_PinSource >> 0x02] &= ~tmp;
 1156              		.loc 1 616 35 view .LVU305
 1157 0266 9B00     		lsls	r3, r3, #2	@ _2, tmp131,
 1158              	.LVL86:
 1159              		.loc 1 617 3 is_stmt 1 view .LVU306
 1160              	@ stm32f10x_lib/STM32F10x_StdPeriph_Driver/src/stm32f10x_gpio.c:616:   tmp = ((uint32_t)0x0F) << (0
 616:stm32f10x_lib/STM32F10x_StdPeriph_Driver/src/stm32f10x_gpio.c ****   AFIO->EXTICR[GPIO_PinSource >> 0x02] &= ~tmp;
 1161              		.loc 1 616 7 is_stmt 0 view .LVU307
 1162 0268 9C40     		lsls	r4, r4, r3	@ tmp, tmp137, _2
 1163              	.LVL87:
 1164              	@ stm32f10x_lib/STM32F10x_StdPeriph_Driver/src/stm32f10x_gpio.c:617:   AFIO->EXTICR[GPIO_PinSource 
 1165              		.loc 1 617 40 view .LVU308
 1166 026a 22EA0402 		bic	r2, r2, r4	@ _7, _5, tmp
 1167 026e 8A60     		str	r2, [r1, #8]	@ _7, MEM <volatile uint32_t> [(struct AFIO_TypeDef *)_21 + 8B]
 618:stm32f10x_lib/STM32F10x_StdPeriph_Driver/src/stm32f10x_gpio.c ****   AFIO->EXTICR[GPIO_PinSource >> 0x02] |= (((uint32_t)GPIO_PortSource) << (0x04 * (GPIO_PinSource &
 1168              		.loc 1 618 3 is_stmt 1 view .LVU309
 1169              	@ stm32f10x_lib/STM32F10x_StdPeriph_Driver/src/stm32f10x_gpio.c:618:   AFIO->EXTICR[GPIO_PinSource 
 1170              		.loc 1 618 40 is_stmt 0 view .LVU310
 1171 0270 8A68     		ldr	r2, [r1, #8]	@ _8, MEM <volatile uint32_t> [(struct AFIO_TypeDef *)_21 + 8B]
 1172              	@ stm32f10x_lib/STM32F10x_StdPeriph_Driver/src/stm32f10x_gpio.c:618:   AFIO->EXTICR[GPIO_PinSource 
 1173              		.loc 1 618 72 view .LVU311
 1174 0272 9840     		lsls	r0, r0, r3	@ tmp139, tmp140, _2
 1175              	.LVL88:
 1176              	@ stm32f10x_lib/STM32F10x_StdPeriph_Driver/src/stm32f10x_gpio.c:618:   AFIO->EXTICR[GPIO_PinSource 
 1177              		.loc 1 618 40 view .LVU312
 1178 0274 1043     		orrs	r0, r0, r2	@, _11, tmp139, _8
 1179 0276 8860     		str	r0, [r1, #8]	@ _11, MEM <volatile uint32_t> [(struct AFIO_TypeDef *)_21 + 8B]
 1180              	@ stm32f10x_lib/STM32F10x_StdPeriph_Driver/src/stm32f10x_gpio.c:619: }
 619:stm32f10x_lib/STM32F10x_StdPeriph_Driver/src/stm32f10x_gpio.c **** }
 1181              		.loc 1 619 1 view .LVU313
 1182 0278 10BD     		pop	{r4, pc}	@
 1183              		.loc 1 619 1 view .LVU314
 1184              		.cfi_endproc
 1185              	.LFE45:
 1186              		.size	GPIO_EXTILineConfig, .-GPIO_EXTILineConfig
 1187              		.align	1
 1188              		.global	GPIO_ETH_MediaInterfaceConfig
 1189              		.syntax unified
 1190              		.thumb
 1191              		.thumb_func
 1192              		.type	GPIO_ETH_MediaInterfaceConfig, %function
 1193              	GPIO_ETH_MediaInterfaceConfig:
 1194              	.LVL89:
 1195              	.LFB46:
 620:stm32f10x_lib/STM32F10x_StdPeriph_Driver/src/stm32f10x_gpio.c **** 
 621:stm32f10x_lib/STM32F10x_StdPeriph_Driver/src/stm32f10x_gpio.c **** /**
 622:stm32f10x_lib/STM32F10x_StdPeriph_Driver/src/stm32f10x_gpio.c ****   * @brief  Selects the Ethernet media interface.
 623:stm32f10x_lib/STM32F10x_StdPeriph_Driver/src/stm32f10x_gpio.c ****   * @note   This function applies only to STM32 Connectivity line devices.  
 624:stm32f10x_lib/STM32F10x_StdPeriph_Driver/src/stm32f10x_gpio.c ****   * @param  GPIO_ETH_MediaInterface: specifies the Media Interface mode.
 625:stm32f10x_lib/STM32F10x_StdPeriph_Driver/src/stm32f10x_gpio.c ****   *   This parameter can be one of the following values:
 626:stm32f10x_lib/STM32F10x_StdPeriph_Driver/src/stm32f10x_gpio.c ****   *     @arg GPIO_ETH_MediaInterface_MII: MII mode
 627:stm32f10x_lib/STM32F10x_StdPeriph_Driver/src/stm32f10x_gpio.c ****   *     @arg GPIO_ETH_MediaInterface_RMII: RMII mode    
 628:stm32f10x_lib/STM32F10x_StdPeriph_Driver/src/stm32f10x_gpio.c ****   * @retval None
 629:stm32f10x_lib/STM32F10x_StdPeriph_Driver/src/stm32f10x_gpio.c ****   */
 630:stm32f10x_lib/STM32F10x_StdPeriph_Driver/src/stm32f10x_gpio.c **** void GPIO_ETH_MediaInterfaceConfig(uint32_t GPIO_ETH_MediaInterface) 
 631:stm32f10x_lib/STM32F10x_StdPeriph_Driver/src/stm32f10x_gpio.c **** { 
 1196              		.loc 1 631 1 is_stmt 1 view -0
ARM GAS  C:\Users\ADMINI~1\AppData\Local\Temp\cc5aRzqp.s 			page 35


 1197              		.cfi_startproc
 1198              		@ args = 0, pretend = 0, frame = 0
 1199              		@ frame_needed = 0, uses_anonymous_args = 0
 1200              		@ link register save eliminated.
 632:stm32f10x_lib/STM32F10x_StdPeriph_Driver/src/stm32f10x_gpio.c ****   assert_param(IS_GPIO_ETH_MEDIA_INTERFACE(GPIO_ETH_MediaInterface)); 
 1201              		.loc 1 632 3 view .LVU316
 633:stm32f10x_lib/STM32F10x_StdPeriph_Driver/src/stm32f10x_gpio.c **** 
 634:stm32f10x_lib/STM32F10x_StdPeriph_Driver/src/stm32f10x_gpio.c ****   /* Configure MII_RMII selection bit */ 
 635:stm32f10x_lib/STM32F10x_StdPeriph_Driver/src/stm32f10x_gpio.c ****   *(__IO uint32_t *) MAPR_MII_RMII_SEL_BB = GPIO_ETH_MediaInterface; 
 1202              		.loc 1 635 3 view .LVU317
 1203              	@ stm32f10x_lib/STM32F10x_StdPeriph_Driver/src/stm32f10x_gpio.c:635:   *(__IO uint32_t *) MAPR_MII_
 1204              		.loc 1 635 43 is_stmt 0 view .LVU318
 1205 027a 024B     		ldr	r3, .L66	@ tmp114,
 1206 027c C3F8DC00 		str	r0, [r3, #220]	@ GPIO_ETH_MediaInterface, MEM[(volatile uint32_t *)1109393628B]
 1207              	@ stm32f10x_lib/STM32F10x_StdPeriph_Driver/src/stm32f10x_gpio.c:636: }
 636:stm32f10x_lib/STM32F10x_StdPeriph_Driver/src/stm32f10x_gpio.c **** }
 1208              		.loc 1 636 1 view .LVU319
 1209 0280 7047     		bx	lr	@
 1210              	.L67:
 1211 0282 00BF     		.align	2
 1212              	.L66:
 1213 0284 00002042 		.word	1109393408
 1214              		.cfi_endproc
 1215              	.LFE46:
 1216              		.size	GPIO_ETH_MediaInterfaceConfig, .-GPIO_ETH_MediaInterfaceConfig
 1217              	.Letext0:
 1218              		.file 2 "c:\\program files (x86)\\gnu arm embedded toolchain\\10 2021.10\\arm-none-eabi\\include\\
 1219              		.file 3 "c:\\program files (x86)\\gnu arm embedded toolchain\\10 2021.10\\arm-none-eabi\\include\\
 1220              		.file 4 "./stm32f10x_lib/CMSIS/CM3/DeviceSupport/ST/STM32F10x/stm32f10x.h"
 1221              		.file 5 "./stm32f10x_lib/STM32F10x_StdPeriph_Driver/inc/stm32f10x_gpio.h"
 1222              		.file 6 "./stm32f10x_lib/STM32F10x_StdPeriph_Driver/inc/stm32f10x_rcc.h"
 1223              		.section	.debug_info,"",%progbits
 1224              	.Ldebug_info0:
 1225 0000 EB080000 		.4byte	0x8eb
 1226 0004 0200     		.2byte	0x2
 1227 0006 00000000 		.4byte	.Ldebug_abbrev0
 1228 000a 04       		.byte	0x4
 1229 000b 01       		.uleb128 0x1
 1230 000c 85030000 		.4byte	.LASF82
 1231 0010 0C       		.byte	0xc
 1232 0011 17040000 		.4byte	.LASF83
 1233 0015 CC000000 		.4byte	.LASF84
 1234 0019 00000000 		.4byte	.Ltext0
 1235 001d 88020000 		.4byte	.Letext0
 1236 0021 00000000 		.4byte	.Ldebug_line0
 1237 0025 02       		.uleb128 0x2
 1238 0026 01       		.byte	0x1
 1239 0027 06       		.byte	0x6
 1240 0028 53010000 		.4byte	.LASF0
 1241 002c 03       		.uleb128 0x3
 1242 002d AE010000 		.4byte	.LASF3
 1243 0031 02       		.byte	0x2
 1244 0032 2B       		.byte	0x2b
 1245 0033 18       		.byte	0x18
 1246 0034 38000000 		.4byte	0x38
 1247 0038 02       		.uleb128 0x2
 1248 0039 01       		.byte	0x1
ARM GAS  C:\Users\ADMINI~1\AppData\Local\Temp\cc5aRzqp.s 			page 36


 1249 003a 08       		.byte	0x8
 1250 003b 06020000 		.4byte	.LASF1
 1251 003f 02       		.uleb128 0x2
 1252 0040 02       		.byte	0x2
 1253 0041 05       		.byte	0x5
 1254 0042 51000000 		.4byte	.LASF2
 1255 0046 03       		.uleb128 0x3
 1256 0047 A9000000 		.4byte	.LASF4
 1257 004b 02       		.byte	0x2
 1258 004c 39       		.byte	0x39
 1259 004d 19       		.byte	0x19
 1260 004e 52000000 		.4byte	0x52
 1261 0052 02       		.uleb128 0x2
 1262 0053 02       		.byte	0x2
 1263 0054 07       		.byte	0x7
 1264 0055 0D030000 		.4byte	.LASF5
 1265 0059 02       		.uleb128 0x2
 1266 005a 04       		.byte	0x4
 1267 005b 05       		.byte	0x5
 1268 005c 7D010000 		.4byte	.LASF6
 1269 0060 03       		.uleb128 0x3
 1270 0061 8A000000 		.4byte	.LASF7
 1271 0065 02       		.byte	0x2
 1272 0066 4F       		.byte	0x4f
 1273 0067 19       		.byte	0x19
 1274 0068 6C000000 		.4byte	0x6c
 1275 006c 02       		.uleb128 0x2
 1276 006d 04       		.byte	0x4
 1277 006e 07       		.byte	0x7
 1278 006f 05040000 		.4byte	.LASF8
 1279 0073 02       		.uleb128 0x2
 1280 0074 08       		.byte	0x8
 1281 0075 05       		.byte	0x5
 1282 0076 6F010000 		.4byte	.LASF9
 1283 007a 02       		.uleb128 0x2
 1284 007b 08       		.byte	0x8
 1285 007c 07       		.byte	0x7
 1286 007d 38020000 		.4byte	.LASF10
 1287 0081 04       		.uleb128 0x4
 1288 0082 04       		.byte	0x4
 1289 0083 05       		.byte	0x5
 1290 0084 696E7400 		.ascii	"int\000"
 1291 0088 02       		.uleb128 0x2
 1292 0089 04       		.byte	0x4
 1293 008a 07       		.byte	0x7
 1294 008b 68020000 		.4byte	.LASF11
 1295 008f 03       		.uleb128 0x3
 1296 0090 23010000 		.4byte	.LASF12
 1297 0094 03       		.byte	0x3
 1298 0095 18       		.byte	0x18
 1299 0096 13       		.byte	0x13
 1300 0097 2C000000 		.4byte	0x2c
 1301 009b 03       		.uleb128 0x3
 1302 009c 75020000 		.4byte	.LASF13
 1303 00a0 03       		.byte	0x3
 1304 00a1 24       		.byte	0x24
 1305 00a2 14       		.byte	0x14
ARM GAS  C:\Users\ADMINI~1\AppData\Local\Temp\cc5aRzqp.s 			page 37


 1306 00a3 46000000 		.4byte	0x46
 1307 00a7 03       		.uleb128 0x3
 1308 00a8 4F020000 		.4byte	.LASF14
 1309 00ac 03       		.byte	0x3
 1310 00ad 30       		.byte	0x30
 1311 00ae 14       		.byte	0x14
 1312 00af 60000000 		.4byte	0x60
 1313 00b3 05       		.uleb128 0x5
 1314 00b4 A7000000 		.4byte	0xa7
 1315 00b8 06       		.uleb128 0x6
 1316 00b9 753800   		.ascii	"u8\000"
 1317 00bc 04       		.byte	0x4
 1318 00bd F901     		.2byte	0x1f9
 1319 00bf 12       		.byte	0x12
 1320 00c0 8F000000 		.4byte	0x8f
 1321 00c4 07       		.uleb128 0x7
 1322 00c5 07       		.byte	0x7
 1323 00c6 01       		.byte	0x1
 1324 00c7 38000000 		.4byte	0x38
 1325 00cb 04       		.byte	0x4
 1326 00cc 0902     		.2byte	0x209
 1327 00ce 0E       		.byte	0xe
 1328 00cf E0000000 		.4byte	0xe0
 1329 00d3 08       		.uleb128 0x8
 1330 00d4 4B010000 		.4byte	.LASF15
 1331 00d8 00       		.byte	0
 1332 00d9 08       		.uleb128 0x8
 1333 00da 07010000 		.4byte	.LASF16
 1334 00de 01       		.byte	0x1
 1335 00df 00       		.byte	0
 1336 00e0 09       		.uleb128 0x9
 1337 00e1 71040000 		.4byte	.LASF17
 1338 00e5 04       		.byte	0x4
 1339 00e6 0902     		.2byte	0x209
 1340 00e8 2F       		.byte	0x2f
 1341 00e9 C4000000 		.4byte	0xc4
 1342 00ed 0A       		.uleb128 0xa
 1343 00ee 1C       		.byte	0x1c
 1344 00ef 04       		.byte	0x4
 1345 00f0 E903     		.2byte	0x3e9
 1346 00f2 09       		.byte	0x9
 1347 00f3 68010000 		.4byte	0x168
 1348 00f7 0B       		.uleb128 0xb
 1349 00f8 43524C00 		.ascii	"CRL\000"
 1350 00fc 04       		.byte	0x4
 1351 00fd EB03     		.2byte	0x3eb
 1352 00ff 11       		.byte	0x11
 1353 0100 B3000000 		.4byte	0xb3
 1354 0104 02       		.byte	0x2
 1355 0105 23       		.byte	0x23
 1356 0106 00       		.uleb128 0
 1357 0107 0B       		.uleb128 0xb
 1358 0108 43524800 		.ascii	"CRH\000"
 1359 010c 04       		.byte	0x4
 1360 010d EC03     		.2byte	0x3ec
 1361 010f 11       		.byte	0x11
 1362 0110 B3000000 		.4byte	0xb3
ARM GAS  C:\Users\ADMINI~1\AppData\Local\Temp\cc5aRzqp.s 			page 38


 1363 0114 02       		.byte	0x2
 1364 0115 23       		.byte	0x23
 1365 0116 04       		.uleb128 0x4
 1366 0117 0B       		.uleb128 0xb
 1367 0118 49445200 		.ascii	"IDR\000"
 1368 011c 04       		.byte	0x4
 1369 011d ED03     		.2byte	0x3ed
 1370 011f 11       		.byte	0x11
 1371 0120 B3000000 		.4byte	0xb3
 1372 0124 02       		.byte	0x2
 1373 0125 23       		.byte	0x23
 1374 0126 08       		.uleb128 0x8
 1375 0127 0B       		.uleb128 0xb
 1376 0128 4F445200 		.ascii	"ODR\000"
 1377 012c 04       		.byte	0x4
 1378 012d EE03     		.2byte	0x3ee
 1379 012f 11       		.byte	0x11
 1380 0130 B3000000 		.4byte	0xb3
 1381 0134 02       		.byte	0x2
 1382 0135 23       		.byte	0x23
 1383 0136 0C       		.uleb128 0xc
 1384 0137 0C       		.uleb128 0xc
 1385 0138 A9010000 		.4byte	.LASF18
 1386 013c 04       		.byte	0x4
 1387 013d EF03     		.2byte	0x3ef
 1388 013f 11       		.byte	0x11
 1389 0140 B3000000 		.4byte	0xb3
 1390 0144 02       		.byte	0x2
 1391 0145 23       		.byte	0x23
 1392 0146 10       		.uleb128 0x10
 1393 0147 0B       		.uleb128 0xb
 1394 0148 42525200 		.ascii	"BRR\000"
 1395 014c 04       		.byte	0x4
 1396 014d F003     		.2byte	0x3f0
 1397 014f 11       		.byte	0x11
 1398 0150 B3000000 		.4byte	0xb3
 1399 0154 02       		.byte	0x2
 1400 0155 23       		.byte	0x23
 1401 0156 14       		.uleb128 0x14
 1402 0157 0C       		.uleb128 0xc
 1403 0158 A6020000 		.4byte	.LASF19
 1404 015c 04       		.byte	0x4
 1405 015d F103     		.2byte	0x3f1
 1406 015f 11       		.byte	0x11
 1407 0160 B3000000 		.4byte	0xb3
 1408 0164 02       		.byte	0x2
 1409 0165 23       		.byte	0x23
 1410 0166 18       		.uleb128 0x18
 1411 0167 00       		.byte	0
 1412 0168 09       		.uleb128 0x9
 1413 0169 00000000 		.4byte	.LASF20
 1414 016d 04       		.byte	0x4
 1415 016e F203     		.2byte	0x3f2
 1416 0170 03       		.byte	0x3
 1417 0171 ED000000 		.4byte	0xed
 1418 0175 0A       		.uleb128 0xa
 1419 0176 20       		.byte	0x20
ARM GAS  C:\Users\ADMINI~1\AppData\Local\Temp\cc5aRzqp.s 			page 39


 1420 0177 04       		.byte	0x4
 1421 0178 F803     		.2byte	0x3f8
 1422 017a 09       		.byte	0x9
 1423 017b D0010000 		.4byte	0x1d0
 1424 017f 0C       		.uleb128 0xc
 1425 0180 9D040000 		.4byte	.LASF21
 1426 0184 04       		.byte	0x4
 1427 0185 FA03     		.2byte	0x3fa
 1428 0187 11       		.byte	0x11
 1429 0188 B3000000 		.4byte	0xb3
 1430 018c 02       		.byte	0x2
 1431 018d 23       		.byte	0x23
 1432 018e 00       		.uleb128 0
 1433 018f 0C       		.uleb128 0xc
 1434 0190 81040000 		.4byte	.LASF22
 1435 0194 04       		.byte	0x4
 1436 0195 FB03     		.2byte	0x3fb
 1437 0197 11       		.byte	0x11
 1438 0198 B3000000 		.4byte	0xb3
 1439 019c 02       		.byte	0x2
 1440 019d 23       		.byte	0x23
 1441 019e 04       		.uleb128 0x4
 1442 019f 0C       		.uleb128 0xc
 1443 01a0 2B010000 		.4byte	.LASF23
 1444 01a4 04       		.byte	0x4
 1445 01a5 FC03     		.2byte	0x3fc
 1446 01a7 11       		.byte	0x11
 1447 01a8 E0010000 		.4byte	0x1e0
 1448 01ac 02       		.byte	0x2
 1449 01ad 23       		.byte	0x23
 1450 01ae 08       		.uleb128 0x8
 1451 01af 0C       		.uleb128 0xc
 1452 01b0 4F030000 		.4byte	.LASF24
 1453 01b4 04       		.byte	0x4
 1454 01b5 FD03     		.2byte	0x3fd
 1455 01b7 0C       		.byte	0xc
 1456 01b8 A7000000 		.4byte	0xa7
 1457 01bc 02       		.byte	0x2
 1458 01bd 23       		.byte	0x23
 1459 01be 18       		.uleb128 0x18
 1460 01bf 0C       		.uleb128 0xc
 1461 01c0 49030000 		.4byte	.LASF25
 1462 01c4 04       		.byte	0x4
 1463 01c5 FE03     		.2byte	0x3fe
 1464 01c7 11       		.byte	0x11
 1465 01c8 B3000000 		.4byte	0xb3
 1466 01cc 02       		.byte	0x2
 1467 01cd 23       		.byte	0x23
 1468 01ce 1C       		.uleb128 0x1c
 1469 01cf 00       		.byte	0
 1470 01d0 0D       		.uleb128 0xd
 1471 01d1 B3000000 		.4byte	0xb3
 1472 01d5 E0010000 		.4byte	0x1e0
 1473 01d9 0E       		.uleb128 0xe
 1474 01da 88000000 		.4byte	0x88
 1475 01de 03       		.byte	0x3
 1476 01df 00       		.byte	0
ARM GAS  C:\Users\ADMINI~1\AppData\Local\Temp\cc5aRzqp.s 			page 40


 1477 01e0 05       		.uleb128 0x5
 1478 01e1 D0010000 		.4byte	0x1d0
 1479 01e5 09       		.uleb128 0x9
 1480 01e6 CE010000 		.4byte	.LASF26
 1481 01ea 04       		.byte	0x4
 1482 01eb FF03     		.2byte	0x3ff
 1483 01ed 03       		.byte	0x3
 1484 01ee 75010000 		.4byte	0x175
 1485 01f2 0F       		.uleb128 0xf
 1486 01f3 07       		.byte	0x7
 1487 01f4 01       		.byte	0x1
 1488 01f5 38000000 		.4byte	0x38
 1489 01f9 05       		.byte	0x5
 1490 01fa 3B       		.byte	0x3b
 1491 01fb 01       		.byte	0x1
 1492 01fc 13020000 		.4byte	0x213
 1493 0200 08       		.uleb128 0x8
 1494 0201 DB010000 		.4byte	.LASF27
 1495 0205 01       		.byte	0x1
 1496 0206 08       		.uleb128 0x8
 1497 0207 28020000 		.4byte	.LASF28
 1498 020b 02       		.byte	0x2
 1499 020c 08       		.uleb128 0x8
 1500 020d A2040000 		.4byte	.LASF29
 1501 0211 03       		.byte	0x3
 1502 0212 00       		.byte	0
 1503 0213 03       		.uleb128 0x3
 1504 0214 5F040000 		.4byte	.LASF30
 1505 0218 05       		.byte	0x5
 1506 0219 3F       		.byte	0x3f
 1507 021a 02       		.byte	0x2
 1508 021b F2010000 		.4byte	0x1f2
 1509 021f 0F       		.uleb128 0xf
 1510 0220 07       		.byte	0x7
 1511 0221 01       		.byte	0x1
 1512 0222 38000000 		.4byte	0x38
 1513 0226 05       		.byte	0x5
 1514 0227 48       		.byte	0x48
 1515 0228 01       		.byte	0x1
 1516 0229 5E020000 		.4byte	0x25e
 1517 022d 08       		.uleb128 0x8
 1518 022e 59030000 		.4byte	.LASF31
 1519 0232 00       		.byte	0
 1520 0233 08       		.uleb128 0x8
 1521 0234 F4040000 		.4byte	.LASF32
 1522 0238 04       		.byte	0x4
 1523 0239 08       		.uleb128 0x8
 1524 023a EC020000 		.4byte	.LASF33
 1525 023e 28       		.byte	0x28
 1526 023f 08       		.uleb128 0x8
 1527 0240 36030000 		.4byte	.LASF34
 1528 0244 48       		.byte	0x48
 1529 0245 08       		.uleb128 0x8
 1530 0246 32010000 		.4byte	.LASF35
 1531 024a 14       		.byte	0x14
 1532 024b 08       		.uleb128 0x8
 1533 024c 8C040000 		.4byte	.LASF36
ARM GAS  C:\Users\ADMINI~1\AppData\Local\Temp\cc5aRzqp.s 			page 41


 1534 0250 10       		.byte	0x10
 1535 0251 08       		.uleb128 0x8
 1536 0252 31050000 		.4byte	.LASF37
 1537 0256 1C       		.byte	0x1c
 1538 0257 08       		.uleb128 0x8
 1539 0258 5F010000 		.4byte	.LASF38
 1540 025c 18       		.byte	0x18
 1541 025d 00       		.byte	0
 1542 025e 03       		.uleb128 0x3
 1543 025f D4040000 		.4byte	.LASF39
 1544 0263 05       		.byte	0x5
 1545 0264 50       		.byte	0x50
 1546 0265 02       		.byte	0x2
 1547 0266 1F020000 		.4byte	0x21f
 1548 026a 10       		.uleb128 0x10
 1549 026b 04       		.byte	0x4
 1550 026c 05       		.byte	0x5
 1551 026d 5B       		.byte	0x5b
 1552 026e 09       		.byte	0x9
 1553 026f A1020000 		.4byte	0x2a1
 1554 0273 11       		.uleb128 0x11
 1555 0274 14000000 		.4byte	.LASF40
 1556 0278 05       		.byte	0x5
 1557 0279 5D       		.byte	0x5d
 1558 027a 0C       		.byte	0xc
 1559 027b 9B000000 		.4byte	0x9b
 1560 027f 02       		.byte	0x2
 1561 0280 23       		.byte	0x23
 1562 0281 00       		.uleb128 0
 1563 0282 11       		.uleb128 0x11
 1564 0283 0E010000 		.4byte	.LASF41
 1565 0287 05       		.byte	0x5
 1566 0288 60       		.byte	0x60
 1567 0289 15       		.byte	0x15
 1568 028a 13020000 		.4byte	0x213
 1569 028e 02       		.byte	0x2
 1570 028f 23       		.byte	0x23
 1571 0290 02       		.uleb128 0x2
 1572 0291 11       		.uleb128 0x11
 1573 0292 41050000 		.4byte	.LASF42
 1574 0296 05       		.byte	0x5
 1575 0297 63       		.byte	0x63
 1576 0298 14       		.byte	0x14
 1577 0299 5E020000 		.4byte	0x25e
 1578 029d 02       		.byte	0x2
 1579 029e 23       		.byte	0x23
 1580 029f 03       		.uleb128 0x3
 1581 02a0 00       		.byte	0
 1582 02a1 03       		.uleb128 0x3
 1583 02a2 C3040000 		.4byte	.LASF43
 1584 02a6 05       		.byte	0x5
 1585 02a7 65       		.byte	0x65
 1586 02a8 02       		.byte	0x2
 1587 02a9 6A020000 		.4byte	0x26a
 1588 02ad 0F       		.uleb128 0xf
 1589 02ae 07       		.byte	0x7
 1590 02af 01       		.byte	0x1
ARM GAS  C:\Users\ADMINI~1\AppData\Local\Temp\cc5aRzqp.s 			page 42


 1591 02b0 38000000 		.4byte	0x38
 1592 02b4 05       		.byte	0x5
 1593 02b5 6D       		.byte	0x6d
 1594 02b6 01       		.byte	0x1
 1595 02b7 C8020000 		.4byte	0x2c8
 1596 02bb 08       		.uleb128 0x8
 1597 02bc 72000000 		.4byte	.LASF44
 1598 02c0 00       		.byte	0
 1599 02c1 08       		.uleb128 0x8
 1600 02c2 1D000000 		.4byte	.LASF45
 1601 02c6 01       		.byte	0x1
 1602 02c7 00       		.byte	0
 1603 02c8 03       		.uleb128 0x3
 1604 02c9 55040000 		.4byte	.LASF46
 1605 02cd 05       		.byte	0x5
 1606 02ce 6F       		.byte	0x6f
 1607 02cf 02       		.byte	0x2
 1608 02d0 AD020000 		.4byte	0x2ad
 1609 02d4 12       		.uleb128 0x12
 1610 02d5 01       		.byte	0x1
 1611 02d6 67030000 		.4byte	.LASF47
 1612 02da 01       		.byte	0x1
 1613 02db 7602     		.2byte	0x276
 1614 02dd 06       		.byte	0x6
 1615 02de 01       		.byte	0x1
 1616 02df 7A020000 		.4byte	.LFB46
 1617 02e3 88020000 		.4byte	.LFE46
 1618 02e7 02       		.byte	0x2
 1619 02e8 7D       		.byte	0x7d
 1620 02e9 00       		.sleb128 0
 1621 02ea 01       		.byte	0x1
 1622 02eb FF020000 		.4byte	0x2ff
 1623 02ef 13       		.uleb128 0x13
 1624 02f0 B4000000 		.4byte	.LASF52
 1625 02f4 01       		.byte	0x1
 1626 02f5 7602     		.2byte	0x276
 1627 02f7 2D       		.byte	0x2d
 1628 02f8 A7000000 		.4byte	0xa7
 1629 02fc 01       		.byte	0x1
 1630 02fd 50       		.byte	0x50
 1631 02fe 00       		.byte	0
 1632 02ff 14       		.uleb128 0x14
 1633 0300 01       		.byte	0x1
 1634 0301 14020000 		.4byte	.LASF48
 1635 0305 01       		.byte	0x1
 1636 0306 6102     		.2byte	0x261
 1637 0308 06       		.byte	0x6
 1638 0309 01       		.byte	0x1
 1639 030a 50020000 		.4byte	.LFB45
 1640 030e 7A020000 		.4byte	.LFE45
 1641 0312 00000000 		.4byte	.LLST24
 1642 0316 01       		.byte	0x1
 1643 0317 5B030000 		.4byte	0x35b
 1644 031b 15       		.uleb128 0x15
 1645 031c B3040000 		.4byte	.LASF49
 1646 0320 01       		.byte	0x1
 1647 0321 6102     		.2byte	0x261
ARM GAS  C:\Users\ADMINI~1\AppData\Local\Temp\cc5aRzqp.s 			page 43


 1648 0323 22       		.byte	0x22
 1649 0324 8F000000 		.4byte	0x8f
 1650 0328 24000000 		.4byte	.LLST25
 1651 032c 20000000 		.4byte	.LVUS25
 1652 0330 15       		.uleb128 0x15
 1653 0331 AB020000 		.4byte	.LASF50
 1654 0335 01       		.byte	0x1
 1655 0336 6102     		.2byte	0x261
 1656 0338 3B       		.byte	0x3b
 1657 0339 8F000000 		.4byte	0x8f
 1658 033d 49000000 		.4byte	.LLST26
 1659 0341 45000000 		.4byte	.LVUS26
 1660 0345 16       		.uleb128 0x16
 1661 0346 746D7000 		.ascii	"tmp\000"
 1662 034a 01       		.byte	0x1
 1663 034b 6302     		.2byte	0x263
 1664 034d 0C       		.byte	0xc
 1665 034e A7000000 		.4byte	0xa7
 1666 0352 70000000 		.4byte	.LLST27
 1667 0356 6A000000 		.4byte	.LVUS27
 1668 035a 00       		.byte	0
 1669 035b 14       		.uleb128 0x14
 1670 035c 01       		.byte	0x1
 1671 035d 92020000 		.4byte	.LASF51
 1672 0361 01       		.byte	0x1
 1673 0362 2502     		.2byte	0x225
 1674 0364 06       		.byte	0x6
 1675 0365 01       		.byte	0x1
 1676 0366 F0010000 		.4byte	.LFB44
 1677 036a 50020000 		.4byte	.LFE44
 1678 036e 9E000000 		.4byte	.LLST19
 1679 0372 01       		.byte	0x1
 1680 0373 EA030000 		.4byte	0x3ea
 1681 0377 13       		.uleb128 0x13
 1682 0378 39000000 		.4byte	.LASF53
 1683 037c 01       		.byte	0x1
 1684 037d 2502     		.2byte	0x225
 1685 037f 23       		.byte	0x23
 1686 0380 A7000000 		.4byte	0xa7
 1687 0384 01       		.byte	0x1
 1688 0385 50       		.byte	0x50
 1689 0386 13       		.uleb128 0x13
 1690 0387 FD010000 		.4byte	.LASF54
 1691 038b 01       		.byte	0x1
 1692 038c 2502     		.2byte	0x225
 1693 038e 3F       		.byte	0x3f
 1694 038f E0000000 		.4byte	0xe0
 1695 0393 01       		.byte	0x1
 1696 0394 51       		.byte	0x51
 1697 0395 16       		.uleb128 0x16
 1698 0396 746D7000 		.ascii	"tmp\000"
 1699 039a 01       		.byte	0x1
 1700 039b 2702     		.2byte	0x227
 1701 039d 0C       		.byte	0xc
 1702 039e A7000000 		.4byte	0xa7
 1703 03a2 C6000000 		.4byte	.LLST20
 1704 03a6 BE000000 		.4byte	.LVUS20
ARM GAS  C:\Users\ADMINI~1\AppData\Local\Temp\cc5aRzqp.s 			page 44


 1705 03aa 17       		.uleb128 0x17
 1706 03ab 44030000 		.4byte	.LASF55
 1707 03af 01       		.byte	0x1
 1708 03b0 2702     		.2byte	0x227
 1709 03b2 18       		.byte	0x18
 1710 03b3 A7000000 		.4byte	0xa7
 1711 03b7 07010000 		.4byte	.LLST21
 1712 03bb 01010000 		.4byte	.LVUS21
 1713 03bf 17       		.uleb128 0x17
 1714 03c0 EC010000 		.4byte	.LASF56
 1715 03c4 01       		.byte	0x1
 1716 03c5 2702     		.2byte	0x227
 1717 03c7 25       		.byte	0x25
 1718 03c8 A7000000 		.4byte	0xa7
 1719 03cc 3E010000 		.4byte	.LLST22
 1720 03d0 3A010000 		.4byte	.LVUS22
 1721 03d4 17       		.uleb128 0x17
 1722 03d5 E4020000 		.4byte	.LASF57
 1723 03d9 01       		.byte	0x1
 1724 03da 2702     		.2byte	0x227
 1725 03dc 34       		.byte	0x34
 1726 03dd A7000000 		.4byte	0xa7
 1727 03e1 61010000 		.4byte	.LLST23
 1728 03e5 5D010000 		.4byte	.LVUS23
 1729 03e9 00       		.byte	0
 1730 03ea 12       		.uleb128 0x12
 1731 03eb 01       		.byte	0x1
 1732 03ec 25000000 		.4byte	.LASF58
 1733 03f0 01       		.byte	0x1
 1734 03f1 E301     		.2byte	0x1e3
 1735 03f3 06       		.byte	0x6
 1736 03f4 01       		.byte	0x1
 1737 03f5 E4010000 		.4byte	.LFB43
 1738 03f9 F0010000 		.4byte	.LFE43
 1739 03fd 02       		.byte	0x2
 1740 03fe 7D       		.byte	0x7d
 1741 03ff 00       		.sleb128 0
 1742 0400 01       		.byte	0x1
 1743 0401 15040000 		.4byte	0x415
 1744 0405 13       		.uleb128 0x13
 1745 0406 FD010000 		.4byte	.LASF54
 1746 040a 01       		.byte	0x1
 1747 040b E301     		.2byte	0x1e3
 1748 040d 2A       		.byte	0x2a
 1749 040e E0000000 		.4byte	0xe0
 1750 0412 01       		.byte	0x1
 1751 0413 50       		.byte	0x50
 1752 0414 00       		.byte	0
 1753 0415 12       		.uleb128 0x12
 1754 0416 01       		.byte	0x1
 1755 0417 92010000 		.4byte	.LASF59
 1756 041b 01       		.byte	0x1
 1757 041c CE01     		.2byte	0x1ce
 1758 041e 06       		.byte	0x6
 1759 041f 01       		.byte	0x1
 1760 0420 C8010000 		.4byte	.LFB42
 1761 0424 E4010000 		.4byte	.LFE42
ARM GAS  C:\Users\ADMINI~1\AppData\Local\Temp\cc5aRzqp.s 			page 45


 1762 0428 02       		.byte	0x2
 1763 0429 7D       		.byte	0x7d
 1764 042a 00       		.sleb128 0
 1765 042b 01       		.byte	0x1
 1766 042c 64040000 		.4byte	0x464
 1767 0430 13       		.uleb128 0x13
 1768 0431 B3040000 		.4byte	.LASF49
 1769 0435 01       		.byte	0x1
 1770 0436 CE01     		.2byte	0x1ce
 1771 0438 25       		.byte	0x25
 1772 0439 8F000000 		.4byte	0x8f
 1773 043d 01       		.byte	0x1
 1774 043e 50       		.byte	0x50
 1775 043f 13       		.uleb128 0x13
 1776 0440 AB020000 		.4byte	.LASF50
 1777 0444 01       		.byte	0x1
 1778 0445 CE01     		.2byte	0x1ce
 1779 0447 3E       		.byte	0x3e
 1780 0448 8F000000 		.4byte	0x8f
 1781 044c 01       		.byte	0x1
 1782 044d 51       		.byte	0x51
 1783 044e 17       		.uleb128 0x17
 1784 044f EC010000 		.4byte	.LASF56
 1785 0453 01       		.byte	0x1
 1786 0454 D001     		.2byte	0x1d0
 1787 0456 0C       		.byte	0xc
 1788 0457 A7000000 		.4byte	0xa7
 1789 045b 90010000 		.4byte	.LLST18
 1790 045f 86010000 		.4byte	.LVUS18
 1791 0463 00       		.byte	0
 1792 0464 12       		.uleb128 0x12
 1793 0465 01       		.byte	0x1
 1794 0466 FA020000 		.4byte	.LASF60
 1795 046a 01       		.byte	0x1
 1796 046b B001     		.2byte	0x1b0
 1797 046d 06       		.byte	0x6
 1798 046e 01       		.byte	0x1
 1799 046f B8010000 		.4byte	.LFB41
 1800 0473 C8010000 		.4byte	.LFE41
 1801 0477 02       		.byte	0x2
 1802 0478 7D       		.byte	0x7d
 1803 0479 00       		.sleb128 0
 1804 047a 01       		.byte	0x1
 1805 047b B3040000 		.4byte	0x4b3
 1806 047f 13       		.uleb128 0x13
 1807 0480 86040000 		.4byte	.LASF61
 1808 0484 01       		.byte	0x1
 1809 0485 B001     		.2byte	0x1b0
 1810 0487 27       		.byte	0x27
 1811 0488 B3040000 		.4byte	0x4b3
 1812 048c 01       		.byte	0x1
 1813 048d 50       		.byte	0x50
 1814 048e 13       		.uleb128 0x13
 1815 048f 14000000 		.4byte	.LASF40
 1816 0493 01       		.byte	0x1
 1817 0494 B001     		.2byte	0x1b0
 1818 0496 37       		.byte	0x37
ARM GAS  C:\Users\ADMINI~1\AppData\Local\Temp\cc5aRzqp.s 			page 46


 1819 0497 9B000000 		.4byte	0x9b
 1820 049b 01       		.byte	0x1
 1821 049c 51       		.byte	0x51
 1822 049d 16       		.uleb128 0x16
 1823 049e 746D7000 		.ascii	"tmp\000"
 1824 04a2 01       		.byte	0x1
 1825 04a3 B201     		.2byte	0x1b2
 1826 04a5 0C       		.byte	0xc
 1827 04a6 A7000000 		.4byte	0xa7
 1828 04aa E5010000 		.4byte	.LLST17
 1829 04ae E1010000 		.4byte	.LVUS17
 1830 04b2 00       		.byte	0
 1831 04b3 18       		.uleb128 0x18
 1832 04b4 04       		.byte	0x4
 1833 04b5 68010000 		.4byte	0x168
 1834 04b9 12       		.uleb128 0x12
 1835 04ba 01       		.byte	0x1
 1836 04bb 2B030000 		.4byte	.LASF62
 1837 04bf 01       		.byte	0x1
 1838 04c0 A101     		.2byte	0x1a1
 1839 04c2 06       		.byte	0x6
 1840 04c3 01       		.byte	0x1
 1841 04c4 B4010000 		.4byte	.LFB40
 1842 04c8 B8010000 		.4byte	.LFE40
 1843 04cc 02       		.byte	0x2
 1844 04cd 7D       		.byte	0x7d
 1845 04ce 00       		.sleb128 0
 1846 04cf 01       		.byte	0x1
 1847 04d0 F3040000 		.4byte	0x4f3
 1848 04d4 13       		.uleb128 0x13
 1849 04d5 86040000 		.4byte	.LASF61
 1850 04d9 01       		.byte	0x1
 1851 04da A101     		.2byte	0x1a1
 1852 04dc 1F       		.byte	0x1f
 1853 04dd B3040000 		.4byte	0x4b3
 1854 04e1 01       		.byte	0x1
 1855 04e2 50       		.byte	0x50
 1856 04e3 13       		.uleb128 0x13
 1857 04e4 7E020000 		.4byte	.LASF63
 1858 04e8 01       		.byte	0x1
 1859 04e9 A101     		.2byte	0x1a1
 1860 04eb 2F       		.byte	0x2f
 1861 04ec 9B000000 		.4byte	0x9b
 1862 04f0 01       		.byte	0x1
 1863 04f1 51       		.byte	0x51
 1864 04f2 00       		.byte	0
 1865 04f3 12       		.uleb128 0x12
 1866 04f4 01       		.byte	0x1
 1867 04f5 7C000000 		.4byte	.LASF64
 1868 04f9 01       		.byte	0x1
 1869 04fa 8A01     		.2byte	0x18a
 1870 04fc 06       		.byte	0x6
 1871 04fd 01       		.byte	0x1
 1872 04fe AA010000 		.4byte	.LFB39
 1873 0502 B4010000 		.4byte	.LFE39
 1874 0506 02       		.byte	0x2
 1875 0507 7D       		.byte	0x7d
ARM GAS  C:\Users\ADMINI~1\AppData\Local\Temp\cc5aRzqp.s 			page 47


 1876 0508 00       		.sleb128 0
 1877 0509 01       		.byte	0x1
 1878 050a 3C050000 		.4byte	0x53c
 1879 050e 13       		.uleb128 0x13
 1880 050f 86040000 		.4byte	.LASF61
 1881 0513 01       		.byte	0x1
 1882 0514 8A01     		.2byte	0x18a
 1883 0516 22       		.byte	0x22
 1884 0517 B3040000 		.4byte	0x4b3
 1885 051b 01       		.byte	0x1
 1886 051c 50       		.byte	0x50
 1887 051d 13       		.uleb128 0x13
 1888 051e 14000000 		.4byte	.LASF40
 1889 0522 01       		.byte	0x1
 1890 0523 8A01     		.2byte	0x18a
 1891 0525 32       		.byte	0x32
 1892 0526 9B000000 		.4byte	0x9b
 1893 052a 01       		.byte	0x1
 1894 052b 51       		.byte	0x51
 1895 052c 13       		.uleb128 0x13
 1896 052d 6B000000 		.4byte	.LASF65
 1897 0531 01       		.byte	0x1
 1898 0532 8A01     		.2byte	0x18a
 1899 0534 46       		.byte	0x46
 1900 0535 C8020000 		.4byte	0x2c8
 1901 0539 01       		.byte	0x1
 1902 053a 52       		.byte	0x52
 1903 053b 00       		.byte	0
 1904 053c 12       		.uleb128 0x12
 1905 053d 01       		.byte	0x1
 1906 053e E5040000 		.4byte	.LASF66
 1907 0542 01       		.byte	0x1
 1908 0543 7601     		.2byte	0x176
 1909 0545 06       		.byte	0x6
 1910 0546 01       		.byte	0x1
 1911 0547 A6010000 		.4byte	.LFB38
 1912 054b AA010000 		.4byte	.LFE38
 1913 054f 02       		.byte	0x2
 1914 0550 7D       		.byte	0x7d
 1915 0551 00       		.sleb128 0
 1916 0552 01       		.byte	0x1
 1917 0553 76050000 		.4byte	0x576
 1918 0557 13       		.uleb128 0x13
 1919 0558 86040000 		.4byte	.LASF61
 1920 055c 01       		.byte	0x1
 1921 055d 7601     		.2byte	0x176
 1922 055f 23       		.byte	0x23
 1923 0560 B3040000 		.4byte	0x4b3
 1924 0564 01       		.byte	0x1
 1925 0565 50       		.byte	0x50
 1926 0566 13       		.uleb128 0x13
 1927 0567 14000000 		.4byte	.LASF40
 1928 056b 01       		.byte	0x1
 1929 056c 7601     		.2byte	0x176
 1930 056e 33       		.byte	0x33
 1931 056f 9B000000 		.4byte	0x9b
 1932 0573 01       		.byte	0x1
ARM GAS  C:\Users\ADMINI~1\AppData\Local\Temp\cc5aRzqp.s 			page 48


 1933 0574 51       		.byte	0x51
 1934 0575 00       		.byte	0
 1935 0576 12       		.uleb128 0x12
 1936 0577 01       		.byte	0x1
 1937 0578 44000000 		.4byte	.LASF67
 1938 057c 01       		.byte	0x1
 1939 057d 6601     		.2byte	0x166
 1940 057f 06       		.byte	0x6
 1941 0580 01       		.byte	0x1
 1942 0581 A2010000 		.4byte	.LFB37
 1943 0585 A6010000 		.4byte	.LFE37
 1944 0589 02       		.byte	0x2
 1945 058a 7D       		.byte	0x7d
 1946 058b 00       		.sleb128 0
 1947 058c 01       		.byte	0x1
 1948 058d B0050000 		.4byte	0x5b0
 1949 0591 13       		.uleb128 0x13
 1950 0592 86040000 		.4byte	.LASF61
 1951 0596 01       		.byte	0x1
 1952 0597 6601     		.2byte	0x166
 1953 0599 21       		.byte	0x21
 1954 059a B3040000 		.4byte	0x4b3
 1955 059e 01       		.byte	0x1
 1956 059f 50       		.byte	0x50
 1957 05a0 13       		.uleb128 0x13
 1958 05a1 14000000 		.4byte	.LASF40
 1959 05a5 01       		.byte	0x1
 1960 05a6 6601     		.2byte	0x166
 1961 05a8 31       		.byte	0x31
 1962 05a9 9B000000 		.4byte	0x9b
 1963 05ad 01       		.byte	0x1
 1964 05ae 51       		.byte	0x51
 1965 05af 00       		.byte	0
 1966 05b0 19       		.uleb128 0x19
 1967 05b1 01       		.byte	0x1
 1968 05b2 95000000 		.4byte	.LASF68
 1969 05b6 01       		.byte	0x1
 1970 05b7 5701     		.2byte	0x157
 1971 05b9 0A       		.byte	0xa
 1972 05ba 01       		.byte	0x1
 1973 05bb 9B000000 		.4byte	0x9b
 1974 05bf 9C010000 		.4byte	.LFB36
 1975 05c3 A2010000 		.4byte	.LFE36
 1976 05c7 02       		.byte	0x2
 1977 05c8 7D       		.byte	0x7d
 1978 05c9 00       		.sleb128 0
 1979 05ca 01       		.byte	0x1
 1980 05cb E5050000 		.4byte	0x5e5
 1981 05cf 15       		.uleb128 0x15
 1982 05d0 86040000 		.4byte	.LASF61
 1983 05d4 01       		.byte	0x1
 1984 05d5 5701     		.2byte	0x157
 1985 05d7 2C       		.byte	0x2c
 1986 05d8 B3040000 		.4byte	0x4b3
 1987 05dc 0A020000 		.4byte	.LLST16
 1988 05e0 06020000 		.4byte	.LVUS16
 1989 05e4 00       		.byte	0
ARM GAS  C:\Users\ADMINI~1\AppData\Local\Temp\cc5aRzqp.s 			page 49


 1990 05e5 19       		.uleb128 0x19
 1991 05e6 01       		.byte	0x1
 1992 05e7 0A050000 		.4byte	.LASF69
 1993 05eb 01       		.byte	0x1
 1994 05ec 4001     		.2byte	0x140
 1995 05ee 09       		.byte	0x9
 1996 05ef 01       		.byte	0x1
 1997 05f0 8F000000 		.4byte	0x8f
 1998 05f4 90010000 		.4byte	.LFB35
 1999 05f8 9C010000 		.4byte	.LFE35
 2000 05fc 02       		.byte	0x2
 2001 05fd 7D       		.byte	0x7d
 2002 05fe 00       		.sleb128 0
 2003 05ff 01       		.byte	0x1
 2004 0600 3E060000 		.4byte	0x63e
 2005 0604 15       		.uleb128 0x15
 2006 0605 86040000 		.4byte	.LASF61
 2007 0609 01       		.byte	0x1
 2008 060a 4001     		.2byte	0x140
 2009 060c 2E       		.byte	0x2e
 2010 060d B3040000 		.4byte	0x4b3
 2011 0611 2F020000 		.4byte	.LLST14
 2012 0615 2B020000 		.4byte	.LVUS14
 2013 0619 13       		.uleb128 0x13
 2014 061a 14000000 		.4byte	.LASF40
 2015 061e 01       		.byte	0x1
 2016 061f 4001     		.2byte	0x140
 2017 0621 3E       		.byte	0x3e
 2018 0622 9B000000 		.4byte	0x9b
 2019 0626 01       		.byte	0x1
 2020 0627 51       		.byte	0x51
 2021 0628 17       		.uleb128 0x17
 2022 0629 F3010000 		.4byte	.LASF70
 2023 062d 01       		.byte	0x1
 2024 062e 4201     		.2byte	0x142
 2025 0630 0B       		.byte	0xb
 2026 0631 8F000000 		.4byte	0x8f
 2027 0635 54020000 		.4byte	.LLST15
 2028 0639 50020000 		.4byte	.LVUS15
 2029 063d 00       		.byte	0
 2030 063e 19       		.uleb128 0x19
 2031 063f 01       		.byte	0x1
 2032 0640 D1020000 		.4byte	.LASF71
 2033 0644 01       		.byte	0x1
 2034 0645 3101     		.2byte	0x131
 2035 0647 0A       		.byte	0xa
 2036 0648 01       		.byte	0x1
 2037 0649 9B000000 		.4byte	0x9b
 2038 064d 8A010000 		.4byte	.LFB34
 2039 0651 90010000 		.4byte	.LFE34
 2040 0655 02       		.byte	0x2
 2041 0656 7D       		.byte	0x7d
 2042 0657 00       		.sleb128 0
 2043 0658 01       		.byte	0x1
 2044 0659 73060000 		.4byte	0x673
 2045 065d 15       		.uleb128 0x15
 2046 065e 86040000 		.4byte	.LASF61
ARM GAS  C:\Users\ADMINI~1\AppData\Local\Temp\cc5aRzqp.s 			page 50


 2047 0662 01       		.byte	0x1
 2048 0663 3101     		.2byte	0x131
 2049 0665 2B       		.byte	0x2b
 2050 0666 B3040000 		.4byte	0x4b3
 2051 066a 7E020000 		.4byte	.LLST13
 2052 066e 7A020000 		.4byte	.LVUS13
 2053 0672 00       		.byte	0
 2054 0673 19       		.uleb128 0x19
 2055 0674 01       		.byte	0x1
 2056 0675 B8010000 		.4byte	.LASF72
 2057 0679 01       		.byte	0x1
 2058 067a 1901     		.2byte	0x119
 2059 067c 09       		.byte	0x9
 2060 067d 01       		.byte	0x1
 2061 067e 8F000000 		.4byte	0x8f
 2062 0682 7E010000 		.4byte	.LFB33
 2063 0686 8A010000 		.4byte	.LFE33
 2064 068a 02       		.byte	0x2
 2065 068b 7D       		.byte	0x7d
 2066 068c 00       		.sleb128 0
 2067 068d 01       		.byte	0x1
 2068 068e CC060000 		.4byte	0x6cc
 2069 0692 15       		.uleb128 0x15
 2070 0693 86040000 		.4byte	.LASF61
 2071 0697 01       		.byte	0x1
 2072 0698 1901     		.2byte	0x119
 2073 069a 2D       		.byte	0x2d
 2074 069b B3040000 		.4byte	0x4b3
 2075 069f A3020000 		.4byte	.LLST11
 2076 06a3 9F020000 		.4byte	.LVUS11
 2077 06a7 13       		.uleb128 0x13
 2078 06a8 14000000 		.4byte	.LASF40
 2079 06ac 01       		.byte	0x1
 2080 06ad 1901     		.2byte	0x119
 2081 06af 3D       		.byte	0x3d
 2082 06b0 9B000000 		.4byte	0x9b
 2083 06b4 01       		.byte	0x1
 2084 06b5 51       		.byte	0x51
 2085 06b6 17       		.uleb128 0x17
 2086 06b7 F3010000 		.4byte	.LASF70
 2087 06bb 01       		.byte	0x1
 2088 06bc 1B01     		.2byte	0x11b
 2089 06be 0B       		.byte	0xb
 2090 06bf 8F000000 		.4byte	0x8f
 2091 06c3 C8020000 		.4byte	.LLST12
 2092 06c7 C4020000 		.4byte	.LVUS12
 2093 06cb 00       		.byte	0
 2094 06cc 12       		.uleb128 0x12
 2095 06cd 01       		.byte	0x1
 2096 06ce 5B000000 		.4byte	.LASF73
 2097 06d2 01       		.byte	0x1
 2098 06d3 0A01     		.2byte	0x10a
 2099 06d5 06       		.byte	0x6
 2100 06d6 01       		.byte	0x1
 2101 06d7 70010000 		.4byte	.LFB32
 2102 06db 7E010000 		.4byte	.LFE32
 2103 06df 02       		.byte	0x2
ARM GAS  C:\Users\ADMINI~1\AppData\Local\Temp\cc5aRzqp.s 			page 51


 2104 06e0 7D       		.byte	0x7d
 2105 06e1 00       		.sleb128 0
 2106 06e2 01       		.byte	0x1
 2107 06e3 F7060000 		.4byte	0x6f7
 2108 06e7 13       		.uleb128 0x13
 2109 06e8 58020000 		.4byte	.LASF74
 2110 06ec 01       		.byte	0x1
 2111 06ed 0A01     		.2byte	0x10a
 2112 06ef 28       		.byte	0x28
 2113 06f0 F7060000 		.4byte	0x6f7
 2114 06f4 01       		.byte	0x1
 2115 06f5 50       		.byte	0x50
 2116 06f6 00       		.byte	0
 2117 06f7 18       		.uleb128 0x18
 2118 06f8 04       		.byte	0x4
 2119 06f9 A1020000 		.4byte	0x2a1
 2120 06fd 1A       		.uleb128 0x1a
 2121 06fe 01       		.byte	0x1
 2122 06ff 19010000 		.4byte	.LASF75
 2123 0703 01       		.byte	0x1
 2124 0704 AD       		.byte	0xad
 2125 0705 06       		.byte	0x6
 2126 0706 01       		.byte	0x1
 2127 0707 CE000000 		.4byte	.LFB31
 2128 070b 70010000 		.4byte	.LFE31
 2129 070f EE020000 		.4byte	.LLST3
 2130 0713 01       		.byte	0x1
 2131 0714 B3070000 		.4byte	0x7b3
 2132 0718 1B       		.uleb128 0x1b
 2133 0719 86040000 		.4byte	.LASF61
 2134 071d 01       		.byte	0x1
 2135 071e AD       		.byte	0xad
 2136 071f 1E       		.byte	0x1e
 2137 0720 B3040000 		.4byte	0x4b3
 2138 0724 01       		.byte	0x1
 2139 0725 50       		.byte	0x50
 2140 0726 1C       		.uleb128 0x1c
 2141 0727 58020000 		.4byte	.LASF74
 2142 072b 01       		.byte	0x1
 2143 072c AD       		.byte	0xad
 2144 072d 37       		.byte	0x37
 2145 072e F7060000 		.4byte	0x6f7
 2146 0732 12030000 		.4byte	.LLST4
 2147 0736 0E030000 		.4byte	.LVUS4
 2148 073a 1D       		.uleb128 0x1d
 2149 073b 86020000 		.4byte	.LASF76
 2150 073f 01       		.byte	0x1
 2151 0740 AF       		.byte	0xaf
 2152 0741 0C       		.byte	0xc
 2153 0742 A7000000 		.4byte	0xa7
 2154 0746 3B030000 		.4byte	.LLST5
 2155 074a 33030000 		.4byte	.LVUS5
 2156 074e 1D       		.uleb128 0x1d
 2157 074f 20030000 		.4byte	.LASF77
 2158 0753 01       		.byte	0x1
 2159 0754 AF       		.byte	0xaf
 2160 0755 20       		.byte	0x20
ARM GAS  C:\Users\ADMINI~1\AppData\Local\Temp\cc5aRzqp.s 			page 52


 2161 0756 A7000000 		.4byte	0xa7
 2162 075a 91030000 		.4byte	.LLST6
 2163 075e 87030000 		.4byte	.LVUS6
 2164 0762 1D       		.uleb128 0x1d
 2165 0763 0D000000 		.4byte	.LASF78
 2166 0767 01       		.byte	0x1
 2167 0768 AF       		.byte	0xaf
 2168 0769 33       		.byte	0x33
 2169 076a A7000000 		.4byte	0xa7
 2170 076e EF030000 		.4byte	.LLST7
 2171 0772 E5030000 		.4byte	.LVUS7
 2172 0776 1E       		.uleb128 0x1e
 2173 0777 706F7300 		.ascii	"pos\000"
 2174 077b 01       		.byte	0x1
 2175 077c AF       		.byte	0xaf
 2176 077d 42       		.byte	0x42
 2177 077e A7000000 		.4byte	0xa7
 2178 0782 40040000 		.4byte	.LLST8
 2179 0786 30040000 		.4byte	.LVUS8
 2180 078a 1D       		.uleb128 0x1d
 2181 078b EC010000 		.4byte	.LASF56
 2182 078f 01       		.byte	0x1
 2183 0790 B0       		.byte	0xb0
 2184 0791 0C       		.byte	0xc
 2185 0792 A7000000 		.4byte	0xa7
 2186 0796 B5040000 		.4byte	.LLST9
 2187 079a AD040000 		.4byte	.LVUS9
 2188 079e 1D       		.uleb128 0x1d
 2189 079f 43010000 		.4byte	.LASF79
 2190 07a3 01       		.byte	0x1
 2191 07a4 B0       		.byte	0xb0
 2192 07a5 1B       		.byte	0x1b
 2193 07a6 A7000000 		.4byte	0xa7
 2194 07aa F6040000 		.4byte	.LLST10
 2195 07ae EA040000 		.4byte	.LVUS10
 2196 07b2 00       		.byte	0
 2197 07b3 1A       		.uleb128 0x1a
 2198 07b4 01       		.byte	0x1
 2199 07b5 21050000 		.4byte	.LASF80
 2200 07b9 01       		.byte	0x1
 2201 07ba 9F       		.byte	0x9f
 2202 07bb 06       		.byte	0x6
 2203 07bc 01       		.byte	0x1
 2204 07bd B8000000 		.4byte	.LFB30
 2205 07c1 CE000000 		.4byte	.LFE30
 2206 07c5 5B050000 		.4byte	.LLST2
 2207 07c9 01       		.byte	0x1
 2208 07ca FC070000 		.4byte	0x7fc
 2209 07ce 1F       		.uleb128 0x1f
 2210 07cf C2000000 		.4byte	.LVL22
 2211 07d3 DF080000 		.4byte	0x8df
 2212 07d7 E6070000 		.4byte	0x7e6
 2213 07db 20       		.uleb128 0x20
 2214 07dc 01       		.byte	0x1
 2215 07dd 50       		.byte	0x50
 2216 07de 01       		.byte	0x1
 2217 07df 31       		.byte	0x31
ARM GAS  C:\Users\ADMINI~1\AppData\Local\Temp\cc5aRzqp.s 			page 53


 2218 07e0 20       		.uleb128 0x20
 2219 07e1 01       		.byte	0x1
 2220 07e2 51       		.byte	0x51
 2221 07e3 01       		.byte	0x1
 2222 07e4 31       		.byte	0x31
 2223 07e5 00       		.byte	0
 2224 07e6 21       		.uleb128 0x21
 2225 07e7 CE000000 		.4byte	.LVL23
 2226 07eb 01       		.byte	0x1
 2227 07ec DF080000 		.4byte	0x8df
 2228 07f0 20       		.uleb128 0x20
 2229 07f1 01       		.byte	0x1
 2230 07f2 50       		.byte	0x50
 2231 07f3 01       		.byte	0x1
 2232 07f4 31       		.byte	0x31
 2233 07f5 20       		.uleb128 0x20
 2234 07f6 01       		.byte	0x1
 2235 07f7 51       		.byte	0x51
 2236 07f8 01       		.byte	0x1
 2237 07f9 30       		.byte	0x30
 2238 07fa 00       		.byte	0
 2239 07fb 00       		.byte	0
 2240 07fc 1A       		.uleb128 0x1a
 2241 07fd 01       		.byte	0x1
 2242 07fe 86010000 		.4byte	.LASF81
 2243 0802 01       		.byte	0x1
 2244 0803 6C       		.byte	0x6c
 2245 0804 06       		.byte	0x6
 2246 0805 01       		.byte	0x1
 2247 0806 00000000 		.4byte	.LFB29
 2248 080a B8000000 		.4byte	.LFE29
 2249 080e 87050000 		.4byte	.LLST0
 2250 0812 01       		.byte	0x1
 2251 0813 DF080000 		.4byte	0x8df
 2252 0817 1C       		.uleb128 0x1c
 2253 0818 86040000 		.4byte	.LASF61
 2254 081c 01       		.byte	0x1
 2255 081d 6C       		.byte	0x6c
 2256 081e 20       		.byte	0x20
 2257 081f B3040000 		.4byte	0x4b3
 2258 0823 DD050000 		.4byte	.LLST1
 2259 0827 BF050000 		.4byte	.LVUS1
 2260 082b 1F       		.uleb128 0x1f
 2261 082c 10000000 		.4byte	.LVL2
 2262 0830 DF080000 		.4byte	0x8df
 2263 0834 43080000 		.4byte	0x843
 2264 0838 20       		.uleb128 0x20
 2265 0839 01       		.byte	0x1
 2266 083a 50       		.byte	0x50
 2267 083b 01       		.byte	0x1
 2268 083c 34       		.byte	0x34
 2269 083d 20       		.uleb128 0x20
 2270 083e 01       		.byte	0x1
 2271 083f 51       		.byte	0x51
 2272 0840 01       		.byte	0x1
 2273 0841 31       		.byte	0x31
 2274 0842 00       		.byte	0
ARM GAS  C:\Users\ADMINI~1\AppData\Local\Temp\cc5aRzqp.s 			page 54


 2275 0843 22       		.uleb128 0x22
 2276 0844 1C000000 		.4byte	.LVL3
 2277 0848 01       		.byte	0x1
 2278 0849 DF080000 		.4byte	0x8df
 2279 084d 1F       		.uleb128 0x1f
 2280 084e 2A000000 		.4byte	.LVL5
 2281 0852 DF080000 		.4byte	0x8df
 2282 0856 65080000 		.4byte	0x865
 2283 085a 20       		.uleb128 0x20
 2284 085b 01       		.byte	0x1
 2285 085c 50       		.byte	0x50
 2286 085d 01       		.byte	0x1
 2287 085e 38       		.byte	0x38
 2288 085f 20       		.uleb128 0x20
 2289 0860 01       		.byte	0x1
 2290 0861 51       		.byte	0x51
 2291 0862 01       		.byte	0x1
 2292 0863 31       		.byte	0x31
 2293 0864 00       		.byte	0
 2294 0865 1F       		.uleb128 0x1f
 2295 0866 3E000000 		.4byte	.LVL8
 2296 086a DF080000 		.4byte	0x8df
 2297 086e 7D080000 		.4byte	0x87d
 2298 0872 20       		.uleb128 0x20
 2299 0873 01       		.byte	0x1
 2300 0874 50       		.byte	0x50
 2301 0875 01       		.byte	0x1
 2302 0876 40       		.byte	0x40
 2303 0877 20       		.uleb128 0x20
 2304 0878 01       		.byte	0x1
 2305 0879 51       		.byte	0x51
 2306 087a 01       		.byte	0x1
 2307 087b 31       		.byte	0x31
 2308 087c 00       		.byte	0
 2309 087d 1F       		.uleb128 0x1f
 2310 087e 52000000 		.4byte	.LVL11
 2311 0882 DF080000 		.4byte	0x8df
 2312 0886 96080000 		.4byte	0x896
 2313 088a 20       		.uleb128 0x20
 2314 088b 01       		.byte	0x1
 2315 088c 50       		.byte	0x50
 2316 088d 02       		.byte	0x2
 2317 088e 08       		.byte	0x8
 2318 088f 20       		.byte	0x20
 2319 0890 20       		.uleb128 0x20
 2320 0891 01       		.byte	0x1
 2321 0892 51       		.byte	0x51
 2322 0893 01       		.byte	0x1
 2323 0894 31       		.byte	0x31
 2324 0895 00       		.byte	0
 2325 0896 1F       		.uleb128 0x1f
 2326 0897 66000000 		.4byte	.LVL14
 2327 089b DF080000 		.4byte	0x8df
 2328 089f AF080000 		.4byte	0x8af
 2329 08a3 20       		.uleb128 0x20
 2330 08a4 01       		.byte	0x1
 2331 08a5 50       		.byte	0x50
ARM GAS  C:\Users\ADMINI~1\AppData\Local\Temp\cc5aRzqp.s 			page 55


 2332 08a6 02       		.byte	0x2
 2333 08a7 08       		.byte	0x8
 2334 08a8 40       		.byte	0x40
 2335 08a9 20       		.uleb128 0x20
 2336 08aa 01       		.byte	0x1
 2337 08ab 51       		.byte	0x51
 2338 08ac 01       		.byte	0x1
 2339 08ad 31       		.byte	0x31
 2340 08ae 00       		.byte	0
 2341 08af 1F       		.uleb128 0x1f
 2342 08b0 7A000000 		.4byte	.LVL17
 2343 08b4 DF080000 		.4byte	0x8df
 2344 08b8 C8080000 		.4byte	0x8c8
 2345 08bc 20       		.uleb128 0x20
 2346 08bd 01       		.byte	0x1
 2347 08be 50       		.byte	0x50
 2348 08bf 02       		.byte	0x2
 2349 08c0 08       		.byte	0x8
 2350 08c1 80       		.byte	0x80
 2351 08c2 20       		.uleb128 0x20
 2352 08c3 01       		.byte	0x1
 2353 08c4 51       		.byte	0x51
 2354 08c5 01       		.byte	0x1
 2355 08c6 31       		.byte	0x31
 2356 08c7 00       		.byte	0
 2357 08c8 23       		.uleb128 0x23
 2358 08c9 90000000 		.4byte	.LVL20
 2359 08cd DF080000 		.4byte	0x8df
 2360 08d1 20       		.uleb128 0x20
 2361 08d2 01       		.byte	0x1
 2362 08d3 50       		.byte	0x50
 2363 08d4 03       		.byte	0x3
 2364 08d5 0A       		.byte	0xa
 2365 08d6 0001     		.2byte	0x100
 2366 08d8 20       		.uleb128 0x20
 2367 08d9 01       		.byte	0x1
 2368 08da 51       		.byte	0x51
 2369 08db 01       		.byte	0x1
 2370 08dc 31       		.byte	0x31
 2371 08dd 00       		.byte	0
 2372 08de 00       		.byte	0
 2373 08df 24       		.uleb128 0x24
 2374 08e0 01       		.byte	0x1
 2375 08e1 01       		.byte	0x1
 2376 08e2 BA020000 		.4byte	.LASF85
 2377 08e6 BA020000 		.4byte	.LASF85
 2378 08ea 06       		.byte	0x6
 2379 08eb BC02     		.2byte	0x2bc
 2380 08ed 06       		.byte	0x6
 2381 08ee 00       		.byte	0
 2382              		.section	.debug_abbrev,"",%progbits
 2383              	.Ldebug_abbrev0:
 2384 0000 01       		.uleb128 0x1
 2385 0001 11       		.uleb128 0x11
 2386 0002 01       		.byte	0x1
 2387 0003 25       		.uleb128 0x25
 2388 0004 0E       		.uleb128 0xe
ARM GAS  C:\Users\ADMINI~1\AppData\Local\Temp\cc5aRzqp.s 			page 56


 2389 0005 13       		.uleb128 0x13
 2390 0006 0B       		.uleb128 0xb
 2391 0007 03       		.uleb128 0x3
 2392 0008 0E       		.uleb128 0xe
 2393 0009 1B       		.uleb128 0x1b
 2394 000a 0E       		.uleb128 0xe
 2395 000b 11       		.uleb128 0x11
 2396 000c 01       		.uleb128 0x1
 2397 000d 12       		.uleb128 0x12
 2398 000e 01       		.uleb128 0x1
 2399 000f 10       		.uleb128 0x10
 2400 0010 06       		.uleb128 0x6
 2401 0011 00       		.byte	0
 2402 0012 00       		.byte	0
 2403 0013 02       		.uleb128 0x2
 2404 0014 24       		.uleb128 0x24
 2405 0015 00       		.byte	0
 2406 0016 0B       		.uleb128 0xb
 2407 0017 0B       		.uleb128 0xb
 2408 0018 3E       		.uleb128 0x3e
 2409 0019 0B       		.uleb128 0xb
 2410 001a 03       		.uleb128 0x3
 2411 001b 0E       		.uleb128 0xe
 2412 001c 00       		.byte	0
 2413 001d 00       		.byte	0
 2414 001e 03       		.uleb128 0x3
 2415 001f 16       		.uleb128 0x16
 2416 0020 00       		.byte	0
 2417 0021 03       		.uleb128 0x3
 2418 0022 0E       		.uleb128 0xe
 2419 0023 3A       		.uleb128 0x3a
 2420 0024 0B       		.uleb128 0xb
 2421 0025 3B       		.uleb128 0x3b
 2422 0026 0B       		.uleb128 0xb
 2423 0027 39       		.uleb128 0x39
 2424 0028 0B       		.uleb128 0xb
 2425 0029 49       		.uleb128 0x49
 2426 002a 13       		.uleb128 0x13
 2427 002b 00       		.byte	0
 2428 002c 00       		.byte	0
 2429 002d 04       		.uleb128 0x4
 2430 002e 24       		.uleb128 0x24
 2431 002f 00       		.byte	0
 2432 0030 0B       		.uleb128 0xb
 2433 0031 0B       		.uleb128 0xb
 2434 0032 3E       		.uleb128 0x3e
 2435 0033 0B       		.uleb128 0xb
 2436 0034 03       		.uleb128 0x3
 2437 0035 08       		.uleb128 0x8
 2438 0036 00       		.byte	0
 2439 0037 00       		.byte	0
 2440 0038 05       		.uleb128 0x5
 2441 0039 35       		.uleb128 0x35
 2442 003a 00       		.byte	0
 2443 003b 49       		.uleb128 0x49
 2444 003c 13       		.uleb128 0x13
 2445 003d 00       		.byte	0
ARM GAS  C:\Users\ADMINI~1\AppData\Local\Temp\cc5aRzqp.s 			page 57


 2446 003e 00       		.byte	0
 2447 003f 06       		.uleb128 0x6
 2448 0040 16       		.uleb128 0x16
 2449 0041 00       		.byte	0
 2450 0042 03       		.uleb128 0x3
 2451 0043 08       		.uleb128 0x8
 2452 0044 3A       		.uleb128 0x3a
 2453 0045 0B       		.uleb128 0xb
 2454 0046 3B       		.uleb128 0x3b
 2455 0047 05       		.uleb128 0x5
 2456 0048 39       		.uleb128 0x39
 2457 0049 0B       		.uleb128 0xb
 2458 004a 49       		.uleb128 0x49
 2459 004b 13       		.uleb128 0x13
 2460 004c 00       		.byte	0
 2461 004d 00       		.byte	0
 2462 004e 07       		.uleb128 0x7
 2463 004f 04       		.uleb128 0x4
 2464 0050 01       		.byte	0x1
 2465 0051 3E       		.uleb128 0x3e
 2466 0052 0B       		.uleb128 0xb
 2467 0053 0B       		.uleb128 0xb
 2468 0054 0B       		.uleb128 0xb
 2469 0055 49       		.uleb128 0x49
 2470 0056 13       		.uleb128 0x13
 2471 0057 3A       		.uleb128 0x3a
 2472 0058 0B       		.uleb128 0xb
 2473 0059 3B       		.uleb128 0x3b
 2474 005a 05       		.uleb128 0x5
 2475 005b 39       		.uleb128 0x39
 2476 005c 0B       		.uleb128 0xb
 2477 005d 01       		.uleb128 0x1
 2478 005e 13       		.uleb128 0x13
 2479 005f 00       		.byte	0
 2480 0060 00       		.byte	0
 2481 0061 08       		.uleb128 0x8
 2482 0062 28       		.uleb128 0x28
 2483 0063 00       		.byte	0
 2484 0064 03       		.uleb128 0x3
 2485 0065 0E       		.uleb128 0xe
 2486 0066 1C       		.uleb128 0x1c
 2487 0067 0B       		.uleb128 0xb
 2488 0068 00       		.byte	0
 2489 0069 00       		.byte	0
 2490 006a 09       		.uleb128 0x9
 2491 006b 16       		.uleb128 0x16
 2492 006c 00       		.byte	0
 2493 006d 03       		.uleb128 0x3
 2494 006e 0E       		.uleb128 0xe
 2495 006f 3A       		.uleb128 0x3a
 2496 0070 0B       		.uleb128 0xb
 2497 0071 3B       		.uleb128 0x3b
 2498 0072 05       		.uleb128 0x5
 2499 0073 39       		.uleb128 0x39
 2500 0074 0B       		.uleb128 0xb
 2501 0075 49       		.uleb128 0x49
 2502 0076 13       		.uleb128 0x13
ARM GAS  C:\Users\ADMINI~1\AppData\Local\Temp\cc5aRzqp.s 			page 58


 2503 0077 00       		.byte	0
 2504 0078 00       		.byte	0
 2505 0079 0A       		.uleb128 0xa
 2506 007a 13       		.uleb128 0x13
 2507 007b 01       		.byte	0x1
 2508 007c 0B       		.uleb128 0xb
 2509 007d 0B       		.uleb128 0xb
 2510 007e 3A       		.uleb128 0x3a
 2511 007f 0B       		.uleb128 0xb
 2512 0080 3B       		.uleb128 0x3b
 2513 0081 05       		.uleb128 0x5
 2514 0082 39       		.uleb128 0x39
 2515 0083 0B       		.uleb128 0xb
 2516 0084 01       		.uleb128 0x1
 2517 0085 13       		.uleb128 0x13
 2518 0086 00       		.byte	0
 2519 0087 00       		.byte	0
 2520 0088 0B       		.uleb128 0xb
 2521 0089 0D       		.uleb128 0xd
 2522 008a 00       		.byte	0
 2523 008b 03       		.uleb128 0x3
 2524 008c 08       		.uleb128 0x8
 2525 008d 3A       		.uleb128 0x3a
 2526 008e 0B       		.uleb128 0xb
 2527 008f 3B       		.uleb128 0x3b
 2528 0090 05       		.uleb128 0x5
 2529 0091 39       		.uleb128 0x39
 2530 0092 0B       		.uleb128 0xb
 2531 0093 49       		.uleb128 0x49
 2532 0094 13       		.uleb128 0x13
 2533 0095 38       		.uleb128 0x38
 2534 0096 0A       		.uleb128 0xa
 2535 0097 00       		.byte	0
 2536 0098 00       		.byte	0
 2537 0099 0C       		.uleb128 0xc
 2538 009a 0D       		.uleb128 0xd
 2539 009b 00       		.byte	0
 2540 009c 03       		.uleb128 0x3
 2541 009d 0E       		.uleb128 0xe
 2542 009e 3A       		.uleb128 0x3a
 2543 009f 0B       		.uleb128 0xb
 2544 00a0 3B       		.uleb128 0x3b
 2545 00a1 05       		.uleb128 0x5
 2546 00a2 39       		.uleb128 0x39
 2547 00a3 0B       		.uleb128 0xb
 2548 00a4 49       		.uleb128 0x49
 2549 00a5 13       		.uleb128 0x13
 2550 00a6 38       		.uleb128 0x38
 2551 00a7 0A       		.uleb128 0xa
 2552 00a8 00       		.byte	0
 2553 00a9 00       		.byte	0
 2554 00aa 0D       		.uleb128 0xd
 2555 00ab 01       		.uleb128 0x1
 2556 00ac 01       		.byte	0x1
 2557 00ad 49       		.uleb128 0x49
 2558 00ae 13       		.uleb128 0x13
 2559 00af 01       		.uleb128 0x1
ARM GAS  C:\Users\ADMINI~1\AppData\Local\Temp\cc5aRzqp.s 			page 59


 2560 00b0 13       		.uleb128 0x13
 2561 00b1 00       		.byte	0
 2562 00b2 00       		.byte	0
 2563 00b3 0E       		.uleb128 0xe
 2564 00b4 21       		.uleb128 0x21
 2565 00b5 00       		.byte	0
 2566 00b6 49       		.uleb128 0x49
 2567 00b7 13       		.uleb128 0x13
 2568 00b8 2F       		.uleb128 0x2f
 2569 00b9 0B       		.uleb128 0xb
 2570 00ba 00       		.byte	0
 2571 00bb 00       		.byte	0
 2572 00bc 0F       		.uleb128 0xf
 2573 00bd 04       		.uleb128 0x4
 2574 00be 01       		.byte	0x1
 2575 00bf 3E       		.uleb128 0x3e
 2576 00c0 0B       		.uleb128 0xb
 2577 00c1 0B       		.uleb128 0xb
 2578 00c2 0B       		.uleb128 0xb
 2579 00c3 49       		.uleb128 0x49
 2580 00c4 13       		.uleb128 0x13
 2581 00c5 3A       		.uleb128 0x3a
 2582 00c6 0B       		.uleb128 0xb
 2583 00c7 3B       		.uleb128 0x3b
 2584 00c8 0B       		.uleb128 0xb
 2585 00c9 39       		.uleb128 0x39
 2586 00ca 0B       		.uleb128 0xb
 2587 00cb 01       		.uleb128 0x1
 2588 00cc 13       		.uleb128 0x13
 2589 00cd 00       		.byte	0
 2590 00ce 00       		.byte	0
 2591 00cf 10       		.uleb128 0x10
 2592 00d0 13       		.uleb128 0x13
 2593 00d1 01       		.byte	0x1
 2594 00d2 0B       		.uleb128 0xb
 2595 00d3 0B       		.uleb128 0xb
 2596 00d4 3A       		.uleb128 0x3a
 2597 00d5 0B       		.uleb128 0xb
 2598 00d6 3B       		.uleb128 0x3b
 2599 00d7 0B       		.uleb128 0xb
 2600 00d8 39       		.uleb128 0x39
 2601 00d9 0B       		.uleb128 0xb
 2602 00da 01       		.uleb128 0x1
 2603 00db 13       		.uleb128 0x13
 2604 00dc 00       		.byte	0
 2605 00dd 00       		.byte	0
 2606 00de 11       		.uleb128 0x11
 2607 00df 0D       		.uleb128 0xd
 2608 00e0 00       		.byte	0
 2609 00e1 03       		.uleb128 0x3
 2610 00e2 0E       		.uleb128 0xe
 2611 00e3 3A       		.uleb128 0x3a
 2612 00e4 0B       		.uleb128 0xb
 2613 00e5 3B       		.uleb128 0x3b
 2614 00e6 0B       		.uleb128 0xb
 2615 00e7 39       		.uleb128 0x39
 2616 00e8 0B       		.uleb128 0xb
ARM GAS  C:\Users\ADMINI~1\AppData\Local\Temp\cc5aRzqp.s 			page 60


 2617 00e9 49       		.uleb128 0x49
 2618 00ea 13       		.uleb128 0x13
 2619 00eb 38       		.uleb128 0x38
 2620 00ec 0A       		.uleb128 0xa
 2621 00ed 00       		.byte	0
 2622 00ee 00       		.byte	0
 2623 00ef 12       		.uleb128 0x12
 2624 00f0 2E       		.uleb128 0x2e
 2625 00f1 01       		.byte	0x1
 2626 00f2 3F       		.uleb128 0x3f
 2627 00f3 0C       		.uleb128 0xc
 2628 00f4 03       		.uleb128 0x3
 2629 00f5 0E       		.uleb128 0xe
 2630 00f6 3A       		.uleb128 0x3a
 2631 00f7 0B       		.uleb128 0xb
 2632 00f8 3B       		.uleb128 0x3b
 2633 00f9 05       		.uleb128 0x5
 2634 00fa 39       		.uleb128 0x39
 2635 00fb 0B       		.uleb128 0xb
 2636 00fc 27       		.uleb128 0x27
 2637 00fd 0C       		.uleb128 0xc
 2638 00fe 11       		.uleb128 0x11
 2639 00ff 01       		.uleb128 0x1
 2640 0100 12       		.uleb128 0x12
 2641 0101 01       		.uleb128 0x1
 2642 0102 40       		.uleb128 0x40
 2643 0103 0A       		.uleb128 0xa
 2644 0104 9742     		.uleb128 0x2117
 2645 0106 0C       		.uleb128 0xc
 2646 0107 01       		.uleb128 0x1
 2647 0108 13       		.uleb128 0x13
 2648 0109 00       		.byte	0
 2649 010a 00       		.byte	0
 2650 010b 13       		.uleb128 0x13
 2651 010c 05       		.uleb128 0x5
 2652 010d 00       		.byte	0
 2653 010e 03       		.uleb128 0x3
 2654 010f 0E       		.uleb128 0xe
 2655 0110 3A       		.uleb128 0x3a
 2656 0111 0B       		.uleb128 0xb
 2657 0112 3B       		.uleb128 0x3b
 2658 0113 05       		.uleb128 0x5
 2659 0114 39       		.uleb128 0x39
 2660 0115 0B       		.uleb128 0xb
 2661 0116 49       		.uleb128 0x49
 2662 0117 13       		.uleb128 0x13
 2663 0118 02       		.uleb128 0x2
 2664 0119 0A       		.uleb128 0xa
 2665 011a 00       		.byte	0
 2666 011b 00       		.byte	0
 2667 011c 14       		.uleb128 0x14
 2668 011d 2E       		.uleb128 0x2e
 2669 011e 01       		.byte	0x1
 2670 011f 3F       		.uleb128 0x3f
 2671 0120 0C       		.uleb128 0xc
 2672 0121 03       		.uleb128 0x3
 2673 0122 0E       		.uleb128 0xe
ARM GAS  C:\Users\ADMINI~1\AppData\Local\Temp\cc5aRzqp.s 			page 61


 2674 0123 3A       		.uleb128 0x3a
 2675 0124 0B       		.uleb128 0xb
 2676 0125 3B       		.uleb128 0x3b
 2677 0126 05       		.uleb128 0x5
 2678 0127 39       		.uleb128 0x39
 2679 0128 0B       		.uleb128 0xb
 2680 0129 27       		.uleb128 0x27
 2681 012a 0C       		.uleb128 0xc
 2682 012b 11       		.uleb128 0x11
 2683 012c 01       		.uleb128 0x1
 2684 012d 12       		.uleb128 0x12
 2685 012e 01       		.uleb128 0x1
 2686 012f 40       		.uleb128 0x40
 2687 0130 06       		.uleb128 0x6
 2688 0131 9742     		.uleb128 0x2117
 2689 0133 0C       		.uleb128 0xc
 2690 0134 01       		.uleb128 0x1
 2691 0135 13       		.uleb128 0x13
 2692 0136 00       		.byte	0
 2693 0137 00       		.byte	0
 2694 0138 15       		.uleb128 0x15
 2695 0139 05       		.uleb128 0x5
 2696 013a 00       		.byte	0
 2697 013b 03       		.uleb128 0x3
 2698 013c 0E       		.uleb128 0xe
 2699 013d 3A       		.uleb128 0x3a
 2700 013e 0B       		.uleb128 0xb
 2701 013f 3B       		.uleb128 0x3b
 2702 0140 05       		.uleb128 0x5
 2703 0141 39       		.uleb128 0x39
 2704 0142 0B       		.uleb128 0xb
 2705 0143 49       		.uleb128 0x49
 2706 0144 13       		.uleb128 0x13
 2707 0145 02       		.uleb128 0x2
 2708 0146 06       		.uleb128 0x6
 2709 0147 B742     		.uleb128 0x2137
 2710 0149 06       		.uleb128 0x6
 2711 014a 00       		.byte	0
 2712 014b 00       		.byte	0
 2713 014c 16       		.uleb128 0x16
 2714 014d 34       		.uleb128 0x34
 2715 014e 00       		.byte	0
 2716 014f 03       		.uleb128 0x3
 2717 0150 08       		.uleb128 0x8
 2718 0151 3A       		.uleb128 0x3a
 2719 0152 0B       		.uleb128 0xb
 2720 0153 3B       		.uleb128 0x3b
 2721 0154 05       		.uleb128 0x5
 2722 0155 39       		.uleb128 0x39
 2723 0156 0B       		.uleb128 0xb
 2724 0157 49       		.uleb128 0x49
 2725 0158 13       		.uleb128 0x13
 2726 0159 02       		.uleb128 0x2
 2727 015a 06       		.uleb128 0x6
 2728 015b B742     		.uleb128 0x2137
 2729 015d 06       		.uleb128 0x6
 2730 015e 00       		.byte	0
ARM GAS  C:\Users\ADMINI~1\AppData\Local\Temp\cc5aRzqp.s 			page 62


 2731 015f 00       		.byte	0
 2732 0160 17       		.uleb128 0x17
 2733 0161 34       		.uleb128 0x34
 2734 0162 00       		.byte	0
 2735 0163 03       		.uleb128 0x3
 2736 0164 0E       		.uleb128 0xe
 2737 0165 3A       		.uleb128 0x3a
 2738 0166 0B       		.uleb128 0xb
 2739 0167 3B       		.uleb128 0x3b
 2740 0168 05       		.uleb128 0x5
 2741 0169 39       		.uleb128 0x39
 2742 016a 0B       		.uleb128 0xb
 2743 016b 49       		.uleb128 0x49
 2744 016c 13       		.uleb128 0x13
 2745 016d 02       		.uleb128 0x2
 2746 016e 06       		.uleb128 0x6
 2747 016f B742     		.uleb128 0x2137
 2748 0171 06       		.uleb128 0x6
 2749 0172 00       		.byte	0
 2750 0173 00       		.byte	0
 2751 0174 18       		.uleb128 0x18
 2752 0175 0F       		.uleb128 0xf
 2753 0176 00       		.byte	0
 2754 0177 0B       		.uleb128 0xb
 2755 0178 0B       		.uleb128 0xb
 2756 0179 49       		.uleb128 0x49
 2757 017a 13       		.uleb128 0x13
 2758 017b 00       		.byte	0
 2759 017c 00       		.byte	0
 2760 017d 19       		.uleb128 0x19
 2761 017e 2E       		.uleb128 0x2e
 2762 017f 01       		.byte	0x1
 2763 0180 3F       		.uleb128 0x3f
 2764 0181 0C       		.uleb128 0xc
 2765 0182 03       		.uleb128 0x3
 2766 0183 0E       		.uleb128 0xe
 2767 0184 3A       		.uleb128 0x3a
 2768 0185 0B       		.uleb128 0xb
 2769 0186 3B       		.uleb128 0x3b
 2770 0187 05       		.uleb128 0x5
 2771 0188 39       		.uleb128 0x39
 2772 0189 0B       		.uleb128 0xb
 2773 018a 27       		.uleb128 0x27
 2774 018b 0C       		.uleb128 0xc
 2775 018c 49       		.uleb128 0x49
 2776 018d 13       		.uleb128 0x13
 2777 018e 11       		.uleb128 0x11
 2778 018f 01       		.uleb128 0x1
 2779 0190 12       		.uleb128 0x12
 2780 0191 01       		.uleb128 0x1
 2781 0192 40       		.uleb128 0x40
 2782 0193 0A       		.uleb128 0xa
 2783 0194 9742     		.uleb128 0x2117
 2784 0196 0C       		.uleb128 0xc
 2785 0197 01       		.uleb128 0x1
 2786 0198 13       		.uleb128 0x13
 2787 0199 00       		.byte	0
ARM GAS  C:\Users\ADMINI~1\AppData\Local\Temp\cc5aRzqp.s 			page 63


 2788 019a 00       		.byte	0
 2789 019b 1A       		.uleb128 0x1a
 2790 019c 2E       		.uleb128 0x2e
 2791 019d 01       		.byte	0x1
 2792 019e 3F       		.uleb128 0x3f
 2793 019f 0C       		.uleb128 0xc
 2794 01a0 03       		.uleb128 0x3
 2795 01a1 0E       		.uleb128 0xe
 2796 01a2 3A       		.uleb128 0x3a
 2797 01a3 0B       		.uleb128 0xb
 2798 01a4 3B       		.uleb128 0x3b
 2799 01a5 0B       		.uleb128 0xb
 2800 01a6 39       		.uleb128 0x39
 2801 01a7 0B       		.uleb128 0xb
 2802 01a8 27       		.uleb128 0x27
 2803 01a9 0C       		.uleb128 0xc
 2804 01aa 11       		.uleb128 0x11
 2805 01ab 01       		.uleb128 0x1
 2806 01ac 12       		.uleb128 0x12
 2807 01ad 01       		.uleb128 0x1
 2808 01ae 40       		.uleb128 0x40
 2809 01af 06       		.uleb128 0x6
 2810 01b0 9742     		.uleb128 0x2117
 2811 01b2 0C       		.uleb128 0xc
 2812 01b3 01       		.uleb128 0x1
 2813 01b4 13       		.uleb128 0x13
 2814 01b5 00       		.byte	0
 2815 01b6 00       		.byte	0
 2816 01b7 1B       		.uleb128 0x1b
 2817 01b8 05       		.uleb128 0x5
 2818 01b9 00       		.byte	0
 2819 01ba 03       		.uleb128 0x3
 2820 01bb 0E       		.uleb128 0xe
 2821 01bc 3A       		.uleb128 0x3a
 2822 01bd 0B       		.uleb128 0xb
 2823 01be 3B       		.uleb128 0x3b
 2824 01bf 0B       		.uleb128 0xb
 2825 01c0 39       		.uleb128 0x39
 2826 01c1 0B       		.uleb128 0xb
 2827 01c2 49       		.uleb128 0x49
 2828 01c3 13       		.uleb128 0x13
 2829 01c4 02       		.uleb128 0x2
 2830 01c5 0A       		.uleb128 0xa
 2831 01c6 00       		.byte	0
 2832 01c7 00       		.byte	0
 2833 01c8 1C       		.uleb128 0x1c
 2834 01c9 05       		.uleb128 0x5
 2835 01ca 00       		.byte	0
 2836 01cb 03       		.uleb128 0x3
 2837 01cc 0E       		.uleb128 0xe
 2838 01cd 3A       		.uleb128 0x3a
 2839 01ce 0B       		.uleb128 0xb
 2840 01cf 3B       		.uleb128 0x3b
 2841 01d0 0B       		.uleb128 0xb
 2842 01d1 39       		.uleb128 0x39
 2843 01d2 0B       		.uleb128 0xb
 2844 01d3 49       		.uleb128 0x49
ARM GAS  C:\Users\ADMINI~1\AppData\Local\Temp\cc5aRzqp.s 			page 64


 2845 01d4 13       		.uleb128 0x13
 2846 01d5 02       		.uleb128 0x2
 2847 01d6 06       		.uleb128 0x6
 2848 01d7 B742     		.uleb128 0x2137
 2849 01d9 06       		.uleb128 0x6
 2850 01da 00       		.byte	0
 2851 01db 00       		.byte	0
 2852 01dc 1D       		.uleb128 0x1d
 2853 01dd 34       		.uleb128 0x34
 2854 01de 00       		.byte	0
 2855 01df 03       		.uleb128 0x3
 2856 01e0 0E       		.uleb128 0xe
 2857 01e1 3A       		.uleb128 0x3a
 2858 01e2 0B       		.uleb128 0xb
 2859 01e3 3B       		.uleb128 0x3b
 2860 01e4 0B       		.uleb128 0xb
 2861 01e5 39       		.uleb128 0x39
 2862 01e6 0B       		.uleb128 0xb
 2863 01e7 49       		.uleb128 0x49
 2864 01e8 13       		.uleb128 0x13
 2865 01e9 02       		.uleb128 0x2
 2866 01ea 06       		.uleb128 0x6
 2867 01eb B742     		.uleb128 0x2137
 2868 01ed 06       		.uleb128 0x6
 2869 01ee 00       		.byte	0
 2870 01ef 00       		.byte	0
 2871 01f0 1E       		.uleb128 0x1e
 2872 01f1 34       		.uleb128 0x34
 2873 01f2 00       		.byte	0
 2874 01f3 03       		.uleb128 0x3
 2875 01f4 08       		.uleb128 0x8
 2876 01f5 3A       		.uleb128 0x3a
 2877 01f6 0B       		.uleb128 0xb
 2878 01f7 3B       		.uleb128 0x3b
 2879 01f8 0B       		.uleb128 0xb
 2880 01f9 39       		.uleb128 0x39
 2881 01fa 0B       		.uleb128 0xb
 2882 01fb 49       		.uleb128 0x49
 2883 01fc 13       		.uleb128 0x13
 2884 01fd 02       		.uleb128 0x2
 2885 01fe 06       		.uleb128 0x6
 2886 01ff B742     		.uleb128 0x2137
 2887 0201 06       		.uleb128 0x6
 2888 0202 00       		.byte	0
 2889 0203 00       		.byte	0
 2890 0204 1F       		.uleb128 0x1f
 2891 0205 898201   		.uleb128 0x4109
 2892 0208 01       		.byte	0x1
 2893 0209 11       		.uleb128 0x11
 2894 020a 01       		.uleb128 0x1
 2895 020b 31       		.uleb128 0x31
 2896 020c 13       		.uleb128 0x13
 2897 020d 01       		.uleb128 0x1
 2898 020e 13       		.uleb128 0x13
 2899 020f 00       		.byte	0
 2900 0210 00       		.byte	0
 2901 0211 20       		.uleb128 0x20
ARM GAS  C:\Users\ADMINI~1\AppData\Local\Temp\cc5aRzqp.s 			page 65


 2902 0212 8A8201   		.uleb128 0x410a
 2903 0215 00       		.byte	0
 2904 0216 02       		.uleb128 0x2
 2905 0217 0A       		.uleb128 0xa
 2906 0218 9142     		.uleb128 0x2111
 2907 021a 0A       		.uleb128 0xa
 2908 021b 00       		.byte	0
 2909 021c 00       		.byte	0
 2910 021d 21       		.uleb128 0x21
 2911 021e 898201   		.uleb128 0x4109
 2912 0221 01       		.byte	0x1
 2913 0222 11       		.uleb128 0x11
 2914 0223 01       		.uleb128 0x1
 2915 0224 9542     		.uleb128 0x2115
 2916 0226 0C       		.uleb128 0xc
 2917 0227 31       		.uleb128 0x31
 2918 0228 13       		.uleb128 0x13
 2919 0229 00       		.byte	0
 2920 022a 00       		.byte	0
 2921 022b 22       		.uleb128 0x22
 2922 022c 898201   		.uleb128 0x4109
 2923 022f 00       		.byte	0
 2924 0230 11       		.uleb128 0x11
 2925 0231 01       		.uleb128 0x1
 2926 0232 9542     		.uleb128 0x2115
 2927 0234 0C       		.uleb128 0xc
 2928 0235 31       		.uleb128 0x31
 2929 0236 13       		.uleb128 0x13
 2930 0237 00       		.byte	0
 2931 0238 00       		.byte	0
 2932 0239 23       		.uleb128 0x23
 2933 023a 898201   		.uleb128 0x4109
 2934 023d 01       		.byte	0x1
 2935 023e 11       		.uleb128 0x11
 2936 023f 01       		.uleb128 0x1
 2937 0240 31       		.uleb128 0x31
 2938 0241 13       		.uleb128 0x13
 2939 0242 00       		.byte	0
 2940 0243 00       		.byte	0
 2941 0244 24       		.uleb128 0x24
 2942 0245 2E       		.uleb128 0x2e
 2943 0246 00       		.byte	0
 2944 0247 3F       		.uleb128 0x3f
 2945 0248 0C       		.uleb128 0xc
 2946 0249 3C       		.uleb128 0x3c
 2947 024a 0C       		.uleb128 0xc
 2948 024b 8740     		.uleb128 0x2007
 2949 024d 0E       		.uleb128 0xe
 2950 024e 03       		.uleb128 0x3
 2951 024f 0E       		.uleb128 0xe
 2952 0250 3A       		.uleb128 0x3a
 2953 0251 0B       		.uleb128 0xb
 2954 0252 3B       		.uleb128 0x3b
 2955 0253 05       		.uleb128 0x5
 2956 0254 39       		.uleb128 0x39
 2957 0255 0B       		.uleb128 0xb
 2958 0256 00       		.byte	0
ARM GAS  C:\Users\ADMINI~1\AppData\Local\Temp\cc5aRzqp.s 			page 66


 2959 0257 00       		.byte	0
 2960 0258 00       		.byte	0
 2961              		.section	.debug_loc,"",%progbits
 2962              	.Ldebug_loc0:
 2963              	.LLST24:
 2964 0000 50020000 		.4byte	.LFB45-.Ltext0
 2965 0004 52020000 		.4byte	.LCFI7-.Ltext0
 2966 0008 0200     		.2byte	0x2
 2967 000a 7D       		.byte	0x7d
 2968 000b 00       		.sleb128 0
 2969 000c 52020000 		.4byte	.LCFI7-.Ltext0
 2970 0010 7A020000 		.4byte	.LFE45-.Ltext0
 2971 0014 0200     		.2byte	0x2
 2972 0016 7D       		.byte	0x7d
 2973 0017 08       		.sleb128 8
 2974 0018 00000000 		.4byte	0
 2975 001c 00000000 		.4byte	0
 2976              	.LVUS25:
 2977 0020 00       		.uleb128 0
 2978 0021 00       		.uleb128 .LVU312
 2979 0022 00       		.uleb128 .LVU312
 2980 0023 00       		.uleb128 0
 2981              	.LLST25:
 2982 0024 50020000 		.4byte	.LVL84-.Ltext0
 2983 0028 74020000 		.4byte	.LVL88-.Ltext0
 2984 002c 0100     		.2byte	0x1
 2985 002e 50       		.byte	0x50
 2986 002f 74020000 		.4byte	.LVL88-.Ltext0
 2987 0033 7A020000 		.4byte	.LFE45-.Ltext0
 2988 0037 0400     		.2byte	0x4
 2989 0039 F3       		.byte	0xf3
 2990 003a 01       		.uleb128 0x1
 2991 003b 50       		.byte	0x50
 2992 003c 9F       		.byte	0x9f
 2993 003d 00000000 		.4byte	0
 2994 0041 00000000 		.4byte	0
 2995              	.LVUS26:
 2996 0045 00       		.uleb128 0
 2997 0046 00       		.uleb128 .LVU303
 2998 0047 00       		.uleb128 .LVU303
 2999 0048 00       		.uleb128 0
 3000              	.LLST26:
 3001 0049 50020000 		.4byte	.LVL84-.Ltext0
 3002 004d 5C020000 		.4byte	.LVL85-.Ltext0
 3003 0051 0100     		.2byte	0x1
 3004 0053 51       		.byte	0x51
 3005 0054 5C020000 		.4byte	.LVL85-.Ltext0
 3006 0058 7A020000 		.4byte	.LFE45-.Ltext0
 3007 005c 0400     		.2byte	0x4
 3008 005e F3       		.byte	0xf3
 3009 005f 01       		.uleb128 0x1
 3010 0060 51       		.byte	0x51
 3011 0061 9F       		.byte	0x9f
 3012 0062 00000000 		.4byte	0
 3013 0066 00000000 		.4byte	0
 3014              	.LVUS27:
 3015 006a 02       		.uleb128 .LVU297
ARM GAS  C:\Users\ADMINI~1\AppData\Local\Temp\cc5aRzqp.s 			page 67


 3016 006b 00       		.uleb128 .LVU306
 3017 006c 00       		.uleb128 .LVU306
 3018 006d 00       		.uleb128 .LVU308
 3019 006e 00       		.uleb128 .LVU308
 3020 006f 00       		.uleb128 0
 3021              	.LLST27:
 3022 0070 50020000 		.4byte	.LVL84-.Ltext0
 3023 0074 68020000 		.4byte	.LVL86-.Ltext0
 3024 0078 0200     		.2byte	0x2
 3025 007a 30       		.byte	0x30
 3026 007b 9F       		.byte	0x9f
 3027 007c 68020000 		.4byte	.LVL86-.Ltext0
 3028 0080 6A020000 		.4byte	.LVL87-.Ltext0
 3029 0084 0500     		.2byte	0x5
 3030 0086 3F       		.byte	0x3f
 3031 0087 73       		.byte	0x73
 3032 0088 00       		.sleb128 0
 3033 0089 24       		.byte	0x24
 3034 008a 9F       		.byte	0x9f
 3035 008b 6A020000 		.4byte	.LVL87-.Ltext0
 3036 008f 7A020000 		.4byte	.LFE45-.Ltext0
 3037 0093 0100     		.2byte	0x1
 3038 0095 54       		.byte	0x54
 3039 0096 00000000 		.4byte	0
 3040 009a 00000000 		.4byte	0
 3041              	.LLST19:
 3042 009e F0010000 		.4byte	.LFB44-.Ltext0
 3043 00a2 F6010000 		.4byte	.LCFI6-.Ltext0
 3044 00a6 0200     		.2byte	0x2
 3045 00a8 7D       		.byte	0x7d
 3046 00a9 00       		.sleb128 0
 3047 00aa F6010000 		.4byte	.LCFI6-.Ltext0
 3048 00ae 50020000 		.4byte	.LFE44-.Ltext0
 3049 00b2 0200     		.2byte	0x2
 3050 00b4 7D       		.byte	0x7d
 3051 00b5 0C       		.sleb128 12
 3052 00b6 00000000 		.4byte	0
 3053 00ba 00000000 		.4byte	0
 3054              	.LVUS20:
 3055 00be 02       		.uleb128 .LVU244
 3056 00bf 00       		.uleb128 .LVU259
 3057 00c0 00       		.uleb128 .LVU259
 3058 00c1 00       		.uleb128 .LVU272
 3059 00c2 00       		.uleb128 .LVU272
 3060 00c3 00       		.uleb128 .LVU280
 3061 00c4 00       		.uleb128 .LVU280
 3062 00c5 00       		.uleb128 0
 3063              	.LLST20:
 3064 00c6 F0010000 		.4byte	.LVL72-.Ltext0
 3065 00ca 06020000 		.4byte	.LVL75-.Ltext0
 3066 00ce 0200     		.2byte	0x2
 3067 00d0 30       		.byte	0x30
 3068 00d1 9F       		.byte	0x9f
 3069 00d2 06020000 		.4byte	.LVL75-.Ltext0
 3070 00d6 1C020000 		.4byte	.LVL78-.Ltext0
 3071 00da 0100     		.2byte	0x1
 3072 00dc 54       		.byte	0x54
ARM GAS  C:\Users\ADMINI~1\AppData\Local\Temp\cc5aRzqp.s 			page 68


 3073 00dd 1C020000 		.4byte	.LVL78-.Ltext0
 3074 00e1 2A020000 		.4byte	.LVL80-.Ltext0
 3075 00e5 0700     		.2byte	0x7
 3076 00e7 70       		.byte	0x70
 3077 00e8 00       		.sleb128 0
 3078 00e9 0A       		.byte	0xa
 3079 00ea FFFF     		.2byte	0xffff
 3080 00ec 1A       		.byte	0x1a
 3081 00ed 9F       		.byte	0x9f
 3082 00ee 2A020000 		.4byte	.LVL80-.Ltext0
 3083 00f2 50020000 		.4byte	.LFE44-.Ltext0
 3084 00f6 0100     		.2byte	0x1
 3085 00f8 54       		.byte	0x54
 3086 00f9 00000000 		.4byte	0
 3087 00fd 00000000 		.4byte	0
 3088              	.LVUS21:
 3089 0101 02       		.uleb128 .LVU244
 3090 0102 00       		.uleb128 .LVU266
 3091 0103 00       		.uleb128 .LVU280
 3092 0104 01       		.uleb128 .LVU283
 3093 0105 01       		.uleb128 .LVU283
 3094 0106 00       		.uleb128 0
 3095              	.LLST21:
 3096 0107 F0010000 		.4byte	.LVL72-.Ltext0
 3097 010b 14020000 		.4byte	.LVL77-.Ltext0
 3098 010f 0200     		.2byte	0x2
 3099 0111 30       		.byte	0x30
 3100 0112 9F       		.byte	0x9f
 3101 0113 2A020000 		.4byte	.LVL80-.Ltext0
 3102 0117 2C020000 		.4byte	.LVL81-.Ltext0
 3103 011b 0200     		.2byte	0x2
 3104 011d 30       		.byte	0x30
 3105 011e 9F       		.byte	0x9f
 3106 011f 2C020000 		.4byte	.LVL81-.Ltext0
 3107 0123 50020000 		.4byte	.LFE44-.Ltext0
 3108 0127 0900     		.2byte	0x9
 3109 0129 33       		.byte	0x33
 3110 012a 70       		.byte	0x70
 3111 012b 00       		.sleb128 0
 3112 012c 40       		.byte	0x40
 3113 012d 25       		.byte	0x25
 3114 012e 3F       		.byte	0x3f
 3115 012f 1A       		.byte	0x1a
 3116 0130 24       		.byte	0x24
 3117 0131 9F       		.byte	0x9f
 3118 0132 00000000 		.4byte	0
 3119 0136 00000000 		.4byte	0
 3120              	.LVUS22:
 3121 013a 02       		.uleb128 .LVU244
 3122 013b 00       		.uleb128 .LVU253
 3123 013c 00       		.uleb128 .LVU253
 3124 013d 00       		.uleb128 0
 3125              	.LLST22:
 3126 013e F0010000 		.4byte	.LVL72-.Ltext0
 3127 0142 FE010000 		.4byte	.LVL73-.Ltext0
 3128 0146 0200     		.2byte	0x2
 3129 0148 30       		.byte	0x30
ARM GAS  C:\Users\ADMINI~1\AppData\Local\Temp\cc5aRzqp.s 			page 69


 3130 0149 9F       		.byte	0x9f
 3131 014a FE010000 		.4byte	.LVL73-.Ltext0
 3132 014e 50020000 		.4byte	.LFE44-.Ltext0
 3133 0152 0100     		.2byte	0x1
 3134 0154 53       		.byte	0x53
 3135 0155 00000000 		.4byte	0
 3136 0159 00000000 		.4byte	0
 3137              	.LVUS23:
 3138 015d 02       		.uleb128 .LVU244
 3139 015e 01       		.uleb128 .LVU256
 3140 015f 01       		.uleb128 .LVU256
 3141 0160 00       		.uleb128 0
 3142              	.LLST23:
 3143 0161 F0010000 		.4byte	.LVL72-.Ltext0
 3144 0165 00020000 		.4byte	.LVL74-.Ltext0
 3145 0169 0200     		.2byte	0x2
 3146 016b 30       		.byte	0x30
 3147 016c 9F       		.byte	0x9f
 3148 016d 00020000 		.4byte	.LVL74-.Ltext0
 3149 0171 50020000 		.4byte	.LFE44-.Ltext0
 3150 0175 0700     		.2byte	0x7
 3151 0177 70       		.byte	0x70
 3152 0178 00       		.sleb128 0
 3153 0179 40       		.byte	0x40
 3154 017a 25       		.byte	0x25
 3155 017b 3F       		.byte	0x3f
 3156 017c 1A       		.byte	0x1a
 3157 017d 9F       		.byte	0x9f
 3158 017e 00000000 		.4byte	0
 3159 0182 00000000 		.4byte	0
 3160              	.LVUS18:
 3161 0186 02       		.uleb128 .LVU224
 3162 0187 00       		.uleb128 .LVU228
 3163 0188 00       		.uleb128 .LVU228
 3164 0189 01       		.uleb128 .LVU229
 3165 018a 01       		.uleb128 .LVU229
 3166 018b 02       		.uleb128 .LVU230
 3167 018c 02       		.uleb128 .LVU230
 3168 018d 00       		.uleb128 .LVU232
 3169 018e 00       		.uleb128 .LVU234
 3170 018f 00       		.uleb128 0
 3171              	.LLST18:
 3172 0190 C8010000 		.4byte	.LVL67-.Ltext0
 3173 0194 CC010000 		.4byte	.LVL68-.Ltext0
 3174 0198 0200     		.2byte	0x2
 3175 019a 30       		.byte	0x30
 3176 019b 9F       		.byte	0x9f
 3177 019c CC010000 		.4byte	.LVL68-.Ltext0
 3178 01a0 CC010000 		.4byte	.LVL68-.Ltext0
 3179 01a4 0100     		.2byte	0x1
 3180 01a6 53       		.byte	0x53
 3181 01a7 CC010000 		.4byte	.LVL68-.Ltext0
 3182 01ab CC010000 		.4byte	.LVL68-.Ltext0
 3183 01af 0700     		.2byte	0x7
 3184 01b1 73       		.byte	0x73
 3185 01b2 00       		.sleb128 0
 3186 01b3 0A       		.byte	0xa
ARM GAS  C:\Users\ADMINI~1\AppData\Local\Temp\cc5aRzqp.s 			page 70


 3187 01b4 80FF     		.2byte	0xff80
 3188 01b6 1A       		.byte	0x1a
 3189 01b7 9F       		.byte	0x9f
 3190 01b8 CC010000 		.4byte	.LVL68-.Ltext0
 3191 01bc D0010000 		.4byte	.LVL69-.Ltext0
 3192 01c0 0C00     		.2byte	0xc
 3193 01c2 73       		.byte	0x73
 3194 01c3 00       		.sleb128 0
 3195 01c4 0A       		.byte	0xa
 3196 01c5 80FF     		.2byte	0xff80
 3197 01c7 1A       		.byte	0x1a
 3198 01c8 70       		.byte	0x70
 3199 01c9 00       		.sleb128 0
 3200 01ca 34       		.byte	0x34
 3201 01cb 24       		.byte	0x24
 3202 01cc 21       		.byte	0x21
 3203 01cd 9F       		.byte	0x9f
 3204 01ce DA010000 		.4byte	.LVL70-.Ltext0
 3205 01d2 E4010000 		.4byte	.LFE42-.Ltext0
 3206 01d6 0100     		.2byte	0x1
 3207 01d8 53       		.byte	0x53
 3208 01d9 00000000 		.4byte	0
 3209 01dd 00000000 		.4byte	0
 3210              	.LVUS17:
 3211 01e1 02       		.uleb128 .LVU207
 3212 01e2 00       		.uleb128 .LVU211
 3213 01e3 00       		.uleb128 .LVU211
 3214 01e4 00       		.uleb128 .LVU219
 3215              	.LLST17:
 3216 01e5 B8010000 		.4byte	.LVL64-.Ltext0
 3217 01e9 BC010000 		.4byte	.LVL65-.Ltext0
 3218 01ed 0400     		.2byte	0x4
 3219 01ef 40       		.byte	0x40
 3220 01f0 3C       		.byte	0x3c
 3221 01f1 24       		.byte	0x24
 3222 01f2 9F       		.byte	0x9f
 3223 01f3 BC010000 		.4byte	.LVL65-.Ltext0
 3224 01f7 C4010000 		.4byte	.LVL66-.Ltext0
 3225 01fb 0100     		.2byte	0x1
 3226 01fd 53       		.byte	0x53
 3227 01fe 00000000 		.4byte	0
 3228 0202 00000000 		.4byte	0
 3229              	.LVUS16:
 3230 0206 00       		.uleb128 0
 3231 0207 00       		.uleb128 .LVU176
 3232 0208 00       		.uleb128 .LVU176
 3233 0209 00       		.uleb128 0
 3234              	.LLST16:
 3235 020a 9C010000 		.4byte	.LVL58-.Ltext0
 3236 020e 9E010000 		.4byte	.LVL59-.Ltext0
 3237 0212 0100     		.2byte	0x1
 3238 0214 50       		.byte	0x50
 3239 0215 9E010000 		.4byte	.LVL59-.Ltext0
 3240 0219 A2010000 		.4byte	.LFE36-.Ltext0
 3241 021d 0400     		.2byte	0x4
 3242 021f F3       		.byte	0xf3
 3243 0220 01       		.uleb128 0x1
ARM GAS  C:\Users\ADMINI~1\AppData\Local\Temp\cc5aRzqp.s 			page 71


 3244 0221 50       		.byte	0x50
 3245 0222 9F       		.byte	0x9f
 3246 0223 00000000 		.4byte	0
 3247 0227 00000000 		.4byte	0
 3248              	.LVUS14:
 3249 022b 00       		.uleb128 0
 3250 022c 00       		.uleb128 .LVU171
 3251 022d 00       		.uleb128 .LVU171
 3252 022e 00       		.uleb128 0
 3253              	.LLST14:
 3254 022f 90010000 		.4byte	.LVL55-.Ltext0
 3255 0233 98010000 		.4byte	.LVL57-.Ltext0
 3256 0237 0100     		.2byte	0x1
 3257 0239 50       		.byte	0x50
 3258 023a 98010000 		.4byte	.LVL57-.Ltext0
 3259 023e 9C010000 		.4byte	.LFE35-.Ltext0
 3260 0242 0400     		.2byte	0x4
 3261 0244 F3       		.byte	0xf3
 3262 0245 01       		.uleb128 0x1
 3263 0246 50       		.byte	0x50
 3264 0247 9F       		.byte	0x9f
 3265 0248 00000000 		.4byte	0
 3266 024c 00000000 		.4byte	0
 3267              	.LVUS15:
 3268 0250 02       		.uleb128 .LVU164
 3269 0251 00       		.uleb128 .LVU168
 3270 0252 00       		.uleb128 .LVU168
 3271 0253 00       		.uleb128 0
 3272              	.LLST15:
 3273 0254 90010000 		.4byte	.LVL55-.Ltext0
 3274 0258 92010000 		.4byte	.LVL56-.Ltext0
 3275 025c 0200     		.2byte	0x2
 3276 025e 30       		.byte	0x30
 3277 025f 9F       		.byte	0x9f
 3278 0260 92010000 		.4byte	.LVL56-.Ltext0
 3279 0264 9C010000 		.4byte	.LFE35-.Ltext0
 3280 0268 0800     		.2byte	0x8
 3281 026a 71       		.byte	0x71
 3282 026b 00       		.sleb128 0
 3283 026c 73       		.byte	0x73
 3284 026d 00       		.sleb128 0
 3285 026e 1A       		.byte	0x1a
 3286 026f 30       		.byte	0x30
 3287 0270 2E       		.byte	0x2e
 3288 0271 9F       		.byte	0x9f
 3289 0272 00000000 		.4byte	0
 3290 0276 00000000 		.4byte	0
 3291              	.LVUS13:
 3292 027a 00       		.uleb128 0
 3293 027b 00       		.uleb128 .LVU161
 3294 027c 00       		.uleb128 .LVU161
 3295 027d 00       		.uleb128 0
 3296              	.LLST13:
 3297 027e 8A010000 		.4byte	.LVL53-.Ltext0
 3298 0282 8C010000 		.4byte	.LVL54-.Ltext0
 3299 0286 0100     		.2byte	0x1
 3300 0288 50       		.byte	0x50
ARM GAS  C:\Users\ADMINI~1\AppData\Local\Temp\cc5aRzqp.s 			page 72


 3301 0289 8C010000 		.4byte	.LVL54-.Ltext0
 3302 028d 90010000 		.4byte	.LFE34-.Ltext0
 3303 0291 0400     		.2byte	0x4
 3304 0293 F3       		.byte	0xf3
 3305 0294 01       		.uleb128 0x1
 3306 0295 50       		.byte	0x50
 3307 0296 9F       		.byte	0x9f
 3308 0297 00000000 		.4byte	0
 3309 029b 00000000 		.4byte	0
 3310              	.LVUS11:
 3311 029f 00       		.uleb128 0
 3312 02a0 00       		.uleb128 .LVU156
 3313 02a1 00       		.uleb128 .LVU156
 3314 02a2 00       		.uleb128 0
 3315              	.LLST11:
 3316 02a3 7E010000 		.4byte	.LVL50-.Ltext0
 3317 02a7 86010000 		.4byte	.LVL52-.Ltext0
 3318 02ab 0100     		.2byte	0x1
 3319 02ad 50       		.byte	0x50
 3320 02ae 86010000 		.4byte	.LVL52-.Ltext0
 3321 02b2 8A010000 		.4byte	.LFE33-.Ltext0
 3322 02b6 0400     		.2byte	0x4
 3323 02b8 F3       		.byte	0xf3
 3324 02b9 01       		.uleb128 0x1
 3325 02ba 50       		.byte	0x50
 3326 02bb 9F       		.byte	0x9f
 3327 02bc 00000000 		.4byte	0
 3328 02c0 00000000 		.4byte	0
 3329              	.LVUS12:
 3330 02c4 02       		.uleb128 .LVU149
 3331 02c5 00       		.uleb128 .LVU153
 3332 02c6 00       		.uleb128 .LVU153
 3333 02c7 00       		.uleb128 0
 3334              	.LLST12:
 3335 02c8 7E010000 		.4byte	.LVL50-.Ltext0
 3336 02cc 80010000 		.4byte	.LVL51-.Ltext0
 3337 02d0 0200     		.2byte	0x2
 3338 02d2 30       		.byte	0x30
 3339 02d3 9F       		.byte	0x9f
 3340 02d4 80010000 		.4byte	.LVL51-.Ltext0
 3341 02d8 8A010000 		.4byte	.LFE33-.Ltext0
 3342 02dc 0800     		.2byte	0x8
 3343 02de 71       		.byte	0x71
 3344 02df 00       		.sleb128 0
 3345 02e0 73       		.byte	0x73
 3346 02e1 00       		.sleb128 0
 3347 02e2 1A       		.byte	0x1a
 3348 02e3 30       		.byte	0x30
 3349 02e4 2E       		.byte	0x2e
 3350 02e5 9F       		.byte	0x9f
 3351 02e6 00000000 		.4byte	0
 3352 02ea 00000000 		.4byte	0
 3353              	.LLST3:
 3354 02ee CE000000 		.4byte	.LFB31-.Ltext0
 3355 02f2 D2000000 		.4byte	.LCFI5-.Ltext0
 3356 02f6 0200     		.2byte	0x2
 3357 02f8 7D       		.byte	0x7d
ARM GAS  C:\Users\ADMINI~1\AppData\Local\Temp\cc5aRzqp.s 			page 73


 3358 02f9 00       		.sleb128 0
 3359 02fa D2000000 		.4byte	.LCFI5-.Ltext0
 3360 02fe 70010000 		.4byte	.LFE31-.Ltext0
 3361 0302 0200     		.2byte	0x2
 3362 0304 7D       		.byte	0x7d
 3363 0305 18       		.sleb128 24
 3364 0306 00000000 		.4byte	0
 3365 030a 00000000 		.4byte	0
 3366              	.LVUS4:
 3367 030e 00       		.uleb128 0
 3368 030f 00       		.uleb128 .LVU68
 3369 0310 00       		.uleb128 .LVU68
 3370 0311 00       		.uleb128 0
 3371              	.LLST4:
 3372 0312 CE000000 		.4byte	.LVL24-.Ltext0
 3373 0316 EA000000 		.4byte	.LVL28-.Ltext0
 3374 031a 0100     		.2byte	0x1
 3375 031c 51       		.byte	0x51
 3376 031d EA000000 		.4byte	.LVL28-.Ltext0
 3377 0321 70010000 		.4byte	.LFE31-.Ltext0
 3378 0325 0400     		.2byte	0x4
 3379 0327 F3       		.byte	0xf3
 3380 0328 01       		.uleb128 0x1
 3381 0329 51       		.byte	0x51
 3382 032a 9F       		.byte	0x9f
 3383 032b 00000000 		.4byte	0
 3384 032f 00000000 		.4byte	0
 3385              	.LVUS5:
 3386 0333 02       		.uleb128 .LVU50
 3387 0334 00       		.uleb128 .LVU59
 3388 0335 00       		.uleb128 .LVU59
 3389 0336 03       		.uleb128 .LVU62
 3390 0337 03       		.uleb128 .LVU62
 3391 0338 00       		.uleb128 .LVU63
 3392 0339 00       		.uleb128 .LVU63
 3393 033a 00       		.uleb128 .LVU65
 3394              	.LLST5:
 3395 033b CE000000 		.4byte	.LVL24-.Ltext0
 3396 033f E0000000 		.4byte	.LVL25-.Ltext0
 3397 0343 0200     		.2byte	0x2
 3398 0345 30       		.byte	0x30
 3399 0346 9F       		.byte	0x9f
 3400 0347 E0000000 		.4byte	.LVL25-.Ltext0
 3401 034b E0000000 		.4byte	.LVL25-.Ltext0
 3402 034f 0600     		.2byte	0x6
 3403 0351 75       		.byte	0x75
 3404 0352 00       		.sleb128 0
 3405 0353 08       		.byte	0x8
 3406 0354 FF       		.byte	0xff
 3407 0355 1A       		.byte	0x1a
 3408 0356 9F       		.byte	0x9f
 3409 0357 E0000000 		.4byte	.LVL25-.Ltext0
 3410 035b E4000000 		.4byte	.LVL26-.Ltext0
 3411 035f 0900     		.2byte	0x9
 3412 0361 75       		.byte	0x75
 3413 0362 00       		.sleb128 0
 3414 0363 72       		.byte	0x72
ARM GAS  C:\Users\ADMINI~1\AppData\Local\Temp\cc5aRzqp.s 			page 74


 3415 0364 00       		.sleb128 0
 3416 0365 21       		.byte	0x21
 3417 0366 08       		.byte	0x8
 3418 0367 FF       		.byte	0xff
 3419 0368 1A       		.byte	0x1a
 3420 0369 9F       		.byte	0x9f
 3421 036a E4000000 		.4byte	.LVL26-.Ltext0
 3422 036e E6000000 		.4byte	.LVL27-.Ltext0
 3423 0372 0B00     		.2byte	0xb
 3424 0374 73       		.byte	0x73
 3425 0375 00       		.sleb128 0
 3426 0376 3F       		.byte	0x3f
 3427 0377 1A       		.byte	0x1a
 3428 0378 72       		.byte	0x72
 3429 0379 00       		.sleb128 0
 3430 037a 21       		.byte	0x21
 3431 037b 08       		.byte	0x8
 3432 037c FF       		.byte	0xff
 3433 037d 1A       		.byte	0x1a
 3434 037e 9F       		.byte	0x9f
 3435 037f 00000000 		.4byte	0
 3436 0383 00000000 		.4byte	0
 3437              	.LVUS6:
 3438 0387 02       		.uleb128 .LVU50
 3439 0388 02       		.uleb128 .LVU73
 3440 0389 01       		.uleb128 .LVU76
 3441 038a 00       		.uleb128 .LVU97
 3442 038b 01       		.uleb128 .LVU109
 3443 038c 00       		.uleb128 .LVU131
 3444 038d 00       		.uleb128 .LVU132
 3445 038e 00       		.uleb128 .LVU136
 3446 038f 00       		.uleb128 .LVU136
 3447 0390 00       		.uleb128 0
 3448              	.LLST6:
 3449 0391 CE000000 		.4byte	.LVL24-.Ltext0
 3450 0395 F4000000 		.4byte	.LVL29-.Ltext0
 3451 0399 0200     		.2byte	0x2
 3452 039b 30       		.byte	0x30
 3453 039c 9F       		.byte	0x9f
 3454 039d F8000000 		.4byte	.LVL30-.Ltext0
 3455 03a1 1E010000 		.4byte	.LVL37-.Ltext0
 3456 03a5 0600     		.2byte	0x6
 3457 03a7 77       		.byte	0x77
 3458 03a8 00       		.sleb128 0
 3459 03a9 76       		.byte	0x76
 3460 03aa 00       		.sleb128 0
 3461 03ab 1A       		.byte	0x1a
 3462 03ac 9F       		.byte	0x9f
 3463 03ad 36010000 		.4byte	.LVL39-.Ltext0
 3464 03b1 5C010000 		.4byte	.LVL46-.Ltext0
 3465 03b5 0600     		.2byte	0x6
 3466 03b7 77       		.byte	0x77
 3467 03b8 00       		.sleb128 0
 3468 03b9 74       		.byte	0x74
 3469 03ba 00       		.sleb128 0
 3470 03bb 1A       		.byte	0x1a
 3471 03bc 9F       		.byte	0x9f
ARM GAS  C:\Users\ADMINI~1\AppData\Local\Temp\cc5aRzqp.s 			page 75


 3472 03bd 60010000 		.4byte	.LVL47-.Ltext0
 3473 03c1 68010000 		.4byte	.LVL48-.Ltext0
 3474 03c5 0600     		.2byte	0x6
 3475 03c7 77       		.byte	0x77
 3476 03c8 00       		.sleb128 0
 3477 03c9 76       		.byte	0x76
 3478 03ca 00       		.sleb128 0
 3479 03cb 1A       		.byte	0x1a
 3480 03cc 9F       		.byte	0x9f
 3481 03cd 68010000 		.4byte	.LVL48-.Ltext0
 3482 03d1 70010000 		.4byte	.LFE31-.Ltext0
 3483 03d5 0600     		.2byte	0x6
 3484 03d7 77       		.byte	0x77
 3485 03d8 00       		.sleb128 0
 3486 03d9 74       		.byte	0x74
 3487 03da 00       		.sleb128 0
 3488 03db 1A       		.byte	0x1a
 3489 03dc 9F       		.byte	0x9f
 3490 03dd 00000000 		.4byte	0
 3491 03e1 00000000 		.4byte	0
 3492              	.LVUS7:
 3493 03e5 02       		.uleb128 .LVU50
 3494 03e6 02       		.uleb128 .LVU73
 3495 03e7 02       		.uleb128 .LVU73
 3496 03e8 00       		.uleb128 .LVU97
 3497 03e9 01       		.uleb128 .LVU105
 3498 03ea 02       		.uleb128 .LVU106
 3499 03eb 02       		.uleb128 .LVU106
 3500 03ec 00       		.uleb128 .LVU131
 3501 03ed 00       		.uleb128 .LVU132
 3502 03ee 00       		.uleb128 0
 3503              	.LLST7:
 3504 03ef CE000000 		.4byte	.LVL24-.Ltext0
 3505 03f3 F4000000 		.4byte	.LVL29-.Ltext0
 3506 03f7 0200     		.2byte	0x2
 3507 03f9 30       		.byte	0x30
 3508 03fa 9F       		.byte	0x9f
 3509 03fb F4000000 		.4byte	.LVL29-.Ltext0
 3510 03ff 1E010000 		.4byte	.LVL37-.Ltext0
 3511 0403 0100     		.2byte	0x1
 3512 0405 51       		.byte	0x51
 3513 0406 2E010000 		.4byte	.LVL38-.Ltext0
 3514 040a 2E010000 		.4byte	.LVL38-.Ltext0
 3515 040e 0200     		.2byte	0x2
 3516 0410 30       		.byte	0x30
 3517 0411 9F       		.byte	0x9f
 3518 0412 2E010000 		.4byte	.LVL38-.Ltext0
 3519 0416 5C010000 		.4byte	.LVL46-.Ltext0
 3520 041a 0100     		.2byte	0x1
 3521 041c 51       		.byte	0x51
 3522 041d 60010000 		.4byte	.LVL47-.Ltext0
 3523 0421 70010000 		.4byte	.LFE31-.Ltext0
 3524 0425 0100     		.2byte	0x1
 3525 0427 51       		.byte	0x51
 3526 0428 00000000 		.4byte	0
 3527 042c 00000000 		.4byte	0
 3528              	.LVUS8:
ARM GAS  C:\Users\ADMINI~1\AppData\Local\Temp\cc5aRzqp.s 			page 76


 3529 0430 02       		.uleb128 .LVU50
 3530 0431 02       		.uleb128 .LVU73
 3531 0432 00       		.uleb128 .LVU75
 3532 0433 00       		.uleb128 .LVU79
 3533 0434 00       		.uleb128 .LVU79
 3534 0435 00       		.uleb128 .LVU85
 3535 0436 00       		.uleb128 .LVU85
 3536 0437 00       		.uleb128 .LVU91
 3537 0438 00       		.uleb128 .LVU108
 3538 0439 00       		.uleb128 .LVU112
 3539 043a 00       		.uleb128 .LVU112
 3540 043b 00       		.uleb128 .LVU118
 3541 043c 00       		.uleb128 .LVU118
 3542 043d 01       		.uleb128 .LVU125
 3543 043e 00       		.uleb128 .LVU132
 3544 043f 00       		.uleb128 0
 3545              	.LLST8:
 3546 0440 CE000000 		.4byte	.LVL24-.Ltext0
 3547 0444 F4000000 		.4byte	.LVL29-.Ltext0
 3548 0448 0200     		.2byte	0x2
 3549 044a 30       		.byte	0x30
 3550 044b 9F       		.byte	0x9f
 3551 044c F8000000 		.4byte	.LVL30-.Ltext0
 3552 0450 00010000 		.4byte	.LVL31-.Ltext0
 3553 0454 0100     		.2byte	0x1
 3554 0456 56       		.byte	0x56
 3555 0457 00010000 		.4byte	.LVL31-.Ltext0
 3556 045b 0C010000 		.4byte	.LVL33-.Ltext0
 3557 045f 0100     		.2byte	0x1
 3558 0461 54       		.byte	0x54
 3559 0462 0C010000 		.4byte	.LVL33-.Ltext0
 3560 0466 16010000 		.4byte	.LVL35-.Ltext0
 3561 046a 0500     		.2byte	0x5
 3562 046c 71       		.byte	0x71
 3563 046d 00       		.sleb128 0
 3564 046e 32       		.byte	0x32
 3565 046f 24       		.byte	0x24
 3566 0470 9F       		.byte	0x9f
 3567 0471 36010000 		.4byte	.LVL39-.Ltext0
 3568 0475 3E010000 		.4byte	.LVL40-.Ltext0
 3569 0479 0100     		.2byte	0x1
 3570 047b 54       		.byte	0x54
 3571 047c 3E010000 		.4byte	.LVL40-.Ltext0
 3572 0480 4A010000 		.4byte	.LVL42-.Ltext0
 3573 0484 0100     		.2byte	0x1
 3574 0486 56       		.byte	0x56
 3575 0487 4A010000 		.4byte	.LVL42-.Ltext0
 3576 048b 54010000 		.4byte	.LVL44-.Ltext0
 3577 048f 0500     		.2byte	0x5
 3578 0491 71       		.byte	0x71
 3579 0492 00       		.sleb128 0
 3580 0493 32       		.byte	0x32
 3581 0494 24       		.byte	0x24
 3582 0495 9F       		.byte	0x9f
 3583 0496 60010000 		.4byte	.LVL47-.Ltext0
 3584 049a 70010000 		.4byte	.LFE31-.Ltext0
 3585 049e 0500     		.2byte	0x5
ARM GAS  C:\Users\ADMINI~1\AppData\Local\Temp\cc5aRzqp.s 			page 77


 3586 04a0 71       		.byte	0x71
 3587 04a1 00       		.sleb128 0
 3588 04a2 32       		.byte	0x32
 3589 04a3 24       		.byte	0x24
 3590 04a4 9F       		.byte	0x9f
 3591 04a5 00000000 		.4byte	0
 3592 04a9 00000000 		.4byte	0
 3593              	.LVUS9:
 3594 04ad 03       		.uleb128 .LVU51
 3595 04ae 00       		.uleb128 .LVU71
 3596 04af 00       		.uleb128 .LVU71
 3597 04b0 00       		.uleb128 .LVU97
 3598 04b1 00       		.uleb128 .LVU104
 3599 04b2 00       		.uleb128 .LVU131
 3600 04b3 00       		.uleb128 .LVU132
 3601 04b4 00       		.uleb128 0
 3602              	.LLST9:
 3603 04b5 CE000000 		.4byte	.LVL24-.Ltext0
 3604 04b9 F4000000 		.4byte	.LVL29-.Ltext0
 3605 04bd 0200     		.2byte	0x2
 3606 04bf 30       		.byte	0x30
 3607 04c0 9F       		.byte	0x9f
 3608 04c1 F4000000 		.4byte	.LVL29-.Ltext0
 3609 04c5 1E010000 		.4byte	.LVL37-.Ltext0
 3610 04c9 0100     		.2byte	0x1
 3611 04cb 52       		.byte	0x52
 3612 04cc 2E010000 		.4byte	.LVL38-.Ltext0
 3613 04d0 5C010000 		.4byte	.LVL46-.Ltext0
 3614 04d4 0100     		.2byte	0x1
 3615 04d6 52       		.byte	0x52
 3616 04d7 60010000 		.4byte	.LVL47-.Ltext0
 3617 04db 70010000 		.4byte	.LFE31-.Ltext0
 3618 04df 0100     		.2byte	0x1
 3619 04e1 52       		.byte	0x52
 3620 04e2 00000000 		.4byte	0
 3621 04e6 00000000 		.4byte	0
 3622              	.LVUS10:
 3623 04ea 03       		.uleb128 .LVU51
 3624 04eb 02       		.uleb128 .LVU73
 3625 04ec 01       		.uleb128 .LVU80
 3626 04ed 00       		.uleb128 .LVU85
 3627 04ee 00       		.uleb128 .LVU85
 3628 04ef 00       		.uleb128 .LVU91
 3629 04f0 01       		.uleb128 .LVU113
 3630 04f1 00       		.uleb128 .LVU118
 3631 04f2 00       		.uleb128 .LVU118
 3632 04f3 01       		.uleb128 .LVU125
 3633 04f4 00       		.uleb128 .LVU132
 3634 04f5 00       		.uleb128 0
 3635              	.LLST10:
 3636 04f6 CE000000 		.4byte	.LVL24-.Ltext0
 3637 04fa F4000000 		.4byte	.LVL29-.Ltext0
 3638 04fe 0200     		.2byte	0x2
 3639 0500 30       		.byte	0x30
 3640 0501 9F       		.byte	0x9f
 3641 0502 00010000 		.4byte	.LVL31-.Ltext0
 3642 0506 0C010000 		.4byte	.LVL33-.Ltext0
ARM GAS  C:\Users\ADMINI~1\AppData\Local\Temp\cc5aRzqp.s 			page 78


 3643 050a 0500     		.2byte	0x5
 3644 050c 3F       		.byte	0x3f
 3645 050d 74       		.byte	0x74
 3646 050e 00       		.sleb128 0
 3647 050f 24       		.byte	0x24
 3648 0510 9F       		.byte	0x9f
 3649 0511 0C010000 		.4byte	.LVL33-.Ltext0
 3650 0515 16010000 		.4byte	.LVL35-.Ltext0
 3651 0519 0700     		.2byte	0x7
 3652 051b 3F       		.byte	0x3f
 3653 051c 71       		.byte	0x71
 3654 051d 00       		.sleb128 0
 3655 051e 32       		.byte	0x32
 3656 051f 24       		.byte	0x24
 3657 0520 24       		.byte	0x24
 3658 0521 9F       		.byte	0x9f
 3659 0522 3E010000 		.4byte	.LVL40-.Ltext0
 3660 0526 4A010000 		.4byte	.LVL42-.Ltext0
 3661 052a 0500     		.2byte	0x5
 3662 052c 3F       		.byte	0x3f
 3663 052d 76       		.byte	0x76
 3664 052e 00       		.sleb128 0
 3665 052f 24       		.byte	0x24
 3666 0530 9F       		.byte	0x9f
 3667 0531 4A010000 		.4byte	.LVL42-.Ltext0
 3668 0535 54010000 		.4byte	.LVL44-.Ltext0
 3669 0539 0700     		.2byte	0x7
 3670 053b 3F       		.byte	0x3f
 3671 053c 71       		.byte	0x71
 3672 053d 00       		.sleb128 0
 3673 053e 32       		.byte	0x32
 3674 053f 24       		.byte	0x24
 3675 0540 24       		.byte	0x24
 3676 0541 9F       		.byte	0x9f
 3677 0542 60010000 		.4byte	.LVL47-.Ltext0
 3678 0546 70010000 		.4byte	.LFE31-.Ltext0
 3679 054a 0700     		.2byte	0x7
 3680 054c 3F       		.byte	0x3f
 3681 054d 71       		.byte	0x71
 3682 054e 00       		.sleb128 0
 3683 054f 32       		.byte	0x32
 3684 0550 24       		.byte	0x24
 3685 0551 24       		.byte	0x24
 3686 0552 9F       		.byte	0x9f
 3687 0553 00000000 		.4byte	0
 3688 0557 00000000 		.4byte	0
 3689              	.LLST2:
 3690 055b B8000000 		.4byte	.LFB30-.Ltext0
 3691 055f BC000000 		.4byte	.LCFI3-.Ltext0
 3692 0563 0200     		.2byte	0x2
 3693 0565 7D       		.byte	0x7d
 3694 0566 00       		.sleb128 0
 3695 0567 BC000000 		.4byte	.LCFI3-.Ltext0
 3696 056b C6000000 		.4byte	.LCFI4-.Ltext0
 3697 056f 0200     		.2byte	0x2
 3698 0571 7D       		.byte	0x7d
 3699 0572 08       		.sleb128 8
ARM GAS  C:\Users\ADMINI~1\AppData\Local\Temp\cc5aRzqp.s 			page 79


 3700 0573 C6000000 		.4byte	.LCFI4-.Ltext0
 3701 0577 CE000000 		.4byte	.LFE30-.Ltext0
 3702 057b 0200     		.2byte	0x2
 3703 057d 7D       		.byte	0x7d
 3704 057e 00       		.sleb128 0
 3705 057f 00000000 		.4byte	0
 3706 0583 00000000 		.4byte	0
 3707              	.LLST0:
 3708 0587 00000000 		.4byte	.LFB29-.Ltext0
 3709 058b 02000000 		.4byte	.LCFI0-.Ltext0
 3710 058f 0200     		.2byte	0x2
 3711 0591 7D       		.byte	0x7d
 3712 0592 00       		.sleb128 0
 3713 0593 02000000 		.4byte	.LCFI0-.Ltext0
 3714 0597 18000000 		.4byte	.LCFI1-.Ltext0
 3715 059b 0200     		.2byte	0x2
 3716 059d 7D       		.byte	0x7d
 3717 059e 08       		.sleb128 8
 3718 059f 18000000 		.4byte	.LCFI1-.Ltext0
 3719 05a3 1C000000 		.4byte	.LCFI2-.Ltext0
 3720 05a7 0200     		.2byte	0x2
 3721 05a9 7D       		.byte	0x7d
 3722 05aa 00       		.sleb128 0
 3723 05ab 1C000000 		.4byte	.LCFI2-.Ltext0
 3724 05af B8000000 		.4byte	.LFE29-.Ltext0
 3725 05b3 0200     		.2byte	0x2
 3726 05b5 7D       		.byte	0x7d
 3727 05b6 08       		.sleb128 8
 3728 05b7 00000000 		.4byte	0
 3729 05bb 00000000 		.4byte	0
 3730              	.LVUS1:
 3731 05bf 00       		.uleb128 0
 3732 05c0 00       		.uleb128 .LVU6
 3733 05c1 00       		.uleb128 .LVU6
 3734 05c2 00       		.uleb128 .LVU10
 3735 05c3 00       		.uleb128 .LVU10
 3736 05c4 00       		.uleb128 .LVU13
 3737 05c5 00       		.uleb128 .LVU13
 3738 05c6 00       		.uleb128 .LVU15
 3739 05c7 00       		.uleb128 .LVU15
 3740 05c8 00       		.uleb128 .LVU18
 3741 05c9 00       		.uleb128 .LVU18
 3742 05ca 00       		.uleb128 .LVU20
 3743 05cb 00       		.uleb128 .LVU20
 3744 05cc 00       		.uleb128 .LVU23
 3745 05cd 00       		.uleb128 .LVU23
 3746 05ce 00       		.uleb128 .LVU25
 3747 05cf 00       		.uleb128 .LVU25
 3748 05d0 00       		.uleb128 .LVU28
 3749 05d1 00       		.uleb128 .LVU28
 3750 05d2 00       		.uleb128 .LVU30
 3751 05d3 00       		.uleb128 .LVU30
 3752 05d4 00       		.uleb128 .LVU33
 3753 05d5 00       		.uleb128 .LVU33
 3754 05d6 00       		.uleb128 .LVU35
 3755 05d7 00       		.uleb128 .LVU35
 3756 05d8 00       		.uleb128 .LVU38
ARM GAS  C:\Users\ADMINI~1\AppData\Local\Temp\cc5aRzqp.s 			page 80


 3757 05d9 00       		.uleb128 .LVU38
 3758 05da 00       		.uleb128 .LVU40
 3759 05db 00       		.uleb128 .LVU40
 3760 05dc 00       		.uleb128 0
 3761              	.LLST1:
 3762 05dd 00000000 		.4byte	.LVL0-.Ltext0
 3763 05e1 0C000000 		.4byte	.LVL1-.Ltext0
 3764 05e5 0100     		.2byte	0x1
 3765 05e7 50       		.byte	0x50
 3766 05e8 0C000000 		.4byte	.LVL1-.Ltext0
 3767 05ec 1C000000 		.4byte	.LVL3-.Ltext0
 3768 05f0 0400     		.2byte	0x4
 3769 05f2 F3       		.byte	0xf3
 3770 05f3 01       		.uleb128 0x1
 3771 05f4 50       		.byte	0x50
 3772 05f5 9F       		.byte	0x9f
 3773 05f6 1C000000 		.4byte	.LVL3-.Ltext0
 3774 05fa 26000000 		.4byte	.LVL4-.Ltext0
 3775 05fe 0100     		.2byte	0x1
 3776 0600 50       		.byte	0x50
 3777 0601 26000000 		.4byte	.LVL4-.Ltext0
 3778 0605 30000000 		.4byte	.LVL6-.Ltext0
 3779 0609 0400     		.2byte	0x4
 3780 060b F3       		.byte	0xf3
 3781 060c 01       		.uleb128 0x1
 3782 060d 50       		.byte	0x50
 3783 060e 9F       		.byte	0x9f
 3784 060f 30000000 		.4byte	.LVL6-.Ltext0
 3785 0613 3A000000 		.4byte	.LVL7-.Ltext0
 3786 0617 0100     		.2byte	0x1
 3787 0619 50       		.byte	0x50
 3788 061a 3A000000 		.4byte	.LVL7-.Ltext0
 3789 061e 44000000 		.4byte	.LVL9-.Ltext0
 3790 0622 0400     		.2byte	0x4
 3791 0624 F3       		.byte	0xf3
 3792 0625 01       		.uleb128 0x1
 3793 0626 50       		.byte	0x50
 3794 0627 9F       		.byte	0x9f
 3795 0628 44000000 		.4byte	.LVL9-.Ltext0
 3796 062c 4E000000 		.4byte	.LVL10-.Ltext0
 3797 0630 0100     		.2byte	0x1
 3798 0632 50       		.byte	0x50
 3799 0633 4E000000 		.4byte	.LVL10-.Ltext0
 3800 0637 58000000 		.4byte	.LVL12-.Ltext0
 3801 063b 0400     		.2byte	0x4
 3802 063d F3       		.byte	0xf3
 3803 063e 01       		.uleb128 0x1
 3804 063f 50       		.byte	0x50
 3805 0640 9F       		.byte	0x9f
 3806 0641 58000000 		.4byte	.LVL12-.Ltext0
 3807 0645 62000000 		.4byte	.LVL13-.Ltext0
 3808 0649 0100     		.2byte	0x1
 3809 064b 50       		.byte	0x50
 3810 064c 62000000 		.4byte	.LVL13-.Ltext0
 3811 0650 6C000000 		.4byte	.LVL15-.Ltext0
 3812 0654 0400     		.2byte	0x4
 3813 0656 F3       		.byte	0xf3
ARM GAS  C:\Users\ADMINI~1\AppData\Local\Temp\cc5aRzqp.s 			page 81


 3814 0657 01       		.uleb128 0x1
 3815 0658 50       		.byte	0x50
 3816 0659 9F       		.byte	0x9f
 3817 065a 6C000000 		.4byte	.LVL15-.Ltext0
 3818 065e 76000000 		.4byte	.LVL16-.Ltext0
 3819 0662 0100     		.2byte	0x1
 3820 0664 50       		.byte	0x50
 3821 0665 76000000 		.4byte	.LVL16-.Ltext0
 3822 0669 80000000 		.4byte	.LVL18-.Ltext0
 3823 066d 0400     		.2byte	0x4
 3824 066f F3       		.byte	0xf3
 3825 0670 01       		.uleb128 0x1
 3826 0671 50       		.byte	0x50
 3827 0672 9F       		.byte	0x9f
 3828 0673 80000000 		.4byte	.LVL18-.Ltext0
 3829 0677 8C000000 		.4byte	.LVL19-.Ltext0
 3830 067b 0100     		.2byte	0x1
 3831 067d 50       		.byte	0x50
 3832 067e 8C000000 		.4byte	.LVL19-.Ltext0
 3833 0682 98000000 		.4byte	.LVL21-.Ltext0
 3834 0686 0400     		.2byte	0x4
 3835 0688 F3       		.byte	0xf3
 3836 0689 01       		.uleb128 0x1
 3837 068a 50       		.byte	0x50
 3838 068b 9F       		.byte	0x9f
 3839 068c 98000000 		.4byte	.LVL21-.Ltext0
 3840 0690 B8000000 		.4byte	.LFE29-.Ltext0
 3841 0694 0100     		.2byte	0x1
 3842 0696 50       		.byte	0x50
 3843 0697 00000000 		.4byte	0
 3844 069b 00000000 		.4byte	0
 3845              		.section	.debug_aranges,"",%progbits
 3846 0000 1C000000 		.4byte	0x1c
 3847 0004 0200     		.2byte	0x2
 3848 0006 00000000 		.4byte	.Ldebug_info0
 3849 000a 04       		.byte	0x4
 3850 000b 00       		.byte	0
 3851 000c 0000     		.2byte	0
 3852 000e 0000     		.2byte	0
 3853 0010 00000000 		.4byte	.Ltext0
 3854 0014 88020000 		.4byte	.Letext0-.Ltext0
 3855 0018 00000000 		.4byte	0
 3856 001c 00000000 		.4byte	0
 3857              		.section	.debug_line,"",%progbits
 3858              	.Ldebug_line0:
 3859 0000 74060000 		.section	.debug_str,"MS",%progbits,1
 3859      0300C101 
 3859      00000201 
 3859      FB0E0D00 
 3859      01010101 
 3860              	.LASF20:
 3861 0000 4750494F 		.ascii	"GPIO_TypeDef\000"
 3861      5F547970 
 3861      65446566 
 3861      00
 3862              	.LASF78:
 3863 000d 70696E70 		.ascii	"pinpos\000"
ARM GAS  C:\Users\ADMINI~1\AppData\Local\Temp\cc5aRzqp.s 			page 82


 3863      6F7300
 3864              	.LASF40:
 3865 0014 4750494F 		.ascii	"GPIO_Pin\000"
 3865      5F50696E 
 3865      00
 3866              	.LASF45:
 3867 001d 4269745F 		.ascii	"Bit_SET\000"
 3867      53455400 
 3868              	.LASF58:
 3869 0025 4750494F 		.ascii	"GPIO_EventOutputCmd\000"
 3869      5F457665 
 3869      6E744F75 
 3869      74707574 
 3869      436D6400 
 3870              	.LASF53:
 3871 0039 4750494F 		.ascii	"GPIO_Remap\000"
 3871      5F52656D 
 3871      617000
 3872              	.LASF67:
 3873 0044 4750494F 		.ascii	"GPIO_SetBits\000"
 3873      5F536574 
 3873      42697473 
 3873      00
 3874              	.LASF2:
 3875 0051 73686F72 		.ascii	"short int\000"
 3875      7420696E 
 3875      7400
 3876              	.LASF73:
 3877 005b 4750494F 		.ascii	"GPIO_StructInit\000"
 3877      5F537472 
 3877      75637449 
 3877      6E697400 
 3878              	.LASF65:
 3879 006b 42697456 		.ascii	"BitVal\000"
 3879      616C00
 3880              	.LASF44:
 3881 0072 4269745F 		.ascii	"Bit_RESET\000"
 3881      52455345 
 3881      5400
 3882              	.LASF64:
 3883 007c 4750494F 		.ascii	"GPIO_WriteBit\000"
 3883      5F577269 
 3883      74654269 
 3883      7400
 3884              	.LASF7:
 3885 008a 5F5F7569 		.ascii	"__uint32_t\000"
 3885      6E743332 
 3885      5F7400
 3886              	.LASF68:
 3887 0095 4750494F 		.ascii	"GPIO_ReadOutputData\000"
 3887      5F526561 
 3887      644F7574 
 3887      70757444 
 3887      61746100 
 3888              	.LASF4:
 3889 00a9 5F5F7569 		.ascii	"__uint16_t\000"
 3889      6E743136 
ARM GAS  C:\Users\ADMINI~1\AppData\Local\Temp\cc5aRzqp.s 			page 83


 3889      5F7400
 3890              	.LASF52:
 3891 00b4 4750494F 		.ascii	"GPIO_ETH_MediaInterface\000"
 3891      5F455448 
 3891      5F4D6564 
 3891      6961496E 
 3891      74657266 
 3892              	.LASF84:
 3893 00cc 443A5C6C 		.ascii	"D:\\liwei_gcc_stm32\\save\\stm32f10x_makefile_freer"
 3893      69776569 
 3893      5F676363 
 3893      5F73746D 
 3893      33325C73 
 3894 00fc 746F732D 		.ascii	"tos-master\000"
 3894      6D617374 
 3894      657200
 3895              	.LASF16:
 3896 0107 454E4142 		.ascii	"ENABLE\000"
 3896      4C4500
 3897              	.LASF41:
 3898 010e 4750494F 		.ascii	"GPIO_Speed\000"
 3898      5F537065 
 3898      656400
 3899              	.LASF75:
 3900 0119 4750494F 		.ascii	"GPIO_Init\000"
 3900      5F496E69 
 3900      7400
 3901              	.LASF12:
 3902 0123 75696E74 		.ascii	"uint8_t\000"
 3902      385F7400 
 3903              	.LASF23:
 3904 012b 45585449 		.ascii	"EXTICR\000"
 3904      435200
 3905              	.LASF35:
 3906 0132 4750494F 		.ascii	"GPIO_Mode_Out_OD\000"
 3906      5F4D6F64 
 3906      655F4F75 
 3906      745F4F44 
 3906      00
 3907              	.LASF79:
 3908 0143 70696E6D 		.ascii	"pinmask\000"
 3908      61736B00 
 3909              	.LASF15:
 3910 014b 44495341 		.ascii	"DISABLE\000"
 3910      424C4500 
 3911              	.LASF0:
 3912 0153 7369676E 		.ascii	"signed char\000"
 3912      65642063 
 3912      68617200 
 3913              	.LASF38:
 3914 015f 4750494F 		.ascii	"GPIO_Mode_AF_PP\000"
 3914      5F4D6F64 
 3914      655F4146 
 3914      5F505000 
 3915              	.LASF9:
 3916 016f 6C6F6E67 		.ascii	"long long int\000"
 3916      206C6F6E 
ARM GAS  C:\Users\ADMINI~1\AppData\Local\Temp\cc5aRzqp.s 			page 84


 3916      6720696E 
 3916      7400
 3917              	.LASF6:
 3918 017d 6C6F6E67 		.ascii	"long int\000"
 3918      20696E74 
 3918      00
 3919              	.LASF81:
 3920 0186 4750494F 		.ascii	"GPIO_DeInit\000"
 3920      5F446549 
 3920      6E697400 
 3921              	.LASF59:
 3922 0192 4750494F 		.ascii	"GPIO_EventOutputConfig\000"
 3922      5F457665 
 3922      6E744F75 
 3922      74707574 
 3922      436F6E66 
 3923              	.LASF18:
 3924 01a9 42535252 		.ascii	"BSRR\000"
 3924      00
 3925              	.LASF3:
 3926 01ae 5F5F7569 		.ascii	"__uint8_t\000"
 3926      6E74385F 
 3926      7400
 3927              	.LASF72:
 3928 01b8 4750494F 		.ascii	"GPIO_ReadInputDataBit\000"
 3928      5F526561 
 3928      64496E70 
 3928      75744461 
 3928      74614269 
 3929              	.LASF26:
 3930 01ce 4146494F 		.ascii	"AFIO_TypeDef\000"
 3930      5F547970 
 3930      65446566 
 3930      00
 3931              	.LASF27:
 3932 01db 4750494F 		.ascii	"GPIO_Speed_10MHz\000"
 3932      5F537065 
 3932      65645F31 
 3932      304D487A 
 3932      00
 3933              	.LASF56:
 3934 01ec 746D7072 		.ascii	"tmpreg\000"
 3934      656700
 3935              	.LASF70:
 3936 01f3 62697473 		.ascii	"bitstatus\000"
 3936      74617475 
 3936      7300
 3937              	.LASF54:
 3938 01fd 4E657753 		.ascii	"NewState\000"
 3938      74617465 
 3938      00
 3939              	.LASF1:
 3940 0206 756E7369 		.ascii	"unsigned char\000"
 3940      676E6564 
 3940      20636861 
 3940      7200
 3941              	.LASF48:
ARM GAS  C:\Users\ADMINI~1\AppData\Local\Temp\cc5aRzqp.s 			page 85


 3942 0214 4750494F 		.ascii	"GPIO_EXTILineConfig\000"
 3942      5F455854 
 3942      494C696E 
 3942      65436F6E 
 3942      66696700 
 3943              	.LASF28:
 3944 0228 4750494F 		.ascii	"GPIO_Speed_2MHz\000"
 3944      5F537065 
 3944      65645F32 
 3944      4D487A00 
 3945              	.LASF10:
 3946 0238 6C6F6E67 		.ascii	"long long unsigned int\000"
 3946      206C6F6E 
 3946      6720756E 
 3946      7369676E 
 3946      65642069 
 3947              	.LASF14:
 3948 024f 75696E74 		.ascii	"uint32_t\000"
 3948      33325F74 
 3948      00
 3949              	.LASF74:
 3950 0258 4750494F 		.ascii	"GPIO_InitStruct\000"
 3950      5F496E69 
 3950      74537472 
 3950      75637400 
 3951              	.LASF11:
 3952 0268 756E7369 		.ascii	"unsigned int\000"
 3952      676E6564 
 3952      20696E74 
 3952      00
 3953              	.LASF13:
 3954 0275 75696E74 		.ascii	"uint16_t\000"
 3954      31365F74 
 3954      00
 3955              	.LASF63:
 3956 027e 506F7274 		.ascii	"PortVal\000"
 3956      56616C00 
 3957              	.LASF76:
 3958 0286 63757272 		.ascii	"currentmode\000"
 3958      656E746D 
 3958      6F646500 
 3959              	.LASF51:
 3960 0292 4750494F 		.ascii	"GPIO_PinRemapConfig\000"
 3960      5F50696E 
 3960      52656D61 
 3960      70436F6E 
 3960      66696700 
 3961              	.LASF19:
 3962 02a6 4C434B52 		.ascii	"LCKR\000"
 3962      00
 3963              	.LASF50:
 3964 02ab 4750494F 		.ascii	"GPIO_PinSource\000"
 3964      5F50696E 
 3964      536F7572 
 3964      636500
 3965              	.LASF85:
 3966 02ba 5243435F 		.ascii	"RCC_APB2PeriphResetCmd\000"
ARM GAS  C:\Users\ADMINI~1\AppData\Local\Temp\cc5aRzqp.s 			page 86


 3966      41504232 
 3966      50657269 
 3966      70685265 
 3966      73657443 
 3967              	.LASF71:
 3968 02d1 4750494F 		.ascii	"GPIO_ReadInputData\000"
 3968      5F526561 
 3968      64496E70 
 3968      75744461 
 3968      746100
 3969              	.LASF57:
 3970 02e4 746D706D 		.ascii	"tmpmask\000"
 3970      61736B00 
 3971              	.LASF33:
 3972 02ec 4750494F 		.ascii	"GPIO_Mode_IPD\000"
 3972      5F4D6F64 
 3972      655F4950 
 3972      4400
 3973              	.LASF60:
 3974 02fa 4750494F 		.ascii	"GPIO_PinLockConfig\000"
 3974      5F50696E 
 3974      4C6F636B 
 3974      436F6E66 
 3974      696700
 3975              	.LASF5:
 3976 030d 73686F72 		.ascii	"short unsigned int\000"
 3976      7420756E 
 3976      7369676E 
 3976      65642069 
 3976      6E7400
 3977              	.LASF77:
 3978 0320 63757272 		.ascii	"currentpin\000"
 3978      656E7470 
 3978      696E00
 3979              	.LASF62:
 3980 032b 4750494F 		.ascii	"GPIO_Write\000"
 3980      5F577269 
 3980      746500
 3981              	.LASF34:
 3982 0336 4750494F 		.ascii	"GPIO_Mode_IPU\000"
 3982      5F4D6F64 
 3982      655F4950 
 3982      5500
 3983              	.LASF55:
 3984 0344 746D7031 		.ascii	"tmp1\000"
 3984      00
 3985              	.LASF25:
 3986 0349 4D415052 		.ascii	"MAPR2\000"
 3986      3200
 3987              	.LASF24:
 3988 034f 52455345 		.ascii	"RESERVED0\000"
 3988      52564544 
 3988      3000
 3989              	.LASF31:
 3990 0359 4750494F 		.ascii	"GPIO_Mode_AIN\000"
 3990      5F4D6F64 
 3990      655F4149 
ARM GAS  C:\Users\ADMINI~1\AppData\Local\Temp\cc5aRzqp.s 			page 87


 3990      4E00
 3991              	.LASF47:
 3992 0367 4750494F 		.ascii	"GPIO_ETH_MediaInterfaceConfig\000"
 3992      5F455448 
 3992      5F4D6564 
 3992      6961496E 
 3992      74657266 
 3993              	.LASF82:
 3994 0385 474E5520 		.ascii	"GNU C17 10.3.1 20210824 (release) -mcpu=cortex-m3 -"
 3994      43313720 
 3994      31302E33 
 3994      2E312032 
 3994      30323130 
 3995 03b8 6D746875 		.ascii	"mthumb -mfloat-abi=soft -march=armv7-m -g -gdwarf-2"
 3995      6D62202D 
 3995      6D666C6F 
 3995      61742D61 
 3995      62693D73 
 3996 03eb 202D4F73 		.ascii	" -Os -fomit-frame-pointer\000"
 3996      202D666F 
 3996      6D69742D 
 3996      6672616D 
 3996      652D706F 
 3997              	.LASF8:
 3998 0405 6C6F6E67 		.ascii	"long unsigned int\000"
 3998      20756E73 
 3998      69676E65 
 3998      6420696E 
 3998      7400
 3999              	.LASF83:
 4000 0417 73746D33 		.ascii	"stm32f10x_lib/STM32F10x_StdPeriph_Driver/src/stm32f"
 4000      32663130 
 4000      785F6C69 
 4000      622F5354 
 4000      4D333246 
 4001 044a 3130785F 		.ascii	"10x_gpio.c\000"
 4001      6770696F 
 4001      2E6300
 4002              	.LASF46:
 4003 0455 42697441 		.ascii	"BitAction\000"
 4003      6374696F 
 4003      6E00
 4004              	.LASF30:
 4005 045f 4750494F 		.ascii	"GPIOSpeed_TypeDef\000"
 4005      53706565 
 4005      645F5479 
 4005      70654465 
 4005      6600
 4006              	.LASF17:
 4007 0471 46756E63 		.ascii	"FunctionalState\000"
 4007      74696F6E 
 4007      616C5374 
 4007      61746500 
 4008              	.LASF22:
 4009 0481 4D415052 		.ascii	"MAPR\000"
 4009      00
 4010              	.LASF61:
ARM GAS  C:\Users\ADMINI~1\AppData\Local\Temp\cc5aRzqp.s 			page 88


 4011 0486 4750494F 		.ascii	"GPIOx\000"
 4011      7800
 4012              	.LASF36:
 4013 048c 4750494F 		.ascii	"GPIO_Mode_Out_PP\000"
 4013      5F4D6F64 
 4013      655F4F75 
 4013      745F5050 
 4013      00
 4014              	.LASF21:
 4015 049d 45564352 		.ascii	"EVCR\000"
 4015      00
 4016              	.LASF29:
 4017 04a2 4750494F 		.ascii	"GPIO_Speed_50MHz\000"
 4017      5F537065 
 4017      65645F35 
 4017      304D487A 
 4017      00
 4018              	.LASF49:
 4019 04b3 4750494F 		.ascii	"GPIO_PortSource\000"
 4019      5F506F72 
 4019      74536F75 
 4019      72636500 
 4020              	.LASF43:
 4021 04c3 4750494F 		.ascii	"GPIO_InitTypeDef\000"
 4021      5F496E69 
 4021      74547970 
 4021      65446566 
 4021      00
 4022              	.LASF39:
 4023 04d4 4750494F 		.ascii	"GPIOMode_TypeDef\000"
 4023      4D6F6465 
 4023      5F547970 
 4023      65446566 
 4023      00
 4024              	.LASF66:
 4025 04e5 4750494F 		.ascii	"GPIO_ResetBits\000"
 4025      5F526573 
 4025      65744269 
 4025      747300
 4026              	.LASF32:
 4027 04f4 4750494F 		.ascii	"GPIO_Mode_IN_FLOATING\000"
 4027      5F4D6F64 
 4027      655F494E 
 4027      5F464C4F 
 4027      4154494E 
 4028              	.LASF69:
 4029 050a 4750494F 		.ascii	"GPIO_ReadOutputDataBit\000"
 4029      5F526561 
 4029      644F7574 
 4029      70757444 
 4029      61746142 
 4030              	.LASF80:
 4031 0521 4750494F 		.ascii	"GPIO_AFIODeInit\000"
 4031      5F414649 
 4031      4F446549 
 4031      6E697400 
 4032              	.LASF37:
ARM GAS  C:\Users\ADMINI~1\AppData\Local\Temp\cc5aRzqp.s 			page 89


 4033 0531 4750494F 		.ascii	"GPIO_Mode_AF_OD\000"
 4033      5F4D6F64 
 4033      655F4146 
 4033      5F4F4400 
 4034              	.LASF42:
 4035 0541 4750494F 		.ascii	"GPIO_Mode\000"
 4035      5F4D6F64 
 4035      6500
 4036              		.ident	"GCC: (GNU Arm Embedded Toolchain 10.3-2021.10) 10.3.1 20210824 (release)"
ARM GAS  C:\Users\ADMINI~1\AppData\Local\Temp\cc5aRzqp.s 			page 90


DEFINED SYMBOLS
                            *ABS*:00000000 stm32f10x_gpio.c
C:\Users\ADMINI~1\AppData\Local\Temp\cc5aRzqp.s:78     .text:00000000 $t
C:\Users\ADMINI~1\AppData\Local\Temp\cc5aRzqp.s:84     .text:00000000 GPIO_DeInit
C:\Users\ADMINI~1\AppData\Local\Temp\cc5aRzqp.s:252    .text:0000009c $d
C:\Users\ADMINI~1\AppData\Local\Temp\cc5aRzqp.s:262    .text:000000b8 $t
C:\Users\ADMINI~1\AppData\Local\Temp\cc5aRzqp.s:268    .text:000000b8 GPIO_AFIODeInit
C:\Users\ADMINI~1\AppData\Local\Temp\cc5aRzqp.s:311    .text:000000ce GPIO_Init
C:\Users\ADMINI~1\AppData\Local\Temp\cc5aRzqp.s:562    .text:00000170 GPIO_StructInit
C:\Users\ADMINI~1\AppData\Local\Temp\cc5aRzqp.s:593    .text:0000017e GPIO_ReadInputDataBit
C:\Users\ADMINI~1\AppData\Local\Temp\cc5aRzqp.s:630    .text:0000018a GPIO_ReadInputData
C:\Users\ADMINI~1\AppData\Local\Temp\cc5aRzqp.s:657    .text:00000190 GPIO_ReadOutputDataBit
C:\Users\ADMINI~1\AppData\Local\Temp\cc5aRzqp.s:694    .text:0000019c GPIO_ReadOutputData
C:\Users\ADMINI~1\AppData\Local\Temp\cc5aRzqp.s:721    .text:000001a2 GPIO_SetBits
C:\Users\ADMINI~1\AppData\Local\Temp\cc5aRzqp.s:747    .text:000001a6 GPIO_ResetBits
C:\Users\ADMINI~1\AppData\Local\Temp\cc5aRzqp.s:773    .text:000001aa GPIO_WriteBit
C:\Users\ADMINI~1\AppData\Local\Temp\cc5aRzqp.s:810    .text:000001b4 GPIO_Write
C:\Users\ADMINI~1\AppData\Local\Temp\cc5aRzqp.s:835    .text:000001b8 GPIO_PinLockConfig
C:\Users\ADMINI~1\AppData\Local\Temp\cc5aRzqp.s:884    .text:000001c8 GPIO_EventOutputConfig
C:\Users\ADMINI~1\AppData\Local\Temp\cc5aRzqp.s:926    .text:000001e0 $d
C:\Users\ADMINI~1\AppData\Local\Temp\cc5aRzqp.s:930    .text:000001e4 $t
C:\Users\ADMINI~1\AppData\Local\Temp\cc5aRzqp.s:936    .text:000001e4 GPIO_EventOutputCmd
C:\Users\ADMINI~1\AppData\Local\Temp\cc5aRzqp.s:956    .text:000001ec $d
C:\Users\ADMINI~1\AppData\Local\Temp\cc5aRzqp.s:960    .text:000001f0 $t
C:\Users\ADMINI~1\AppData\Local\Temp\cc5aRzqp.s:966    .text:000001f0 GPIO_PinRemapConfig
C:\Users\ADMINI~1\AppData\Local\Temp\cc5aRzqp.s:1113   .text:0000024c $d
C:\Users\ADMINI~1\AppData\Local\Temp\cc5aRzqp.s:1117   .text:00000250 $t
C:\Users\ADMINI~1\AppData\Local\Temp\cc5aRzqp.s:1123   .text:00000250 GPIO_EXTILineConfig
C:\Users\ADMINI~1\AppData\Local\Temp\cc5aRzqp.s:1193   .text:0000027a GPIO_ETH_MediaInterfaceConfig
C:\Users\ADMINI~1\AppData\Local\Temp\cc5aRzqp.s:1213   .text:00000284 $d

UNDEFINED SYMBOLS
RCC_APB2PeriphResetCmd
