ARM GAS  C:\Users\ADMINI~1\AppData\Local\Temp\cc5aRzqp.s 			page 1


   1              		.cpu cortex-m3
   2              		.arch armv7-m
   3              		.fpu softvfp
   4              		.eabi_attribute 20, 1	@ Tag_ABI_FP_denormal
   5              		.eabi_attribute 21, 1	@ Tag_ABI_FP_exceptions
   6              		.eabi_attribute 23, 3	@ Tag_ABI_FP_number_model
   7              		.eabi_attribute 24, 1	@ Tag_ABI_align8_needed
   8              		.eabi_attribute 25, 1	@ Tag_ABI_align8_preserved
   9              		.eabi_attribute 26, 1	@ Tag_ABI_enum_size
  10              		.eabi_attribute 30, 4	@ Tag_ABI_optimization_goals
  11              		.eabi_attribute 34, 1	@ Tag_CPU_unaligned_access
  12              		.eabi_attribute 18, 4	@ Tag_ABI_PCS_wchar_t
  13              		.file	"stm32f10x_gpio.c"
  14              	@ GNU C17 (GNU Arm Embedded Toolchain 10.3-2021.10) version 10.3.1 20210824 (release) (arm-none-eab
  15              	@	compiled by GNU C version 7.3-win32 20180312, GMP version 6.1.0, MPFR version 3.1.4, MPC version 
  16              	
  17              	@ GGC heuristics: --param ggc-min-expand=100 --param ggc-min-heapsize=131072
  18              	@ options passed:  -I . -I ./user -I ./stm32f10x_lib/CMSIS/CM3/CoreSupport
  19              	@ -I ./stm32f10x_lib/CMSIS/CM3/DeviceSupport/ST/STM32F10x
  20              	@ -I ./stm32f10x_lib/STM32F10x_StdPeriph_Driver/inc
  21              	@ -I ./stm32f10x_lib/STM32F10x_StdPeriph_Driver -I ./freertos/include
  22              	@ -I ./freertos/portable/GCC/ARM_CM3 -imultilib thumb/v7-m/nofp
  23              	@ -iprefix c:\program files (x86)\gnu arm embedded toolchain\10 2021.10\bin\../lib/gcc/arm-none-eab
  24              	@ -isysroot c:\program files (x86)\gnu arm embedded toolchain\10 2021.10\bin\../arm-none-eabi
  25              	@ -D__USES_INITFINI__ -D STM32F10X_MD -D USE_STDPERIPH_DRIVER
  26              	@ -D HSE_VALUE=8000000 -D RUN_FROM_FLASH=1
  27              	@ stm32f10x_lib/STM32F10x_StdPeriph_Driver/src/stm32f10x_gpio.c
  28              	@ -mcpu=cortex-m3 -mthumb -mfloat-abi=soft -mlibarch=armv7-m -march=armv7-m
  29              	@ -auxbase-strip stm32f10x_lib/STM32F10x_StdPeriph_Driver/src/stm32f10x_gpio.o
  30              	@ -g -gdwarf-2 -Os -Wall -fomit-frame-pointer -fverbose-asm
  31              	@ options enabled:  -faggressive-loop-optimizations -fallocation-dce
  32              	@ -fauto-inc-dec -fbranch-count-reg -fcaller-saves -fcode-hoisting
  33              	@ -fcombine-stack-adjustments -fcompare-elim -fcprop-registers
  34              	@ -fcrossjumping -fcse-follow-jumps -fdefer-pop
  35              	@ -fdelete-null-pointer-checks -fdevirtualize -fdevirtualize-speculatively
  36              	@ -fdwarf2-cfi-asm -fearly-inlining -feliminate-unused-debug-symbols
  37              	@ -feliminate-unused-debug-types -fexpensive-optimizations
  38              	@ -fforward-propagate -ffp-int-builtin-inexact -ffunction-cse -fgcse
  39              	@ -fgcse-lm -fgnu-unique -fguess-branch-probability -fhoist-adjacent-loads
  40              	@ -fident -fif-conversion -fif-conversion2 -findirect-inlining -finline
  41              	@ -finline-atomics -finline-functions -finline-functions-called-once
  42              	@ -finline-small-functions -fipa-bit-cp -fipa-cp -fipa-icf
  43              	@ -fipa-icf-functions -fipa-icf-variables -fipa-profile -fipa-pure-const
  44              	@ -fipa-ra -fipa-reference -fipa-reference-addressable -fipa-sra
  45              	@ -fipa-stack-alignment -fipa-vrp -fira-hoist-pressure
  46              	@ -fira-share-save-slots -fira-share-spill-slots
  47              	@ -fisolate-erroneous-paths-dereference -fivopts -fkeep-static-consts
  48              	@ -fleading-underscore -flifetime-dse -flra-remat -fmath-errno
  49              	@ -fmerge-constants -fmerge-debug-strings -fmove-loop-invariants
  50              	@ -fomit-frame-pointer -foptimize-sibling-calls -fpartial-inlining
  51              	@ -fpeephole -fpeephole2 -fplt -fprefetch-loop-arrays -freg-struct-return
  52              	@ -freorder-blocks -freorder-functions -frerun-cse-after-loop
  53              	@ -fsched-critical-path-heuristic -fsched-dep-count-heuristic
  54              	@ -fsched-group-heuristic -fsched-interblock -fsched-last-insn-heuristic
  55              	@ -fsched-pressure -fsched-rank-heuristic -fsched-spec
  56              	@ -fsched-spec-insn-heuristic -fsched-stalled-insns-dep -fschedule-insns2
  57              	@ -fsection-anchors -fsemantic-interposition -fshow-column
ARM GAS  C:\Users\ADMINI~1\AppData\Local\Temp\cc5aRzqp.s 			page 2


  58              	@ -fshrink-wrap-separate -fsigned-zeros -fsplit-ivs-in-unroller
  59              	@ -fsplit-wide-types -fssa-backprop -fssa-phiopt -fstdarg-opt
  60              	@ -fstore-merging -fstrict-aliasing -fstrict-volatile-bitfields
  61              	@ -fsync-libcalls -fthread-jumps -ftoplevel-reorder -ftrapping-math
  62              	@ -ftree-bit-ccp -ftree-builtin-call-dce -ftree-ccp -ftree-ch
  63              	@ -ftree-coalesce-vars -ftree-copy-prop -ftree-cselim -ftree-dce
  64              	@ -ftree-dominator-opts -ftree-dse -ftree-forwprop -ftree-fre
  65              	@ -ftree-loop-distribute-patterns -ftree-loop-if-convert -ftree-loop-im
  66              	@ -ftree-loop-ivcanon -ftree-loop-optimize -ftree-parallelize-loops=
  67              	@ -ftree-phiprop -ftree-pre -ftree-pta -ftree-reassoc -ftree-scev-cprop
  68              	@ -ftree-sink -ftree-slsr -ftree-sra -ftree-switch-conversion
  69              	@ -ftree-tail-merge -ftree-ter -ftree-vrp -funit-at-a-time -fvar-tracking
  70              	@ -fvar-tracking-assignments -fverbose-asm -fzero-initialized-in-bss
  71              	@ -masm-syntax-unified -mbe32 -mfix-cortex-m3-ldrd -mlittle-endian
  72              	@ -mpic-data-is-text-relative -msched-prolog -mthumb -munaligned-access
  73              	@ -mvectorize-with-neon-quad
  74              	
  75              		.text
  76              	.Ltext0:
  77              		.cfi_sections	.debug_frame
  78              		.align	1
  79              		.global	GPIO_DeInit
  80              		.syntax unified
  81              		.thumb
  82              		.thumb_func
  83              		.type	GPIO_DeInit, %function
  84              	GPIO_DeInit:
  85              	.LVL0:
  86              	.LFB29:
  87              		.file 1 "stm32f10x_lib/STM32F10x_StdPeriph_Driver/src/stm32f10x_gpio.c"
   1:stm32f10x_lib/STM32F10x_StdPeriph_Driver/src/stm32f10x_gpio.c **** /**
   2:stm32f10x_lib/STM32F10x_StdPeriph_Driver/src/stm32f10x_gpio.c ****   ******************************************************************************
   3:stm32f10x_lib/STM32F10x_StdPeriph_Driver/src/stm32f10x_gpio.c ****   * @file    stm32f10x_gpio.c
   4:stm32f10x_lib/STM32F10x_StdPeriph_Driver/src/stm32f10x_gpio.c ****   * @author  MCD Application Team
   5:stm32f10x_lib/STM32F10x_StdPeriph_Driver/src/stm32f10x_gpio.c ****   * @version V3.5.0
   6:stm32f10x_lib/STM32F10x_StdPeriph_Driver/src/stm32f10x_gpio.c ****   * @date    11-March-2011
   7:stm32f10x_lib/STM32F10x_StdPeriph_Driver/src/stm32f10x_gpio.c ****   * @brief   This file provides all the GPIO firmware functions.
   8:stm32f10x_lib/STM32F10x_StdPeriph_Driver/src/stm32f10x_gpio.c ****   ******************************************************************************
   9:stm32f10x_lib/STM32F10x_StdPeriph_Driver/src/stm32f10x_gpio.c ****   * @attention
  10:stm32f10x_lib/STM32F10x_StdPeriph_Driver/src/stm32f10x_gpio.c ****   *
  11:stm32f10x_lib/STM32F10x_StdPeriph_Driver/src/stm32f10x_gpio.c ****   * THE PRESENT FIRMWARE WHICH IS FOR GUIDANCE ONLY AIMS AT PROVIDING CUSTOMERS
  12:stm32f10x_lib/STM32F10x_StdPeriph_Driver/src/stm32f10x_gpio.c ****   * WITH CODING INFORMATION REGARDING THEIR PRODUCTS IN ORDER FOR THEM TO SAVE
  13:stm32f10x_lib/STM32F10x_StdPeriph_Driver/src/stm32f10x_gpio.c ****   * TIME. AS A RESULT, STMICROELECTRONICS SHALL NOT BE HELD LIABLE FOR ANY
  14:stm32f10x_lib/STM32F10x_StdPeriph_Driver/src/stm32f10x_gpio.c ****   * DIRECT, INDIRECT OR CONSEQUENTIAL DAMAGES WITH RESPECT TO ANY CLAIMS ARISING
  15:stm32f10x_lib/STM32F10x_StdPeriph_Driver/src/stm32f10x_gpio.c ****   * FROM THE CONTENT OF SUCH FIRMWARE AND/OR THE USE MADE BY CUSTOMERS OF THE
  16:stm32f10x_lib/STM32F10x_StdPeriph_Driver/src/stm32f10x_gpio.c ****   * CODING INFORMATION CONTAINED HEREIN IN CONNECTION WITH THEIR PRODUCTS.
  17:stm32f10x_lib/STM32F10x_StdPeriph_Driver/src/stm32f10x_gpio.c ****   *
  18:stm32f10x_lib/STM32F10x_StdPeriph_Driver/src/stm32f10x_gpio.c ****   * <h2><center>&copy; COPYRIGHT 2011 STMicroelectronics</center></h2>
  19:stm32f10x_lib/STM32F10x_StdPeriph_Driver/src/stm32f10x_gpio.c ****   ******************************************************************************
  20:stm32f10x_lib/STM32F10x_StdPeriph_Driver/src/stm32f10x_gpio.c ****   */
  21:stm32f10x_lib/STM32F10x_StdPeriph_Driver/src/stm32f10x_gpio.c **** 
  22:stm32f10x_lib/STM32F10x_StdPeriph_Driver/src/stm32f10x_gpio.c **** /* Includes ------------------------------------------------------------------*/
  23:stm32f10x_lib/STM32F10x_StdPeriph_Driver/src/stm32f10x_gpio.c **** #include "stm32f10x_gpio.h"
  24:stm32f10x_lib/STM32F10x_StdPeriph_Driver/src/stm32f10x_gpio.c **** #include "stm32f10x_rcc.h"
  25:stm32f10x_lib/STM32F10x_StdPeriph_Driver/src/stm32f10x_gpio.c **** 
  26:stm32f10x_lib/STM32F10x_StdPeriph_Driver/src/stm32f10x_gpio.c **** /** @addtogroup STM32F10x_StdPeriph_Driver
  27:stm32f10x_lib/STM32F10x_StdPeriph_Driver/src/stm32f10x_gpio.c ****   * @{
ARM GAS  C:\Users\ADMINI~1\AppData\Local\Temp\cc5aRzqp.s 			page 3


  28:stm32f10x_lib/STM32F10x_StdPeriph_Driver/src/stm32f10x_gpio.c ****   */
  29:stm32f10x_lib/STM32F10x_StdPeriph_Driver/src/stm32f10x_gpio.c **** 
  30:stm32f10x_lib/STM32F10x_StdPeriph_Driver/src/stm32f10x_gpio.c **** /** @defgroup GPIO 
  31:stm32f10x_lib/STM32F10x_StdPeriph_Driver/src/stm32f10x_gpio.c ****   * @brief GPIO driver modules
  32:stm32f10x_lib/STM32F10x_StdPeriph_Driver/src/stm32f10x_gpio.c ****   * @{
  33:stm32f10x_lib/STM32F10x_StdPeriph_Driver/src/stm32f10x_gpio.c ****   */ 
  34:stm32f10x_lib/STM32F10x_StdPeriph_Driver/src/stm32f10x_gpio.c **** 
  35:stm32f10x_lib/STM32F10x_StdPeriph_Driver/src/stm32f10x_gpio.c **** /** @defgroup GPIO_Private_TypesDefinitions
  36:stm32f10x_lib/STM32F10x_StdPeriph_Driver/src/stm32f10x_gpio.c ****   * @{
  37:stm32f10x_lib/STM32F10x_StdPeriph_Driver/src/stm32f10x_gpio.c ****   */
  38:stm32f10x_lib/STM32F10x_StdPeriph_Driver/src/stm32f10x_gpio.c **** 
  39:stm32f10x_lib/STM32F10x_StdPeriph_Driver/src/stm32f10x_gpio.c **** /**
  40:stm32f10x_lib/STM32F10x_StdPeriph_Driver/src/stm32f10x_gpio.c ****   * @}
  41:stm32f10x_lib/STM32F10x_StdPeriph_Driver/src/stm32f10x_gpio.c ****   */
  42:stm32f10x_lib/STM32F10x_StdPeriph_Driver/src/stm32f10x_gpio.c **** 
  43:stm32f10x_lib/STM32F10x_StdPeriph_Driver/src/stm32f10x_gpio.c **** /** @defgroup GPIO_Private_Defines
  44:stm32f10x_lib/STM32F10x_StdPeriph_Driver/src/stm32f10x_gpio.c ****   * @{
  45:stm32f10x_lib/STM32F10x_StdPeriph_Driver/src/stm32f10x_gpio.c ****   */
  46:stm32f10x_lib/STM32F10x_StdPeriph_Driver/src/stm32f10x_gpio.c **** 
  47:stm32f10x_lib/STM32F10x_StdPeriph_Driver/src/stm32f10x_gpio.c **** /* ------------ RCC registers bit address in the alias region ----------------*/
  48:stm32f10x_lib/STM32F10x_StdPeriph_Driver/src/stm32f10x_gpio.c **** #define AFIO_OFFSET                 (AFIO_BASE - PERIPH_BASE)
  49:stm32f10x_lib/STM32F10x_StdPeriph_Driver/src/stm32f10x_gpio.c **** 
  50:stm32f10x_lib/STM32F10x_StdPeriph_Driver/src/stm32f10x_gpio.c **** /* --- EVENTCR Register -----*/
  51:stm32f10x_lib/STM32F10x_StdPeriph_Driver/src/stm32f10x_gpio.c **** 
  52:stm32f10x_lib/STM32F10x_StdPeriph_Driver/src/stm32f10x_gpio.c **** /* Alias word address of EVOE bit */
  53:stm32f10x_lib/STM32F10x_StdPeriph_Driver/src/stm32f10x_gpio.c **** #define EVCR_OFFSET                 (AFIO_OFFSET + 0x00)
  54:stm32f10x_lib/STM32F10x_StdPeriph_Driver/src/stm32f10x_gpio.c **** #define EVOE_BitNumber              ((uint8_t)0x07)
  55:stm32f10x_lib/STM32F10x_StdPeriph_Driver/src/stm32f10x_gpio.c **** #define EVCR_EVOE_BB                (PERIPH_BB_BASE + (EVCR_OFFSET * 32) + (EVOE_BitNumber * 4))
  56:stm32f10x_lib/STM32F10x_StdPeriph_Driver/src/stm32f10x_gpio.c **** 
  57:stm32f10x_lib/STM32F10x_StdPeriph_Driver/src/stm32f10x_gpio.c **** 
  58:stm32f10x_lib/STM32F10x_StdPeriph_Driver/src/stm32f10x_gpio.c **** /* ---  MAPR Register ---*/ 
  59:stm32f10x_lib/STM32F10x_StdPeriph_Driver/src/stm32f10x_gpio.c **** /* Alias word address of MII_RMII_SEL bit */ 
  60:stm32f10x_lib/STM32F10x_StdPeriph_Driver/src/stm32f10x_gpio.c **** #define MAPR_OFFSET                 (AFIO_OFFSET + 0x04) 
  61:stm32f10x_lib/STM32F10x_StdPeriph_Driver/src/stm32f10x_gpio.c **** #define MII_RMII_SEL_BitNumber      ((u8)0x17) 
  62:stm32f10x_lib/STM32F10x_StdPeriph_Driver/src/stm32f10x_gpio.c **** #define MAPR_MII_RMII_SEL_BB        (PERIPH_BB_BASE + (MAPR_OFFSET * 32) + (MII_RMII_SEL_BitNumber 
  63:stm32f10x_lib/STM32F10x_StdPeriph_Driver/src/stm32f10x_gpio.c **** 
  64:stm32f10x_lib/STM32F10x_StdPeriph_Driver/src/stm32f10x_gpio.c **** 
  65:stm32f10x_lib/STM32F10x_StdPeriph_Driver/src/stm32f10x_gpio.c **** #define EVCR_PORTPINCONFIG_MASK     ((uint16_t)0xFF80)
  66:stm32f10x_lib/STM32F10x_StdPeriph_Driver/src/stm32f10x_gpio.c **** #define LSB_MASK                    ((uint16_t)0xFFFF)
  67:stm32f10x_lib/STM32F10x_StdPeriph_Driver/src/stm32f10x_gpio.c **** #define DBGAFR_POSITION_MASK        ((uint32_t)0x000F0000)
  68:stm32f10x_lib/STM32F10x_StdPeriph_Driver/src/stm32f10x_gpio.c **** #define DBGAFR_SWJCFG_MASK          ((uint32_t)0xF0FFFFFF)
  69:stm32f10x_lib/STM32F10x_StdPeriph_Driver/src/stm32f10x_gpio.c **** #define DBGAFR_LOCATION_MASK        ((uint32_t)0x00200000)
  70:stm32f10x_lib/STM32F10x_StdPeriph_Driver/src/stm32f10x_gpio.c **** #define DBGAFR_NUMBITS_MASK         ((uint32_t)0x00100000)
  71:stm32f10x_lib/STM32F10x_StdPeriph_Driver/src/stm32f10x_gpio.c **** /**
  72:stm32f10x_lib/STM32F10x_StdPeriph_Driver/src/stm32f10x_gpio.c ****   * @}
  73:stm32f10x_lib/STM32F10x_StdPeriph_Driver/src/stm32f10x_gpio.c ****   */
  74:stm32f10x_lib/STM32F10x_StdPeriph_Driver/src/stm32f10x_gpio.c **** 
  75:stm32f10x_lib/STM32F10x_StdPeriph_Driver/src/stm32f10x_gpio.c **** /** @defgroup GPIO_Private_Macros
  76:stm32f10x_lib/STM32F10x_StdPeriph_Driver/src/stm32f10x_gpio.c ****   * @{
  77:stm32f10x_lib/STM32F10x_StdPeriph_Driver/src/stm32f10x_gpio.c ****   */
  78:stm32f10x_lib/STM32F10x_StdPeriph_Driver/src/stm32f10x_gpio.c **** 
  79:stm32f10x_lib/STM32F10x_StdPeriph_Driver/src/stm32f10x_gpio.c **** /**
  80:stm32f10x_lib/STM32F10x_StdPeriph_Driver/src/stm32f10x_gpio.c ****   * @}
  81:stm32f10x_lib/STM32F10x_StdPeriph_Driver/src/stm32f10x_gpio.c ****   */
  82:stm32f10x_lib/STM32F10x_StdPeriph_Driver/src/stm32f10x_gpio.c **** 
  83:stm32f10x_lib/STM32F10x_StdPeriph_Driver/src/stm32f10x_gpio.c **** /** @defgroup GPIO_Private_Variables
  84:stm32f10x_lib/STM32F10x_StdPeriph_Driver/src/stm32f10x_gpio.c ****   * @{
ARM GAS  C:\Users\ADMINI~1\AppData\Local\Temp\cc5aRzqp.s 			page 4


  85:stm32f10x_lib/STM32F10x_StdPeriph_Driver/src/stm32f10x_gpio.c ****   */
  86:stm32f10x_lib/STM32F10x_StdPeriph_Driver/src/stm32f10x_gpio.c **** 
  87:stm32f10x_lib/STM32F10x_StdPeriph_Driver/src/stm32f10x_gpio.c **** /**
  88:stm32f10x_lib/STM32F10x_StdPeriph_Driver/src/stm32f10x_gpio.c ****   * @}
  89:stm32f10x_lib/STM32F10x_StdPeriph_Driver/src/stm32f10x_gpio.c ****   */
  90:stm32f10x_lib/STM32F10x_StdPeriph_Driver/src/stm32f10x_gpio.c **** 
  91:stm32f10x_lib/STM32F10x_StdPeriph_Driver/src/stm32f10x_gpio.c **** /** @defgroup GPIO_Private_FunctionPrototypes
  92:stm32f10x_lib/STM32F10x_StdPeriph_Driver/src/stm32f10x_gpio.c ****   * @{
  93:stm32f10x_lib/STM32F10x_StdPeriph_Driver/src/stm32f10x_gpio.c ****   */
  94:stm32f10x_lib/STM32F10x_StdPeriph_Driver/src/stm32f10x_gpio.c **** 
  95:stm32f10x_lib/STM32F10x_StdPeriph_Driver/src/stm32f10x_gpio.c **** /**
  96:stm32f10x_lib/STM32F10x_StdPeriph_Driver/src/stm32f10x_gpio.c ****   * @}
  97:stm32f10x_lib/STM32F10x_StdPeriph_Driver/src/stm32f10x_gpio.c ****   */
  98:stm32f10x_lib/STM32F10x_StdPeriph_Driver/src/stm32f10x_gpio.c **** 
  99:stm32f10x_lib/STM32F10x_StdPeriph_Driver/src/stm32f10x_gpio.c **** /** @defgroup GPIO_Private_Functions
 100:stm32f10x_lib/STM32F10x_StdPeriph_Driver/src/stm32f10x_gpio.c ****   * @{
 101:stm32f10x_lib/STM32F10x_StdPeriph_Driver/src/stm32f10x_gpio.c ****   */
 102:stm32f10x_lib/STM32F10x_StdPeriph_Driver/src/stm32f10x_gpio.c **** 
 103:stm32f10x_lib/STM32F10x_StdPeriph_Driver/src/stm32f10x_gpio.c **** /**
 104:stm32f10x_lib/STM32F10x_StdPeriph_Driver/src/stm32f10x_gpio.c ****   * @brief  Deinitializes the GPIOx peripheral registers to their default reset values.
 105:stm32f10x_lib/STM32F10x_StdPeriph_Driver/src/stm32f10x_gpio.c ****   * @param  GPIOx: where x can be (A..G) to select the GPIO peripheral.
 106:stm32f10x_lib/STM32F10x_StdPeriph_Driver/src/stm32f10x_gpio.c ****   * @retval None
 107:stm32f10x_lib/STM32F10x_StdPeriph_Driver/src/stm32f10x_gpio.c ****   */
 108:stm32f10x_lib/STM32F10x_StdPeriph_Driver/src/stm32f10x_gpio.c **** void GPIO_DeInit(GPIO_TypeDef* GPIOx)
 109:stm32f10x_lib/STM32F10x_StdPeriph_Driver/src/stm32f10x_gpio.c **** {
  88              		.loc 1 109 1 view -0
  89              		.cfi_startproc
  90              		@ args = 0, pretend = 0, frame = 0
  91              		@ frame_needed = 0, uses_anonymous_args = 0
 110:stm32f10x_lib/STM32F10x_StdPeriph_Driver/src/stm32f10x_gpio.c ****   /* Check the parameters */
 111:stm32f10x_lib/STM32F10x_StdPeriph_Driver/src/stm32f10x_gpio.c ****   assert_param(IS_GPIO_ALL_PERIPH(GPIOx));
  92              		.loc 1 111 3 view .LVU1
 112:stm32f10x_lib/STM32F10x_StdPeriph_Driver/src/stm32f10x_gpio.c ****   
 113:stm32f10x_lib/STM32F10x_StdPeriph_Driver/src/stm32f10x_gpio.c ****   if (GPIOx == GPIOA)
  93              		.loc 1 113 3 view .LVU2
  94              	@ stm32f10x_lib/STM32F10x_StdPeriph_Driver/src/stm32f10x_gpio.c:109: {
 109:stm32f10x_lib/STM32F10x_StdPeriph_Driver/src/stm32f10x_gpio.c ****   /* Check the parameters */
  95              		.loc 1 109 1 is_stmt 0 view .LVU3
  96 0000 08B5     		push	{r3, lr}	@
  97              	.LCFI0:
  98              		.cfi_def_cfa_offset 8
  99              		.cfi_offset 3, -8
 100              		.cfi_offset 14, -4
 101              	@ stm32f10x_lib/STM32F10x_StdPeriph_Driver/src/stm32f10x_gpio.c:113:   if (GPIOx == GPIOA)
 102              		.loc 1 113 6 view .LVU4
 103 0002 264B     		ldr	r3, .L10	@ tmp114,
 104 0004 9842     		cmp	r0, r3	@ GPIOx, tmp114
 105 0006 09D1     		bne	.L2		@,
 114:stm32f10x_lib/STM32F10x_StdPeriph_Driver/src/stm32f10x_gpio.c ****   {
 115:stm32f10x_lib/STM32F10x_StdPeriph_Driver/src/stm32f10x_gpio.c ****     RCC_APB2PeriphResetCmd(RCC_APB2Periph_GPIOA, ENABLE);
 106              		.loc 1 115 5 is_stmt 1 view .LVU5
 107 0008 0121     		movs	r1, #1	@,
 108 000a 0420     		movs	r0, #4	@,
 109              	.LVL1:
 110              		.loc 1 115 5 is_stmt 0 view .LVU6
 111 000c FFF7FEFF 		bl	RCC_APB2PeriphResetCmd		@
 112              	.LVL2:
ARM GAS  C:\Users\ADMINI~1\AppData\Local\Temp\cc5aRzqp.s 			page 5


 116:stm32f10x_lib/STM32F10x_StdPeriph_Driver/src/stm32f10x_gpio.c ****     RCC_APB2PeriphResetCmd(RCC_APB2Periph_GPIOA, DISABLE);
 113              		.loc 1 116 5 is_stmt 1 view .LVU7
 114 0010 0021     		movs	r1, #0	@,
 115 0012 0420     		movs	r0, #4	@,
 116              	.L9:
 117              	@ stm32f10x_lib/STM32F10x_StdPeriph_Driver/src/stm32f10x_gpio.c:151: }
 117:stm32f10x_lib/STM32F10x_StdPeriph_Driver/src/stm32f10x_gpio.c ****   }
 118:stm32f10x_lib/STM32F10x_StdPeriph_Driver/src/stm32f10x_gpio.c ****   else if (GPIOx == GPIOB)
 119:stm32f10x_lib/STM32F10x_StdPeriph_Driver/src/stm32f10x_gpio.c ****   {
 120:stm32f10x_lib/STM32F10x_StdPeriph_Driver/src/stm32f10x_gpio.c ****     RCC_APB2PeriphResetCmd(RCC_APB2Periph_GPIOB, ENABLE);
 121:stm32f10x_lib/STM32F10x_StdPeriph_Driver/src/stm32f10x_gpio.c ****     RCC_APB2PeriphResetCmd(RCC_APB2Periph_GPIOB, DISABLE);
 122:stm32f10x_lib/STM32F10x_StdPeriph_Driver/src/stm32f10x_gpio.c ****   }
 123:stm32f10x_lib/STM32F10x_StdPeriph_Driver/src/stm32f10x_gpio.c ****   else if (GPIOx == GPIOC)
 124:stm32f10x_lib/STM32F10x_StdPeriph_Driver/src/stm32f10x_gpio.c ****   {
 125:stm32f10x_lib/STM32F10x_StdPeriph_Driver/src/stm32f10x_gpio.c ****     RCC_APB2PeriphResetCmd(RCC_APB2Periph_GPIOC, ENABLE);
 126:stm32f10x_lib/STM32F10x_StdPeriph_Driver/src/stm32f10x_gpio.c ****     RCC_APB2PeriphResetCmd(RCC_APB2Periph_GPIOC, DISABLE);
 127:stm32f10x_lib/STM32F10x_StdPeriph_Driver/src/stm32f10x_gpio.c ****   }
 128:stm32f10x_lib/STM32F10x_StdPeriph_Driver/src/stm32f10x_gpio.c ****   else if (GPIOx == GPIOD)
 129:stm32f10x_lib/STM32F10x_StdPeriph_Driver/src/stm32f10x_gpio.c ****   {
 130:stm32f10x_lib/STM32F10x_StdPeriph_Driver/src/stm32f10x_gpio.c ****     RCC_APB2PeriphResetCmd(RCC_APB2Periph_GPIOD, ENABLE);
 131:stm32f10x_lib/STM32F10x_StdPeriph_Driver/src/stm32f10x_gpio.c ****     RCC_APB2PeriphResetCmd(RCC_APB2Periph_GPIOD, DISABLE);
 132:stm32f10x_lib/STM32F10x_StdPeriph_Driver/src/stm32f10x_gpio.c ****   }    
 133:stm32f10x_lib/STM32F10x_StdPeriph_Driver/src/stm32f10x_gpio.c ****   else if (GPIOx == GPIOE)
 134:stm32f10x_lib/STM32F10x_StdPeriph_Driver/src/stm32f10x_gpio.c ****   {
 135:stm32f10x_lib/STM32F10x_StdPeriph_Driver/src/stm32f10x_gpio.c ****     RCC_APB2PeriphResetCmd(RCC_APB2Periph_GPIOE, ENABLE);
 136:stm32f10x_lib/STM32F10x_StdPeriph_Driver/src/stm32f10x_gpio.c ****     RCC_APB2PeriphResetCmd(RCC_APB2Periph_GPIOE, DISABLE);
 137:stm32f10x_lib/STM32F10x_StdPeriph_Driver/src/stm32f10x_gpio.c ****   } 
 138:stm32f10x_lib/STM32F10x_StdPeriph_Driver/src/stm32f10x_gpio.c ****   else if (GPIOx == GPIOF)
 139:stm32f10x_lib/STM32F10x_StdPeriph_Driver/src/stm32f10x_gpio.c ****   {
 140:stm32f10x_lib/STM32F10x_StdPeriph_Driver/src/stm32f10x_gpio.c ****     RCC_APB2PeriphResetCmd(RCC_APB2Periph_GPIOF, ENABLE);
 141:stm32f10x_lib/STM32F10x_StdPeriph_Driver/src/stm32f10x_gpio.c ****     RCC_APB2PeriphResetCmd(RCC_APB2Periph_GPIOF, DISABLE);
 142:stm32f10x_lib/STM32F10x_StdPeriph_Driver/src/stm32f10x_gpio.c ****   }
 143:stm32f10x_lib/STM32F10x_StdPeriph_Driver/src/stm32f10x_gpio.c ****   else
 144:stm32f10x_lib/STM32F10x_StdPeriph_Driver/src/stm32f10x_gpio.c ****   {
 145:stm32f10x_lib/STM32F10x_StdPeriph_Driver/src/stm32f10x_gpio.c ****     if (GPIOx == GPIOG)
 146:stm32f10x_lib/STM32F10x_StdPeriph_Driver/src/stm32f10x_gpio.c ****     {
 147:stm32f10x_lib/STM32F10x_StdPeriph_Driver/src/stm32f10x_gpio.c ****       RCC_APB2PeriphResetCmd(RCC_APB2Periph_GPIOG, ENABLE);
 148:stm32f10x_lib/STM32F10x_StdPeriph_Driver/src/stm32f10x_gpio.c ****       RCC_APB2PeriphResetCmd(RCC_APB2Periph_GPIOG, DISABLE);
 149:stm32f10x_lib/STM32F10x_StdPeriph_Driver/src/stm32f10x_gpio.c ****     }
 150:stm32f10x_lib/STM32F10x_StdPeriph_Driver/src/stm32f10x_gpio.c ****   }
 151:stm32f10x_lib/STM32F10x_StdPeriph_Driver/src/stm32f10x_gpio.c **** }
 118              		.loc 1 151 1 is_stmt 0 view .LVU8
 119 0014 BDE80840 		pop	{r3, lr}	@
 120              	.LCFI1:
 121              		.cfi_remember_state
 122              		.cfi_restore 14
 123              		.cfi_restore 3
 124              		.cfi_def_cfa_offset 0
 125              	@ stm32f10x_lib/STM32F10x_StdPeriph_Driver/src/stm32f10x_gpio.c:148:       RCC_APB2PeriphResetCmd(R
 148:stm32f10x_lib/STM32F10x_StdPeriph_Driver/src/stm32f10x_gpio.c ****     }
 126              		.loc 1 148 7 view .LVU9
 127 0018 FFF7FEBF 		b	RCC_APB2PeriphResetCmd		@
 128              	.LVL3:
 129              	.L2:
 130              	.LCFI2:
 131              		.cfi_restore_state
 118:stm32f10x_lib/STM32F10x_StdPeriph_Driver/src/stm32f10x_gpio.c ****   {
ARM GAS  C:\Users\ADMINI~1\AppData\Local\Temp\cc5aRzqp.s 			page 6


 132              		.loc 1 118 8 is_stmt 1 view .LVU10
 133              	@ stm32f10x_lib/STM32F10x_StdPeriph_Driver/src/stm32f10x_gpio.c:118:   else if (GPIOx == GPIOB)
 118:stm32f10x_lib/STM32F10x_StdPeriph_Driver/src/stm32f10x_gpio.c ****   {
 134              		.loc 1 118 11 is_stmt 0 view .LVU11
 135 001c 204B     		ldr	r3, .L10+4	@ tmp115,
 136 001e 9842     		cmp	r0, r3	@ GPIOx, tmp115
 137 0020 06D1     		bne	.L3		@,
 120:stm32f10x_lib/STM32F10x_StdPeriph_Driver/src/stm32f10x_gpio.c ****     RCC_APB2PeriphResetCmd(RCC_APB2Periph_GPIOB, DISABLE);
 138              		.loc 1 120 5 is_stmt 1 view .LVU12
 139 0022 0121     		movs	r1, #1	@,
 140 0024 0820     		movs	r0, #8	@,
 141              	.LVL4:
 120:stm32f10x_lib/STM32F10x_StdPeriph_Driver/src/stm32f10x_gpio.c ****     RCC_APB2PeriphResetCmd(RCC_APB2Periph_GPIOB, DISABLE);
 142              		.loc 1 120 5 is_stmt 0 view .LVU13
 143 0026 FFF7FEFF 		bl	RCC_APB2PeriphResetCmd		@
 144              	.LVL5:
 121:stm32f10x_lib/STM32F10x_StdPeriph_Driver/src/stm32f10x_gpio.c ****   }
 145              		.loc 1 121 5 is_stmt 1 view .LVU14
 146 002a 0021     		movs	r1, #0	@,
 147 002c 0820     		movs	r0, #8	@,
 148 002e F1E7     		b	.L9		@
 149              	.LVL6:
 150              	.L3:
 123:stm32f10x_lib/STM32F10x_StdPeriph_Driver/src/stm32f10x_gpio.c ****   {
 151              		.loc 1 123 8 view .LVU15
 152              	@ stm32f10x_lib/STM32F10x_StdPeriph_Driver/src/stm32f10x_gpio.c:123:   else if (GPIOx == GPIOC)
 123:stm32f10x_lib/STM32F10x_StdPeriph_Driver/src/stm32f10x_gpio.c ****   {
 153              		.loc 1 123 11 is_stmt 0 view .LVU16
 154 0030 1C4B     		ldr	r3, .L10+8	@ tmp116,
 155 0032 9842     		cmp	r0, r3	@ GPIOx, tmp116
 156 0034 06D1     		bne	.L4		@,
 125:stm32f10x_lib/STM32F10x_StdPeriph_Driver/src/stm32f10x_gpio.c ****     RCC_APB2PeriphResetCmd(RCC_APB2Periph_GPIOC, DISABLE);
 157              		.loc 1 125 5 is_stmt 1 view .LVU17
 158 0036 0121     		movs	r1, #1	@,
 159 0038 1020     		movs	r0, #16	@,
 160              	.LVL7:
 125:stm32f10x_lib/STM32F10x_StdPeriph_Driver/src/stm32f10x_gpio.c ****     RCC_APB2PeriphResetCmd(RCC_APB2Periph_GPIOC, DISABLE);
 161              		.loc 1 125 5 is_stmt 0 view .LVU18
 162 003a FFF7FEFF 		bl	RCC_APB2PeriphResetCmd		@
 163              	.LVL8:
 126:stm32f10x_lib/STM32F10x_StdPeriph_Driver/src/stm32f10x_gpio.c ****   }
 164              		.loc 1 126 5 is_stmt 1 view .LVU19
 165 003e 0021     		movs	r1, #0	@,
 166 0040 1020     		movs	r0, #16	@,
 167 0042 E7E7     		b	.L9		@
 168              	.LVL9:
 169              	.L4:
 128:stm32f10x_lib/STM32F10x_StdPeriph_Driver/src/stm32f10x_gpio.c ****   {
 170              		.loc 1 128 8 view .LVU20
 171              	@ stm32f10x_lib/STM32F10x_StdPeriph_Driver/src/stm32f10x_gpio.c:128:   else if (GPIOx == GPIOD)
 128:stm32f10x_lib/STM32F10x_StdPeriph_Driver/src/stm32f10x_gpio.c ****   {
 172              		.loc 1 128 11 is_stmt 0 view .LVU21
 173 0044 184B     		ldr	r3, .L10+12	@ tmp117,
 174 0046 9842     		cmp	r0, r3	@ GPIOx, tmp117
 175 0048 06D1     		bne	.L5		@,
 130:stm32f10x_lib/STM32F10x_StdPeriph_Driver/src/stm32f10x_gpio.c ****     RCC_APB2PeriphResetCmd(RCC_APB2Periph_GPIOD, DISABLE);
 176              		.loc 1 130 5 is_stmt 1 view .LVU22
ARM GAS  C:\Users\ADMINI~1\AppData\Local\Temp\cc5aRzqp.s 			page 7


 177 004a 0121     		movs	r1, #1	@,
 178 004c 2020     		movs	r0, #32	@,
 179              	.LVL10:
 130:stm32f10x_lib/STM32F10x_StdPeriph_Driver/src/stm32f10x_gpio.c ****     RCC_APB2PeriphResetCmd(RCC_APB2Periph_GPIOD, DISABLE);
 180              		.loc 1 130 5 is_stmt 0 view .LVU23
 181 004e FFF7FEFF 		bl	RCC_APB2PeriphResetCmd		@
 182              	.LVL11:
 131:stm32f10x_lib/STM32F10x_StdPeriph_Driver/src/stm32f10x_gpio.c ****   }    
 183              		.loc 1 131 5 is_stmt 1 view .LVU24
 184 0052 0021     		movs	r1, #0	@,
 185 0054 2020     		movs	r0, #32	@,
 186 0056 DDE7     		b	.L9		@
 187              	.LVL12:
 188              	.L5:
 133:stm32f10x_lib/STM32F10x_StdPeriph_Driver/src/stm32f10x_gpio.c ****   {
 189              		.loc 1 133 8 view .LVU25
 190              	@ stm32f10x_lib/STM32F10x_StdPeriph_Driver/src/stm32f10x_gpio.c:133:   else if (GPIOx == GPIOE)
 133:stm32f10x_lib/STM32F10x_StdPeriph_Driver/src/stm32f10x_gpio.c ****   {
 191              		.loc 1 133 11 is_stmt 0 view .LVU26
 192 0058 144B     		ldr	r3, .L10+16	@ tmp118,
 193 005a 9842     		cmp	r0, r3	@ GPIOx, tmp118
 194 005c 06D1     		bne	.L6		@,
 135:stm32f10x_lib/STM32F10x_StdPeriph_Driver/src/stm32f10x_gpio.c ****     RCC_APB2PeriphResetCmd(RCC_APB2Periph_GPIOE, DISABLE);
 195              		.loc 1 135 5 is_stmt 1 view .LVU27
 196 005e 0121     		movs	r1, #1	@,
 197 0060 4020     		movs	r0, #64	@,
 198              	.LVL13:
 135:stm32f10x_lib/STM32F10x_StdPeriph_Driver/src/stm32f10x_gpio.c ****     RCC_APB2PeriphResetCmd(RCC_APB2Periph_GPIOE, DISABLE);
 199              		.loc 1 135 5 is_stmt 0 view .LVU28
 200 0062 FFF7FEFF 		bl	RCC_APB2PeriphResetCmd		@
 201              	.LVL14:
 136:stm32f10x_lib/STM32F10x_StdPeriph_Driver/src/stm32f10x_gpio.c ****   } 
 202              		.loc 1 136 5 is_stmt 1 view .LVU29
 203 0066 0021     		movs	r1, #0	@,
 204 0068 4020     		movs	r0, #64	@,
 205 006a D3E7     		b	.L9		@
 206              	.LVL15:
 207              	.L6:
 138:stm32f10x_lib/STM32F10x_StdPeriph_Driver/src/stm32f10x_gpio.c ****   {
 208              		.loc 1 138 8 view .LVU30
 209              	@ stm32f10x_lib/STM32F10x_StdPeriph_Driver/src/stm32f10x_gpio.c:138:   else if (GPIOx == GPIOF)
 138:stm32f10x_lib/STM32F10x_StdPeriph_Driver/src/stm32f10x_gpio.c ****   {
 210              		.loc 1 138 11 is_stmt 0 view .LVU31
 211 006c 104B     		ldr	r3, .L10+20	@ tmp119,
 212 006e 9842     		cmp	r0, r3	@ GPIOx, tmp119
 213 0070 06D1     		bne	.L7		@,
 140:stm32f10x_lib/STM32F10x_StdPeriph_Driver/src/stm32f10x_gpio.c ****     RCC_APB2PeriphResetCmd(RCC_APB2Periph_GPIOF, DISABLE);
 214              		.loc 1 140 5 is_stmt 1 view .LVU32
 215 0072 0121     		movs	r1, #1	@,
 216 0074 8020     		movs	r0, #128	@,
 217              	.LVL16:
 140:stm32f10x_lib/STM32F10x_StdPeriph_Driver/src/stm32f10x_gpio.c ****     RCC_APB2PeriphResetCmd(RCC_APB2Periph_GPIOF, DISABLE);
 218              		.loc 1 140 5 is_stmt 0 view .LVU33
 219 0076 FFF7FEFF 		bl	RCC_APB2PeriphResetCmd		@
 220              	.LVL17:
 141:stm32f10x_lib/STM32F10x_StdPeriph_Driver/src/stm32f10x_gpio.c ****   }
 221              		.loc 1 141 5 is_stmt 1 view .LVU34
ARM GAS  C:\Users\ADMINI~1\AppData\Local\Temp\cc5aRzqp.s 			page 8


 222 007a 0021     		movs	r1, #0	@,
 223 007c 8020     		movs	r0, #128	@,
 224 007e C9E7     		b	.L9		@
 225              	.LVL18:
 226              	.L7:
 145:stm32f10x_lib/STM32F10x_StdPeriph_Driver/src/stm32f10x_gpio.c ****     {
 227              		.loc 1 145 5 view .LVU35
 228              	@ stm32f10x_lib/STM32F10x_StdPeriph_Driver/src/stm32f10x_gpio.c:145:     if (GPIOx == GPIOG)
 145:stm32f10x_lib/STM32F10x_StdPeriph_Driver/src/stm32f10x_gpio.c ****     {
 229              		.loc 1 145 8 is_stmt 0 view .LVU36
 230 0080 0C4B     		ldr	r3, .L10+24	@ tmp120,
 231 0082 9842     		cmp	r0, r3	@ GPIOx, tmp120
 232 0084 08D1     		bne	.L1		@,
 147:stm32f10x_lib/STM32F10x_StdPeriph_Driver/src/stm32f10x_gpio.c ****       RCC_APB2PeriphResetCmd(RCC_APB2Periph_GPIOG, DISABLE);
 233              		.loc 1 147 7 is_stmt 1 view .LVU37
 234 0086 0121     		movs	r1, #1	@,
 235 0088 4FF48070 		mov	r0, #256	@,
 236              	.LVL19:
 147:stm32f10x_lib/STM32F10x_StdPeriph_Driver/src/stm32f10x_gpio.c ****       RCC_APB2PeriphResetCmd(RCC_APB2Periph_GPIOG, DISABLE);
 237              		.loc 1 147 7 is_stmt 0 view .LVU38
 238 008c FFF7FEFF 		bl	RCC_APB2PeriphResetCmd		@
 239              	.LVL20:
 148:stm32f10x_lib/STM32F10x_StdPeriph_Driver/src/stm32f10x_gpio.c ****     }
 240              		.loc 1 148 7 is_stmt 1 view .LVU39
 241 0090 0021     		movs	r1, #0	@,
 242 0092 4FF48070 		mov	r0, #256	@,
 243 0096 BDE7     		b	.L9		@
 244              	.LVL21:
 245              	.L1:
 246              	@ stm32f10x_lib/STM32F10x_StdPeriph_Driver/src/stm32f10x_gpio.c:151: }
 247              		.loc 1 151 1 is_stmt 0 view .LVU40
 248 0098 08BD     		pop	{r3, pc}	@
 249              	.L11:
 250 009a 00BF     		.align	2
 251              	.L10:
 252 009c 00080140 		.word	1073809408
 253 00a0 000C0140 		.word	1073810432
 254 00a4 00100140 		.word	1073811456
 255 00a8 00140140 		.word	1073812480
 256 00ac 00180140 		.word	1073813504
 257 00b0 001C0140 		.word	1073814528
 258 00b4 00200140 		.word	1073815552
 259              		.cfi_endproc
 260              	.LFE29:
 261              		.size	GPIO_DeInit, .-GPIO_DeInit
 262              		.align	1
 263              		.global	GPIO_AFIODeInit
 264              		.syntax unified
 265              		.thumb
 266              		.thumb_func
 267              		.type	GPIO_AFIODeInit, %function
 268              	GPIO_AFIODeInit:
 269              	.LFB30:
 152:stm32f10x_lib/STM32F10x_StdPeriph_Driver/src/stm32f10x_gpio.c **** 
 153:stm32f10x_lib/STM32F10x_StdPeriph_Driver/src/stm32f10x_gpio.c **** /**
 154:stm32f10x_lib/STM32F10x_StdPeriph_Driver/src/stm32f10x_gpio.c ****   * @brief  Deinitializes the Alternate Functions (remap, event control
 155:stm32f10x_lib/STM32F10x_StdPeriph_Driver/src/stm32f10x_gpio.c ****   *   and EXTI configuration) registers to their default reset values.
ARM GAS  C:\Users\ADMINI~1\AppData\Local\Temp\cc5aRzqp.s 			page 9


 156:stm32f10x_lib/STM32F10x_StdPeriph_Driver/src/stm32f10x_gpio.c ****   * @param  None
 157:stm32f10x_lib/STM32F10x_StdPeriph_Driver/src/stm32f10x_gpio.c ****   * @retval None
 158:stm32f10x_lib/STM32F10x_StdPeriph_Driver/src/stm32f10x_gpio.c ****   */
 159:stm32f10x_lib/STM32F10x_StdPeriph_Driver/src/stm32f10x_gpio.c **** void GPIO_AFIODeInit(void)
 160:stm32f10x_lib/STM32F10x_StdPeriph_Driver/src/stm32f10x_gpio.c **** {
 270              		.loc 1 160 1 is_stmt 1 view -0
 271              		.cfi_startproc
 272              		@ args = 0, pretend = 0, frame = 0
 273              		@ frame_needed = 0, uses_anonymous_args = 0
 161:stm32f10x_lib/STM32F10x_StdPeriph_Driver/src/stm32f10x_gpio.c ****   RCC_APB2PeriphResetCmd(RCC_APB2Periph_AFIO, ENABLE);
 274              		.loc 1 161 3 view .LVU42
 275 00b8 0121     		movs	r1, #1	@,
 276              	@ stm32f10x_lib/STM32F10x_StdPeriph_Driver/src/stm32f10x_gpio.c:160: {
 160:stm32f10x_lib/STM32F10x_StdPeriph_Driver/src/stm32f10x_gpio.c ****   RCC_APB2PeriphResetCmd(RCC_APB2Periph_AFIO, ENABLE);
 277              		.loc 1 160 1 is_stmt 0 view .LVU43
 278 00ba 08B5     		push	{r3, lr}	@
 279              	.LCFI3:
 280              		.cfi_def_cfa_offset 8
 281              		.cfi_offset 3, -8
 282              		.cfi_offset 14, -4
 283              	@ stm32f10x_lib/STM32F10x_StdPeriph_Driver/src/stm32f10x_gpio.c:161:   RCC_APB2PeriphResetCmd(RCC_A
 284              		.loc 1 161 3 view .LVU44
 285 00bc 0846     		mov	r0, r1	@,
 286 00be FFF7FEFF 		bl	RCC_APB2PeriphResetCmd		@
 287              	.LVL22:
 162:stm32f10x_lib/STM32F10x_StdPeriph_Driver/src/stm32f10x_gpio.c ****   RCC_APB2PeriphResetCmd(RCC_APB2Periph_AFIO, DISABLE);
 288              		.loc 1 162 3 is_stmt 1 view .LVU45
 289              	@ stm32f10x_lib/STM32F10x_StdPeriph_Driver/src/stm32f10x_gpio.c:163: }
 163:stm32f10x_lib/STM32F10x_StdPeriph_Driver/src/stm32f10x_gpio.c **** }
 290              		.loc 1 163 1 is_stmt 0 view .LVU46
 291 00c2 BDE80840 		pop	{r3, lr}	@
 292              	.LCFI4:
 293              		.cfi_restore 14
 294              		.cfi_restore 3
 295              		.cfi_def_cfa_offset 0
 296              	@ stm32f10x_lib/STM32F10x_StdPeriph_Driver/src/stm32f10x_gpio.c:162:   RCC_APB2PeriphResetCmd(RCC_A
 162:stm32f10x_lib/STM32F10x_StdPeriph_Driver/src/stm32f10x_gpio.c ****   RCC_APB2PeriphResetCmd(RCC_APB2Periph_AFIO, DISABLE);
 297              		.loc 1 162 3 view .LVU47
 298 00c6 0021     		movs	r1, #0	@,
 299 00c8 0120     		movs	r0, #1	@,
 300 00ca FFF7FEBF 		b	RCC_APB2PeriphResetCmd		@
 301              	.LVL23:
 302              		.cfi_endproc
 303              	.LFE30:
 304              		.size	GPIO_AFIODeInit, .-GPIO_AFIODeInit
 305              		.align	1
 306              		.global	GPIO_Init
 307              		.syntax unified
 308              		.thumb
 309              		.thumb_func
 310              		.type	GPIO_Init, %function
 311              	GPIO_Init:
 312              	.LVL24:
 313              	.LFB31:
 164:stm32f10x_lib/STM32F10x_StdPeriph_Driver/src/stm32f10x_gpio.c **** 
 165:stm32f10x_lib/STM32F10x_StdPeriph_Driver/src/stm32f10x_gpio.c **** /**
 166:stm32f10x_lib/STM32F10x_StdPeriph_Driver/src/stm32f10x_gpio.c ****   * @brief  Initializes the GPIOx peripheral according to the specified
ARM GAS  C:\Users\ADMINI~1\AppData\Local\Temp\cc5aRzqp.s 			page 10


 167:stm32f10x_lib/STM32F10x_StdPeriph_Driver/src/stm32f10x_gpio.c ****   *         parameters in the GPIO_InitStruct.
 168:stm32f10x_lib/STM32F10x_StdPeriph_Driver/src/stm32f10x_gpio.c ****   * @param  GPIOx: where x can be (A..G) to select the GPIO peripheral.
 169:stm32f10x_lib/STM32F10x_StdPeriph_Driver/src/stm32f10x_gpio.c ****   * @param  GPIO_InitStruct: pointer to a GPIO_InitTypeDef structure that
 170:stm32f10x_lib/STM32F10x_StdPeriph_Driver/src/stm32f10x_gpio.c ****   *         contains the configuration information for the specified GPIO peripheral.
 171:stm32f10x_lib/STM32F10x_StdPeriph_Driver/src/stm32f10x_gpio.c ****   * @retval None
 172:stm32f10x_lib/STM32F10x_StdPeriph_Driver/src/stm32f10x_gpio.c ****   */
 173:stm32f10x_lib/STM32F10x_StdPeriph_Driver/src/stm32f10x_gpio.c **** void GPIO_Init(GPIO_TypeDef* GPIOx, GPIO_InitTypeDef* GPIO_InitStruct)
 174:stm32f10x_lib/STM32F10x_StdPeriph_Driver/src/stm32f10x_gpio.c **** {
 314              		.loc 1 174 1 is_stmt 1 view -0
 315              		.cfi_startproc
 316              		@ args = 0, pretend = 0, frame = 0
 317              		@ frame_needed = 0, uses_anonymous_args = 0
 175:stm32f10x_lib/STM32F10x_StdPeriph_Driver/src/stm32f10x_gpio.c ****   uint32_t currentmode = 0x00, currentpin = 0x00, pinpos = 0x00, pos = 0x00;
 318              		.loc 1 175 3 view .LVU49
 176:stm32f10x_lib/STM32F10x_StdPeriph_Driver/src/stm32f10x_gpio.c ****   uint32_t tmpreg = 0x00, pinmask = 0x00;
 319              		.loc 1 176 3 view .LVU50
 177:stm32f10x_lib/STM32F10x_StdPeriph_Driver/src/stm32f10x_gpio.c ****   /* Check the parameters */
 178:stm32f10x_lib/STM32F10x_StdPeriph_Driver/src/stm32f10x_gpio.c ****   assert_param(IS_GPIO_ALL_PERIPH(GPIOx));
 320              		.loc 1 178 3 view .LVU51
 179:stm32f10x_lib/STM32F10x_StdPeriph_Driver/src/stm32f10x_gpio.c ****   assert_param(IS_GPIO_MODE(GPIO_InitStruct->GPIO_Mode));
 321              		.loc 1 179 3 view .LVU52
 180:stm32f10x_lib/STM32F10x_StdPeriph_Driver/src/stm32f10x_gpio.c ****   assert_param(IS_GPIO_PIN(GPIO_InitStruct->GPIO_Pin));  
 322              		.loc 1 180 3 view .LVU53
 181:stm32f10x_lib/STM32F10x_StdPeriph_Driver/src/stm32f10x_gpio.c ****   
 182:stm32f10x_lib/STM32F10x_StdPeriph_Driver/src/stm32f10x_gpio.c **** /*---------------------------- GPIO Mode Configuration -----------------------*/
 183:stm32f10x_lib/STM32F10x_StdPeriph_Driver/src/stm32f10x_gpio.c ****   currentmode = ((uint32_t)GPIO_InitStruct->GPIO_Mode) & ((uint32_t)0x0F);
 323              		.loc 1 183 3 view .LVU54
 324              	@ stm32f10x_lib/STM32F10x_StdPeriph_Driver/src/stm32f10x_gpio.c:174: {
 174:stm32f10x_lib/STM32F10x_StdPeriph_Driver/src/stm32f10x_gpio.c ****   uint32_t currentmode = 0x00, currentpin = 0x00, pinpos = 0x00, pos = 0x00;
 325              		.loc 1 174 1 is_stmt 0 view .LVU55
 326 00ce 2DE9F041 		push	{r4, r5, r6, r7, r8, lr}	@
 327              	.LCFI5:
 328              		.cfi_def_cfa_offset 24
 329              		.cfi_offset 4, -24
 330              		.cfi_offset 5, -20
 331              		.cfi_offset 6, -16
 332              		.cfi_offset 7, -12
 333              		.cfi_offset 8, -8
 334              		.cfi_offset 14, -4
 335              	@ stm32f10x_lib/STM32F10x_StdPeriph_Driver/src/stm32f10x_gpio.c:183:   currentmode = ((uint32_t)GPI
 336              		.loc 1 183 43 view .LVU56
 337 00d2 CB78     		ldrb	r3, [r1, #3]	@ zero_extendqisi2	@ _1, GPIO_InitStruct_32(D)->GPIO_Mode
 338              	@ stm32f10x_lib/STM32F10x_StdPeriph_Driver/src/stm32f10x_gpio.c:193:   if (((uint32_t)GPIO_InitStru
 184:stm32f10x_lib/STM32F10x_StdPeriph_Driver/src/stm32f10x_gpio.c ****   if ((((uint32_t)GPIO_InitStruct->GPIO_Mode) & ((uint32_t)0x10)) != 0x00)
 185:stm32f10x_lib/STM32F10x_StdPeriph_Driver/src/stm32f10x_gpio.c ****   { 
 186:stm32f10x_lib/STM32F10x_StdPeriph_Driver/src/stm32f10x_gpio.c ****     /* Check the parameters */
 187:stm32f10x_lib/STM32F10x_StdPeriph_Driver/src/stm32f10x_gpio.c ****     assert_param(IS_GPIO_SPEED(GPIO_InitStruct->GPIO_Speed));
 188:stm32f10x_lib/STM32F10x_StdPeriph_Driver/src/stm32f10x_gpio.c ****     /* Output mode */
 189:stm32f10x_lib/STM32F10x_StdPeriph_Driver/src/stm32f10x_gpio.c ****     currentmode |= (uint32_t)GPIO_InitStruct->GPIO_Speed;
 190:stm32f10x_lib/STM32F10x_StdPeriph_Driver/src/stm32f10x_gpio.c ****   }
 191:stm32f10x_lib/STM32F10x_StdPeriph_Driver/src/stm32f10x_gpio.c **** /*---------------------------- GPIO CRL Configuration ------------------------*/
 192:stm32f10x_lib/STM32F10x_StdPeriph_Driver/src/stm32f10x_gpio.c ****   /* Configure the eight low port pins */
 193:stm32f10x_lib/STM32F10x_StdPeriph_Driver/src/stm32f10x_gpio.c ****   if (((uint32_t)GPIO_InitStruct->GPIO_Pin & ((uint32_t)0x00FF)) != 0x00)
 339              		.loc 1 193 33 view .LVU57
 340 00d4 0F88     		ldrh	r7, [r1]	@ _6, GPIO_InitStruct_32(D)->GPIO_Pin
 341              	@ stm32f10x_lib/STM32F10x_StdPeriph_Driver/src/stm32f10x_gpio.c:184:   if ((((uint32_t)GPIO_InitStr
 184:stm32f10x_lib/STM32F10x_StdPeriph_Driver/src/stm32f10x_gpio.c ****   if ((((uint32_t)GPIO_InitStruct->GPIO_Mode) & ((uint32_t)0x10)) != 0x00)
ARM GAS  C:\Users\ADMINI~1\AppData\Local\Temp\cc5aRzqp.s 			page 11


 342              		.loc 1 184 6 view .LVU58
 343 00d6 DA06     		lsls	r2, r3, #27	@, _1,
 344 00d8 48BF     		it	mi
 345 00da 8A78     		ldrbmi	r2, [r1, #2]	@ zero_extendqisi2	@ GPIO_InitStruct_32(D)->GPIO_Speed, GPIO_InitStruct_32(D)-
 346 00dc 03F00F05 		and	r5, r3, #15	@ _2, _1,
 347              	.LVL25:
 184:stm32f10x_lib/STM32F10x_StdPeriph_Driver/src/stm32f10x_gpio.c ****   if ((((uint32_t)GPIO_InitStruct->GPIO_Mode) & ((uint32_t)0x10)) != 0x00)
 348              		.loc 1 184 3 is_stmt 1 view .LVU59
 187:stm32f10x_lib/STM32F10x_StdPeriph_Driver/src/stm32f10x_gpio.c ****     /* Output mode */
 349              		.loc 1 187 5 view .LVU60
 189:stm32f10x_lib/STM32F10x_StdPeriph_Driver/src/stm32f10x_gpio.c ****   }
 350              		.loc 1 189 5 view .LVU61
 189:stm32f10x_lib/STM32F10x_StdPeriph_Driver/src/stm32f10x_gpio.c ****   }
 351              		.loc 1 189 5 is_stmt 0 view .LVU62
 352 00e0 48BF     		it	mi
 353 00e2 1543     		orrmi	r5, r5, r2	@ _2, _2, GPIO_InitStruct_32(D)->GPIO_Speed
 354              	.LVL26:
 355              		.loc 1 193 3 is_stmt 1 view .LVU63
 356              	@ stm32f10x_lib/STM32F10x_StdPeriph_Driver/src/stm32f10x_gpio.c:193:   if (((uint32_t)GPIO_InitStru
 357              		.loc 1 193 6 is_stmt 0 view .LVU64
 358 00e4 0A78     		ldrb	r2, [r1]	@ zero_extendqisi2	@ _6, GPIO_InitStruct_32(D)->GPIO_Pin
 359              	.LVL27:
 360              		.loc 1 193 6 view .LVU65
 361 00e6 D2B1     		cbz	r2, .L15	@ _6,
 194:stm32f10x_lib/STM32F10x_StdPeriph_Driver/src/stm32f10x_gpio.c ****   {
 195:stm32f10x_lib/STM32F10x_StdPeriph_Driver/src/stm32f10x_gpio.c ****     tmpreg = GPIOx->CRL;
 362              		.loc 1 195 5 is_stmt 1 view .LVU66
 363              	@ stm32f10x_lib/STM32F10x_StdPeriph_Driver/src/stm32f10x_gpio.c:196:     for (pinpos = 0x00; pinpos
 196:stm32f10x_lib/STM32F10x_StdPeriph_Driver/src/stm32f10x_gpio.c ****     for (pinpos = 0x00; pinpos < 0x08; pinpos++)
 364              		.loc 1 196 17 is_stmt 0 view .LVU67
 365 00e8 0021     		movs	r1, #0	@ pinpos,
 366              	.LVL28:
 367              	@ stm32f10x_lib/STM32F10x_StdPeriph_Driver/src/stm32f10x_gpio.c:198:       pos = ((uint32_t)0x01) <
 197:stm32f10x_lib/STM32F10x_StdPeriph_Driver/src/stm32f10x_gpio.c ****     {
 198:stm32f10x_lib/STM32F10x_StdPeriph_Driver/src/stm32f10x_gpio.c ****       pos = ((uint32_t)0x01) << pinpos;
 368              		.loc 1 198 11 view .LVU68
 369 00ea 4FF0010C 		mov	ip, #1	@ tmp152,
 370              	@ stm32f10x_lib/STM32F10x_StdPeriph_Driver/src/stm32f10x_gpio.c:205:         pinmask = ((uint32_t)0
 199:stm32f10x_lib/STM32F10x_StdPeriph_Driver/src/stm32f10x_gpio.c ****       /* Get the port pins position */
 200:stm32f10x_lib/STM32F10x_StdPeriph_Driver/src/stm32f10x_gpio.c ****       currentpin = (GPIO_InitStruct->GPIO_Pin) & pos;
 201:stm32f10x_lib/STM32F10x_StdPeriph_Driver/src/stm32f10x_gpio.c ****       if (currentpin == pos)
 202:stm32f10x_lib/STM32F10x_StdPeriph_Driver/src/stm32f10x_gpio.c ****       {
 203:stm32f10x_lib/STM32F10x_StdPeriph_Driver/src/stm32f10x_gpio.c ****         pos = pinpos << 2;
 204:stm32f10x_lib/STM32F10x_StdPeriph_Driver/src/stm32f10x_gpio.c ****         /* Clear the corresponding low control register bits */
 205:stm32f10x_lib/STM32F10x_StdPeriph_Driver/src/stm32f10x_gpio.c ****         pinmask = ((uint32_t)0x0F) << pos;
 371              		.loc 1 205 17 view .LVU69
 372 00ee 4FF00F0E 		mov	lr, #15	@ tmp168,
 373              	@ stm32f10x_lib/STM32F10x_StdPeriph_Driver/src/stm32f10x_gpio.c:195:     tmpreg = GPIOx->CRL;
 195:stm32f10x_lib/STM32F10x_StdPeriph_Driver/src/stm32f10x_gpio.c ****     for (pinpos = 0x00; pinpos < 0x08; pinpos++)
 374              		.loc 1 195 12 view .LVU70
 375 00f2 0268     		ldr	r2, [r0]	@ tmpreg, GPIOx_33(D)->CRL
 376              	.LVL29:
 196:stm32f10x_lib/STM32F10x_StdPeriph_Driver/src/stm32f10x_gpio.c ****     {
 377              		.loc 1 196 5 is_stmt 1 view .LVU71
 196:stm32f10x_lib/STM32F10x_StdPeriph_Driver/src/stm32f10x_gpio.c ****     {
 378              		.loc 1 196 25 view .LVU72
 379              	.L18:
ARM GAS  C:\Users\ADMINI~1\AppData\Local\Temp\cc5aRzqp.s 			page 12


 198:stm32f10x_lib/STM32F10x_StdPeriph_Driver/src/stm32f10x_gpio.c ****       /* Get the port pins position */
 380              		.loc 1 198 7 view .LVU73
 381              	@ stm32f10x_lib/STM32F10x_StdPeriph_Driver/src/stm32f10x_gpio.c:198:       pos = ((uint32_t)0x01) <
 198:stm32f10x_lib/STM32F10x_StdPeriph_Driver/src/stm32f10x_gpio.c ****       /* Get the port pins position */
 382              		.loc 1 198 11 is_stmt 0 view .LVU74
 383 00f4 0CFA01F6 		lsl	r6, ip, r1	@ pos, tmp152, pinpos
 384              	.LVL30:
 200:stm32f10x_lib/STM32F10x_StdPeriph_Driver/src/stm32f10x_gpio.c ****       if (currentpin == pos)
 385              		.loc 1 200 7 is_stmt 1 view .LVU75
 201:stm32f10x_lib/STM32F10x_StdPeriph_Driver/src/stm32f10x_gpio.c ****       {
 386              		.loc 1 201 7 view .LVU76
 387              	@ stm32f10x_lib/STM32F10x_StdPeriph_Driver/src/stm32f10x_gpio.c:201:       if (currentpin == pos)
 201:stm32f10x_lib/STM32F10x_StdPeriph_Driver/src/stm32f10x_gpio.c ****       {
 388              		.loc 1 201 10 is_stmt 0 view .LVU77
 389 00f8 36EA0704 		bics	r4, r6, r7	@ tmp174, pos, _6
 390 00fc 0BD1     		bne	.L16		@,
 203:stm32f10x_lib/STM32F10x_StdPeriph_Driver/src/stm32f10x_gpio.c ****         /* Clear the corresponding low control register bits */
 391              		.loc 1 203 9 is_stmt 1 view .LVU78
 392 00fe 8C00     		lsls	r4, r1, #2	@ _74, pinpos,
 393              	.LVL31:
 394              		.loc 1 205 9 view .LVU79
 206:stm32f10x_lib/STM32F10x_StdPeriph_Driver/src/stm32f10x_gpio.c ****         tmpreg &= ~pinmask;
 395              		.loc 1 206 9 view .LVU80
 396              	@ stm32f10x_lib/STM32F10x_StdPeriph_Driver/src/stm32f10x_gpio.c:205:         pinmask = ((uint32_t)0
 205:stm32f10x_lib/STM32F10x_StdPeriph_Driver/src/stm32f10x_gpio.c ****         tmpreg &= ~pinmask;
 397              		.loc 1 205 17 is_stmt 0 view .LVU81
 398 0100 0EFA04F8 		lsl	r8, lr, r4	@ pinmask, tmp168, _74
 399              	@ stm32f10x_lib/STM32F10x_StdPeriph_Driver/src/stm32f10x_gpio.c:206:         tmpreg &= ~pinmask;
 400              		.loc 1 206 16 view .LVU82
 401 0104 22EA0802 		bic	r2, r2, r8	@ tmpreg, tmpreg, pinmask
 402              	.LVL32:
 207:stm32f10x_lib/STM32F10x_StdPeriph_Driver/src/stm32f10x_gpio.c ****         /* Write the mode configuration in the corresponding bits */
 208:stm32f10x_lib/STM32F10x_StdPeriph_Driver/src/stm32f10x_gpio.c ****         tmpreg |= (currentmode << pos);
 403              		.loc 1 208 9 is_stmt 1 view .LVU83
 404              	@ stm32f10x_lib/STM32F10x_StdPeriph_Driver/src/stm32f10x_gpio.c:208:         tmpreg |= (currentmode
 405              		.loc 1 208 32 is_stmt 0 view .LVU84
 406 0108 05FA04F4 		lsl	r4, r5, r4	@ tmp157, _2, _74
 407              	.LVL33:
 408              	@ stm32f10x_lib/STM32F10x_StdPeriph_Driver/src/stm32f10x_gpio.c:210:         if (GPIO_InitStruct->G
 209:stm32f10x_lib/STM32F10x_StdPeriph_Driver/src/stm32f10x_gpio.c ****         /* Reset the corresponding ODR bit */
 210:stm32f10x_lib/STM32F10x_StdPeriph_Driver/src/stm32f10x_gpio.c ****         if (GPIO_InitStruct->GPIO_Mode == GPIO_Mode_IPD)
 409              		.loc 1 210 12 view .LVU85
 410 010c 282B     		cmp	r3, #40	@ _1,
 411              	@ stm32f10x_lib/STM32F10x_StdPeriph_Driver/src/stm32f10x_gpio.c:208:         tmpreg |= (currentmode
 208:stm32f10x_lib/STM32F10x_StdPeriph_Driver/src/stm32f10x_gpio.c ****         /* Reset the corresponding ODR bit */
 412              		.loc 1 208 16 view .LVU86
 413 010e 42EA0402 		orr	r2, r2, r4	@ tmpreg, tmpreg, tmp157
 414              	.LVL34:
 415              		.loc 1 210 9 is_stmt 1 view .LVU87
 416              	@ stm32f10x_lib/STM32F10x_StdPeriph_Driver/src/stm32f10x_gpio.c:210:         if (GPIO_InitStruct->G
 417              		.loc 1 210 12 is_stmt 0 view .LVU88
 418 0112 25D1     		bne	.L17		@,
 211:stm32f10x_lib/STM32F10x_StdPeriph_Driver/src/stm32f10x_gpio.c ****         {
 212:stm32f10x_lib/STM32F10x_StdPeriph_Driver/src/stm32f10x_gpio.c ****           GPIOx->BRR = (((uint32_t)0x01) << pinpos);
 419              		.loc 1 212 11 is_stmt 1 view .LVU89
 420              	@ stm32f10x_lib/STM32F10x_StdPeriph_Driver/src/stm32f10x_gpio.c:212:           GPIOx->BRR = (((uint
 421              		.loc 1 212 22 is_stmt 0 view .LVU90
ARM GAS  C:\Users\ADMINI~1\AppData\Local\Temp\cc5aRzqp.s 			page 13


 422 0114 4661     		str	r6, [r0, #20]	@ pos, GPIOx_33(D)->BRR
 423              	.LVL35:
 424              	.L16:
 196:stm32f10x_lib/STM32F10x_StdPeriph_Driver/src/stm32f10x_gpio.c ****     {
 425              		.loc 1 196 40 is_stmt 1 discriminator 2 view .LVU91
 426              	@ stm32f10x_lib/STM32F10x_StdPeriph_Driver/src/stm32f10x_gpio.c:196:     for (pinpos = 0x00; pinpos
 196:stm32f10x_lib/STM32F10x_StdPeriph_Driver/src/stm32f10x_gpio.c ****     {
 427              		.loc 1 196 46 is_stmt 0 discriminator 2 view .LVU92
 428 0116 0131     		adds	r1, r1, #1	@ pinpos, pinpos,
 429              	.LVL36:
 196:stm32f10x_lib/STM32F10x_StdPeriph_Driver/src/stm32f10x_gpio.c ****     {
 430              		.loc 1 196 25 is_stmt 1 discriminator 2 view .LVU93
 431              	@ stm32f10x_lib/STM32F10x_StdPeriph_Driver/src/stm32f10x_gpio.c:196:     for (pinpos = 0x00; pinpos
 196:stm32f10x_lib/STM32F10x_StdPeriph_Driver/src/stm32f10x_gpio.c ****     {
 432              		.loc 1 196 5 is_stmt 0 discriminator 2 view .LVU94
 433 0118 0829     		cmp	r1, #8	@ pinpos,
 434 011a EBD1     		bne	.L18		@,
 213:stm32f10x_lib/STM32F10x_StdPeriph_Driver/src/stm32f10x_gpio.c ****         }
 214:stm32f10x_lib/STM32F10x_StdPeriph_Driver/src/stm32f10x_gpio.c ****         else
 215:stm32f10x_lib/STM32F10x_StdPeriph_Driver/src/stm32f10x_gpio.c ****         {
 216:stm32f10x_lib/STM32F10x_StdPeriph_Driver/src/stm32f10x_gpio.c ****           /* Set the corresponding ODR bit */
 217:stm32f10x_lib/STM32F10x_StdPeriph_Driver/src/stm32f10x_gpio.c ****           if (GPIO_InitStruct->GPIO_Mode == GPIO_Mode_IPU)
 218:stm32f10x_lib/STM32F10x_StdPeriph_Driver/src/stm32f10x_gpio.c ****           {
 219:stm32f10x_lib/STM32F10x_StdPeriph_Driver/src/stm32f10x_gpio.c ****             GPIOx->BSRR = (((uint32_t)0x01) << pinpos);
 220:stm32f10x_lib/STM32F10x_StdPeriph_Driver/src/stm32f10x_gpio.c ****           }
 221:stm32f10x_lib/STM32F10x_StdPeriph_Driver/src/stm32f10x_gpio.c ****         }
 222:stm32f10x_lib/STM32F10x_StdPeriph_Driver/src/stm32f10x_gpio.c ****       }
 223:stm32f10x_lib/STM32F10x_StdPeriph_Driver/src/stm32f10x_gpio.c ****     }
 224:stm32f10x_lib/STM32F10x_StdPeriph_Driver/src/stm32f10x_gpio.c ****     GPIOx->CRL = tmpreg;
 435              		.loc 1 224 5 is_stmt 1 view .LVU95
 436              	@ stm32f10x_lib/STM32F10x_StdPeriph_Driver/src/stm32f10x_gpio.c:224:     GPIOx->CRL = tmpreg;
 437              		.loc 1 224 16 is_stmt 0 view .LVU96
 438 011c 0260     		str	r2, [r0]	@ tmpreg, GPIOx_33(D)->CRL
 439              	.LVL37:
 440              	.L15:
 225:stm32f10x_lib/STM32F10x_StdPeriph_Driver/src/stm32f10x_gpio.c ****   }
 226:stm32f10x_lib/STM32F10x_StdPeriph_Driver/src/stm32f10x_gpio.c **** /*---------------------------- GPIO CRH Configuration ------------------------*/
 227:stm32f10x_lib/STM32F10x_StdPeriph_Driver/src/stm32f10x_gpio.c ****   /* Configure the eight high port pins */
 228:stm32f10x_lib/STM32F10x_StdPeriph_Driver/src/stm32f10x_gpio.c ****   if (GPIO_InitStruct->GPIO_Pin > 0x00FF)
 441              		.loc 1 228 3 is_stmt 1 view .LVU97
 442              	@ stm32f10x_lib/STM32F10x_StdPeriph_Driver/src/stm32f10x_gpio.c:228:   if (GPIO_InitStruct->GPIO_Pi
 443              		.loc 1 228 6 is_stmt 0 view .LVU98
 444 011e FF2F     		cmp	r7, #255	@ _6,
 445 0120 1CD9     		bls	.L13		@,
 229:stm32f10x_lib/STM32F10x_StdPeriph_Driver/src/stm32f10x_gpio.c ****   {
 230:stm32f10x_lib/STM32F10x_StdPeriph_Driver/src/stm32f10x_gpio.c ****     tmpreg = GPIOx->CRH;
 446              		.loc 1 230 5 is_stmt 1 view .LVU99
 447              	@ stm32f10x_lib/STM32F10x_StdPeriph_Driver/src/stm32f10x_gpio.c:231:     for (pinpos = 0x00; pinpos
 231:stm32f10x_lib/STM32F10x_StdPeriph_Driver/src/stm32f10x_gpio.c ****     for (pinpos = 0x00; pinpos < 0x08; pinpos++)
 448              		.loc 1 231 17 is_stmt 0 view .LVU100
 449 0122 0021     		movs	r1, #0	@ pinpos,
 450              	@ stm32f10x_lib/STM32F10x_StdPeriph_Driver/src/stm32f10x_gpio.c:233:       pos = (((uint32_t)0x01) 
 232:stm32f10x_lib/STM32F10x_StdPeriph_Driver/src/stm32f10x_gpio.c ****     {
 233:stm32f10x_lib/STM32F10x_StdPeriph_Driver/src/stm32f10x_gpio.c ****       pos = (((uint32_t)0x01) << (pinpos + 0x08));
 451              		.loc 1 233 11 view .LVU101
 452 0124 4FF0010C 		mov	ip, #1	@ tmp161,
 453              	@ stm32f10x_lib/STM32F10x_StdPeriph_Driver/src/stm32f10x_gpio.c:240:         pinmask = ((uint32_t)0
ARM GAS  C:\Users\ADMINI~1\AppData\Local\Temp\cc5aRzqp.s 			page 14


 234:stm32f10x_lib/STM32F10x_StdPeriph_Driver/src/stm32f10x_gpio.c ****       /* Get the port pins position */
 235:stm32f10x_lib/STM32F10x_StdPeriph_Driver/src/stm32f10x_gpio.c ****       currentpin = ((GPIO_InitStruct->GPIO_Pin) & pos);
 236:stm32f10x_lib/STM32F10x_StdPeriph_Driver/src/stm32f10x_gpio.c ****       if (currentpin == pos)
 237:stm32f10x_lib/STM32F10x_StdPeriph_Driver/src/stm32f10x_gpio.c ****       {
 238:stm32f10x_lib/STM32F10x_StdPeriph_Driver/src/stm32f10x_gpio.c ****         pos = pinpos << 2;
 239:stm32f10x_lib/STM32F10x_StdPeriph_Driver/src/stm32f10x_gpio.c ****         /* Clear the corresponding high control register bits */
 240:stm32f10x_lib/STM32F10x_StdPeriph_Driver/src/stm32f10x_gpio.c ****         pinmask = ((uint32_t)0x0F) << pos;
 454              		.loc 1 240 17 view .LVU102
 455 0128 4FF00F0E 		mov	lr, #15	@ tmp167,
 456              	@ stm32f10x_lib/STM32F10x_StdPeriph_Driver/src/stm32f10x_gpio.c:230:     tmpreg = GPIOx->CRH;
 230:stm32f10x_lib/STM32F10x_StdPeriph_Driver/src/stm32f10x_gpio.c ****     for (pinpos = 0x00; pinpos < 0x08; pinpos++)
 457              		.loc 1 230 12 view .LVU103
 458 012c 4268     		ldr	r2, [r0, #4]	@ tmpreg, GPIOx_33(D)->CRH
 459              	.LVL38:
 231:stm32f10x_lib/STM32F10x_StdPeriph_Driver/src/stm32f10x_gpio.c ****     {
 460              		.loc 1 231 5 is_stmt 1 view .LVU104
 231:stm32f10x_lib/STM32F10x_StdPeriph_Driver/src/stm32f10x_gpio.c ****     {
 461              		.loc 1 231 25 view .LVU105
 462              	.L22:
 233:stm32f10x_lib/STM32F10x_StdPeriph_Driver/src/stm32f10x_gpio.c ****       /* Get the port pins position */
 463              		.loc 1 233 7 view .LVU106
 464              	@ stm32f10x_lib/STM32F10x_StdPeriph_Driver/src/stm32f10x_gpio.c:233:       pos = (((uint32_t)0x01) 
 233:stm32f10x_lib/STM32F10x_StdPeriph_Driver/src/stm32f10x_gpio.c ****       /* Get the port pins position */
 465              		.loc 1 233 11 is_stmt 0 view .LVU107
 466 012e 01F10804 		add	r4, r1, #8	@ tmp160, pinpos,
 467 0132 0CFA04F4 		lsl	r4, ip, r4	@ pos, tmp161, tmp160
 468              	.LVL39:
 235:stm32f10x_lib/STM32F10x_StdPeriph_Driver/src/stm32f10x_gpio.c ****       if (currentpin == pos)
 469              		.loc 1 235 7 is_stmt 1 view .LVU108
 236:stm32f10x_lib/STM32F10x_StdPeriph_Driver/src/stm32f10x_gpio.c ****       {
 470              		.loc 1 236 7 view .LVU109
 471              	@ stm32f10x_lib/STM32F10x_StdPeriph_Driver/src/stm32f10x_gpio.c:236:       if (currentpin == pos)
 236:stm32f10x_lib/STM32F10x_StdPeriph_Driver/src/stm32f10x_gpio.c ****       {
 472              		.loc 1 236 10 is_stmt 0 view .LVU110
 473 0136 34EA0706 		bics	r6, r4, r7	@ tmp175, pos, _6
 474 013a 0BD1     		bne	.L20		@,
 238:stm32f10x_lib/STM32F10x_StdPeriph_Driver/src/stm32f10x_gpio.c ****         /* Clear the corresponding high control register bits */
 475              		.loc 1 238 9 is_stmt 1 view .LVU111
 476 013c 8E00     		lsls	r6, r1, #2	@ _75, pinpos,
 477              	.LVL40:
 478              		.loc 1 240 9 view .LVU112
 241:stm32f10x_lib/STM32F10x_StdPeriph_Driver/src/stm32f10x_gpio.c ****         tmpreg &= ~pinmask;
 479              		.loc 1 241 9 view .LVU113
 480              	@ stm32f10x_lib/STM32F10x_StdPeriph_Driver/src/stm32f10x_gpio.c:240:         pinmask = ((uint32_t)0
 240:stm32f10x_lib/STM32F10x_StdPeriph_Driver/src/stm32f10x_gpio.c ****         tmpreg &= ~pinmask;
 481              		.loc 1 240 17 is_stmt 0 view .LVU114
 482 013e 0EFA06F8 		lsl	r8, lr, r6	@ pinmask, tmp167, _75
 483              	@ stm32f10x_lib/STM32F10x_StdPeriph_Driver/src/stm32f10x_gpio.c:241:         tmpreg &= ~pinmask;
 484              		.loc 1 241 16 view .LVU115
 485 0142 22EA0802 		bic	r2, r2, r8	@ tmpreg, tmpreg, pinmask
 486              	.LVL41:
 242:stm32f10x_lib/STM32F10x_StdPeriph_Driver/src/stm32f10x_gpio.c ****         /* Write the mode configuration in the corresponding bits */
 243:stm32f10x_lib/STM32F10x_StdPeriph_Driver/src/stm32f10x_gpio.c ****         tmpreg |= (currentmode << pos);
 487              		.loc 1 243 9 is_stmt 1 view .LVU116
 488              	@ stm32f10x_lib/STM32F10x_StdPeriph_Driver/src/stm32f10x_gpio.c:243:         tmpreg |= (currentmode
 489              		.loc 1 243 32 is_stmt 0 view .LVU117
 490 0146 05FA06F6 		lsl	r6, r5, r6	@ tmp166, _2, _75
ARM GAS  C:\Users\ADMINI~1\AppData\Local\Temp\cc5aRzqp.s 			page 15


 491              	.LVL42:
 492              	@ stm32f10x_lib/STM32F10x_StdPeriph_Driver/src/stm32f10x_gpio.c:245:         if (GPIO_InitStruct->G
 244:stm32f10x_lib/STM32F10x_StdPeriph_Driver/src/stm32f10x_gpio.c ****         /* Reset the corresponding ODR bit */
 245:stm32f10x_lib/STM32F10x_StdPeriph_Driver/src/stm32f10x_gpio.c ****         if (GPIO_InitStruct->GPIO_Mode == GPIO_Mode_IPD)
 493              		.loc 1 245 12 view .LVU118
 494 014a 282B     		cmp	r3, #40	@ _1,
 495              	@ stm32f10x_lib/STM32F10x_StdPeriph_Driver/src/stm32f10x_gpio.c:243:         tmpreg |= (currentmode
 243:stm32f10x_lib/STM32F10x_StdPeriph_Driver/src/stm32f10x_gpio.c ****         /* Reset the corresponding ODR bit */
 496              		.loc 1 243 16 view .LVU119
 497 014c 42EA0602 		orr	r2, r2, r6	@ tmpreg, tmpreg, tmp166
 498              	.LVL43:
 499              		.loc 1 245 9 is_stmt 1 view .LVU120
 500              	@ stm32f10x_lib/STM32F10x_StdPeriph_Driver/src/stm32f10x_gpio.c:245:         if (GPIO_InitStruct->G
 501              		.loc 1 245 12 is_stmt 0 view .LVU121
 502 0150 0AD1     		bne	.L21		@,
 246:stm32f10x_lib/STM32F10x_StdPeriph_Driver/src/stm32f10x_gpio.c ****         {
 247:stm32f10x_lib/STM32F10x_StdPeriph_Driver/src/stm32f10x_gpio.c ****           GPIOx->BRR = (((uint32_t)0x01) << (pinpos + 0x08));
 503              		.loc 1 247 11 is_stmt 1 view .LVU122
 504              	@ stm32f10x_lib/STM32F10x_StdPeriph_Driver/src/stm32f10x_gpio.c:247:           GPIOx->BRR = (((uint
 505              		.loc 1 247 22 is_stmt 0 view .LVU123
 506 0152 4461     		str	r4, [r0, #20]	@ pos, GPIOx_33(D)->BRR
 248:stm32f10x_lib/STM32F10x_StdPeriph_Driver/src/stm32f10x_gpio.c ****         }
 249:stm32f10x_lib/STM32F10x_StdPeriph_Driver/src/stm32f10x_gpio.c ****         /* Set the corresponding ODR bit */
 250:stm32f10x_lib/STM32F10x_StdPeriph_Driver/src/stm32f10x_gpio.c ****         if (GPIO_InitStruct->GPIO_Mode == GPIO_Mode_IPU)
 507              		.loc 1 250 9 is_stmt 1 view .LVU124
 508              	.LVL44:
 509              	.L20:
 231:stm32f10x_lib/STM32F10x_StdPeriph_Driver/src/stm32f10x_gpio.c ****     {
 510              		.loc 1 231 40 discriminator 2 view .LVU125
 511              	@ stm32f10x_lib/STM32F10x_StdPeriph_Driver/src/stm32f10x_gpio.c:231:     for (pinpos = 0x00; pinpos
 231:stm32f10x_lib/STM32F10x_StdPeriph_Driver/src/stm32f10x_gpio.c ****     {
 512              		.loc 1 231 46 is_stmt 0 discriminator 2 view .LVU126
 513 0154 0131     		adds	r1, r1, #1	@ pinpos, pinpos,
 514              	.LVL45:
 231:stm32f10x_lib/STM32F10x_StdPeriph_Driver/src/stm32f10x_gpio.c ****     {
 515              		.loc 1 231 25 is_stmt 1 discriminator 2 view .LVU127
 516              	@ stm32f10x_lib/STM32F10x_StdPeriph_Driver/src/stm32f10x_gpio.c:231:     for (pinpos = 0x00; pinpos
 231:stm32f10x_lib/STM32F10x_StdPeriph_Driver/src/stm32f10x_gpio.c ****     {
 517              		.loc 1 231 5 is_stmt 0 discriminator 2 view .LVU128
 518 0156 0829     		cmp	r1, #8	@ pinpos,
 519 0158 E9D1     		bne	.L22		@,
 251:stm32f10x_lib/STM32F10x_StdPeriph_Driver/src/stm32f10x_gpio.c ****         {
 252:stm32f10x_lib/STM32F10x_StdPeriph_Driver/src/stm32f10x_gpio.c ****           GPIOx->BSRR = (((uint32_t)0x01) << (pinpos + 0x08));
 253:stm32f10x_lib/STM32F10x_StdPeriph_Driver/src/stm32f10x_gpio.c ****         }
 254:stm32f10x_lib/STM32F10x_StdPeriph_Driver/src/stm32f10x_gpio.c ****       }
 255:stm32f10x_lib/STM32F10x_StdPeriph_Driver/src/stm32f10x_gpio.c ****     }
 256:stm32f10x_lib/STM32F10x_StdPeriph_Driver/src/stm32f10x_gpio.c ****     GPIOx->CRH = tmpreg;
 520              		.loc 1 256 5 is_stmt 1 view .LVU129
 521              	@ stm32f10x_lib/STM32F10x_StdPeriph_Driver/src/stm32f10x_gpio.c:256:     GPIOx->CRH = tmpreg;
 522              		.loc 1 256 16 is_stmt 0 view .LVU130
 523 015a 4260     		str	r2, [r0, #4]	@ tmpreg, GPIOx_33(D)->CRH
 524              	.LVL46:
 525              	.L13:
 526              	@ stm32f10x_lib/STM32F10x_StdPeriph_Driver/src/stm32f10x_gpio.c:258: }
 257:stm32f10x_lib/STM32F10x_StdPeriph_Driver/src/stm32f10x_gpio.c ****   }
 258:stm32f10x_lib/STM32F10x_StdPeriph_Driver/src/stm32f10x_gpio.c **** }
 527              		.loc 1 258 1 view .LVU131
ARM GAS  C:\Users\ADMINI~1\AppData\Local\Temp\cc5aRzqp.s 			page 16


 528 015c BDE8F081 		pop	{r4, r5, r6, r7, r8, pc}	@
 529              	.LVL47:
 530              	.L17:
 217:stm32f10x_lib/STM32F10x_StdPeriph_Driver/src/stm32f10x_gpio.c ****           {
 531              		.loc 1 217 11 is_stmt 1 view .LVU132
 532              	@ stm32f10x_lib/STM32F10x_StdPeriph_Driver/src/stm32f10x_gpio.c:217:           if (GPIO_InitStruct-
 217:stm32f10x_lib/STM32F10x_StdPeriph_Driver/src/stm32f10x_gpio.c ****           {
 533              		.loc 1 217 14 is_stmt 0 view .LVU133
 534 0160 482B     		cmp	r3, #72	@ _1,
 219:stm32f10x_lib/STM32F10x_StdPeriph_Driver/src/stm32f10x_gpio.c ****           }
 535              		.loc 1 219 13 is_stmt 1 view .LVU134
 536              	@ stm32f10x_lib/STM32F10x_StdPeriph_Driver/src/stm32f10x_gpio.c:219:             GPIOx->BSRR = (((u
 219:stm32f10x_lib/STM32F10x_StdPeriph_Driver/src/stm32f10x_gpio.c ****           }
 537              		.loc 1 219 25 is_stmt 0 view .LVU135
 538 0162 08BF     		it	eq
 539 0164 0661     		streq	r6, [r0, #16]	@ pos, GPIOx_33(D)->BSRR
 540 0166 D6E7     		b	.L16		@
 541              	.LVL48:
 542              	.L21:
 250:stm32f10x_lib/STM32F10x_StdPeriph_Driver/src/stm32f10x_gpio.c ****         {
 543              		.loc 1 250 9 is_stmt 1 view .LVU136
 544              	@ stm32f10x_lib/STM32F10x_StdPeriph_Driver/src/stm32f10x_gpio.c:250:         if (GPIO_InitStruct->G
 250:stm32f10x_lib/STM32F10x_StdPeriph_Driver/src/stm32f10x_gpio.c ****         {
 545              		.loc 1 250 12 is_stmt 0 view .LVU137
 546 0168 482B     		cmp	r3, #72	@ _1,
 252:stm32f10x_lib/STM32F10x_StdPeriph_Driver/src/stm32f10x_gpio.c ****         }
 547              		.loc 1 252 11 is_stmt 1 view .LVU138
 548              	@ stm32f10x_lib/STM32F10x_StdPeriph_Driver/src/stm32f10x_gpio.c:252:           GPIOx->BSRR = (((uin
 252:stm32f10x_lib/STM32F10x_StdPeriph_Driver/src/stm32f10x_gpio.c ****         }
 549              		.loc 1 252 23 is_stmt 0 view .LVU139
 550 016a 08BF     		it	eq
 551 016c 0461     		streq	r4, [r0, #16]	@ pos, GPIOx_33(D)->BSRR
 552 016e F1E7     		b	.L20		@
 553              		.cfi_endproc
 554              	.LFE31:
 555              		.size	GPIO_Init, .-GPIO_Init
 556              		.align	1
 557              		.global	GPIO_StructInit
 558              		.syntax unified
 559              		.thumb
 560              		.thumb_func
 561              		.type	GPIO_StructInit, %function
 562              	GPIO_StructInit:
 563              	.LVL49:
 564              	.LFB32:
 259:stm32f10x_lib/STM32F10x_StdPeriph_Driver/src/stm32f10x_gpio.c **** 
 260:stm32f10x_lib/STM32F10x_StdPeriph_Driver/src/stm32f10x_gpio.c **** /**
 261:stm32f10x_lib/STM32F10x_StdPeriph_Driver/src/stm32f10x_gpio.c ****   * @brief  Fills each GPIO_InitStruct member with its default value.
 262:stm32f10x_lib/STM32F10x_StdPeriph_Driver/src/stm32f10x_gpio.c ****   * @param  GPIO_InitStruct : pointer to a GPIO_InitTypeDef structure which will
 263:stm32f10x_lib/STM32F10x_StdPeriph_Driver/src/stm32f10x_gpio.c ****   *         be initialized.
 264:stm32f10x_lib/STM32F10x_StdPeriph_Driver/src/stm32f10x_gpio.c ****   * @retval None
 265:stm32f10x_lib/STM32F10x_StdPeriph_Driver/src/stm32f10x_gpio.c ****   */
 266:stm32f10x_lib/STM32F10x_StdPeriph_Driver/src/stm32f10x_gpio.c **** void GPIO_StructInit(GPIO_InitTypeDef* GPIO_InitStruct)
 267:stm32f10x_lib/STM32F10x_StdPeriph_Driver/src/stm32f10x_gpio.c **** {
 565              		.loc 1 267 1 is_stmt 1 view -0
 566              		.cfi_startproc
 567              		@ args = 0, pretend = 0, frame = 0
ARM GAS  C:\Users\ADMINI~1\AppData\Local\Temp\cc5aRzqp.s 			page 17


 568              		@ frame_needed = 0, uses_anonymous_args = 0
 569              		@ link register save eliminated.
 268:stm32f10x_lib/STM32F10x_StdPeriph_Driver/src/stm32f10x_gpio.c ****   /* Reset GPIO init structure parameters values */
 269:stm32f10x_lib/STM32F10x_StdPeriph_Driver/src/stm32f10x_gpio.c ****   GPIO_InitStruct->GPIO_Pin  = GPIO_Pin_All;
 570              		.loc 1 269 3 view .LVU141
 270:stm32f10x_lib/STM32F10x_StdPeriph_Driver/src/stm32f10x_gpio.c ****   GPIO_InitStruct->GPIO_Speed = GPIO_Speed_2MHz;
 571              		.loc 1 270 3 view .LVU142
 271:stm32f10x_lib/STM32F10x_StdPeriph_Driver/src/stm32f10x_gpio.c ****   GPIO_InitStruct->GPIO_Mode = GPIO_Mode_IN_FLOATING;
 572              		.loc 1 271 3 view .LVU143
 573              	@ stm32f10x_lib/STM32F10x_StdPeriph_Driver/src/stm32f10x_gpio.c:269:   GPIO_InitStruct->GPIO_Pin  =
 269:stm32f10x_lib/STM32F10x_StdPeriph_Driver/src/stm32f10x_gpio.c ****   GPIO_InitStruct->GPIO_Speed = GPIO_Speed_2MHz;
 574              		.loc 1 269 30 is_stmt 0 view .LVU144
 575 0170 4FF6FF73 		movw	r3, #65535	@ tmp115,
 576 0174 0380     		strh	r3, [r0]	@ movhi	@ tmp115, GPIO_InitStruct_2(D)->GPIO_Pin
 577              	@ stm32f10x_lib/STM32F10x_StdPeriph_Driver/src/stm32f10x_gpio.c:270:   GPIO_InitStruct->GPIO_Speed 
 270:stm32f10x_lib/STM32F10x_StdPeriph_Driver/src/stm32f10x_gpio.c ****   GPIO_InitStruct->GPIO_Speed = GPIO_Speed_2MHz;
 578              		.loc 1 270 31 view .LVU145
 579 0176 40F20243 		movw	r3, #1026	@ tmp117,
 580 017a 4380     		strh	r3, [r0, #2]	@ movhi	@ tmp117, MEM <unsigned short> [(void *)GPIO_InitStruct_2(D) + 2B]
 581              	@ stm32f10x_lib/STM32F10x_StdPeriph_Driver/src/stm32f10x_gpio.c:272: }
 272:stm32f10x_lib/STM32F10x_StdPeriph_Driver/src/stm32f10x_gpio.c **** }
 582              		.loc 1 272 1 view .LVU146
 583 017c 7047     		bx	lr	@
 584              		.cfi_endproc
 585              	.LFE32:
 586              		.size	GPIO_StructInit, .-GPIO_StructInit
 587              		.align	1
 588              		.global	GPIO_ReadInputDataBit
 589              		.syntax unified
 590              		.thumb
 591              		.thumb_func
 592              		.type	GPIO_ReadInputDataBit, %function
 593              	GPIO_ReadInputDataBit:
 594              	.LVL50:
 595              	.LFB33:
 273:stm32f10x_lib/STM32F10x_StdPeriph_Driver/src/stm32f10x_gpio.c **** 
 274:stm32f10x_lib/STM32F10x_StdPeriph_Driver/src/stm32f10x_gpio.c **** /**
 275:stm32f10x_lib/STM32F10x_StdPeriph_Driver/src/stm32f10x_gpio.c ****   * @brief  Reads the specified input port pin.
 276:stm32f10x_lib/STM32F10x_StdPeriph_Driver/src/stm32f10x_gpio.c ****   * @param  GPIOx: where x can be (A..G) to select the GPIO peripheral.
 277:stm32f10x_lib/STM32F10x_StdPeriph_Driver/src/stm32f10x_gpio.c ****   * @param  GPIO_Pin:  specifies the port bit to read.
 278:stm32f10x_lib/STM32F10x_StdPeriph_Driver/src/stm32f10x_gpio.c ****   *   This parameter can be GPIO_Pin_x where x can be (0..15).
 279:stm32f10x_lib/STM32F10x_StdPeriph_Driver/src/stm32f10x_gpio.c ****   * @retval The input port pin value.
 280:stm32f10x_lib/STM32F10x_StdPeriph_Driver/src/stm32f10x_gpio.c ****   */
 281:stm32f10x_lib/STM32F10x_StdPeriph_Driver/src/stm32f10x_gpio.c **** uint8_t GPIO_ReadInputDataBit(GPIO_TypeDef* GPIOx, uint16_t GPIO_Pin)
 282:stm32f10x_lib/STM32F10x_StdPeriph_Driver/src/stm32f10x_gpio.c **** {
 596              		.loc 1 282 1 is_stmt 1 view -0
 597              		.cfi_startproc
 598              		@ args = 0, pretend = 0, frame = 0
 599              		@ frame_needed = 0, uses_anonymous_args = 0
 600              		@ link register save eliminated.
 283:stm32f10x_lib/STM32F10x_StdPeriph_Driver/src/stm32f10x_gpio.c ****   uint8_t bitstatus = 0x00;
 601              		.loc 1 283 3 view .LVU148
 284:stm32f10x_lib/STM32F10x_StdPeriph_Driver/src/stm32f10x_gpio.c ****   
 285:stm32f10x_lib/STM32F10x_StdPeriph_Driver/src/stm32f10x_gpio.c ****   /* Check the parameters */
 286:stm32f10x_lib/STM32F10x_StdPeriph_Driver/src/stm32f10x_gpio.c ****   assert_param(IS_GPIO_ALL_PERIPH(GPIOx));
 602              		.loc 1 286 3 view .LVU149
 287:stm32f10x_lib/STM32F10x_StdPeriph_Driver/src/stm32f10x_gpio.c ****   assert_param(IS_GET_GPIO_PIN(GPIO_Pin)); 
ARM GAS  C:\Users\ADMINI~1\AppData\Local\Temp\cc5aRzqp.s 			page 18


 603              		.loc 1 287 3 view .LVU150
 288:stm32f10x_lib/STM32F10x_StdPeriph_Driver/src/stm32f10x_gpio.c ****   
 289:stm32f10x_lib/STM32F10x_StdPeriph_Driver/src/stm32f10x_gpio.c ****   if ((GPIOx->IDR & GPIO_Pin) != (uint32_t)Bit_RESET)
 604              		.loc 1 289 3 view .LVU151
 605              	@ stm32f10x_lib/STM32F10x_StdPeriph_Driver/src/stm32f10x_gpio.c:289:   if ((GPIOx->IDR & GPIO_Pin) 
 606              		.loc 1 289 13 is_stmt 0 view .LVU152
 607 017e 8368     		ldr	r3, [r0, #8]	@ _1, GPIOx_6(D)->IDR
 608              	.LVL51:
 290:stm32f10x_lib/STM32F10x_StdPeriph_Driver/src/stm32f10x_gpio.c ****   {
 291:stm32f10x_lib/STM32F10x_StdPeriph_Driver/src/stm32f10x_gpio.c ****     bitstatus = (uint8_t)Bit_SET;
 292:stm32f10x_lib/STM32F10x_StdPeriph_Driver/src/stm32f10x_gpio.c ****   }
 293:stm32f10x_lib/STM32F10x_StdPeriph_Driver/src/stm32f10x_gpio.c ****   else
 294:stm32f10x_lib/STM32F10x_StdPeriph_Driver/src/stm32f10x_gpio.c ****   {
 295:stm32f10x_lib/STM32F10x_StdPeriph_Driver/src/stm32f10x_gpio.c ****     bitstatus = (uint8_t)Bit_RESET;
 296:stm32f10x_lib/STM32F10x_StdPeriph_Driver/src/stm32f10x_gpio.c ****   }
 297:stm32f10x_lib/STM32F10x_StdPeriph_Driver/src/stm32f10x_gpio.c ****   return bitstatus;
 609              		.loc 1 297 3 is_stmt 1 view .LVU153
 610              	@ stm32f10x_lib/STM32F10x_StdPeriph_Driver/src/stm32f10x_gpio.c:289:   if ((GPIOx->IDR & GPIO_Pin) 
 289:stm32f10x_lib/STM32F10x_StdPeriph_Driver/src/stm32f10x_gpio.c ****   {
 611              		.loc 1 289 6 is_stmt 0 view .LVU154
 612 0180 1942     		tst	r1, r3	@ tmp125, _1
 613              	@ stm32f10x_lib/STM32F10x_StdPeriph_Driver/src/stm32f10x_gpio.c:298: }
 298:stm32f10x_lib/STM32F10x_StdPeriph_Driver/src/stm32f10x_gpio.c **** }
 614              		.loc 1 298 1 view .LVU155
 615 0182 14BF     		ite	ne
 616 0184 0120     		movne	r0, #1	@,
 617              	.LVL52:
 618              		.loc 1 298 1 view .LVU156
 619 0186 0020     		moveq	r0, #0	@,
 620 0188 7047     		bx	lr	@
 621              		.cfi_endproc
 622              	.LFE33:
 623              		.size	GPIO_ReadInputDataBit, .-GPIO_ReadInputDataBit
 624              		.align	1
 625              		.global	GPIO_ReadInputData
 626              		.syntax unified
 627              		.thumb
 628              		.thumb_func
 629              		.type	GPIO_ReadInputData, %function
 630              	GPIO_ReadInputData:
 631              	.LVL53:
 632              	.LFB34:
 299:stm32f10x_lib/STM32F10x_StdPeriph_Driver/src/stm32f10x_gpio.c **** 
 300:stm32f10x_lib/STM32F10x_StdPeriph_Driver/src/stm32f10x_gpio.c **** /**
 301:stm32f10x_lib/STM32F10x_StdPeriph_Driver/src/stm32f10x_gpio.c ****   * @brief  Reads the specified GPIO input data port.
 302:stm32f10x_lib/STM32F10x_StdPeriph_Driver/src/stm32f10x_gpio.c ****   * @param  GPIOx: where x can be (A..G) to select the GPIO peripheral.
 303:stm32f10x_lib/STM32F10x_StdPeriph_Driver/src/stm32f10x_gpio.c ****   * @retval GPIO input data port value.
 304:stm32f10x_lib/STM32F10x_StdPeriph_Driver/src/stm32f10x_gpio.c ****   */
 305:stm32f10x_lib/STM32F10x_StdPeriph_Driver/src/stm32f10x_gpio.c **** uint16_t GPIO_ReadInputData(GPIO_TypeDef* GPIOx)
 306:stm32f10x_lib/STM32F10x_StdPeriph_Driver/src/stm32f10x_gpio.c **** {
 633              		.loc 1 306 1 is_stmt 1 view -0
 634              		.cfi_startproc
 635              		@ args = 0, pretend = 0, frame = 0
 636              		@ frame_needed = 0, uses_anonymous_args = 0
 637              		@ link register save eliminated.
 307:stm32f10x_lib/STM32F10x_StdPeriph_Driver/src/stm32f10x_gpio.c ****   /* Check the parameters */
 308:stm32f10x_lib/STM32F10x_StdPeriph_Driver/src/stm32f10x_gpio.c ****   assert_param(IS_GPIO_ALL_PERIPH(GPIOx));
ARM GAS  C:\Users\ADMINI~1\AppData\Local\Temp\cc5aRzqp.s 			page 19


 638              		.loc 1 308 3 view .LVU158
 309:stm32f10x_lib/STM32F10x_StdPeriph_Driver/src/stm32f10x_gpio.c ****   
 310:stm32f10x_lib/STM32F10x_StdPeriph_Driver/src/stm32f10x_gpio.c ****   return ((uint16_t)GPIOx->IDR);
 639              		.loc 1 310 3 view .LVU159
 640              	@ stm32f10x_lib/STM32F10x_StdPeriph_Driver/src/stm32f10x_gpio.c:310:   return ((uint16_t)GPIOx->IDR
 641              		.loc 1 310 26 is_stmt 0 view .LVU160
 642 018a 8068     		ldr	r0, [r0, #8]	@ _1, GPIOx_3(D)->IDR
 643              	.LVL54:
 644              	@ stm32f10x_lib/STM32F10x_StdPeriph_Driver/src/stm32f10x_gpio.c:311: }
 311:stm32f10x_lib/STM32F10x_StdPeriph_Driver/src/stm32f10x_gpio.c **** }
 645              		.loc 1 311 1 view .LVU161
 646 018c 80B2     		uxth	r0, r0	@, _1
 647 018e 7047     		bx	lr	@
 648              		.cfi_endproc
 649              	.LFE34:
 650              		.size	GPIO_ReadInputData, .-GPIO_ReadInputData
 651              		.align	1
 652              		.global	GPIO_ReadOutputDataBit
 653              		.syntax unified
 654              		.thumb
 655              		.thumb_func
 656              		.type	GPIO_ReadOutputDataBit, %function
 657              	GPIO_ReadOutputDataBit:
 658              	.LVL55:
 659              	.LFB35:
 312:stm32f10x_lib/STM32F10x_StdPeriph_Driver/src/stm32f10x_gpio.c **** 
 313:stm32f10x_lib/STM32F10x_StdPeriph_Driver/src/stm32f10x_gpio.c **** /**
 314:stm32f10x_lib/STM32F10x_StdPeriph_Driver/src/stm32f10x_gpio.c ****   * @brief  Reads the specified output data port bit.
 315:stm32f10x_lib/STM32F10x_StdPeriph_Driver/src/stm32f10x_gpio.c ****   * @param  GPIOx: where x can be (A..G) to select the GPIO peripheral.
 316:stm32f10x_lib/STM32F10x_StdPeriph_Driver/src/stm32f10x_gpio.c ****   * @param  GPIO_Pin:  specifies the port bit to read.
 317:stm32f10x_lib/STM32F10x_StdPeriph_Driver/src/stm32f10x_gpio.c ****   *   This parameter can be GPIO_Pin_x where x can be (0..15).
 318:stm32f10x_lib/STM32F10x_StdPeriph_Driver/src/stm32f10x_gpio.c ****   * @retval The output port pin value.
 319:stm32f10x_lib/STM32F10x_StdPeriph_Driver/src/stm32f10x_gpio.c ****   */
 320:stm32f10x_lib/STM32F10x_StdPeriph_Driver/src/stm32f10x_gpio.c **** uint8_t GPIO_ReadOutputDataBit(GPIO_TypeDef* GPIOx, uint16_t GPIO_Pin)
 321:stm32f10x_lib/STM32F10x_StdPeriph_Driver/src/stm32f10x_gpio.c **** {
 660              		.loc 1 321 1 is_stmt 1 view -0
 661              		.cfi_startproc
 662              		@ args = 0, pretend = 0, frame = 0
 663              		@ frame_needed = 0, uses_anonymous_args = 0
 664              		@ link register save eliminated.
 322:stm32f10x_lib/STM32F10x_StdPeriph_Driver/src/stm32f10x_gpio.c ****   uint8_t bitstatus = 0x00;
 665              		.loc 1 322 3 view .LVU163
 323:stm32f10x_lib/STM32F10x_StdPeriph_Driver/src/stm32f10x_gpio.c ****   /* Check the parameters */
 324:stm32f10x_lib/STM32F10x_StdPeriph_Driver/src/stm32f10x_gpio.c ****   assert_param(IS_GPIO_ALL_PERIPH(GPIOx));
 666              		.loc 1 324 3 view .LVU164
 325:stm32f10x_lib/STM32F10x_StdPeriph_Driver/src/stm32f10x_gpio.c ****   assert_param(IS_GET_GPIO_PIN(GPIO_Pin)); 
 667              		.loc 1 325 3 view .LVU165
 326:stm32f10x_lib/STM32F10x_StdPeriph_Driver/src/stm32f10x_gpio.c ****   
 327:stm32f10x_lib/STM32F10x_StdPeriph_Driver/src/stm32f10x_gpio.c ****   if ((GPIOx->ODR & GPIO_Pin) != (uint32_t)Bit_RESET)
 668              		.loc 1 327 3 view .LVU166
 669              	@ stm32f10x_lib/STM32F10x_StdPeriph_Driver/src/stm32f10x_gpio.c:327:   if ((GPIOx->ODR & GPIO_Pin) 
 670              		.loc 1 327 13 is_stmt 0 view .LVU167
 671 0190 C368     		ldr	r3, [r0, #12]	@ _1, GPIOx_6(D)->ODR
 672              	.LVL56:
 328:stm32f10x_lib/STM32F10x_StdPeriph_Driver/src/stm32f10x_gpio.c ****   {
 329:stm32f10x_lib/STM32F10x_StdPeriph_Driver/src/stm32f10x_gpio.c ****     bitstatus = (uint8_t)Bit_SET;
 330:stm32f10x_lib/STM32F10x_StdPeriph_Driver/src/stm32f10x_gpio.c ****   }
ARM GAS  C:\Users\ADMINI~1\AppData\Local\Temp\cc5aRzqp.s 			page 20


 331:stm32f10x_lib/STM32F10x_StdPeriph_Driver/src/stm32f10x_gpio.c ****   else
 332:stm32f10x_lib/STM32F10x_StdPeriph_Driver/src/stm32f10x_gpio.c ****   {
 333:stm32f10x_lib/STM32F10x_StdPeriph_Driver/src/stm32f10x_gpio.c ****     bitstatus = (uint8_t)Bit_RESET;
 334:stm32f10x_lib/STM32F10x_StdPeriph_Driver/src/stm32f10x_gpio.c ****   }
 335:stm32f10x_lib/STM32F10x_StdPeriph_Driver/src/stm32f10x_gpio.c ****   return bitstatus;
 673              		.loc 1 335 3 is_stmt 1 view .LVU168
 674              	@ stm32f10x_lib/STM32F10x_StdPeriph_Driver/src/stm32f10x_gpio.c:327:   if ((GPIOx->ODR & GPIO_Pin) 
 327:stm32f10x_lib/STM32F10x_StdPeriph_Driver/src/stm32f10x_gpio.c ****   {
 675              		.loc 1 327 6 is_stmt 0 view .LVU169
 676 0192 1942     		tst	r1, r3	@ tmp125, _1
 677              	@ stm32f10x_lib/STM32F10x_StdPeriph_Driver/src/stm32f10x_gpio.c:336: }
 336:stm32f10x_lib/STM32F10x_StdPeriph_Driver/src/stm32f10x_gpio.c **** }
 678              		.loc 1 336 1 view .LVU170
 679 0194 14BF     		ite	ne
 680 0196 0120     		movne	r0, #1	@,
 681              	.LVL57:
 682              		.loc 1 336 1 view .LVU171
 683 0198 0020     		moveq	r0, #0	@,
 684 019a 7047     		bx	lr	@
 685              		.cfi_endproc
 686              	.LFE35:
 687              		.size	GPIO_ReadOutputDataBit, .-GPIO_ReadOutputDataBit
 688              		.align	1
 689              		.global	GPIO_ReadOutputData
 690              		.syntax unified
 691              		.thumb
 692              		.thumb_func
 693              		.type	GPIO_ReadOutputData, %function
 694              	GPIO_ReadOutputData:
 695              	.LVL58:
 696              	.LFB36:
 337:stm32f10x_lib/STM32F10x_StdPeriph_Driver/src/stm32f10x_gpio.c **** 
 338:stm32f10x_lib/STM32F10x_StdPeriph_Driver/src/stm32f10x_gpio.c **** /**
 339:stm32f10x_lib/STM32F10x_StdPeriph_Driver/src/stm32f10x_gpio.c ****   * @brief  Reads the specified GPIO output data port.
 340:stm32f10x_lib/STM32F10x_StdPeriph_Driver/src/stm32f10x_gpio.c ****   * @param  GPIOx: where x can be (A..G) to select the GPIO peripheral.
 341:stm32f10x_lib/STM32F10x_StdPeriph_Driver/src/stm32f10x_gpio.c ****   * @retval GPIO output data port value.
 342:stm32f10x_lib/STM32F10x_StdPeriph_Driver/src/stm32f10x_gpio.c ****   */
 343:stm32f10x_lib/STM32F10x_StdPeriph_Driver/src/stm32f10x_gpio.c **** uint16_t GPIO_ReadOutputData(GPIO_TypeDef* GPIOx)
 344:stm32f10x_lib/STM32F10x_StdPeriph_Driver/src/stm32f10x_gpio.c **** {
 697              		.loc 1 344 1 is_stmt 1 view -0
 698              		.cfi_startproc
 699              		@ args = 0, pretend = 0, frame = 0
 700              		@ frame_needed = 0, uses_anonymous_args = 0
 701              		@ link register save eliminated.
 345:stm32f10x_lib/STM32F10x_StdPeriph_Driver/src/stm32f10x_gpio.c ****   /* Check the parameters */
 346:stm32f10x_lib/STM32F10x_StdPeriph_Driver/src/stm32f10x_gpio.c ****   assert_param(IS_GPIO_ALL_PERIPH(GPIOx));
 702              		.loc 1 346 3 view .LVU173
 347:stm32f10x_lib/STM32F10x_StdPeriph_Driver/src/stm32f10x_gpio.c ****     
 348:stm32f10x_lib/STM32F10x_StdPeriph_Driver/src/stm32f10x_gpio.c ****   return ((uint16_t)GPIOx->ODR);
 703              		.loc 1 348 3 view .LVU174
 704              	@ stm32f10x_lib/STM32F10x_StdPeriph_Driver/src/stm32f10x_gpio.c:348:   return ((uint16_t)GPIOx->ODR
 705              		.loc 1 348 26 is_stmt 0 view .LVU175
 706 019c C068     		ldr	r0, [r0, #12]	@ _1, GPIOx_3(D)->ODR
 707              	.LVL59:
 708              	@ stm32f10x_lib/STM32F10x_StdPeriph_Driver/src/stm32f10x_gpio.c:349: }
 349:stm32f10x_lib/STM32F10x_StdPeriph_Driver/src/stm32f10x_gpio.c **** }
 709              		.loc 1 349 1 view .LVU176
ARM GAS  C:\Users\ADMINI~1\AppData\Local\Temp\cc5aRzqp.s 			page 21


 710 019e 80B2     		uxth	r0, r0	@, _1
 711 01a0 7047     		bx	lr	@
 712              		.cfi_endproc
 713              	.LFE36:
 714              		.size	GPIO_ReadOutputData, .-GPIO_ReadOutputData
 715              		.align	1
 716              		.global	GPIO_SetBits
 717              		.syntax unified
 718              		.thumb
 719              		.thumb_func
 720              		.type	GPIO_SetBits, %function
 721              	GPIO_SetBits:
 722              	.LVL60:
 723              	.LFB37:
 350:stm32f10x_lib/STM32F10x_StdPeriph_Driver/src/stm32f10x_gpio.c **** 
 351:stm32f10x_lib/STM32F10x_StdPeriph_Driver/src/stm32f10x_gpio.c **** /**
 352:stm32f10x_lib/STM32F10x_StdPeriph_Driver/src/stm32f10x_gpio.c ****   * @brief  Sets the selected data port bits.
 353:stm32f10x_lib/STM32F10x_StdPeriph_Driver/src/stm32f10x_gpio.c ****   * @param  GPIOx: where x can be (A..G) to select the GPIO peripheral.
 354:stm32f10x_lib/STM32F10x_StdPeriph_Driver/src/stm32f10x_gpio.c ****   * @param  GPIO_Pin: specifies the port bits to be written.
 355:stm32f10x_lib/STM32F10x_StdPeriph_Driver/src/stm32f10x_gpio.c ****   *   This parameter can be any combination of GPIO_Pin_x where x can be (0..15).
 356:stm32f10x_lib/STM32F10x_StdPeriph_Driver/src/stm32f10x_gpio.c ****   * @retval None
 357:stm32f10x_lib/STM32F10x_StdPeriph_Driver/src/stm32f10x_gpio.c ****   */
 358:stm32f10x_lib/STM32F10x_StdPeriph_Driver/src/stm32f10x_gpio.c **** void GPIO_SetBits(GPIO_TypeDef* GPIOx, uint16_t GPIO_Pin)
 359:stm32f10x_lib/STM32F10x_StdPeriph_Driver/src/stm32f10x_gpio.c **** {
 724              		.loc 1 359 1 is_stmt 1 view -0
 725              		.cfi_startproc
 726              		@ args = 0, pretend = 0, frame = 0
 727              		@ frame_needed = 0, uses_anonymous_args = 0
 728              		@ link register save eliminated.
 360:stm32f10x_lib/STM32F10x_StdPeriph_Driver/src/stm32f10x_gpio.c ****   /* Check the parameters */
 361:stm32f10x_lib/STM32F10x_StdPeriph_Driver/src/stm32f10x_gpio.c ****   assert_param(IS_GPIO_ALL_PERIPH(GPIOx));
 729              		.loc 1 361 3 view .LVU178
 362:stm32f10x_lib/STM32F10x_StdPeriph_Driver/src/stm32f10x_gpio.c ****   assert_param(IS_GPIO_PIN(GPIO_Pin));
 730              		.loc 1 362 3 view .LVU179
 363:stm32f10x_lib/STM32F10x_StdPeriph_Driver/src/stm32f10x_gpio.c ****   
 364:stm32f10x_lib/STM32F10x_StdPeriph_Driver/src/stm32f10x_gpio.c ****   GPIOx->BSRR = GPIO_Pin;
 731              		.loc 1 364 3 view .LVU180
 732              	@ stm32f10x_lib/STM32F10x_StdPeriph_Driver/src/stm32f10x_gpio.c:364:   GPIOx->BSRR = GPIO_Pin;
 733              		.loc 1 364 15 is_stmt 0 view .LVU181
 734 01a2 0161     		str	r1, [r0, #16]	@ GPIO_Pin, GPIOx_4(D)->BSRR
 735              	@ stm32f10x_lib/STM32F10x_StdPeriph_Driver/src/stm32f10x_gpio.c:365: }
 365:stm32f10x_lib/STM32F10x_StdPeriph_Driver/src/stm32f10x_gpio.c **** }
 736              		.loc 1 365 1 view .LVU182
 737 01a4 7047     		bx	lr	@
 738              		.cfi_endproc
 739              	.LFE37:
 740              		.size	GPIO_SetBits, .-GPIO_SetBits
 741              		.align	1
 742              		.global	GPIO_ResetBits
 743              		.syntax unified
 744              		.thumb
 745              		.thumb_func
 746              		.type	GPIO_ResetBits, %function
 747              	GPIO_ResetBits:
 748              	.LVL61:
 749              	.LFB38:
 366:stm32f10x_lib/STM32F10x_StdPeriph_Driver/src/stm32f10x_gpio.c **** 
ARM GAS  C:\Users\ADMINI~1\AppData\Local\Temp\cc5aRzqp.s 			page 22


 367:stm32f10x_lib/STM32F10x_StdPeriph_Driver/src/stm32f10x_gpio.c **** /**
 368:stm32f10x_lib/STM32F10x_StdPeriph_Driver/src/stm32f10x_gpio.c ****   * @brief  Clears the selected data port bits.
 369:stm32f10x_lib/STM32F10x_StdPeriph_Driver/src/stm32f10x_gpio.c ****   * @param  GPIOx: where x can be (A..G) to select the GPIO peripheral.
 370:stm32f10x_lib/STM32F10x_StdPeriph_Driver/src/stm32f10x_gpio.c ****   * @param  GPIO_Pin: specifies the port bits to be written.
 371:stm32f10x_lib/STM32F10x_StdPeriph_Driver/src/stm32f10x_gpio.c ****   *   This parameter can be any combination of GPIO_Pin_x where x can be (0..15).
 372:stm32f10x_lib/STM32F10x_StdPeriph_Driver/src/stm32f10x_gpio.c ****   * @retval None
 373:stm32f10x_lib/STM32F10x_StdPeriph_Driver/src/stm32f10x_gpio.c ****   */
 374:stm32f10x_lib/STM32F10x_StdPeriph_Driver/src/stm32f10x_gpio.c **** void GPIO_ResetBits(GPIO_TypeDef* GPIOx, uint16_t GPIO_Pin)
 375:stm32f10x_lib/STM32F10x_StdPeriph_Driver/src/stm32f10x_gpio.c **** {
 750              		.loc 1 375 1 is_stmt 1 view -0
 751              		.cfi_startproc
 752              		@ args = 0, pretend = 0, frame = 0
 753              		@ frame_needed = 0, uses_anonymous_args = 0
 754              		@ link register save eliminated.
 376:stm32f10x_lib/STM32F10x_StdPeriph_Driver/src/stm32f10x_gpio.c ****   /* Check the parameters */
 377:stm32f10x_lib/STM32F10x_StdPeriph_Driver/src/stm32f10x_gpio.c ****   assert_param(IS_GPIO_ALL_PERIPH(GPIOx));
 755              		.loc 1 377 3 view .LVU184
 378:stm32f10x_lib/STM32F10x_StdPeriph_Driver/src/stm32f10x_gpio.c ****   assert_param(IS_GPIO_PIN(GPIO_Pin));
 756              		.loc 1 378 3 view .LVU185
 379:stm32f10x_lib/STM32F10x_StdPeriph_Driver/src/stm32f10x_gpio.c ****   
 380:stm32f10x_lib/STM32F10x_StdPeriph_Driver/src/stm32f10x_gpio.c ****   GPIOx->BRR = GPIO_Pin;
 757              		.loc 1 380 3 view .LVU186
 758              	@ stm32f10x_lib/STM32F10x_StdPeriph_Driver/src/stm32f10x_gpio.c:380:   GPIOx->BRR = GPIO_Pin;
 759              		.loc 1 380 14 is_stmt 0 view .LVU187
 760 01a6 4161     		str	r1, [r0, #20]	@ GPIO_Pin, GPIOx_4(D)->BRR
 761              	@ stm32f10x_lib/STM32F10x_StdPeriph_Driver/src/stm32f10x_gpio.c:381: }
 381:stm32f10x_lib/STM32F10x_StdPeriph_Driver/src/stm32f10x_gpio.c **** }
 762              		.loc 1 381 1 view .LVU188
 763 01a8 7047     		bx	lr	@
 764              		.cfi_endproc
 765              	.LFE38:
 766              		.size	GPIO_ResetBits, .-GPIO_ResetBits
 767              		.align	1
 768              		.global	GPIO_WriteBit
 769              		.syntax unified
 770              		.thumb
 771              		.thumb_func
 772              		.type	GPIO_WriteBit, %function
 773              	GPIO_WriteBit:
 774              	.LVL62:
 775              	.LFB39:
 382:stm32f10x_lib/STM32F10x_StdPeriph_Driver/src/stm32f10x_gpio.c **** 
 383:stm32f10x_lib/STM32F10x_StdPeriph_Driver/src/stm32f10x_gpio.c **** /**
 384:stm32f10x_lib/STM32F10x_StdPeriph_Driver/src/stm32f10x_gpio.c ****   * @brief  Sets or clears the selected data port bit.
 385:stm32f10x_lib/STM32F10x_StdPeriph_Driver/src/stm32f10x_gpio.c ****   * @param  GPIOx: where x can be (A..G) to select the GPIO peripheral.
 386:stm32f10x_lib/STM32F10x_StdPeriph_Driver/src/stm32f10x_gpio.c ****   * @param  GPIO_Pin: specifies the port bit to be written.
 387:stm32f10x_lib/STM32F10x_StdPeriph_Driver/src/stm32f10x_gpio.c ****   *   This parameter can be one of GPIO_Pin_x where x can be (0..15).
 388:stm32f10x_lib/STM32F10x_StdPeriph_Driver/src/stm32f10x_gpio.c ****   * @param  BitVal: specifies the value to be written to the selected bit.
 389:stm32f10x_lib/STM32F10x_StdPeriph_Driver/src/stm32f10x_gpio.c ****   *   This parameter can be one of the BitAction enum values:
 390:stm32f10x_lib/STM32F10x_StdPeriph_Driver/src/stm32f10x_gpio.c ****   *     @arg Bit_RESET: to clear the port pin
 391:stm32f10x_lib/STM32F10x_StdPeriph_Driver/src/stm32f10x_gpio.c ****   *     @arg Bit_SET: to set the port pin
 392:stm32f10x_lib/STM32F10x_StdPeriph_Driver/src/stm32f10x_gpio.c ****   * @retval None
 393:stm32f10x_lib/STM32F10x_StdPeriph_Driver/src/stm32f10x_gpio.c ****   */
 394:stm32f10x_lib/STM32F10x_StdPeriph_Driver/src/stm32f10x_gpio.c **** void GPIO_WriteBit(GPIO_TypeDef* GPIOx, uint16_t GPIO_Pin, BitAction BitVal)
 395:stm32f10x_lib/STM32F10x_StdPeriph_Driver/src/stm32f10x_gpio.c **** {
 776              		.loc 1 395 1 is_stmt 1 view -0
 777              		.cfi_startproc
ARM GAS  C:\Users\ADMINI~1\AppData\Local\Temp\cc5aRzqp.s 			page 23


 778              		@ args = 0, pretend = 0, frame = 0
 779              		@ frame_needed = 0, uses_anonymous_args = 0
 780              		@ link register save eliminated.
 396:stm32f10x_lib/STM32F10x_StdPeriph_Driver/src/stm32f10x_gpio.c ****   /* Check the parameters */
 397:stm32f10x_lib/STM32F10x_StdPeriph_Driver/src/stm32f10x_gpio.c ****   assert_param(IS_GPIO_ALL_PERIPH(GPIOx));
 781              		.loc 1 397 3 view .LVU190
 398:stm32f10x_lib/STM32F10x_StdPeriph_Driver/src/stm32f10x_gpio.c ****   assert_param(IS_GET_GPIO_PIN(GPIO_Pin));
 782              		.loc 1 398 3 view .LVU191
 399:stm32f10x_lib/STM32F10x_StdPeriph_Driver/src/stm32f10x_gpio.c ****   assert_param(IS_GPIO_BIT_ACTION(BitVal)); 
 783              		.loc 1 399 3 view .LVU192
 400:stm32f10x_lib/STM32F10x_StdPeriph_Driver/src/stm32f10x_gpio.c ****   
 401:stm32f10x_lib/STM32F10x_StdPeriph_Driver/src/stm32f10x_gpio.c ****   if (BitVal != Bit_RESET)
 784              		.loc 1 401 3 view .LVU193
 785              	@ stm32f10x_lib/STM32F10x_StdPeriph_Driver/src/stm32f10x_gpio.c:401:   if (BitVal != Bit_RESET)
 786              		.loc 1 401 6 is_stmt 0 view .LVU194
 787 01aa 0AB1     		cbz	r2, .L39	@ tmp119,
 402:stm32f10x_lib/STM32F10x_StdPeriph_Driver/src/stm32f10x_gpio.c ****   {
 403:stm32f10x_lib/STM32F10x_StdPeriph_Driver/src/stm32f10x_gpio.c ****     GPIOx->BSRR = GPIO_Pin;
 788              		.loc 1 403 5 is_stmt 1 view .LVU195
 789              	@ stm32f10x_lib/STM32F10x_StdPeriph_Driver/src/stm32f10x_gpio.c:403:     GPIOx->BSRR = GPIO_Pin;
 790              		.loc 1 403 17 is_stmt 0 view .LVU196
 791 01ac 0161     		str	r1, [r0, #16]	@ GPIO_Pin, GPIOx_7(D)->BSRR
 792 01ae 7047     		bx	lr	@
 793              	.L39:
 404:stm32f10x_lib/STM32F10x_StdPeriph_Driver/src/stm32f10x_gpio.c ****   }
 405:stm32f10x_lib/STM32F10x_StdPeriph_Driver/src/stm32f10x_gpio.c ****   else
 406:stm32f10x_lib/STM32F10x_StdPeriph_Driver/src/stm32f10x_gpio.c ****   {
 407:stm32f10x_lib/STM32F10x_StdPeriph_Driver/src/stm32f10x_gpio.c ****     GPIOx->BRR = GPIO_Pin;
 794              		.loc 1 407 5 is_stmt 1 view .LVU197
 795              	@ stm32f10x_lib/STM32F10x_StdPeriph_Driver/src/stm32f10x_gpio.c:407:     GPIOx->BRR = GPIO_Pin;
 796              		.loc 1 407 16 is_stmt 0 view .LVU198
 797 01b0 4161     		str	r1, [r0, #20]	@ GPIO_Pin, GPIOx_7(D)->BRR
 798              	@ stm32f10x_lib/STM32F10x_StdPeriph_Driver/src/stm32f10x_gpio.c:409: }
 408:stm32f10x_lib/STM32F10x_StdPeriph_Driver/src/stm32f10x_gpio.c ****   }
 409:stm32f10x_lib/STM32F10x_StdPeriph_Driver/src/stm32f10x_gpio.c **** }
 799              		.loc 1 409 1 view .LVU199
 800 01b2 7047     		bx	lr	@
 801              		.cfi_endproc
 802              	.LFE39:
 803              		.size	GPIO_WriteBit, .-GPIO_WriteBit
 804              		.align	1
 805              		.global	GPIO_Write
 806              		.syntax unified
 807              		.thumb
 808              		.thumb_func
 809              		.type	GPIO_Write, %function
 810              	GPIO_Write:
 811              	.LVL63:
 812              	.LFB40:
 410:stm32f10x_lib/STM32F10x_StdPeriph_Driver/src/stm32f10x_gpio.c **** 
 411:stm32f10x_lib/STM32F10x_StdPeriph_Driver/src/stm32f10x_gpio.c **** /**
 412:stm32f10x_lib/STM32F10x_StdPeriph_Driver/src/stm32f10x_gpio.c ****   * @brief  Writes data to the specified GPIO data port.
 413:stm32f10x_lib/STM32F10x_StdPeriph_Driver/src/stm32f10x_gpio.c ****   * @param  GPIOx: where x can be (A..G) to select the GPIO peripheral.
 414:stm32f10x_lib/STM32F10x_StdPeriph_Driver/src/stm32f10x_gpio.c ****   * @param  PortVal: specifies the value to be written to the port output data register.
 415:stm32f10x_lib/STM32F10x_StdPeriph_Driver/src/stm32f10x_gpio.c ****   * @retval None
 416:stm32f10x_lib/STM32F10x_StdPeriph_Driver/src/stm32f10x_gpio.c ****   */
 417:stm32f10x_lib/STM32F10x_StdPeriph_Driver/src/stm32f10x_gpio.c **** void GPIO_Write(GPIO_TypeDef* GPIOx, uint16_t PortVal)
ARM GAS  C:\Users\ADMINI~1\AppData\Local\Temp\cc5aRzqp.s 			page 24


 418:stm32f10x_lib/STM32F10x_StdPeriph_Driver/src/stm32f10x_gpio.c **** {
 813              		.loc 1 418 1 is_stmt 1 view -0
 814              		.cfi_startproc
 815              		@ args = 0, pretend = 0, frame = 0
 816              		@ frame_needed = 0, uses_anonymous_args = 0
 817              		@ link register save eliminated.
 419:stm32f10x_lib/STM32F10x_StdPeriph_Driver/src/stm32f10x_gpio.c ****   /* Check the parameters */
 420:stm32f10x_lib/STM32F10x_StdPeriph_Driver/src/stm32f10x_gpio.c ****   assert_param(IS_GPIO_ALL_PERIPH(GPIOx));
 818              		.loc 1 420 3 view .LVU201
 421:stm32f10x_lib/STM32F10x_StdPeriph_Driver/src/stm32f10x_gpio.c ****   
 422:stm32f10x_lib/STM32F10x_StdPeriph_Driver/src/stm32f10x_gpio.c ****   GPIOx->ODR = PortVal;
 819              		.loc 1 422 3 view .LVU202
 820              	@ stm32f10x_lib/STM32F10x_StdPeriph_Driver/src/stm32f10x_gpio.c:422:   GPIOx->ODR = PortVal;
 821              		.loc 1 422 14 is_stmt 0 view .LVU203
 822 01b4 C160     		str	r1, [r0, #12]	@ PortVal, GPIOx_4(D)->ODR
 823              	@ stm32f10x_lib/STM32F10x_StdPeriph_Driver/src/stm32f10x_gpio.c:423: }
 423:stm32f10x_lib/STM32F10x_StdPeriph_Driver/src/stm32f10x_gpio.c **** }
 824              		.loc 1 423 1 view .LVU204
 825 01b6 7047     		bx	lr	@
 826              		.cfi_endproc
 827              	.LFE40:
 828              		.size	GPIO_Write, .-GPIO_Write
 829              		.align	1
 830              		.global	GPIO_PinLockConfig
 831              		.syntax unified
 832              		.thumb
 833              		.thumb_func
 834              		.type	GPIO_PinLockConfig, %function
 835              	GPIO_PinLockConfig:
 836              	.LVL64:
 837              	.LFB41:
 424:stm32f10x_lib/STM32F10x_StdPeriph_Driver/src/stm32f10x_gpio.c **** 
 425:stm32f10x_lib/STM32F10x_StdPeriph_Driver/src/stm32f10x_gpio.c **** /**
 426:stm32f10x_lib/STM32F10x_StdPeriph_Driver/src/stm32f10x_gpio.c ****   * @brief  Locks GPIO Pins configuration registers.
 427:stm32f10x_lib/STM32F10x_StdPeriph_Driver/src/stm32f10x_gpio.c ****   * @param  GPIOx: where x can be (A..G) to select the GPIO peripheral.
 428:stm32f10x_lib/STM32F10x_StdPeriph_Driver/src/stm32f10x_gpio.c ****   * @param  GPIO_Pin: specifies the port bit to be written.
 429:stm32f10x_lib/STM32F10x_StdPeriph_Driver/src/stm32f10x_gpio.c ****   *   This parameter can be any combination of GPIO_Pin_x where x can be (0..15).
 430:stm32f10x_lib/STM32F10x_StdPeriph_Driver/src/stm32f10x_gpio.c ****   * @retval None
 431:stm32f10x_lib/STM32F10x_StdPeriph_Driver/src/stm32f10x_gpio.c ****   */
 432:stm32f10x_lib/STM32F10x_StdPeriph_Driver/src/stm32f10x_gpio.c **** void GPIO_PinLockConfig(GPIO_TypeDef* GPIOx, uint16_t GPIO_Pin)
 433:stm32f10x_lib/STM32F10x_StdPeriph_Driver/src/stm32f10x_gpio.c **** {
 838              		.loc 1 433 1 is_stmt 1 view -0
 839              		.cfi_startproc
 840              		@ args = 0, pretend = 0, frame = 0
 841              		@ frame_needed = 0, uses_anonymous_args = 0
 842              		@ link register save eliminated.
 434:stm32f10x_lib/STM32F10x_StdPeriph_Driver/src/stm32f10x_gpio.c ****   uint32_t tmp = 0x00010000;
 843              		.loc 1 434 3 view .LVU206
 435:stm32f10x_lib/STM32F10x_StdPeriph_Driver/src/stm32f10x_gpio.c ****   
 436:stm32f10x_lib/STM32F10x_StdPeriph_Driver/src/stm32f10x_gpio.c ****   /* Check the parameters */
 437:stm32f10x_lib/STM32F10x_StdPeriph_Driver/src/stm32f10x_gpio.c ****   assert_param(IS_GPIO_ALL_PERIPH(GPIOx));
 844              		.loc 1 437 3 view .LVU207
 438:stm32f10x_lib/STM32F10x_StdPeriph_Driver/src/stm32f10x_gpio.c ****   assert_param(IS_GPIO_PIN(GPIO_Pin));
 845              		.loc 1 438 3 view .LVU208
 439:stm32f10x_lib/STM32F10x_StdPeriph_Driver/src/stm32f10x_gpio.c ****   
 440:stm32f10x_lib/STM32F10x_StdPeriph_Driver/src/stm32f10x_gpio.c ****   tmp |= GPIO_Pin;
 846              		.loc 1 440 3 view .LVU209
ARM GAS  C:\Users\ADMINI~1\AppData\Local\Temp\cc5aRzqp.s 			page 25


 847              	@ stm32f10x_lib/STM32F10x_StdPeriph_Driver/src/stm32f10x_gpio.c:440:   tmp |= GPIO_Pin;
 848              		.loc 1 440 7 is_stmt 0 view .LVU210
 849 01b8 41F48033 		orr	r3, r1, #65536	@ tmp, GPIO_Pin,
 850              	.LVL65:
 441:stm32f10x_lib/STM32F10x_StdPeriph_Driver/src/stm32f10x_gpio.c ****   /* Set LCKK bit */
 442:stm32f10x_lib/STM32F10x_StdPeriph_Driver/src/stm32f10x_gpio.c ****   GPIOx->LCKR = tmp;
 851              		.loc 1 442 3 is_stmt 1 view .LVU211
 852              	@ stm32f10x_lib/STM32F10x_StdPeriph_Driver/src/stm32f10x_gpio.c:442:   GPIOx->LCKR = tmp;
 853              		.loc 1 442 15 is_stmt 0 view .LVU212
 854 01bc 8361     		str	r3, [r0, #24]	@ tmp, GPIOx_5(D)->LCKR
 443:stm32f10x_lib/STM32F10x_StdPeriph_Driver/src/stm32f10x_gpio.c ****   /* Reset LCKK bit */
 444:stm32f10x_lib/STM32F10x_StdPeriph_Driver/src/stm32f10x_gpio.c ****   GPIOx->LCKR =  GPIO_Pin;
 855              		.loc 1 444 3 is_stmt 1 view .LVU213
 856              	@ stm32f10x_lib/STM32F10x_StdPeriph_Driver/src/stm32f10x_gpio.c:444:   GPIOx->LCKR =  GPIO_Pin;
 857              		.loc 1 444 15 is_stmt 0 view .LVU214
 858 01be 8161     		str	r1, [r0, #24]	@ GPIO_Pin, GPIOx_5(D)->LCKR
 445:stm32f10x_lib/STM32F10x_StdPeriph_Driver/src/stm32f10x_gpio.c ****   /* Set LCKK bit */
 446:stm32f10x_lib/STM32F10x_StdPeriph_Driver/src/stm32f10x_gpio.c ****   GPIOx->LCKR = tmp;
 859              		.loc 1 446 3 is_stmt 1 view .LVU215
 860              	@ stm32f10x_lib/STM32F10x_StdPeriph_Driver/src/stm32f10x_gpio.c:446:   GPIOx->LCKR = tmp;
 861              		.loc 1 446 15 is_stmt 0 view .LVU216
 862 01c0 8361     		str	r3, [r0, #24]	@ tmp, GPIOx_5(D)->LCKR
 447:stm32f10x_lib/STM32F10x_StdPeriph_Driver/src/stm32f10x_gpio.c ****   /* Read LCKK bit*/
 448:stm32f10x_lib/STM32F10x_StdPeriph_Driver/src/stm32f10x_gpio.c ****   tmp = GPIOx->LCKR;
 863              		.loc 1 448 3 is_stmt 1 view .LVU217
 864              	@ stm32f10x_lib/STM32F10x_StdPeriph_Driver/src/stm32f10x_gpio.c:448:   tmp = GPIOx->LCKR;
 865              		.loc 1 448 7 is_stmt 0 view .LVU218
 866 01c2 8369     		ldr	r3, [r0, #24]	@ tmp, GPIOx_5(D)->LCKR
 867              	.LVL66:
 449:stm32f10x_lib/STM32F10x_StdPeriph_Driver/src/stm32f10x_gpio.c ****   /* Read LCKK bit*/
 450:stm32f10x_lib/STM32F10x_StdPeriph_Driver/src/stm32f10x_gpio.c ****   tmp = GPIOx->LCKR;
 868              		.loc 1 450 3 is_stmt 1 view .LVU219
 869              	@ stm32f10x_lib/STM32F10x_StdPeriph_Driver/src/stm32f10x_gpio.c:450:   tmp = GPIOx->LCKR;
 870              		.loc 1 450 7 is_stmt 0 view .LVU220
 871 01c4 8369     		ldr	r3, [r0, #24]	@ tmp, GPIOx_5(D)->LCKR
 872              	@ stm32f10x_lib/STM32F10x_StdPeriph_Driver/src/stm32f10x_gpio.c:451: }
 451:stm32f10x_lib/STM32F10x_StdPeriph_Driver/src/stm32f10x_gpio.c **** }
 873              		.loc 1 451 1 view .LVU221
 874 01c6 7047     		bx	lr	@
 875              		.cfi_endproc
 876              	.LFE41:
 877              		.size	GPIO_PinLockConfig, .-GPIO_PinLockConfig
 878              		.align	1
 879              		.global	GPIO_EventOutputConfig
 880              		.syntax unified
 881              		.thumb
 882              		.thumb_func
 883              		.type	GPIO_EventOutputConfig, %function
 884              	GPIO_EventOutputConfig:
 885              	.LVL67:
 886              	.LFB42:
 452:stm32f10x_lib/STM32F10x_StdPeriph_Driver/src/stm32f10x_gpio.c **** 
 453:stm32f10x_lib/STM32F10x_StdPeriph_Driver/src/stm32f10x_gpio.c **** /**
 454:stm32f10x_lib/STM32F10x_StdPeriph_Driver/src/stm32f10x_gpio.c ****   * @brief  Selects the GPIO pin used as Event output.
 455:stm32f10x_lib/STM32F10x_StdPeriph_Driver/src/stm32f10x_gpio.c ****   * @param  GPIO_PortSource: selects the GPIO port to be used as source
 456:stm32f10x_lib/STM32F10x_StdPeriph_Driver/src/stm32f10x_gpio.c ****   *   for Event output.
 457:stm32f10x_lib/STM32F10x_StdPeriph_Driver/src/stm32f10x_gpio.c ****   *   This parameter can be GPIO_PortSourceGPIOx where x can be (A..E).
ARM GAS  C:\Users\ADMINI~1\AppData\Local\Temp\cc5aRzqp.s 			page 26


 458:stm32f10x_lib/STM32F10x_StdPeriph_Driver/src/stm32f10x_gpio.c ****   * @param  GPIO_PinSource: specifies the pin for the Event output.
 459:stm32f10x_lib/STM32F10x_StdPeriph_Driver/src/stm32f10x_gpio.c ****   *   This parameter can be GPIO_PinSourcex where x can be (0..15).
 460:stm32f10x_lib/STM32F10x_StdPeriph_Driver/src/stm32f10x_gpio.c ****   * @retval None
 461:stm32f10x_lib/STM32F10x_StdPeriph_Driver/src/stm32f10x_gpio.c ****   */
 462:stm32f10x_lib/STM32F10x_StdPeriph_Driver/src/stm32f10x_gpio.c **** void GPIO_EventOutputConfig(uint8_t GPIO_PortSource, uint8_t GPIO_PinSource)
 463:stm32f10x_lib/STM32F10x_StdPeriph_Driver/src/stm32f10x_gpio.c **** {
 887              		.loc 1 463 1 is_stmt 1 view -0
 888              		.cfi_startproc
 889              		@ args = 0, pretend = 0, frame = 0
 890              		@ frame_needed = 0, uses_anonymous_args = 0
 891              		@ link register save eliminated.
 464:stm32f10x_lib/STM32F10x_StdPeriph_Driver/src/stm32f10x_gpio.c ****   uint32_t tmpreg = 0x00;
 892              		.loc 1 464 3 view .LVU223
 465:stm32f10x_lib/STM32F10x_StdPeriph_Driver/src/stm32f10x_gpio.c ****   /* Check the parameters */
 466:stm32f10x_lib/STM32F10x_StdPeriph_Driver/src/stm32f10x_gpio.c ****   assert_param(IS_GPIO_EVENTOUT_PORT_SOURCE(GPIO_PortSource));
 893              		.loc 1 466 3 view .LVU224
 467:stm32f10x_lib/STM32F10x_StdPeriph_Driver/src/stm32f10x_gpio.c ****   assert_param(IS_GPIO_PIN_SOURCE(GPIO_PinSource));
 894              		.loc 1 467 3 view .LVU225
 468:stm32f10x_lib/STM32F10x_StdPeriph_Driver/src/stm32f10x_gpio.c ****     
 469:stm32f10x_lib/STM32F10x_StdPeriph_Driver/src/stm32f10x_gpio.c ****   tmpreg = AFIO->EVCR;
 895              		.loc 1 469 3 view .LVU226
 896              	@ stm32f10x_lib/STM32F10x_StdPeriph_Driver/src/stm32f10x_gpio.c:469:   tmpreg = AFIO->EVCR;
 897              		.loc 1 469 10 is_stmt 0 view .LVU227
 898 01c8 054A     		ldr	r2, .L44	@ tmp122,
 899 01ca 1368     		ldr	r3, [r2]	@ tmpreg, MEM[(struct AFIO_TypeDef *)1073807360B].EVCR
 900              	.LVL68:
 470:stm32f10x_lib/STM32F10x_StdPeriph_Driver/src/stm32f10x_gpio.c ****   /* Clear the PORT[6:4] and PIN[3:0] bits */
 471:stm32f10x_lib/STM32F10x_StdPeriph_Driver/src/stm32f10x_gpio.c ****   tmpreg &= EVCR_PORTPINCONFIG_MASK;
 901              		.loc 1 471 3 is_stmt 1 view .LVU228
 472:stm32f10x_lib/STM32F10x_StdPeriph_Driver/src/stm32f10x_gpio.c ****   tmpreg |= (uint32_t)GPIO_PortSource << 0x04;
 902              		.loc 1 472 3 view .LVU229
 473:stm32f10x_lib/STM32F10x_StdPeriph_Driver/src/stm32f10x_gpio.c ****   tmpreg |= GPIO_PinSource;
 903              		.loc 1 473 3 view .LVU230
 904              	@ stm32f10x_lib/STM32F10x_StdPeriph_Driver/src/stm32f10x_gpio.c:471:   tmpreg &= EVCR_PORTPINCONFIG
 471:stm32f10x_lib/STM32F10x_StdPeriph_Driver/src/stm32f10x_gpio.c ****   tmpreg |= (uint32_t)GPIO_PortSource << 0x04;
 905              		.loc 1 471 10 is_stmt 0 view .LVU231
 906 01cc 23F07F03 		bic	r3, r3, #127	@ tmpreg, tmpreg,
 907              	.LVL69:
 471:stm32f10x_lib/STM32F10x_StdPeriph_Driver/src/stm32f10x_gpio.c ****   tmpreg |= (uint32_t)GPIO_PortSource << 0x04;
 908              		.loc 1 471 10 view .LVU232
 909 01d0 1B04     		lsls	r3, r3, #16	@ tmpreg, tmpreg,
 910 01d2 1B0C     		lsrs	r3, r3, #16	@ tmpreg, tmpreg,
 911 01d4 0B43     		orrs	r3, r3, r1	@, _12, tmpreg, tmp128
 912              	@ stm32f10x_lib/STM32F10x_StdPeriph_Driver/src/stm32f10x_gpio.c:473:   tmpreg |= GPIO_PinSource;
 913              		.loc 1 473 10 view .LVU233
 914 01d6 43EA0013 		orr	r3, r3, r0, lsl #4	@ tmpreg, _12, tmp127,
 915              	.LVL70:
 474:stm32f10x_lib/STM32F10x_StdPeriph_Driver/src/stm32f10x_gpio.c ****   AFIO->EVCR = tmpreg;
 916              		.loc 1 474 3 is_stmt 1 view .LVU234
 917              	@ stm32f10x_lib/STM32F10x_StdPeriph_Driver/src/stm32f10x_gpio.c:474:   AFIO->EVCR = tmpreg;
 918              		.loc 1 474 14 is_stmt 0 view .LVU235
 919 01da 1360     		str	r3, [r2]	@ tmpreg, MEM[(struct AFIO_TypeDef *)1073807360B].EVCR
 920              	@ stm32f10x_lib/STM32F10x_StdPeriph_Driver/src/stm32f10x_gpio.c:475: }
 475:stm32f10x_lib/STM32F10x_StdPeriph_Driver/src/stm32f10x_gpio.c **** }
 921              		.loc 1 475 1 view .LVU236
 922 01dc 7047     		bx	lr	@
 923              	.L45:
ARM GAS  C:\Users\ADMINI~1\AppData\Local\Temp\cc5aRzqp.s 			page 27


 924 01de 00BF     		.align	2
 925              	.L44:
 926 01e0 00000140 		.word	1073807360
 927              		.cfi_endproc
 928              	.LFE42:
 929              		.size	GPIO_EventOutputConfig, .-GPIO_EventOutputConfig
 930              		.align	1
 931              		.global	GPIO_EventOutputCmd
 932              		.syntax unified
 933              		.thumb
 934              		.thumb_func
 935              		.type	GPIO_EventOutputCmd, %function
 936              	GPIO_EventOutputCmd:
 937              	.LVL71:
 938              	.LFB43:
 476:stm32f10x_lib/STM32F10x_StdPeriph_Driver/src/stm32f10x_gpio.c **** 
 477:stm32f10x_lib/STM32F10x_StdPeriph_Driver/src/stm32f10x_gpio.c **** /**
 478:stm32f10x_lib/STM32F10x_StdPeriph_Driver/src/stm32f10x_gpio.c ****   * @brief  Enables or disables the Event Output.
 479:stm32f10x_lib/STM32F10x_StdPeriph_Driver/src/stm32f10x_gpio.c ****   * @param  NewState: new state of the Event output.
 480:stm32f10x_lib/STM32F10x_StdPeriph_Driver/src/stm32f10x_gpio.c ****   *   This parameter can be: ENABLE or DISABLE.
 481:stm32f10x_lib/STM32F10x_StdPeriph_Driver/src/stm32f10x_gpio.c ****   * @retval None
 482:stm32f10x_lib/STM32F10x_StdPeriph_Driver/src/stm32f10x_gpio.c ****   */
 483:stm32f10x_lib/STM32F10x_StdPeriph_Driver/src/stm32f10x_gpio.c **** void GPIO_EventOutputCmd(FunctionalState NewState)
 484:stm32f10x_lib/STM32F10x_StdPeriph_Driver/src/stm32f10x_gpio.c **** {
 939              		.loc 1 484 1 is_stmt 1 view -0
 940              		.cfi_startproc
 941              		@ args = 0, pretend = 0, frame = 0
 942              		@ frame_needed = 0, uses_anonymous_args = 0
 943              		@ link register save eliminated.
 485:stm32f10x_lib/STM32F10x_StdPeriph_Driver/src/stm32f10x_gpio.c ****   /* Check the parameters */
 486:stm32f10x_lib/STM32F10x_StdPeriph_Driver/src/stm32f10x_gpio.c ****   assert_param(IS_FUNCTIONAL_STATE(NewState));
 944              		.loc 1 486 3 view .LVU238
 487:stm32f10x_lib/STM32F10x_StdPeriph_Driver/src/stm32f10x_gpio.c ****   
 488:stm32f10x_lib/STM32F10x_StdPeriph_Driver/src/stm32f10x_gpio.c ****   *(__IO uint32_t *) EVCR_EVOE_BB = (uint32_t)NewState;
 945              		.loc 1 488 3 view .LVU239
 946              	@ stm32f10x_lib/STM32F10x_StdPeriph_Driver/src/stm32f10x_gpio.c:488:   *(__IO uint32_t *) EVCR_EVOE
 947              		.loc 1 488 35 is_stmt 0 view .LVU240
 948 01e4 014B     		ldr	r3, .L47	@ tmp115,
 949 01e6 D861     		str	r0, [r3, #28]	@ NewState, MEM[(volatile uint32_t *)1109393436B]
 950              	@ stm32f10x_lib/STM32F10x_StdPeriph_Driver/src/stm32f10x_gpio.c:489: }
 489:stm32f10x_lib/STM32F10x_StdPeriph_Driver/src/stm32f10x_gpio.c **** }
 951              		.loc 1 489 1 view .LVU241
 952 01e8 7047     		bx	lr	@
 953              	.L48:
 954 01ea 00BF     		.align	2
 955              	.L47:
 956 01ec 00002042 		.word	1109393408
 957              		.cfi_endproc
 958              	.LFE43:
 959              		.size	GPIO_EventOutputCmd, .-GPIO_EventOutputCmd
 960              		.align	1
 961              		.global	GPIO_PinRemapConfig
 962              		.syntax unified
 963              		.thumb
 964              		.thumb_func
 965              		.type	GPIO_PinRemapConfig, %function
 966              	GPIO_PinRemapConfig:
ARM GAS  C:\Users\ADMINI~1\AppData\Local\Temp\cc5aRzqp.s 			page 28


 967              	.LVL72:
 968              	.LFB44:
 490:stm32f10x_lib/STM32F10x_StdPeriph_Driver/src/stm32f10x_gpio.c **** 
 491:stm32f10x_lib/STM32F10x_StdPeriph_Driver/src/stm32f10x_gpio.c **** /**
 492:stm32f10x_lib/STM32F10x_StdPeriph_Driver/src/stm32f10x_gpio.c ****   * @brief  Changes the mapping of the specified pin.
 493:stm32f10x_lib/STM32F10x_StdPeriph_Driver/src/stm32f10x_gpio.c ****   * @param  GPIO_Remap: selects the pin to remap.
 494:stm32f10x_lib/STM32F10x_StdPeriph_Driver/src/stm32f10x_gpio.c ****   *   This parameter can be one of the following values:
 495:stm32f10x_lib/STM32F10x_StdPeriph_Driver/src/stm32f10x_gpio.c ****   *     @arg GPIO_Remap_SPI1             : SPI1 Alternate Function mapping
 496:stm32f10x_lib/STM32F10x_StdPeriph_Driver/src/stm32f10x_gpio.c ****   *     @arg GPIO_Remap_I2C1             : I2C1 Alternate Function mapping
 497:stm32f10x_lib/STM32F10x_StdPeriph_Driver/src/stm32f10x_gpio.c ****   *     @arg GPIO_Remap_USART1           : USART1 Alternate Function mapping
 498:stm32f10x_lib/STM32F10x_StdPeriph_Driver/src/stm32f10x_gpio.c ****   *     @arg GPIO_Remap_USART2           : USART2 Alternate Function mapping
 499:stm32f10x_lib/STM32F10x_StdPeriph_Driver/src/stm32f10x_gpio.c ****   *     @arg GPIO_PartialRemap_USART3    : USART3 Partial Alternate Function mapping
 500:stm32f10x_lib/STM32F10x_StdPeriph_Driver/src/stm32f10x_gpio.c ****   *     @arg GPIO_FullRemap_USART3       : USART3 Full Alternate Function mapping
 501:stm32f10x_lib/STM32F10x_StdPeriph_Driver/src/stm32f10x_gpio.c ****   *     @arg GPIO_PartialRemap_TIM1      : TIM1 Partial Alternate Function mapping
 502:stm32f10x_lib/STM32F10x_StdPeriph_Driver/src/stm32f10x_gpio.c ****   *     @arg GPIO_FullRemap_TIM1         : TIM1 Full Alternate Function mapping
 503:stm32f10x_lib/STM32F10x_StdPeriph_Driver/src/stm32f10x_gpio.c ****   *     @arg GPIO_PartialRemap1_TIM2     : TIM2 Partial1 Alternate Function mapping
 504:stm32f10x_lib/STM32F10x_StdPeriph_Driver/src/stm32f10x_gpio.c ****   *     @arg GPIO_PartialRemap2_TIM2     : TIM2 Partial2 Alternate Function mapping
 505:stm32f10x_lib/STM32F10x_StdPeriph_Driver/src/stm32f10x_gpio.c ****   *     @arg GPIO_FullRemap_TIM2         : TIM2 Full Alternate Function mapping
 506:stm32f10x_lib/STM32F10x_StdPeriph_Driver/src/stm32f10x_gpio.c ****   *     @arg GPIO_PartialRemap_TIM3      : TIM3 Partial Alternate Function mapping
 507:stm32f10x_lib/STM32F10x_StdPeriph_Driver/src/stm32f10x_gpio.c ****   *     @arg GPIO_FullRemap_TIM3         : TIM3 Full Alternate Function mapping
 508:stm32f10x_lib/STM32F10x_StdPeriph_Driver/src/stm32f10x_gpio.c ****   *     @arg GPIO_Remap_TIM4             : TIM4 Alternate Function mapping
 509:stm32f10x_lib/STM32F10x_StdPeriph_Driver/src/stm32f10x_gpio.c ****   *     @arg GPIO_Remap1_CAN1            : CAN1 Alternate Function mapping
 510:stm32f10x_lib/STM32F10x_StdPeriph_Driver/src/stm32f10x_gpio.c ****   *     @arg GPIO_Remap2_CAN1            : CAN1 Alternate Function mapping
 511:stm32f10x_lib/STM32F10x_StdPeriph_Driver/src/stm32f10x_gpio.c ****   *     @arg GPIO_Remap_PD01             : PD01 Alternate Function mapping
 512:stm32f10x_lib/STM32F10x_StdPeriph_Driver/src/stm32f10x_gpio.c ****   *     @arg GPIO_Remap_TIM5CH4_LSI      : LSI connected to TIM5 Channel4 input capture for calibra
 513:stm32f10x_lib/STM32F10x_StdPeriph_Driver/src/stm32f10x_gpio.c ****   *     @arg GPIO_Remap_ADC1_ETRGINJ     : ADC1 External Trigger Injected Conversion remapping
 514:stm32f10x_lib/STM32F10x_StdPeriph_Driver/src/stm32f10x_gpio.c ****   *     @arg GPIO_Remap_ADC1_ETRGREG     : ADC1 External Trigger Regular Conversion remapping
 515:stm32f10x_lib/STM32F10x_StdPeriph_Driver/src/stm32f10x_gpio.c ****   *     @arg GPIO_Remap_ADC2_ETRGINJ     : ADC2 External Trigger Injected Conversion remapping
 516:stm32f10x_lib/STM32F10x_StdPeriph_Driver/src/stm32f10x_gpio.c ****   *     @arg GPIO_Remap_ADC2_ETRGREG     : ADC2 External Trigger Regular Conversion remapping
 517:stm32f10x_lib/STM32F10x_StdPeriph_Driver/src/stm32f10x_gpio.c ****   *     @arg GPIO_Remap_ETH              : Ethernet remapping (only for Connectivity line devices)
 518:stm32f10x_lib/STM32F10x_StdPeriph_Driver/src/stm32f10x_gpio.c ****   *     @arg GPIO_Remap_CAN2             : CAN2 remapping (only for Connectivity line devices)
 519:stm32f10x_lib/STM32F10x_StdPeriph_Driver/src/stm32f10x_gpio.c ****   *     @arg GPIO_Remap_SWJ_NoJTRST      : Full SWJ Enabled (JTAG-DP + SW-DP) but without JTRST
 520:stm32f10x_lib/STM32F10x_StdPeriph_Driver/src/stm32f10x_gpio.c ****   *     @arg GPIO_Remap_SWJ_JTAGDisable  : JTAG-DP Disabled and SW-DP Enabled
 521:stm32f10x_lib/STM32F10x_StdPeriph_Driver/src/stm32f10x_gpio.c ****   *     @arg GPIO_Remap_SWJ_Disable      : Full SWJ Disabled (JTAG-DP + SW-DP)
 522:stm32f10x_lib/STM32F10x_StdPeriph_Driver/src/stm32f10x_gpio.c ****   *     @arg GPIO_Remap_SPI3             : SPI3/I2S3 Alternate Function mapping (only for Connectiv
 523:stm32f10x_lib/STM32F10x_StdPeriph_Driver/src/stm32f10x_gpio.c ****   *                                        When the SPI3/I2S3 is remapped using this function, the 
 524:stm32f10x_lib/STM32F10x_StdPeriph_Driver/src/stm32f10x_gpio.c ****   *                                        to Full SWJ Enabled (JTAG-DP + SW-DP) but without JTRST.
 525:stm32f10x_lib/STM32F10x_StdPeriph_Driver/src/stm32f10x_gpio.c ****   *     @arg GPIO_Remap_TIM2ITR1_PTP_SOF : Ethernet PTP output or USB OTG SOF (Start of Frame) conn
 526:stm32f10x_lib/STM32F10x_StdPeriph_Driver/src/stm32f10x_gpio.c ****   *                                        to TIM2 Internal Trigger 1 for calibration (only for Con
 527:stm32f10x_lib/STM32F10x_StdPeriph_Driver/src/stm32f10x_gpio.c ****   *                                        If the GPIO_Remap_TIM2ITR1_PTP_SOF is enabled the TIM2 I
 528:stm32f10x_lib/STM32F10x_StdPeriph_Driver/src/stm32f10x_gpio.c ****   *                                        Ethernet PTP output. When Reset TIM2 ITR1 is connected t
 529:stm32f10x_lib/STM32F10x_StdPeriph_Driver/src/stm32f10x_gpio.c ****   *     @arg GPIO_Remap_PTP_PPS          : Ethernet MAC PPS_PTS output on PB05 (only for Connectivi
 530:stm32f10x_lib/STM32F10x_StdPeriph_Driver/src/stm32f10x_gpio.c ****   *     @arg GPIO_Remap_TIM15            : TIM15 Alternate Function mapping (only for Value line de
 531:stm32f10x_lib/STM32F10x_StdPeriph_Driver/src/stm32f10x_gpio.c ****   *     @arg GPIO_Remap_TIM16            : TIM16 Alternate Function mapping (only for Value line de
 532:stm32f10x_lib/STM32F10x_StdPeriph_Driver/src/stm32f10x_gpio.c ****   *     @arg GPIO_Remap_TIM17            : TIM17 Alternate Function mapping (only for Value line de
 533:stm32f10x_lib/STM32F10x_StdPeriph_Driver/src/stm32f10x_gpio.c ****   *     @arg GPIO_Remap_CEC              : CEC Alternate Function mapping (only for Value line devi
 534:stm32f10x_lib/STM32F10x_StdPeriph_Driver/src/stm32f10x_gpio.c ****   *     @arg GPIO_Remap_TIM1_DMA         : TIM1 DMA requests mapping (only for Value line devices)
 535:stm32f10x_lib/STM32F10x_StdPeriph_Driver/src/stm32f10x_gpio.c ****   *     @arg GPIO_Remap_TIM9             : TIM9 Alternate Function mapping (only for XL-density dev
 536:stm32f10x_lib/STM32F10x_StdPeriph_Driver/src/stm32f10x_gpio.c ****   *     @arg GPIO_Remap_TIM10            : TIM10 Alternate Function mapping (only for XL-density de
 537:stm32f10x_lib/STM32F10x_StdPeriph_Driver/src/stm32f10x_gpio.c ****   *     @arg GPIO_Remap_TIM11            : TIM11 Alternate Function mapping (only for XL-density de
 538:stm32f10x_lib/STM32F10x_StdPeriph_Driver/src/stm32f10x_gpio.c ****   *     @arg GPIO_Remap_TIM13            : TIM13 Alternate Function mapping (only for High density 
 539:stm32f10x_lib/STM32F10x_StdPeriph_Driver/src/stm32f10x_gpio.c ****   *     @arg GPIO_Remap_TIM14            : TIM14 Alternate Function mapping (only for High density 
 540:stm32f10x_lib/STM32F10x_StdPeriph_Driver/src/stm32f10x_gpio.c ****   *     @arg GPIO_Remap_FSMC_NADV        : FSMC_NADV Alternate Function mapping (only for High dens
 541:stm32f10x_lib/STM32F10x_StdPeriph_Driver/src/stm32f10x_gpio.c ****   *     @arg GPIO_Remap_TIM67_DAC_DMA    : TIM6/TIM7 and DAC DMA requests remapping (only for High 
 542:stm32f10x_lib/STM32F10x_StdPeriph_Driver/src/stm32f10x_gpio.c ****   *     @arg GPIO_Remap_TIM12            : TIM12 Alternate Function mapping (only for High density 
 543:stm32f10x_lib/STM32F10x_StdPeriph_Driver/src/stm32f10x_gpio.c ****   *     @arg GPIO_Remap_MISC             : Miscellaneous Remap (DMA2 Channel5 Position and DAC Trig
 544:stm32f10x_lib/STM32F10x_StdPeriph_Driver/src/stm32f10x_gpio.c ****   *                                        only for High density Value line devices)     
ARM GAS  C:\Users\ADMINI~1\AppData\Local\Temp\cc5aRzqp.s 			page 29


 545:stm32f10x_lib/STM32F10x_StdPeriph_Driver/src/stm32f10x_gpio.c ****   * @param  NewState: new state of the port pin remapping.
 546:stm32f10x_lib/STM32F10x_StdPeriph_Driver/src/stm32f10x_gpio.c ****   *   This parameter can be: ENABLE or DISABLE.
 547:stm32f10x_lib/STM32F10x_StdPeriph_Driver/src/stm32f10x_gpio.c ****   * @retval None
 548:stm32f10x_lib/STM32F10x_StdPeriph_Driver/src/stm32f10x_gpio.c ****   */
 549:stm32f10x_lib/STM32F10x_StdPeriph_Driver/src/stm32f10x_gpio.c **** void GPIO_PinRemapConfig(uint32_t GPIO_Remap, FunctionalState NewState)
 550:stm32f10x_lib/STM32F10x_StdPeriph_Driver/src/stm32f10x_gpio.c **** {
 969              		.loc 1 550 1 is_stmt 1 view -0
 970              		.cfi_startproc
 971              		@ args = 0, pretend = 0, frame = 0
 972              		@ frame_needed = 0, uses_anonymous_args = 0
 551:stm32f10x_lib/STM32F10x_StdPeriph_Driver/src/stm32f10x_gpio.c ****   uint32_t tmp = 0x00, tmp1 = 0x00, tmpreg = 0x00, tmpmask = 0x00;
 973              		.loc 1 551 3 view .LVU243
 552:stm32f10x_lib/STM32F10x_StdPeriph_Driver/src/stm32f10x_gpio.c **** 
 553:stm32f10x_lib/STM32F10x_StdPeriph_Driver/src/stm32f10x_gpio.c ****   /* Check the parameters */
 554:stm32f10x_lib/STM32F10x_StdPeriph_Driver/src/stm32f10x_gpio.c ****   assert_param(IS_GPIO_REMAP(GPIO_Remap));
 974              		.loc 1 554 3 view .LVU244
 555:stm32f10x_lib/STM32F10x_StdPeriph_Driver/src/stm32f10x_gpio.c ****   assert_param(IS_FUNCTIONAL_STATE(NewState));  
 975              		.loc 1 555 3 view .LVU245
 556:stm32f10x_lib/STM32F10x_StdPeriph_Driver/src/stm32f10x_gpio.c ****   
 557:stm32f10x_lib/STM32F10x_StdPeriph_Driver/src/stm32f10x_gpio.c ****   if((GPIO_Remap & 0x80000000) == 0x80000000)
 976              		.loc 1 557 3 view .LVU246
 977              	@ stm32f10x_lib/STM32F10x_StdPeriph_Driver/src/stm32f10x_gpio.c:557:   if((GPIO_Remap & 0x80000000)
 978              		.loc 1 557 5 is_stmt 0 view .LVU247
 979 01f0 0028     		cmp	r0, #0	@ GPIO_Remap
 980              		.loc 1 557 5 view .LVU248
 981 01f2 164A     		ldr	r2, .L62	@ tmp157,
 558:stm32f10x_lib/STM32F10x_StdPeriph_Driver/src/stm32f10x_gpio.c ****   {
 559:stm32f10x_lib/STM32F10x_StdPeriph_Driver/src/stm32f10x_gpio.c ****     tmpreg = AFIO->MAPR2;
 982              		.loc 1 559 5 is_stmt 1 view .LVU249
 983              	@ stm32f10x_lib/STM32F10x_StdPeriph_Driver/src/stm32f10x_gpio.c:550: {
 550:stm32f10x_lib/STM32F10x_StdPeriph_Driver/src/stm32f10x_gpio.c ****   uint32_t tmp = 0x00, tmp1 = 0x00, tmpreg = 0x00, tmpmask = 0x00;
 984              		.loc 1 550 1 is_stmt 0 view .LVU250
 985 01f4 30B5     		push	{r4, r5, lr}	@
 986              	.LCFI6:
 987              		.cfi_def_cfa_offset 12
 988              		.cfi_offset 4, -12
 989              		.cfi_offset 5, -8
 990              		.cfi_offset 14, -4
 991              	@ stm32f10x_lib/STM32F10x_StdPeriph_Driver/src/stm32f10x_gpio.c:569:   if ((GPIO_Remap & (DBGAFR_LO
 560:stm32f10x_lib/STM32F10x_StdPeriph_Driver/src/stm32f10x_gpio.c ****   }
 561:stm32f10x_lib/STM32F10x_StdPeriph_Driver/src/stm32f10x_gpio.c ****   else
 562:stm32f10x_lib/STM32F10x_StdPeriph_Driver/src/stm32f10x_gpio.c ****   {
 563:stm32f10x_lib/STM32F10x_StdPeriph_Driver/src/stm32f10x_gpio.c ****     tmpreg = AFIO->MAPR;
 564:stm32f10x_lib/STM32F10x_StdPeriph_Driver/src/stm32f10x_gpio.c ****   }
 565:stm32f10x_lib/STM32F10x_StdPeriph_Driver/src/stm32f10x_gpio.c **** 
 566:stm32f10x_lib/STM32F10x_StdPeriph_Driver/src/stm32f10x_gpio.c ****   tmpmask = (GPIO_Remap & DBGAFR_POSITION_MASK) >> 0x10;
 567:stm32f10x_lib/STM32F10x_StdPeriph_Driver/src/stm32f10x_gpio.c ****   tmp = GPIO_Remap & LSB_MASK;
 568:stm32f10x_lib/STM32F10x_StdPeriph_Driver/src/stm32f10x_gpio.c **** 
 569:stm32f10x_lib/STM32F10x_StdPeriph_Driver/src/stm32f10x_gpio.c ****   if ((GPIO_Remap & (DBGAFR_LOCATION_MASK | DBGAFR_NUMBITS_MASK)) == (DBGAFR_LOCATION_MASK | DBGAFR
 992              		.loc 1 569 19 view .LVU251
 993 01f6 00F44015 		and	r5, r0, #3145728	@ tmp139, GPIO_Remap,
 994              	@ stm32f10x_lib/STM32F10x_StdPeriph_Driver/src/stm32f10x_gpio.c:559:     tmpreg = AFIO->MAPR2;
 559:stm32f10x_lib/STM32F10x_StdPeriph_Driver/src/stm32f10x_gpio.c ****   }
 995              		.loc 1 559 12 view .LVU252
 996 01fa B4BF     		ite	lt
 997 01fc D369     		ldrlt	r3, [r2, #28]	@ tmpreg, MEM[(struct AFIO_TypeDef *)1073807360B].MAPR2
 998              	.LVL73:
ARM GAS  C:\Users\ADMINI~1\AppData\Local\Temp\cc5aRzqp.s 			page 30


 563:stm32f10x_lib/STM32F10x_StdPeriph_Driver/src/stm32f10x_gpio.c ****   }
 999              		.loc 1 563 5 is_stmt 1 view .LVU253
 1000              	@ stm32f10x_lib/STM32F10x_StdPeriph_Driver/src/stm32f10x_gpio.c:563:     tmpreg = AFIO->MAPR;
 563:stm32f10x_lib/STM32F10x_StdPeriph_Driver/src/stm32f10x_gpio.c ****   }
 1001              		.loc 1 563 12 is_stmt 0 view .LVU254
 1002 01fe 5368     		ldrge	r3, [r2, #4]	@ tmpreg, MEM[(struct AFIO_TypeDef *)1073807360B].MAPR
 1003              	.LVL74:
 566:stm32f10x_lib/STM32F10x_StdPeriph_Driver/src/stm32f10x_gpio.c ****   tmp = GPIO_Remap & LSB_MASK;
 1004              		.loc 1 566 3 is_stmt 1 view .LVU255
 567:stm32f10x_lib/STM32F10x_StdPeriph_Driver/src/stm32f10x_gpio.c **** 
 1005              		.loc 1 567 3 view .LVU256
 1006              	@ stm32f10x_lib/STM32F10x_StdPeriph_Driver/src/stm32f10x_gpio.c:569:   if ((GPIO_Remap & (DBGAFR_LO
 1007              		.loc 1 569 6 is_stmt 0 view .LVU257
 1008 0200 B5F5401F 		cmp	r5, #3145728	@ tmp139,
 1009              	@ stm32f10x_lib/STM32F10x_StdPeriph_Driver/src/stm32f10x_gpio.c:567:   tmp = GPIO_Remap & LSB_MASK;
 567:stm32f10x_lib/STM32F10x_StdPeriph_Driver/src/stm32f10x_gpio.c **** 
 1010              		.loc 1 567 7 view .LVU258
 1011 0204 84B2     		uxth	r4, r0	@ tmp, GPIO_Remap
 1012              	.LVL75:
 1013              		.loc 1 569 3 is_stmt 1 view .LVU259
 1014              	@ stm32f10x_lib/STM32F10x_StdPeriph_Driver/src/stm32f10x_gpio.c:569:   if ((GPIO_Remap & (DBGAFR_LO
 1015              		.loc 1 569 6 is_stmt 0 view .LVU260
 1016 0206 10D1     		bne	.L52		@,
 570:stm32f10x_lib/STM32F10x_StdPeriph_Driver/src/stm32f10x_gpio.c ****   {
 571:stm32f10x_lib/STM32F10x_StdPeriph_Driver/src/stm32f10x_gpio.c ****     tmpreg &= DBGAFR_SWJCFG_MASK;
 1017              		.loc 1 571 5 is_stmt 1 view .LVU261
 1018              	@ stm32f10x_lib/STM32F10x_StdPeriph_Driver/src/stm32f10x_gpio.c:572:     AFIO->MAPR &= DBGAFR_SWJCF
 572:stm32f10x_lib/STM32F10x_StdPeriph_Driver/src/stm32f10x_gpio.c ****     AFIO->MAPR &= DBGAFR_SWJCFG_MASK;
 1019              		.loc 1 572 16 is_stmt 0 view .LVU262
 1020 0208 5568     		ldr	r5, [r2, #4]	@ _4, MEM[(struct AFIO_TypeDef *)1073807360B].MAPR
 1021              	@ stm32f10x_lib/STM32F10x_StdPeriph_Driver/src/stm32f10x_gpio.c:571:     tmpreg &= DBGAFR_SWJCFG_MA
 571:stm32f10x_lib/STM32F10x_StdPeriph_Driver/src/stm32f10x_gpio.c ****     AFIO->MAPR &= DBGAFR_SWJCFG_MASK;
 1022              		.loc 1 571 12 view .LVU263
 1023 020a 23F07063 		bic	r3, r3, #251658240	@ tmpreg, tmpreg,
 1024              	.LVL76:
 1025              		.loc 1 572 5 is_stmt 1 view .LVU264
 1026              	@ stm32f10x_lib/STM32F10x_StdPeriph_Driver/src/stm32f10x_gpio.c:572:     AFIO->MAPR &= DBGAFR_SWJCF
 1027              		.loc 1 572 16 is_stmt 0 view .LVU265
 1028 020e 25F07065 		bic	r5, r5, #251658240	@ _5, _4,
 1029 0212 5560     		str	r5, [r2, #4]	@ _5, MEM[(struct AFIO_TypeDef *)1073807360B].MAPR
 1030              	.LVL77:
 1031              	.L53:
 573:stm32f10x_lib/STM32F10x_StdPeriph_Driver/src/stm32f10x_gpio.c ****   }
 574:stm32f10x_lib/STM32F10x_StdPeriph_Driver/src/stm32f10x_gpio.c ****   else if ((GPIO_Remap & DBGAFR_NUMBITS_MASK) == DBGAFR_NUMBITS_MASK)
 575:stm32f10x_lib/STM32F10x_StdPeriph_Driver/src/stm32f10x_gpio.c ****   {
 576:stm32f10x_lib/STM32F10x_StdPeriph_Driver/src/stm32f10x_gpio.c ****     tmp1 = ((uint32_t)0x03) << tmpmask;
 577:stm32f10x_lib/STM32F10x_StdPeriph_Driver/src/stm32f10x_gpio.c ****     tmpreg &= ~tmp1;
 578:stm32f10x_lib/STM32F10x_StdPeriph_Driver/src/stm32f10x_gpio.c ****     tmpreg |= ~DBGAFR_SWJCFG_MASK;
 579:stm32f10x_lib/STM32F10x_StdPeriph_Driver/src/stm32f10x_gpio.c ****   }
 580:stm32f10x_lib/STM32F10x_StdPeriph_Driver/src/stm32f10x_gpio.c ****   else
 581:stm32f10x_lib/STM32F10x_StdPeriph_Driver/src/stm32f10x_gpio.c ****   {
 582:stm32f10x_lib/STM32F10x_StdPeriph_Driver/src/stm32f10x_gpio.c ****     tmpreg &= ~(tmp << ((GPIO_Remap >> 0x15)*0x10));
 583:stm32f10x_lib/STM32F10x_StdPeriph_Driver/src/stm32f10x_gpio.c ****     tmpreg |= ~DBGAFR_SWJCFG_MASK;
 584:stm32f10x_lib/STM32F10x_StdPeriph_Driver/src/stm32f10x_gpio.c ****   }
 585:stm32f10x_lib/STM32F10x_StdPeriph_Driver/src/stm32f10x_gpio.c **** 
 586:stm32f10x_lib/STM32F10x_StdPeriph_Driver/src/stm32f10x_gpio.c ****   if (NewState != DISABLE)
 1032              		.loc 1 586 3 is_stmt 1 view .LVU266
ARM GAS  C:\Users\ADMINI~1\AppData\Local\Temp\cc5aRzqp.s 			page 31


 1033              	@ stm32f10x_lib/STM32F10x_StdPeriph_Driver/src/stm32f10x_gpio.c:586:   if (NewState != DISABLE)
 1034              		.loc 1 586 6 is_stmt 0 view .LVU267
 1035 0214 19B1     		cbz	r1, .L55	@ NewState,
 587:stm32f10x_lib/STM32F10x_StdPeriph_Driver/src/stm32f10x_gpio.c ****   {
 588:stm32f10x_lib/STM32F10x_StdPeriph_Driver/src/stm32f10x_gpio.c ****     tmpreg |= (tmp << ((GPIO_Remap >> 0x15)*0x10));
 1036              		.loc 1 588 5 is_stmt 1 view .LVU268
 1037              	@ stm32f10x_lib/STM32F10x_StdPeriph_Driver/src/stm32f10x_gpio.c:588:     tmpreg |= (tmp << ((GPIO_R
 1038              		.loc 1 588 36 is_stmt 0 view .LVU269
 1039 0216 420D     		lsrs	r2, r0, #21	@ tmp152, GPIO_Remap,
 1040              	@ stm32f10x_lib/STM32F10x_StdPeriph_Driver/src/stm32f10x_gpio.c:588:     tmpreg |= (tmp << ((GPIO_R
 1041              		.loc 1 588 44 view .LVU270
 1042 0218 1201     		lsls	r2, r2, #4	@ tmp153, tmp152,
 1043              	@ stm32f10x_lib/STM32F10x_StdPeriph_Driver/src/stm32f10x_gpio.c:588:     tmpreg |= (tmp << ((GPIO_R
 1044              		.loc 1 588 20 view .LVU271
 1045 021a 9440     		lsls	r4, r4, r2	@ tmp154, tmp, tmp153
 1046              	.LVL78:
 1047              	@ stm32f10x_lib/STM32F10x_StdPeriph_Driver/src/stm32f10x_gpio.c:588:     tmpreg |= (tmp << ((GPIO_R
 1048              		.loc 1 588 12 view .LVU272
 1049 021c 2343     		orrs	r3, r3, r4	@, tmpreg, tmpreg, tmp154
 1050              	.LVL79:
 1051              	.L55:
 589:stm32f10x_lib/STM32F10x_StdPeriph_Driver/src/stm32f10x_gpio.c ****   }
 590:stm32f10x_lib/STM32F10x_StdPeriph_Driver/src/stm32f10x_gpio.c **** 
 591:stm32f10x_lib/STM32F10x_StdPeriph_Driver/src/stm32f10x_gpio.c ****   if((GPIO_Remap & 0x80000000) == 0x80000000)
 1052              		.loc 1 591 3 is_stmt 1 view .LVU273
 1053 021e 0B4A     		ldr	r2, .L62	@ tmp158,
 592:stm32f10x_lib/STM32F10x_StdPeriph_Driver/src/stm32f10x_gpio.c ****   {
 593:stm32f10x_lib/STM32F10x_StdPeriph_Driver/src/stm32f10x_gpio.c ****     AFIO->MAPR2 = tmpreg;
 1054              		.loc 1 593 5 view .LVU274
 1055              	@ stm32f10x_lib/STM32F10x_StdPeriph_Driver/src/stm32f10x_gpio.c:591:   if((GPIO_Remap & 0x80000000)
 591:stm32f10x_lib/STM32F10x_StdPeriph_Driver/src/stm32f10x_gpio.c ****   {
 1056              		.loc 1 591 5 is_stmt 0 view .LVU275
 1057 0220 0028     		cmp	r0, #0	@ GPIO_Remap,
 1058              	@ stm32f10x_lib/STM32F10x_StdPeriph_Driver/src/stm32f10x_gpio.c:593:     AFIO->MAPR2 = tmpreg;
 1059              		.loc 1 593 17 view .LVU276
 1060 0222 B4BF     		ite	lt
 1061 0224 D361     		strlt	r3, [r2, #28]	@ tmpreg, MEM[(struct AFIO_TypeDef *)1073807360B].MAPR2
 594:stm32f10x_lib/STM32F10x_StdPeriph_Driver/src/stm32f10x_gpio.c ****   }
 595:stm32f10x_lib/STM32F10x_StdPeriph_Driver/src/stm32f10x_gpio.c ****   else
 596:stm32f10x_lib/STM32F10x_StdPeriph_Driver/src/stm32f10x_gpio.c ****   {
 597:stm32f10x_lib/STM32F10x_StdPeriph_Driver/src/stm32f10x_gpio.c ****     AFIO->MAPR = tmpreg;
 1062              		.loc 1 597 5 is_stmt 1 view .LVU277
 1063              	@ stm32f10x_lib/STM32F10x_StdPeriph_Driver/src/stm32f10x_gpio.c:597:     AFIO->MAPR = tmpreg;
 1064              		.loc 1 597 16 is_stmt 0 view .LVU278
 1065 0226 5360     		strge	r3, [r2, #4]	@ tmpreg, MEM[(struct AFIO_TypeDef *)1073807360B].MAPR
 1066              	@ stm32f10x_lib/STM32F10x_StdPeriph_Driver/src/stm32f10x_gpio.c:599: }
 598:stm32f10x_lib/STM32F10x_StdPeriph_Driver/src/stm32f10x_gpio.c ****   }  
 599:stm32f10x_lib/STM32F10x_StdPeriph_Driver/src/stm32f10x_gpio.c **** }
 1067              		.loc 1 599 1 view .LVU279
 1068 0228 30BD     		pop	{r4, r5, pc}	@
 1069              	.LVL80:
 1070              	.L52:
 574:stm32f10x_lib/STM32F10x_StdPeriph_Driver/src/stm32f10x_gpio.c ****   {
 1071              		.loc 1 574 8 is_stmt 1 view .LVU280
 1072              	@ stm32f10x_lib/STM32F10x_StdPeriph_Driver/src/stm32f10x_gpio.c:574:   else if ((GPIO_Remap & DBGAF
 574:stm32f10x_lib/STM32F10x_StdPeriph_Driver/src/stm32f10x_gpio.c ****   {
 1073              		.loc 1 574 11 is_stmt 0 view .LVU281
ARM GAS  C:\Users\ADMINI~1\AppData\Local\Temp\cc5aRzqp.s 			page 32


 1074 022a C202     		lsls	r2, r0, #11	@, GPIO_Remap,
 576:stm32f10x_lib/STM32F10x_StdPeriph_Driver/src/stm32f10x_gpio.c ****     tmpreg &= ~tmp1;
 1075              		.loc 1 576 5 is_stmt 1 view .LVU282
 1076              	.LVL81:
 577:stm32f10x_lib/STM32F10x_StdPeriph_Driver/src/stm32f10x_gpio.c ****     tmpreg |= ~DBGAFR_SWJCFG_MASK;
 1077              		.loc 1 577 5 view .LVU283
 1078              	@ stm32f10x_lib/STM32F10x_StdPeriph_Driver/src/stm32f10x_gpio.c:576:     tmp1 = ((uint32_t)0x03) <<
 576:stm32f10x_lib/STM32F10x_StdPeriph_Driver/src/stm32f10x_gpio.c ****     tmpreg &= ~tmp1;
 1079              		.loc 1 576 10 is_stmt 0 view .LVU284
 1080 022c 4DBF     		iteet	mi
 1081 022e 0322     		movmi	r2, #3	@ tmp146,
 1082              	@ stm32f10x_lib/STM32F10x_StdPeriph_Driver/src/stm32f10x_gpio.c:582:     tmpreg &= ~(tmp << ((GPIO_
 582:stm32f10x_lib/STM32F10x_StdPeriph_Driver/src/stm32f10x_gpio.c ****     tmpreg |= ~DBGAFR_SWJCFG_MASK;
 1083              		.loc 1 582 37 view .LVU285
 1084 0230 420D     		lsrpl	r2, r0, #21	@ tmp148, GPIO_Remap,
 1085              	@ stm32f10x_lib/STM32F10x_StdPeriph_Driver/src/stm32f10x_gpio.c:582:     tmpreg &= ~(tmp << ((GPIO_
 582:stm32f10x_lib/STM32F10x_StdPeriph_Driver/src/stm32f10x_gpio.c ****     tmpreg |= ~DBGAFR_SWJCFG_MASK;
 1086              		.loc 1 582 45 view .LVU286
 1087 0232 1201     		lslpl	r2, r2, #4	@ tmp149, tmp148,
 1088              	@ stm32f10x_lib/STM32F10x_StdPeriph_Driver/src/stm32f10x_gpio.c:566:   tmpmask = (GPIO_Remap & DBGA
 566:stm32f10x_lib/STM32F10x_StdPeriph_Driver/src/stm32f10x_gpio.c ****   tmp = GPIO_Remap & LSB_MASK;
 1089              		.loc 1 566 11 view .LVU287
 1090 0234 C0F30345 		ubfxmi	r5, r0, #16, #4	@ tmpmask, GPIO_Remap,,
 1091              	@ stm32f10x_lib/STM32F10x_StdPeriph_Driver/src/stm32f10x_gpio.c:576:     tmp1 = ((uint32_t)0x03) <<
 576:stm32f10x_lib/STM32F10x_StdPeriph_Driver/src/stm32f10x_gpio.c ****     tmpreg &= ~tmp1;
 1092              		.loc 1 576 10 view .LVU288
 1093 0238 4CBF     		ite	mi
 1094 023a AA40     		lslmi	r2, r2, r5	@ tmp1, tmp146, tmpmask
 582:stm32f10x_lib/STM32F10x_StdPeriph_Driver/src/stm32f10x_gpio.c ****     tmpreg |= ~DBGAFR_SWJCFG_MASK;
 1095              		.loc 1 582 5 is_stmt 1 view .LVU289
 1096              	@ stm32f10x_lib/STM32F10x_StdPeriph_Driver/src/stm32f10x_gpio.c:582:     tmpreg &= ~(tmp << ((GPIO_
 582:stm32f10x_lib/STM32F10x_StdPeriph_Driver/src/stm32f10x_gpio.c ****     tmpreg |= ~DBGAFR_SWJCFG_MASK;
 1097              		.loc 1 582 21 is_stmt 0 view .LVU290
 1098 023c 04FA02F2 		lslpl	r2, r4, r2	@ tmp150, tmp, tmp149
 1099              	@ stm32f10x_lib/STM32F10x_StdPeriph_Driver/src/stm32f10x_gpio.c:582:     tmpreg &= ~(tmp << ((GPIO_
 582:stm32f10x_lib/STM32F10x_StdPeriph_Driver/src/stm32f10x_gpio.c ****     tmpreg |= ~DBGAFR_SWJCFG_MASK;
 1100              		.loc 1 582 12 view .LVU291
 1101 0240 23EA0203 		bic	r3, r3, r2	@ tmpreg, tmpreg, tmp150
 1102              	.LVL82:
 583:stm32f10x_lib/STM32F10x_StdPeriph_Driver/src/stm32f10x_gpio.c ****   }
 1103              		.loc 1 583 5 is_stmt 1 view .LVU292
 1104              	@ stm32f10x_lib/STM32F10x_StdPeriph_Driver/src/stm32f10x_gpio.c:583:     tmpreg |= ~DBGAFR_SWJCFG_M
 583:stm32f10x_lib/STM32F10x_StdPeriph_Driver/src/stm32f10x_gpio.c ****   }
 1105              		.loc 1 583 12 is_stmt 0 view .LVU293
 1106 0244 43F07063 		orr	r3, r3, #251658240	@ tmpreg, tmpreg,
 1107              	.LVL83:
 583:stm32f10x_lib/STM32F10x_StdPeriph_Driver/src/stm32f10x_gpio.c ****   }
 1108              		.loc 1 583 12 view .LVU294
 1109 0248 E4E7     		b	.L53		@
 1110              	.L63:
 1111 024a 00BF     		.align	2
 1112              	.L62:
 1113 024c 00000140 		.word	1073807360
 1114              		.cfi_endproc
 1115              	.LFE44:
 1116              		.size	GPIO_PinRemapConfig, .-GPIO_PinRemapConfig
 1117              		.align	1
ARM GAS  C:\Users\ADMINI~1\AppData\Local\Temp\cc5aRzqp.s 			page 33


 1118              		.global	GPIO_EXTILineConfig
 1119              		.syntax unified
 1120              		.thumb
 1121              		.thumb_func
 1122              		.type	GPIO_EXTILineConfig, %function
 1123              	GPIO_EXTILineConfig:
 1124              	.LVL84:
 1125              	.LFB45:
 600:stm32f10x_lib/STM32F10x_StdPeriph_Driver/src/stm32f10x_gpio.c **** 
 601:stm32f10x_lib/STM32F10x_StdPeriph_Driver/src/stm32f10x_gpio.c **** /**
 602:stm32f10x_lib/STM32F10x_StdPeriph_Driver/src/stm32f10x_gpio.c ****   * @brief  Selects the GPIO pin used as EXTI Line.
 603:stm32f10x_lib/STM32F10x_StdPeriph_Driver/src/stm32f10x_gpio.c ****   * @param  GPIO_PortSource: selects the GPIO port to be used as source for EXTI lines.
 604:stm32f10x_lib/STM32F10x_StdPeriph_Driver/src/stm32f10x_gpio.c ****   *   This parameter can be GPIO_PortSourceGPIOx where x can be (A..G).
 605:stm32f10x_lib/STM32F10x_StdPeriph_Driver/src/stm32f10x_gpio.c ****   * @param  GPIO_PinSource: specifies the EXTI line to be configured.
 606:stm32f10x_lib/STM32F10x_StdPeriph_Driver/src/stm32f10x_gpio.c ****   *   This parameter can be GPIO_PinSourcex where x can be (0..15).
 607:stm32f10x_lib/STM32F10x_StdPeriph_Driver/src/stm32f10x_gpio.c ****   * @retval None
 608:stm32f10x_lib/STM32F10x_StdPeriph_Driver/src/stm32f10x_gpio.c ****   */
 609:stm32f10x_lib/STM32F10x_StdPeriph_Driver/src/stm32f10x_gpio.c **** void GPIO_EXTILineConfig(uint8_t GPIO_PortSource, uint8_t GPIO_PinSource)
 610:stm32f10x_lib/STM32F10x_StdPeriph_Driver/src/stm32f10x_gpio.c **** {
 1126              		.loc 1 610 1 is_stmt 1 view -0
 1127              		.cfi_startproc
 1128              		@ args = 0, pretend = 0, frame = 0
 1129              		@ frame_needed = 0, uses_anonymous_args = 0
 611:stm32f10x_lib/STM32F10x_StdPeriph_Driver/src/stm32f10x_gpio.c ****   uint32_t tmp = 0x00;
 1130              		.loc 1 611 3 view .LVU296
 612:stm32f10x_lib/STM32F10x_StdPeriph_Driver/src/stm32f10x_gpio.c ****   /* Check the parameters */
 613:stm32f10x_lib/STM32F10x_StdPeriph_Driver/src/stm32f10x_gpio.c ****   assert_param(IS_GPIO_EXTI_PORT_SOURCE(GPIO_PortSource));
 1131              		.loc 1 613 3 view .LVU297
 614:stm32f10x_lib/STM32F10x_StdPeriph_Driver/src/stm32f10x_gpio.c ****   assert_param(IS_GPIO_PIN_SOURCE(GPIO_PinSource));
 1132              		.loc 1 614 3 view .LVU298
 615:stm32f10x_lib/STM32F10x_StdPeriph_Driver/src/stm32f10x_gpio.c ****   
 616:stm32f10x_lib/STM32F10x_StdPeriph_Driver/src/stm32f10x_gpio.c ****   tmp = ((uint32_t)0x0F) << (0x04 * (GPIO_PinSource & (uint8_t)0x03));
 1133              		.loc 1 616 3 view .LVU299
 1134              	@ stm32f10x_lib/STM32F10x_StdPeriph_Driver/src/stm32f10x_gpio.c:610: {
 610:stm32f10x_lib/STM32F10x_StdPeriph_Driver/src/stm32f10x_gpio.c ****   uint32_t tmp = 0x00;
 1135              		.loc 1 610 1 is_stmt 0 view .LVU300
 1136 0250 10B5     		push	{r4, lr}	@
 1137              	.LCFI7:
 1138              		.cfi_def_cfa_offset 8
 1139              		.cfi_offset 4, -8
 1140              		.cfi_offset 14, -4
 1141              	@ stm32f10x_lib/STM32F10x_StdPeriph_Driver/src/stm32f10x_gpio.c:616:   tmp = ((uint32_t)0x0F) << (0
 1142              		.loc 1 616 7 view .LVU301
 1143 0252 0F24     		movs	r4, #15	@ tmp137,
 1144              	@ stm32f10x_lib/STM32F10x_StdPeriph_Driver/src/stm32f10x_gpio.c:616:   tmp = ((uint32_t)0x0F) << (0
 1145              		.loc 1 616 53 view .LVU302
 1146 0254 01F00303 		and	r3, r1, #3	@ tmp131, GPIO_PinSource,
 1147 0258 01F0FC01 		and	r1, r1, #252	@ tmp134, GPIO_PinSource,
 1148              	.LVL85:
 1149              		.loc 1 616 53 view .LVU303
 1150 025c 01F18041 		add	r1, r1, #1073741824	@ _21, tmp134,
 1151 0260 01F58031 		add	r1, r1, #65536	@ _21, _21,
 1152              	@ stm32f10x_lib/STM32F10x_StdPeriph_Driver/src/stm32f10x_gpio.c:617:   AFIO->EXTICR[GPIO_PinSource 
 617:stm32f10x_lib/STM32F10x_StdPeriph_Driver/src/stm32f10x_gpio.c ****   AFIO->EXTICR[GPIO_PinSource >> 0x02] &= ~tmp;
 1153              		.loc 1 617 40 view .LVU304
 1154 0264 8A68     		ldr	r2, [r1, #8]	@ _5, MEM <volatile uint32_t> [(struct AFIO_TypeDef *)_21 + 8B]
 1155              	@ stm32f10x_lib/STM32F10x_StdPeriph_Driver/src/stm32f10x_gpio.c:616:   tmp = ((uint32_t)0x0F) << (0
ARM GAS  C:\Users\ADMINI~1\AppData\Local\Temp\cc5aRzqp.s 			page 34


 616:stm32f10x_lib/STM32F10x_StdPeriph_Driver/src/stm32f10x_gpio.c ****   AFIO->EXTICR[GPIO_PinSource >> 0x02] &= ~tmp;
 1156              		.loc 1 616 35 view .LVU305
 1157 0266 9B00     		lsls	r3, r3, #2	@ _2, tmp131,
 1158              	.LVL86:
 1159              		.loc 1 617 3 is_stmt 1 view .LVU306
 1160              	@ stm32f10x_lib/STM32F10x_StdPeriph_Driver/src/stm32f10x_gpio.c:616:   tmp = ((uint32_t)0x0F) << (0
 616:stm32f10x_lib/STM32F10x_StdPeriph_Driver/src/stm32f10x_gpio.c ****   AFIO->EXTICR[GPIO_PinSource >> 0x02] &= ~tmp;
 1161              		.loc 1 616 7 is_stmt 0 view .LVU307
 1162 0268 9C40     		lsls	r4, r4, r3	@ tmp, tmp137, _2
 1163              	.LVL87:
 1164              	@ stm32f10x_lib/STM32F10x_StdPeriph_Driver/src/stm32f10x_gpio.c:617:   AFIO->EXTICR[GPIO_PinSource 
 1165              		.loc 1 617 40 view .LVU308
 1166 026a 22EA0402 		bic	r2, r2, r4	@ _7, _5, tmp
 1167 026e 8A60     		str	r2, [r1, #8]	@ _7, MEM <volatile uint32_t> [(struct AFIO_TypeDef *)_21 + 8B]
 618:stm32f10x_lib/STM32F10x_StdPeriph_Driver/src/stm32f10x_gpio.c ****   AFIO->EXTICR[GPIO_PinSource >> 0x02] |= (((uint32_t)GPIO_PortSource) << (0x04 * (GPIO_PinSource &
 1168              		.loc 1 618 3 is_stmt 1 view .LVU309
 1169              	@ stm32f10x_lib/STM32F10x_StdPeriph_Driver/src/stm32f10x_gpio.c:618:   AFIO->EXTICR[GPIO_PinSource 
 1170              		.loc 1 618 40 is_stmt 0 view .LVU310
 1171 0270 8A68     		ldr	r2, [r1, #8]	@ _8, MEM <volatile uint32_t> [(struct AFIO_TypeDef *)_21 + 8B]
 1172              	@ stm32f10x_lib/STM32F10x_StdPeriph_Driver/src/stm32f10x_gpio.c:618:   AFIO->EXTICR[GPIO_PinSource 
 1173              		.loc 1 618 72 view .LVU311
 1174 0272 9840     		lsls	r0, r0, r3	@ tmp139, tmp140, _2
 1175              	.LVL88:
 1176              	@ stm32f10x_lib/STM32F10x_StdPeriph_Driver/src/stm32f10x_gpio.c:618:   AFIO->EXTICR[GPIO_PinSource 
 1177              		.loc 1 618 40 view .LVU312
 1178 0274 1043     		orrs	r0, r0, r2	@, _11, tmp139, _8
 1179 0276 8860     		str	r0, [r1, #8]	@ _11, MEM <volatile uint32_t> [(struct AFIO_TypeDef *)_21 + 8B]
 1180              	@ stm32f10x_lib/STM32F10x_StdPeriph_Driver/src/stm32f10x_gpio.c:619: }
 619:stm32f10x_lib/STM32F10x_StdPeriph_Driver/src/stm32f10x_gpio.c **** }
 1181              		.loc 1 619 1 view .LVU313
 1182 0278 10BD     		pop	{r4, pc}	@
 1183              		.loc 1 619 1 view .LVU314
 1184              		.cfi_endproc
 1185              	.LFE45:
 1186              		.size	GPIO_EXTILineConfig, .-GPIO_EXTILineConfig
 1187              		.align	1
 1188              		.global	GPIO_ETH_MediaInterfaceConfig
 1189              		.syntax unified
 1190              		.thumb
 1191              		.thumb_func
 1192              		.type	GPIO_ETH_MediaInterfaceConfig, %function
 1193              	GPIO_ETH_MediaInterfaceConfig:
 1194              	.LVL89:
 1195              	.LFB46:
 620:stm32f10x_lib/STM32F10x_StdPeriph_Driver/src/stm32f10x_gpio.c **** 
 621:stm32f10x_lib/STM32F10x_StdPeriph_Driver/src/stm32f10x_gpio.c **** /**
 622:stm32f10x_lib/STM32F10x_StdPeriph_Driver/src/stm32f10x_gpio.c ****   * @brief  Selects the Ethernet media interface.
 623:stm32f10x_lib/STM32F10x_StdPeriph_Driver/src/stm32f10x_gpio.c ****   * @note   This function applies only to STM32 Connectivity line devices.  
 624:stm32f10x_lib/STM32F10x_StdPeriph_Driver/src/stm32f10x_gpio.c ****   * @param  GPIO_ETH_MediaInterface: specifies the Media Interface mode.
 625:stm32f10x_lib/STM32F10x_StdPeriph_Driver/src/stm32f10x_gpio.c ****   *   This parameter can be one of the following values:
 626:stm32f10x_lib/STM32F10x_StdPeriph_Driver/src/stm32f10x_gpio.c ****   *     @arg GPIO_ETH_MediaInterface_MII: MII mode
 627:stm32f10x_lib/STM32F10x_StdPeriph_Driver/src/stm32f10x_gpio.c ****   *     @arg GPIO_ETH_MediaInterface_RMII: RMII mode    
 628:stm32f10x_lib/STM32F10x_StdPeriph_Driver/src/stm32f10x_gpio.c ****   * @retval None
 629:stm32f10x_lib/STM32F10x_StdPeriph_Driver/src/stm32f10x_gpio.c ****   */
 630:stm32f10x_lib/STM32F10x_StdPeriph_Driver/src/stm32f10x_gpio.c **** void GPIO_ETH_MediaInterfaceConfig(uint32_t GPIO_ETH_MediaInterface) 
 631:stm32f10x_lib/STM32F10x_StdPeriph_Driver/src/stm32f10x_gpio.c **** { 
 1196              		.loc 1 631 1 is_stmt 1 view -0
ARM GAS  C:\Users\ADMINI~1\AppData\Local\Temp\cc5aRzqp.s 			page 35


 1197              		.cfi_startproc
 1198              		@ args = 0, pretend = 0, frame = 0
 1199              		@ frame_needed = 0, uses_anonymous_args = 0
 1200              		@ link register save eliminated.
 632:stm32f10x_lib/STM32F10x_StdPeriph_Driver/src/stm32f10x_gpio.c ****   assert_param(IS_GPIO_ETH_MEDIA_INTERFACE(GPIO_ETH_MediaInterface)); 
 1201              		.loc 1 632 3 view .LVU316
 633:stm32f10x_lib/STM32F10x_StdPeriph_Driver/src/stm32f10x_gpio.c **** 
 634:stm32f10x_lib/STM32F10x_StdPeriph_Driver/src/stm32f10x_gpio.c ****   /* Configure MII_RMII selection bit */ 
 635:stm32f10x_lib/STM32F10x_StdPeriph_Driver/src/stm32f10x_gpio.c ****   *(__IO uint32_t *) MAPR_MII_RMII_SEL_BB = GPIO_ETH_MediaInterface; 
 1202              		.loc 1 635 3 view .LVU317
 1203              	@ stm32f10x_lib/STM32F10x_StdPeriph_Driver/src/stm32f10x_gpio.c:635:   *(__IO uint32_t *) MAPR_MII_
 1204              		.loc 1 635 43 is_stmt 0 view .LVU318
 1205 027a 024B     		ldr	r3, .L66	@ tmp114,
 1206 027c C3F8DC00 		str	r0, [r3, #220]	@ GPIO_ETH_MediaInterface, MEM[(volatile uint32_t *)1109393628B]
 1207              	@ stm32f10x_lib/STM32F10x_StdPeriph_Driver/src/stm32f10x_gpio.c:636: }
 636:stm32f10x_lib/STM32F10x_StdPeriph_Driver/src/stm32f10x_gpio.c **** }
 1208              		.loc 1 636 1 view .LVU319
 1209 0280 7047     		bx	lr	@
 1210              	.L67:
 1211 0282 00BF     		.align	2
 1212              	.L66:
 1213 0284 00002042 		.word	1109393408
 1214              		.cfi_endproc
 1215              	.LFE46:
 1216              		.size	GPIO_ETH_MediaInterfaceConfig, .-GPIO_ETH_MediaInterfaceConfig
 1217              	.Letext0:
 1218              		.file 2 "c:\\program files (x86)\\gnu arm embedded toolchain\\10 2021.10\\arm-none-eabi\\include\\
 1219              		.file 3 "c:\\program files (x86)\\gnu arm embedded toolchain\\10 2021.10\\arm-none-eabi\\include\\
 1220              		.file 4 "./stm32f10x_lib/CMSIS/CM3/DeviceSupport/ST/STM32F10x/stm32f10x.h"
 1221              		.file 5 "./stm32f10x_lib/STM32F10x_StdPeriph_Driver/inc/stm32f10x_gpio.h"
 1222              		.file 6 "./stm32f10x_lib/STM32F10x_StdPeriph_Driver/inc/stm32f10x_rcc.h"