ARM GAS  C:\Users\ADMINI~1\AppData\Local\Temp\cc1Kf8hE.s 			page 1


   1              		.cpu cortex-m3
   2              		.arch armv7-m
   3              		.fpu softvfp
   4              		.eabi_attribute 20, 1	@ Tag_ABI_FP_denormal
   5              		.eabi_attribute 21, 1	@ Tag_ABI_FP_exceptions
   6              		.eabi_attribute 23, 3	@ Tag_ABI_FP_number_model
   7              		.eabi_attribute 24, 1	@ Tag_ABI_align8_needed
   8              		.eabi_attribute 25, 1	@ Tag_ABI_align8_preserved
   9              		.eabi_attribute 26, 1	@ Tag_ABI_enum_size
  10              		.eabi_attribute 30, 4	@ Tag_ABI_optimization_goals
  11              		.eabi_attribute 34, 1	@ Tag_CPU_unaligned_access
  12              		.eabi_attribute 18, 4	@ Tag_ABI_PCS_wchar_t
  13              		.file	"stm32f10x_exti.c"
  14              	@ GNU C17 (GNU Arm Embedded Toolchain 10.3-2021.10) version 10.3.1 20210824 (release) (arm-none-eab
  15              	@	compiled by GNU C version 7.3-win32 20180312, GMP version 6.1.0, MPFR version 3.1.4, MPC version 
  16              	
  17              	@ GGC heuristics: --param ggc-min-expand=100 --param ggc-min-heapsize=131072
  18              	@ options passed:  -I . -I ./user -I ./stm32f10x_lib/CMSIS/CM3/CoreSupport
  19              	@ -I ./stm32f10x_lib/CMSIS/CM3/DeviceSupport/ST/STM32F10x
  20              	@ -I ./stm32f10x_lib/STM32F10x_StdPeriph_Driver/inc
  21              	@ -I ./stm32f10x_lib/STM32F10x_StdPeriph_Driver -I ./freertos/include
  22              	@ -I ./freertos/portable/GCC/ARM_CM3 -imultilib thumb/v7-m/nofp
  23              	@ -iprefix c:\program files (x86)\gnu arm embedded toolchain\10 2021.10\bin\../lib/gcc/arm-none-eab
  24              	@ -isysroot c:\program files (x86)\gnu arm embedded toolchain\10 2021.10\bin\../arm-none-eabi
  25              	@ -D__USES_INITFINI__ -D STM32F10X_MD -D USE_STDPERIPH_DRIVER
  26              	@ -D HSE_VALUE=8000000 -D RUN_FROM_FLASH=1
  27              	@ stm32f10x_lib/STM32F10x_StdPeriph_Driver/src/stm32f10x_exti.c
  28              	@ -mcpu=cortex-m3 -mthumb -mfloat-abi=soft -mlibarch=armv7-m -march=armv7-m
  29              	@ -auxbase-strip stm32f10x_lib/STM32F10x_StdPeriph_Driver/src/stm32f10x_exti.o
  30              	@ -g -gdwarf-2 -Os -Wall -fomit-frame-pointer -fverbose-asm
  31              	@ options enabled:  -faggressive-loop-optimizations -fallocation-dce
  32              	@ -fauto-inc-dec -fbranch-count-reg -fcaller-saves -fcode-hoisting
  33              	@ -fcombine-stack-adjustments -fcompare-elim -fcprop-registers
  34              	@ -fcrossjumping -fcse-follow-jumps -fdefer-pop
  35              	@ -fdelete-null-pointer-checks -fdevirtualize -fdevirtualize-speculatively
  36              	@ -fdwarf2-cfi-asm -fearly-inlining -feliminate-unused-debug-symbols
  37              	@ -feliminate-unused-debug-types -fexpensive-optimizations
  38              	@ -fforward-propagate -ffp-int-builtin-inexact -ffunction-cse -fgcse
  39              	@ -fgcse-lm -fgnu-unique -fguess-branch-probability -fhoist-adjacent-loads
  40              	@ -fident -fif-conversion -fif-conversion2 -findirect-inlining -finline
  41              	@ -finline-atomics -finline-functions -finline-functions-called-once
  42              	@ -finline-small-functions -fipa-bit-cp -fipa-cp -fipa-icf
  43              	@ -fipa-icf-functions -fipa-icf-variables -fipa-profile -fipa-pure-const
  44              	@ -fipa-ra -fipa-reference -fipa-reference-addressable -fipa-sra
  45              	@ -fipa-stack-alignment -fipa-vrp -fira-hoist-pressure
  46              	@ -fira-share-save-slots -fira-share-spill-slots
  47              	@ -fisolate-erroneous-paths-dereference -fivopts -fkeep-static-consts
  48              	@ -fleading-underscore -flifetime-dse -flra-remat -fmath-errno
  49              	@ -fmerge-constants -fmerge-debug-strings -fmove-loop-invariants
  50              	@ -fomit-frame-pointer -foptimize-sibling-calls -fpartial-inlining
  51              	@ -fpeephole -fpeephole2 -fplt -fprefetch-loop-arrays -freg-struct-return
  52              	@ -freorder-blocks -freorder-functions -frerun-cse-after-loop
  53              	@ -fsched-critical-path-heuristic -fsched-dep-count-heuristic
  54              	@ -fsched-group-heuristic -fsched-interblock -fsched-last-insn-heuristic
  55              	@ -fsched-pressure -fsched-rank-heuristic -fsched-spec
  56              	@ -fsched-spec-insn-heuristic -fsched-stalled-insns-dep -fschedule-insns2
  57              	@ -fsection-anchors -fsemantic-interposition -fshow-column
ARM GAS  C:\Users\ADMINI~1\AppData\Local\Temp\cc1Kf8hE.s 			page 2


  58              	@ -fshrink-wrap-separate -fsigned-zeros -fsplit-ivs-in-unroller
  59              	@ -fsplit-wide-types -fssa-backprop -fssa-phiopt -fstdarg-opt
  60              	@ -fstore-merging -fstrict-aliasing -fstrict-volatile-bitfields
  61              	@ -fsync-libcalls -fthread-jumps -ftoplevel-reorder -ftrapping-math
  62              	@ -ftree-bit-ccp -ftree-builtin-call-dce -ftree-ccp -ftree-ch
  63              	@ -ftree-coalesce-vars -ftree-copy-prop -ftree-cselim -ftree-dce
  64              	@ -ftree-dominator-opts -ftree-dse -ftree-forwprop -ftree-fre
  65              	@ -ftree-loop-distribute-patterns -ftree-loop-if-convert -ftree-loop-im
  66              	@ -ftree-loop-ivcanon -ftree-loop-optimize -ftree-parallelize-loops=
  67              	@ -ftree-phiprop -ftree-pre -ftree-pta -ftree-reassoc -ftree-scev-cprop
  68              	@ -ftree-sink -ftree-slsr -ftree-sra -ftree-switch-conversion
  69              	@ -ftree-tail-merge -ftree-ter -ftree-vrp -funit-at-a-time -fvar-tracking
  70              	@ -fvar-tracking-assignments -fverbose-asm -fzero-initialized-in-bss
  71              	@ -masm-syntax-unified -mbe32 -mfix-cortex-m3-ldrd -mlittle-endian
  72              	@ -mpic-data-is-text-relative -msched-prolog -mthumb -munaligned-access
  73              	@ -mvectorize-with-neon-quad
  74              	
  75              		.text
  76              	.Ltext0:
  77              		.cfi_sections	.debug_frame
  78              		.align	1
  79              		.global	EXTI_DeInit
  80              		.syntax unified
  81              		.thumb
  82              		.thumb_func
  83              		.type	EXTI_DeInit, %function
  84              	EXTI_DeInit:
  85              	.LFB29:
  86              		.file 1 "stm32f10x_lib/STM32F10x_StdPeriph_Driver/src/stm32f10x_exti.c"
   1:stm32f10x_lib/STM32F10x_StdPeriph_Driver/src/stm32f10x_exti.c **** /**
   2:stm32f10x_lib/STM32F10x_StdPeriph_Driver/src/stm32f10x_exti.c ****   ******************************************************************************
   3:stm32f10x_lib/STM32F10x_StdPeriph_Driver/src/stm32f10x_exti.c ****   * @file    stm32f10x_exti.c
   4:stm32f10x_lib/STM32F10x_StdPeriph_Driver/src/stm32f10x_exti.c ****   * @author  MCD Application Team
   5:stm32f10x_lib/STM32F10x_StdPeriph_Driver/src/stm32f10x_exti.c ****   * @version V3.5.0
   6:stm32f10x_lib/STM32F10x_StdPeriph_Driver/src/stm32f10x_exti.c ****   * @date    11-March-2011
   7:stm32f10x_lib/STM32F10x_StdPeriph_Driver/src/stm32f10x_exti.c ****   * @brief   This file provides all the EXTI firmware functions.
   8:stm32f10x_lib/STM32F10x_StdPeriph_Driver/src/stm32f10x_exti.c ****   ******************************************************************************
   9:stm32f10x_lib/STM32F10x_StdPeriph_Driver/src/stm32f10x_exti.c ****   * @attention
  10:stm32f10x_lib/STM32F10x_StdPeriph_Driver/src/stm32f10x_exti.c ****   *
  11:stm32f10x_lib/STM32F10x_StdPeriph_Driver/src/stm32f10x_exti.c ****   * THE PRESENT FIRMWARE WHICH IS FOR GUIDANCE ONLY AIMS AT PROVIDING CUSTOMERS
  12:stm32f10x_lib/STM32F10x_StdPeriph_Driver/src/stm32f10x_exti.c ****   * WITH CODING INFORMATION REGARDING THEIR PRODUCTS IN ORDER FOR THEM TO SAVE
  13:stm32f10x_lib/STM32F10x_StdPeriph_Driver/src/stm32f10x_exti.c ****   * TIME. AS A RESULT, STMICROELECTRONICS SHALL NOT BE HELD LIABLE FOR ANY
  14:stm32f10x_lib/STM32F10x_StdPeriph_Driver/src/stm32f10x_exti.c ****   * DIRECT, INDIRECT OR CONSEQUENTIAL DAMAGES WITH RESPECT TO ANY CLAIMS ARISING
  15:stm32f10x_lib/STM32F10x_StdPeriph_Driver/src/stm32f10x_exti.c ****   * FROM THE CONTENT OF SUCH FIRMWARE AND/OR THE USE MADE BY CUSTOMERS OF THE
  16:stm32f10x_lib/STM32F10x_StdPeriph_Driver/src/stm32f10x_exti.c ****   * CODING INFORMATION CONTAINED HEREIN IN CONNECTION WITH THEIR PRODUCTS.
  17:stm32f10x_lib/STM32F10x_StdPeriph_Driver/src/stm32f10x_exti.c ****   *
  18:stm32f10x_lib/STM32F10x_StdPeriph_Driver/src/stm32f10x_exti.c ****   * <h2><center>&copy; COPYRIGHT 2011 STMicroelectronics</center></h2>
  19:stm32f10x_lib/STM32F10x_StdPeriph_Driver/src/stm32f10x_exti.c ****   ******************************************************************************
  20:stm32f10x_lib/STM32F10x_StdPeriph_Driver/src/stm32f10x_exti.c ****   */
  21:stm32f10x_lib/STM32F10x_StdPeriph_Driver/src/stm32f10x_exti.c **** 
  22:stm32f10x_lib/STM32F10x_StdPeriph_Driver/src/stm32f10x_exti.c **** /* Includes ------------------------------------------------------------------*/
  23:stm32f10x_lib/STM32F10x_StdPeriph_Driver/src/stm32f10x_exti.c **** #include "stm32f10x_exti.h"
  24:stm32f10x_lib/STM32F10x_StdPeriph_Driver/src/stm32f10x_exti.c **** 
  25:stm32f10x_lib/STM32F10x_StdPeriph_Driver/src/stm32f10x_exti.c **** /** @addtogroup STM32F10x_StdPeriph_Driver
  26:stm32f10x_lib/STM32F10x_StdPeriph_Driver/src/stm32f10x_exti.c ****   * @{
  27:stm32f10x_lib/STM32F10x_StdPeriph_Driver/src/stm32f10x_exti.c ****   */
  28:stm32f10x_lib/STM32F10x_StdPeriph_Driver/src/stm32f10x_exti.c **** 
ARM GAS  C:\Users\ADMINI~1\AppData\Local\Temp\cc1Kf8hE.s 			page 3


  29:stm32f10x_lib/STM32F10x_StdPeriph_Driver/src/stm32f10x_exti.c **** /** @defgroup EXTI 
  30:stm32f10x_lib/STM32F10x_StdPeriph_Driver/src/stm32f10x_exti.c ****   * @brief EXTI driver modules
  31:stm32f10x_lib/STM32F10x_StdPeriph_Driver/src/stm32f10x_exti.c ****   * @{
  32:stm32f10x_lib/STM32F10x_StdPeriph_Driver/src/stm32f10x_exti.c ****   */
  33:stm32f10x_lib/STM32F10x_StdPeriph_Driver/src/stm32f10x_exti.c **** 
  34:stm32f10x_lib/STM32F10x_StdPeriph_Driver/src/stm32f10x_exti.c **** /** @defgroup EXTI_Private_TypesDefinitions
  35:stm32f10x_lib/STM32F10x_StdPeriph_Driver/src/stm32f10x_exti.c ****   * @{
  36:stm32f10x_lib/STM32F10x_StdPeriph_Driver/src/stm32f10x_exti.c ****   */
  37:stm32f10x_lib/STM32F10x_StdPeriph_Driver/src/stm32f10x_exti.c **** 
  38:stm32f10x_lib/STM32F10x_StdPeriph_Driver/src/stm32f10x_exti.c **** /**
  39:stm32f10x_lib/STM32F10x_StdPeriph_Driver/src/stm32f10x_exti.c ****   * @}
  40:stm32f10x_lib/STM32F10x_StdPeriph_Driver/src/stm32f10x_exti.c ****   */
  41:stm32f10x_lib/STM32F10x_StdPeriph_Driver/src/stm32f10x_exti.c **** 
  42:stm32f10x_lib/STM32F10x_StdPeriph_Driver/src/stm32f10x_exti.c **** /** @defgroup EXTI_Private_Defines
  43:stm32f10x_lib/STM32F10x_StdPeriph_Driver/src/stm32f10x_exti.c ****   * @{
  44:stm32f10x_lib/STM32F10x_StdPeriph_Driver/src/stm32f10x_exti.c ****   */
  45:stm32f10x_lib/STM32F10x_StdPeriph_Driver/src/stm32f10x_exti.c **** 
  46:stm32f10x_lib/STM32F10x_StdPeriph_Driver/src/stm32f10x_exti.c **** #define EXTI_LINENONE    ((uint32_t)0x00000)  /* No interrupt selected */
  47:stm32f10x_lib/STM32F10x_StdPeriph_Driver/src/stm32f10x_exti.c **** 
  48:stm32f10x_lib/STM32F10x_StdPeriph_Driver/src/stm32f10x_exti.c **** /**
  49:stm32f10x_lib/STM32F10x_StdPeriph_Driver/src/stm32f10x_exti.c ****   * @}
  50:stm32f10x_lib/STM32F10x_StdPeriph_Driver/src/stm32f10x_exti.c ****   */
  51:stm32f10x_lib/STM32F10x_StdPeriph_Driver/src/stm32f10x_exti.c **** 
  52:stm32f10x_lib/STM32F10x_StdPeriph_Driver/src/stm32f10x_exti.c **** /** @defgroup EXTI_Private_Macros
  53:stm32f10x_lib/STM32F10x_StdPeriph_Driver/src/stm32f10x_exti.c ****   * @{
  54:stm32f10x_lib/STM32F10x_StdPeriph_Driver/src/stm32f10x_exti.c ****   */
  55:stm32f10x_lib/STM32F10x_StdPeriph_Driver/src/stm32f10x_exti.c **** 
  56:stm32f10x_lib/STM32F10x_StdPeriph_Driver/src/stm32f10x_exti.c **** /**
  57:stm32f10x_lib/STM32F10x_StdPeriph_Driver/src/stm32f10x_exti.c ****   * @}
  58:stm32f10x_lib/STM32F10x_StdPeriph_Driver/src/stm32f10x_exti.c ****   */
  59:stm32f10x_lib/STM32F10x_StdPeriph_Driver/src/stm32f10x_exti.c **** 
  60:stm32f10x_lib/STM32F10x_StdPeriph_Driver/src/stm32f10x_exti.c **** /** @defgroup EXTI_Private_Variables
  61:stm32f10x_lib/STM32F10x_StdPeriph_Driver/src/stm32f10x_exti.c ****   * @{
  62:stm32f10x_lib/STM32F10x_StdPeriph_Driver/src/stm32f10x_exti.c ****   */
  63:stm32f10x_lib/STM32F10x_StdPeriph_Driver/src/stm32f10x_exti.c **** 
  64:stm32f10x_lib/STM32F10x_StdPeriph_Driver/src/stm32f10x_exti.c **** /**
  65:stm32f10x_lib/STM32F10x_StdPeriph_Driver/src/stm32f10x_exti.c ****   * @}
  66:stm32f10x_lib/STM32F10x_StdPeriph_Driver/src/stm32f10x_exti.c ****   */
  67:stm32f10x_lib/STM32F10x_StdPeriph_Driver/src/stm32f10x_exti.c **** 
  68:stm32f10x_lib/STM32F10x_StdPeriph_Driver/src/stm32f10x_exti.c **** /** @defgroup EXTI_Private_FunctionPrototypes
  69:stm32f10x_lib/STM32F10x_StdPeriph_Driver/src/stm32f10x_exti.c ****   * @{
  70:stm32f10x_lib/STM32F10x_StdPeriph_Driver/src/stm32f10x_exti.c ****   */
  71:stm32f10x_lib/STM32F10x_StdPeriph_Driver/src/stm32f10x_exti.c **** 
  72:stm32f10x_lib/STM32F10x_StdPeriph_Driver/src/stm32f10x_exti.c **** /**
  73:stm32f10x_lib/STM32F10x_StdPeriph_Driver/src/stm32f10x_exti.c ****   * @}
  74:stm32f10x_lib/STM32F10x_StdPeriph_Driver/src/stm32f10x_exti.c ****   */
  75:stm32f10x_lib/STM32F10x_StdPeriph_Driver/src/stm32f10x_exti.c **** 
  76:stm32f10x_lib/STM32F10x_StdPeriph_Driver/src/stm32f10x_exti.c **** /** @defgroup EXTI_Private_Functions
  77:stm32f10x_lib/STM32F10x_StdPeriph_Driver/src/stm32f10x_exti.c ****   * @{
  78:stm32f10x_lib/STM32F10x_StdPeriph_Driver/src/stm32f10x_exti.c ****   */
  79:stm32f10x_lib/STM32F10x_StdPeriph_Driver/src/stm32f10x_exti.c **** 
  80:stm32f10x_lib/STM32F10x_StdPeriph_Driver/src/stm32f10x_exti.c **** /**
  81:stm32f10x_lib/STM32F10x_StdPeriph_Driver/src/stm32f10x_exti.c ****   * @brief  Deinitializes the EXTI peripheral registers to their default reset values.
  82:stm32f10x_lib/STM32F10x_StdPeriph_Driver/src/stm32f10x_exti.c ****   * @param  None
  83:stm32f10x_lib/STM32F10x_StdPeriph_Driver/src/stm32f10x_exti.c ****   * @retval None
  84:stm32f10x_lib/STM32F10x_StdPeriph_Driver/src/stm32f10x_exti.c ****   */
  85:stm32f10x_lib/STM32F10x_StdPeriph_Driver/src/stm32f10x_exti.c **** void EXTI_DeInit(void)
ARM GAS  C:\Users\ADMINI~1\AppData\Local\Temp\cc1Kf8hE.s 			page 4


  86:stm32f10x_lib/STM32F10x_StdPeriph_Driver/src/stm32f10x_exti.c **** {
  87              		.loc 1 86 1 view -0
  88              		.cfi_startproc
  89              		@ args = 0, pretend = 0, frame = 0
  90              		@ frame_needed = 0, uses_anonymous_args = 0
  91              		@ link register save eliminated.
  87:stm32f10x_lib/STM32F10x_StdPeriph_Driver/src/stm32f10x_exti.c ****   EXTI->IMR = 0x00000000;
  92              		.loc 1 87 3 view .LVU1
  93              	@ stm32f10x_lib/STM32F10x_StdPeriph_Driver/src/stm32f10x_exti.c:87:   EXTI->IMR = 0x00000000;
  94              		.loc 1 87 13 is_stmt 0 view .LVU2
  95 0000 0022     		movs	r2, #0	@ tmp114,
  96 0002 044B     		ldr	r3, .L2	@ tmp113,
  97 0004 1A60     		str	r2, [r3]	@ tmp114, MEM[(struct EXTI_TypeDef *)1073808384B].IMR
  88:stm32f10x_lib/STM32F10x_StdPeriph_Driver/src/stm32f10x_exti.c ****   EXTI->EMR = 0x00000000;
  98              		.loc 1 88 3 is_stmt 1 view .LVU3
  99              	@ stm32f10x_lib/STM32F10x_StdPeriph_Driver/src/stm32f10x_exti.c:88:   EXTI->EMR = 0x00000000;
 100              		.loc 1 88 13 is_stmt 0 view .LVU4
 101 0006 5A60     		str	r2, [r3, #4]	@ tmp114, MEM[(struct EXTI_TypeDef *)1073808384B].EMR
  89:stm32f10x_lib/STM32F10x_StdPeriph_Driver/src/stm32f10x_exti.c ****   EXTI->RTSR = 0x00000000; 
 102              		.loc 1 89 3 is_stmt 1 view .LVU5
 103              	@ stm32f10x_lib/STM32F10x_StdPeriph_Driver/src/stm32f10x_exti.c:89:   EXTI->RTSR = 0x00000000; 
 104              		.loc 1 89 14 is_stmt 0 view .LVU6
 105 0008 9A60     		str	r2, [r3, #8]	@ tmp114, MEM[(struct EXTI_TypeDef *)1073808384B].RTSR
  90:stm32f10x_lib/STM32F10x_StdPeriph_Driver/src/stm32f10x_exti.c ****   EXTI->FTSR = 0x00000000; 
 106              		.loc 1 90 3 is_stmt 1 view .LVU7
 107              	@ stm32f10x_lib/STM32F10x_StdPeriph_Driver/src/stm32f10x_exti.c:90:   EXTI->FTSR = 0x00000000; 
 108              		.loc 1 90 14 is_stmt 0 view .LVU8
 109 000a DA60     		str	r2, [r3, #12]	@ tmp114, MEM[(struct EXTI_TypeDef *)1073808384B].FTSR
  91:stm32f10x_lib/STM32F10x_StdPeriph_Driver/src/stm32f10x_exti.c ****   EXTI->PR = 0x000FFFFF;
 110              		.loc 1 91 3 is_stmt 1 view .LVU9
 111              	@ stm32f10x_lib/STM32F10x_StdPeriph_Driver/src/stm32f10x_exti.c:91:   EXTI->PR = 0x000FFFFF;
 112              		.loc 1 91 12 is_stmt 0 view .LVU10
 113 000c 024A     		ldr	r2, .L2+4	@ tmp122,
 114 000e 5A61     		str	r2, [r3, #20]	@ tmp122, MEM[(struct EXTI_TypeDef *)1073808384B].PR
 115              	@ stm32f10x_lib/STM32F10x_StdPeriph_Driver/src/stm32f10x_exti.c:92: }
  92:stm32f10x_lib/STM32F10x_StdPeriph_Driver/src/stm32f10x_exti.c **** }
 116              		.loc 1 92 1 view .LVU11
 117 0010 7047     		bx	lr	@
 118              	.L3:
 119 0012 00BF     		.align	2
 120              	.L2:
 121 0014 00040140 		.word	1073808384
 122 0018 FFFF0F00 		.word	1048575
 123              		.cfi_endproc
 124              	.LFE29:
 125              		.size	EXTI_DeInit, .-EXTI_DeInit
 126              		.align	1
 127              		.global	EXTI_Init
 128              		.syntax unified
 129              		.thumb
 130              		.thumb_func
 131              		.type	EXTI_Init, %function
 132              	EXTI_Init:
 133              	.LVL0:
 134              	.LFB30:
  93:stm32f10x_lib/STM32F10x_StdPeriph_Driver/src/stm32f10x_exti.c **** 
  94:stm32f10x_lib/STM32F10x_StdPeriph_Driver/src/stm32f10x_exti.c **** /**
ARM GAS  C:\Users\ADMINI~1\AppData\Local\Temp\cc1Kf8hE.s 			page 5


  95:stm32f10x_lib/STM32F10x_StdPeriph_Driver/src/stm32f10x_exti.c ****   * @brief  Initializes the EXTI peripheral according to the specified
  96:stm32f10x_lib/STM32F10x_StdPeriph_Driver/src/stm32f10x_exti.c ****   *         parameters in the EXTI_InitStruct.
  97:stm32f10x_lib/STM32F10x_StdPeriph_Driver/src/stm32f10x_exti.c ****   * @param  EXTI_InitStruct: pointer to a EXTI_InitTypeDef structure
  98:stm32f10x_lib/STM32F10x_StdPeriph_Driver/src/stm32f10x_exti.c ****   *         that contains the configuration information for the EXTI peripheral.
  99:stm32f10x_lib/STM32F10x_StdPeriph_Driver/src/stm32f10x_exti.c ****   * @retval None
 100:stm32f10x_lib/STM32F10x_StdPeriph_Driver/src/stm32f10x_exti.c ****   */
 101:stm32f10x_lib/STM32F10x_StdPeriph_Driver/src/stm32f10x_exti.c **** void EXTI_Init(EXTI_InitTypeDef* EXTI_InitStruct)
 102:stm32f10x_lib/STM32F10x_StdPeriph_Driver/src/stm32f10x_exti.c **** {
 135              		.loc 1 102 1 is_stmt 1 view -0
 136              		.cfi_startproc
 137              		@ args = 0, pretend = 0, frame = 0
 138              		@ frame_needed = 0, uses_anonymous_args = 0
 103:stm32f10x_lib/STM32F10x_StdPeriph_Driver/src/stm32f10x_exti.c ****   uint32_t tmp = 0;
 139              		.loc 1 103 3 view .LVU13
 104:stm32f10x_lib/STM32F10x_StdPeriph_Driver/src/stm32f10x_exti.c **** 
 105:stm32f10x_lib/STM32F10x_StdPeriph_Driver/src/stm32f10x_exti.c ****   /* Check the parameters */
 106:stm32f10x_lib/STM32F10x_StdPeriph_Driver/src/stm32f10x_exti.c ****   assert_param(IS_EXTI_MODE(EXTI_InitStruct->EXTI_Mode));
 140              		.loc 1 106 3 view .LVU14
 107:stm32f10x_lib/STM32F10x_StdPeriph_Driver/src/stm32f10x_exti.c ****   assert_param(IS_EXTI_TRIGGER(EXTI_InitStruct->EXTI_Trigger));
 141              		.loc 1 107 3 view .LVU15
 108:stm32f10x_lib/STM32F10x_StdPeriph_Driver/src/stm32f10x_exti.c ****   assert_param(IS_EXTI_LINE(EXTI_InitStruct->EXTI_Line));  
 142              		.loc 1 108 3 view .LVU16
 109:stm32f10x_lib/STM32F10x_StdPeriph_Driver/src/stm32f10x_exti.c ****   assert_param(IS_FUNCTIONAL_STATE(EXTI_InitStruct->EXTI_LineCmd));
 143              		.loc 1 109 3 view .LVU17
 110:stm32f10x_lib/STM32F10x_StdPeriph_Driver/src/stm32f10x_exti.c **** 
 111:stm32f10x_lib/STM32F10x_StdPeriph_Driver/src/stm32f10x_exti.c ****   tmp = (uint32_t)EXTI_BASE;
 144              		.loc 1 111 3 view .LVU18
 112:stm32f10x_lib/STM32F10x_StdPeriph_Driver/src/stm32f10x_exti.c ****      
 113:stm32f10x_lib/STM32F10x_StdPeriph_Driver/src/stm32f10x_exti.c ****   if (EXTI_InitStruct->EXTI_LineCmd != DISABLE)
 145              		.loc 1 113 3 view .LVU19
 146              	@ stm32f10x_lib/STM32F10x_StdPeriph_Driver/src/stm32f10x_exti.c:119:     tmp += EXTI_InitStruct->EX
 114:stm32f10x_lib/STM32F10x_StdPeriph_Driver/src/stm32f10x_exti.c ****   {
 115:stm32f10x_lib/STM32F10x_StdPeriph_Driver/src/stm32f10x_exti.c ****     /* Clear EXTI line configuration */
 116:stm32f10x_lib/STM32F10x_StdPeriph_Driver/src/stm32f10x_exti.c ****     EXTI->IMR &= ~EXTI_InitStruct->EXTI_Line;
 117:stm32f10x_lib/STM32F10x_StdPeriph_Driver/src/stm32f10x_exti.c ****     EXTI->EMR &= ~EXTI_InitStruct->EXTI_Line;
 118:stm32f10x_lib/STM32F10x_StdPeriph_Driver/src/stm32f10x_exti.c ****     
 119:stm32f10x_lib/STM32F10x_StdPeriph_Driver/src/stm32f10x_exti.c ****     tmp += EXTI_InitStruct->EXTI_Mode;
 147              		.loc 1 119 27 is_stmt 0 view .LVU20
 148 001c 0279     		ldrb	r2, [r0, #4]	@ zero_extendqisi2	@ EXTI_InitStruct_37(D)->EXTI_Mode, EXTI_InitStruct_37(D)->EX
 149              	@ stm32f10x_lib/STM32F10x_StdPeriph_Driver/src/stm32f10x_exti.c:102: {
 102:stm32f10x_lib/STM32F10x_StdPeriph_Driver/src/stm32f10x_exti.c ****   uint32_t tmp = 0;
 150              		.loc 1 102 1 view .LVU21
 151 001e 30B5     		push	{r4, r5, lr}	@
 152              	.LCFI0:
 153              		.cfi_def_cfa_offset 12
 154              		.cfi_offset 4, -12
 155              		.cfi_offset 5, -8
 156              		.cfi_offset 14, -4
 157              	@ stm32f10x_lib/STM32F10x_StdPeriph_Driver/src/stm32f10x_exti.c:113:   if (EXTI_InitStruct->EXTI_Li
 113:stm32f10x_lib/STM32F10x_StdPeriph_Driver/src/stm32f10x_exti.c ****   {
 158              		.loc 1 113 6 view .LVU22
 159 0020 8379     		ldrb	r3, [r0, #6]	@ zero_extendqisi2	@ EXTI_InitStruct_37(D)->EXTI_LineCmd, EXTI_InitStruct_37(D)-
 160              	@ stm32f10x_lib/STM32F10x_StdPeriph_Driver/src/stm32f10x_exti.c:116:     EXTI->IMR &= ~EXTI_InitStr
 116:stm32f10x_lib/STM32F10x_StdPeriph_Driver/src/stm32f10x_exti.c ****     EXTI->EMR &= ~EXTI_InitStruct->EXTI_Line;
 161              		.loc 1 116 34 view .LVU23
 162 0022 0568     		ldr	r5, [r0]	@ pretmp_50, EXTI_InitStruct_37(D)->EXTI_Line
 163              	@ stm32f10x_lib/STM32F10x_StdPeriph_Driver/src/stm32f10x_exti.c:119:     tmp += EXTI_InitStruct->EX
ARM GAS  C:\Users\ADMINI~1\AppData\Local\Temp\cc1Kf8hE.s 			page 6


 164              		.loc 1 119 9 view .LVU24
 165 0024 02F18042 		add	r2, r2, #1073741824	@ _51, EXTI_InitStruct_37(D)->EXTI_Mode,
 166              	@ stm32f10x_lib/STM32F10x_StdPeriph_Driver/src/stm32f10x_exti.c:116:     EXTI->IMR &= ~EXTI_InitStr
 116:stm32f10x_lib/STM32F10x_StdPeriph_Driver/src/stm32f10x_exti.c ****     EXTI->EMR &= ~EXTI_InitStruct->EXTI_Line;
 167              		.loc 1 116 18 view .LVU25
 168 0028 E943     		mvns	r1, r5	@ _54, pretmp_50
 169              	@ stm32f10x_lib/STM32F10x_StdPeriph_Driver/src/stm32f10x_exti.c:119:     tmp += EXTI_InitStruct->EX
 170              		.loc 1 119 9 view .LVU26
 171 002a 02F58232 		add	r2, r2, #66560	@ _51, _51,
 172              	@ stm32f10x_lib/STM32F10x_StdPeriph_Driver/src/stm32f10x_exti.c:113:   if (EXTI_InitStruct->EXTI_Li
 113:stm32f10x_lib/STM32F10x_StdPeriph_Driver/src/stm32f10x_exti.c ****   {
 173              		.loc 1 113 6 view .LVU27
 174 002e 23B3     		cbz	r3, .L5	@ EXTI_InitStruct_37(D)->EXTI_LineCmd,
 116:stm32f10x_lib/STM32F10x_StdPeriph_Driver/src/stm32f10x_exti.c ****     EXTI->EMR &= ~EXTI_InitStruct->EXTI_Line;
 175              		.loc 1 116 5 is_stmt 1 view .LVU28
 176              	@ stm32f10x_lib/STM32F10x_StdPeriph_Driver/src/stm32f10x_exti.c:116:     EXTI->IMR &= ~EXTI_InitStr
 116:stm32f10x_lib/STM32F10x_StdPeriph_Driver/src/stm32f10x_exti.c ****     EXTI->EMR &= ~EXTI_InitStruct->EXTI_Line;
 177              		.loc 1 116 15 is_stmt 0 view .LVU29
 178 0030 144B     		ldr	r3, .L8	@ tmp148,
 179 0032 1C68     		ldr	r4, [r3]	@ _2, MEM[(struct EXTI_TypeDef *)1073808384B].IMR
 180 0034 0C40     		ands	r4, r4, r1	@, _5, _2, _54
 181 0036 1C60     		str	r4, [r3]	@ _5, MEM[(struct EXTI_TypeDef *)1073808384B].IMR
 117:stm32f10x_lib/STM32F10x_StdPeriph_Driver/src/stm32f10x_exti.c ****     
 182              		.loc 1 117 5 is_stmt 1 view .LVU30
 183              	@ stm32f10x_lib/STM32F10x_StdPeriph_Driver/src/stm32f10x_exti.c:117:     EXTI->EMR &= ~EXTI_InitStr
 117:stm32f10x_lib/STM32F10x_StdPeriph_Driver/src/stm32f10x_exti.c ****     
 184              		.loc 1 117 15 is_stmt 0 view .LVU31
 185 0038 5C68     		ldr	r4, [r3, #4]	@ _6, MEM[(struct EXTI_TypeDef *)1073808384B].EMR
 186 003a 2140     		ands	r1, r1, r4	@, _7, _54, _6
 187 003c 5960     		str	r1, [r3, #4]	@ _7, MEM[(struct EXTI_TypeDef *)1073808384B].EMR
 188              		.loc 1 119 5 is_stmt 1 view .LVU32
 189              	.LVL1:
 120:stm32f10x_lib/STM32F10x_StdPeriph_Driver/src/stm32f10x_exti.c **** 
 121:stm32f10x_lib/STM32F10x_StdPeriph_Driver/src/stm32f10x_exti.c ****     *(__IO uint32_t *) tmp |= EXTI_InitStruct->EXTI_Line;
 190              		.loc 1 121 5 view .LVU33
 191              	@ stm32f10x_lib/STM32F10x_StdPeriph_Driver/src/stm32f10x_exti.c:121:     *(__IO uint32_t *) tmp |= 
 192              		.loc 1 121 28 is_stmt 0 view .LVU34
 193 003e 1168     		ldr	r1, [r2]	@ _11, *_51
 194 0040 2943     		orrs	r1, r1, r5	@, _12, _11, pretmp_50
 195 0042 1160     		str	r1, [r2]	@ _12, *_51
 196              	.LVL2:
 122:stm32f10x_lib/STM32F10x_StdPeriph_Driver/src/stm32f10x_exti.c **** 
 123:stm32f10x_lib/STM32F10x_StdPeriph_Driver/src/stm32f10x_exti.c ****     /* Clear Rising Falling edge configuration */
 124:stm32f10x_lib/STM32F10x_StdPeriph_Driver/src/stm32f10x_exti.c ****     EXTI->RTSR &= ~EXTI_InitStruct->EXTI_Line;
 197              		.loc 1 124 5 is_stmt 1 view .LVU35
 198              	@ stm32f10x_lib/STM32F10x_StdPeriph_Driver/src/stm32f10x_exti.c:124:     EXTI->RTSR &= ~EXTI_InitSt
 199              		.loc 1 124 16 is_stmt 0 view .LVU36
 200 0044 9968     		ldr	r1, [r3, #8]	@ _13, MEM[(struct EXTI_TypeDef *)1073808384B].RTSR
 201              	@ stm32f10x_lib/STM32F10x_StdPeriph_Driver/src/stm32f10x_exti.c:124:     EXTI->RTSR &= ~EXTI_InitSt
 202              		.loc 1 124 35 view .LVU37
 203 0046 0268     		ldr	r2, [r0]	@ _14, EXTI_InitStruct_37(D)->EXTI_Line
 204              	@ stm32f10x_lib/STM32F10x_StdPeriph_Driver/src/stm32f10x_exti.c:124:     EXTI->RTSR &= ~EXTI_InitSt
 205              		.loc 1 124 16 view .LVU38
 206 0048 21EA0201 		bic	r1, r1, r2	@ _16, _13, _14
 207 004c 9960     		str	r1, [r3, #8]	@ _16, MEM[(struct EXTI_TypeDef *)1073808384B].RTSR
 125:stm32f10x_lib/STM32F10x_StdPeriph_Driver/src/stm32f10x_exti.c ****     EXTI->FTSR &= ~EXTI_InitStruct->EXTI_Line;
 208              		.loc 1 125 5 is_stmt 1 view .LVU39
ARM GAS  C:\Users\ADMINI~1\AppData\Local\Temp\cc1Kf8hE.s 			page 7


 209              	@ stm32f10x_lib/STM32F10x_StdPeriph_Driver/src/stm32f10x_exti.c:125:     EXTI->FTSR &= ~EXTI_InitSt
 210              		.loc 1 125 16 is_stmt 0 view .LVU40
 211 004e D968     		ldr	r1, [r3, #12]	@ _17, MEM[(struct EXTI_TypeDef *)1073808384B].FTSR
 212 0050 21EA0201 		bic	r1, r1, r2	@ _18, _17, _14
 213 0054 D960     		str	r1, [r3, #12]	@ _18, MEM[(struct EXTI_TypeDef *)1073808384B].FTSR
 126:stm32f10x_lib/STM32F10x_StdPeriph_Driver/src/stm32f10x_exti.c ****     
 127:stm32f10x_lib/STM32F10x_StdPeriph_Driver/src/stm32f10x_exti.c ****     /* Select the trigger for the selected external interrupts */
 128:stm32f10x_lib/STM32F10x_StdPeriph_Driver/src/stm32f10x_exti.c ****     if (EXTI_InitStruct->EXTI_Trigger == EXTI_Trigger_Rising_Falling)
 214              		.loc 1 128 5 is_stmt 1 view .LVU41
 215              	@ stm32f10x_lib/STM32F10x_StdPeriph_Driver/src/stm32f10x_exti.c:128:     if (EXTI_InitStruct->EXTI_
 216              		.loc 1 128 24 is_stmt 0 view .LVU42
 217 0056 4179     		ldrb	r1, [r0, #5]	@ zero_extendqisi2	@ _19, EXTI_InitStruct_37(D)->EXTI_Trigger
 218              	@ stm32f10x_lib/STM32F10x_StdPeriph_Driver/src/stm32f10x_exti.c:128:     if (EXTI_InitStruct->EXTI_
 219              		.loc 1 128 8 view .LVU43
 220 0058 1029     		cmp	r1, #16	@ _19,
 221 005a 06D1     		bne	.L6		@,
 129:stm32f10x_lib/STM32F10x_StdPeriph_Driver/src/stm32f10x_exti.c ****     {
 130:stm32f10x_lib/STM32F10x_StdPeriph_Driver/src/stm32f10x_exti.c ****       /* Rising Falling edge */
 131:stm32f10x_lib/STM32F10x_StdPeriph_Driver/src/stm32f10x_exti.c ****       EXTI->RTSR |= EXTI_InitStruct->EXTI_Line;
 222              		.loc 1 131 7 is_stmt 1 view .LVU44
 223              	@ stm32f10x_lib/STM32F10x_StdPeriph_Driver/src/stm32f10x_exti.c:131:       EXTI->RTSR |= EXTI_InitS
 224              		.loc 1 131 18 is_stmt 0 view .LVU45
 225 005c 9968     		ldr	r1, [r3, #8]	@ _20, MEM[(struct EXTI_TypeDef *)1073808384B].RTSR
 226 005e 1143     		orrs	r1, r1, r2	@, _21, _20, _14
 227 0060 9960     		str	r1, [r3, #8]	@ _21, MEM[(struct EXTI_TypeDef *)1073808384B].RTSR
 132:stm32f10x_lib/STM32F10x_StdPeriph_Driver/src/stm32f10x_exti.c ****       EXTI->FTSR |= EXTI_InitStruct->EXTI_Line;
 228              		.loc 1 132 7 is_stmt 1 view .LVU46
 229              	@ stm32f10x_lib/STM32F10x_StdPeriph_Driver/src/stm32f10x_exti.c:132:       EXTI->FTSR |= EXTI_InitS
 230              		.loc 1 132 18 is_stmt 0 view .LVU47
 231 0062 D968     		ldr	r1, [r3, #12]	@ _22, MEM[(struct EXTI_TypeDef *)1073808384B].FTSR
 232 0064 0A43     		orrs	r2, r2, r1	@, _23, _14, _22
 233 0066 DA60     		str	r2, [r3, #12]	@ _23, MEM[(struct EXTI_TypeDef *)1073808384B].FTSR
 234              	.L4:
 235              	@ stm32f10x_lib/STM32F10x_StdPeriph_Driver/src/stm32f10x_exti.c:149: }
 133:stm32f10x_lib/STM32F10x_StdPeriph_Driver/src/stm32f10x_exti.c ****     }
 134:stm32f10x_lib/STM32F10x_StdPeriph_Driver/src/stm32f10x_exti.c ****     else
 135:stm32f10x_lib/STM32F10x_StdPeriph_Driver/src/stm32f10x_exti.c ****     {
 136:stm32f10x_lib/STM32F10x_StdPeriph_Driver/src/stm32f10x_exti.c ****       tmp = (uint32_t)EXTI_BASE;
 137:stm32f10x_lib/STM32F10x_StdPeriph_Driver/src/stm32f10x_exti.c ****       tmp += EXTI_InitStruct->EXTI_Trigger;
 138:stm32f10x_lib/STM32F10x_StdPeriph_Driver/src/stm32f10x_exti.c **** 
 139:stm32f10x_lib/STM32F10x_StdPeriph_Driver/src/stm32f10x_exti.c ****       *(__IO uint32_t *) tmp |= EXTI_InitStruct->EXTI_Line;
 140:stm32f10x_lib/STM32F10x_StdPeriph_Driver/src/stm32f10x_exti.c ****     }
 141:stm32f10x_lib/STM32F10x_StdPeriph_Driver/src/stm32f10x_exti.c ****   }
 142:stm32f10x_lib/STM32F10x_StdPeriph_Driver/src/stm32f10x_exti.c ****   else
 143:stm32f10x_lib/STM32F10x_StdPeriph_Driver/src/stm32f10x_exti.c ****   {
 144:stm32f10x_lib/STM32F10x_StdPeriph_Driver/src/stm32f10x_exti.c ****     tmp += EXTI_InitStruct->EXTI_Mode;
 145:stm32f10x_lib/STM32F10x_StdPeriph_Driver/src/stm32f10x_exti.c **** 
 146:stm32f10x_lib/STM32F10x_StdPeriph_Driver/src/stm32f10x_exti.c ****     /* Disable the selected external lines */
 147:stm32f10x_lib/STM32F10x_StdPeriph_Driver/src/stm32f10x_exti.c ****     *(__IO uint32_t *) tmp &= ~EXTI_InitStruct->EXTI_Line;
 148:stm32f10x_lib/STM32F10x_StdPeriph_Driver/src/stm32f10x_exti.c ****   }
 149:stm32f10x_lib/STM32F10x_StdPeriph_Driver/src/stm32f10x_exti.c **** }
 236              		.loc 1 149 1 view .LVU48
 237 0068 30BD     		pop	{r4, r5, pc}	@
 238              	.L6:
 136:stm32f10x_lib/STM32F10x_StdPeriph_Driver/src/stm32f10x_exti.c ****       tmp += EXTI_InitStruct->EXTI_Trigger;
 239              		.loc 1 136 7 is_stmt 1 view .LVU49
 240              	.LVL3:
ARM GAS  C:\Users\ADMINI~1\AppData\Local\Temp\cc1Kf8hE.s 			page 8


 137:stm32f10x_lib/STM32F10x_StdPeriph_Driver/src/stm32f10x_exti.c **** 
 241              		.loc 1 137 7 view .LVU50
 139:stm32f10x_lib/STM32F10x_StdPeriph_Driver/src/stm32f10x_exti.c ****     }
 242              		.loc 1 139 7 view .LVU51
 243              	@ stm32f10x_lib/STM32F10x_StdPeriph_Driver/src/stm32f10x_exti.c:137:       tmp += EXTI_InitStruct->
 137:stm32f10x_lib/STM32F10x_StdPeriph_Driver/src/stm32f10x_exti.c **** 
 244              		.loc 1 137 11 is_stmt 0 view .LVU52
 245 006a 01F18043 		add	r3, r1, #1073741824	@ tmp.2_25, _19,
 246 006e 03F58233 		add	r3, r3, #66560	@ tmp.2_25, tmp.2_25,
 247              	@ stm32f10x_lib/STM32F10x_StdPeriph_Driver/src/stm32f10x_exti.c:139:       *(__IO uint32_t *) tmp |
 139:stm32f10x_lib/STM32F10x_StdPeriph_Driver/src/stm32f10x_exti.c ****     }
 248              		.loc 1 139 30 view .LVU53
 249 0072 1968     		ldr	r1, [r3]	@ _26, *tmp.2_25
 250              	.LVL4:
 139:stm32f10x_lib/STM32F10x_StdPeriph_Driver/src/stm32f10x_exti.c ****     }
 251              		.loc 1 139 30 view .LVU54
 252 0074 0A43     		orrs	r2, r2, r1	@, _27, _14, _26
 253 0076 1A60     		str	r2, [r3]	@ _27, *tmp.2_25
 254 0078 F6E7     		b	.L4		@
 255              	.LVL5:
 256              	.L5:
 144:stm32f10x_lib/STM32F10x_StdPeriph_Driver/src/stm32f10x_exti.c **** 
 257              		.loc 1 144 5 is_stmt 1 view .LVU55
 147:stm32f10x_lib/STM32F10x_StdPeriph_Driver/src/stm32f10x_exti.c ****   }
 258              		.loc 1 147 5 view .LVU56
 259              	@ stm32f10x_lib/STM32F10x_StdPeriph_Driver/src/stm32f10x_exti.c:147:     *(__IO uint32_t *) tmp &= 
 147:stm32f10x_lib/STM32F10x_StdPeriph_Driver/src/stm32f10x_exti.c ****   }
 260              		.loc 1 147 28 is_stmt 0 view .LVU57
 261 007a 1368     		ldr	r3, [r2]	@ _31, *_51
 262 007c 0B40     		ands	r3, r3, r1	@, _34, _31, _54
 263 007e 1360     		str	r3, [r2]	@ _34, *_51
 264              	.LVL6:
 265              	@ stm32f10x_lib/STM32F10x_StdPeriph_Driver/src/stm32f10x_exti.c:149: }
 266              		.loc 1 149 1 view .LVU58
 267 0080 F2E7     		b	.L4		@
 268              	.L9:
 269 0082 00BF     		.align	2
 270              	.L8:
 271 0084 00040140 		.word	1073808384
 272              		.cfi_endproc
 273              	.LFE30:
 274              		.size	EXTI_Init, .-EXTI_Init
 275              		.align	1
 276              		.global	EXTI_StructInit
 277              		.syntax unified
 278              		.thumb
 279              		.thumb_func
 280              		.type	EXTI_StructInit, %function
 281              	EXTI_StructInit:
 282              	.LVL7:
 283              	.LFB31:
 150:stm32f10x_lib/STM32F10x_StdPeriph_Driver/src/stm32f10x_exti.c **** 
 151:stm32f10x_lib/STM32F10x_StdPeriph_Driver/src/stm32f10x_exti.c **** /**
 152:stm32f10x_lib/STM32F10x_StdPeriph_Driver/src/stm32f10x_exti.c ****   * @brief  Fills each EXTI_InitStruct member with its reset value.
 153:stm32f10x_lib/STM32F10x_StdPeriph_Driver/src/stm32f10x_exti.c ****   * @param  EXTI_InitStruct: pointer to a EXTI_InitTypeDef structure which will
 154:stm32f10x_lib/STM32F10x_StdPeriph_Driver/src/stm32f10x_exti.c ****   *         be initialized.
 155:stm32f10x_lib/STM32F10x_StdPeriph_Driver/src/stm32f10x_exti.c ****   * @retval None
ARM GAS  C:\Users\ADMINI~1\AppData\Local\Temp\cc1Kf8hE.s 			page 9


 156:stm32f10x_lib/STM32F10x_StdPeriph_Driver/src/stm32f10x_exti.c ****   */
 157:stm32f10x_lib/STM32F10x_StdPeriph_Driver/src/stm32f10x_exti.c **** void EXTI_StructInit(EXTI_InitTypeDef* EXTI_InitStruct)
 158:stm32f10x_lib/STM32F10x_StdPeriph_Driver/src/stm32f10x_exti.c **** {
 284              		.loc 1 158 1 is_stmt 1 view -0
 285              		.cfi_startproc
 286              		@ args = 0, pretend = 0, frame = 0
 287              		@ frame_needed = 0, uses_anonymous_args = 0
 288              		@ link register save eliminated.
 159:stm32f10x_lib/STM32F10x_StdPeriph_Driver/src/stm32f10x_exti.c ****   EXTI_InitStruct->EXTI_Line = EXTI_LINENONE;
 289              		.loc 1 159 3 view .LVU60
 160:stm32f10x_lib/STM32F10x_StdPeriph_Driver/src/stm32f10x_exti.c ****   EXTI_InitStruct->EXTI_Mode = EXTI_Mode_Interrupt;
 290              		.loc 1 160 3 view .LVU61
 161:stm32f10x_lib/STM32F10x_StdPeriph_Driver/src/stm32f10x_exti.c ****   EXTI_InitStruct->EXTI_Trigger = EXTI_Trigger_Falling;
 291              		.loc 1 161 3 view .LVU62
 162:stm32f10x_lib/STM32F10x_StdPeriph_Driver/src/stm32f10x_exti.c ****   EXTI_InitStruct->EXTI_LineCmd = DISABLE;
 292              		.loc 1 162 3 view .LVU63
 293              	@ stm32f10x_lib/STM32F10x_StdPeriph_Driver/src/stm32f10x_exti.c:159:   EXTI_InitStruct->EXTI_Line =
 159:stm32f10x_lib/STM32F10x_StdPeriph_Driver/src/stm32f10x_exti.c ****   EXTI_InitStruct->EXTI_Mode = EXTI_Mode_Interrupt;
 294              		.loc 1 159 30 is_stmt 0 view .LVU64
 295 0088 0023     		movs	r3, #0	@ tmp114,
 296              	@ stm32f10x_lib/STM32F10x_StdPeriph_Driver/src/stm32f10x_exti.c:160:   EXTI_InitStruct->EXTI_Mode =
 160:stm32f10x_lib/STM32F10x_StdPeriph_Driver/src/stm32f10x_exti.c ****   EXTI_InitStruct->EXTI_Trigger = EXTI_Trigger_Falling;
 297              		.loc 1 160 30 view .LVU65
 298 008a 4FF44062 		mov	r2, #3072	@ tmp116,
 299              	@ stm32f10x_lib/STM32F10x_StdPeriph_Driver/src/stm32f10x_exti.c:159:   EXTI_InitStruct->EXTI_Line =
 159:stm32f10x_lib/STM32F10x_StdPeriph_Driver/src/stm32f10x_exti.c ****   EXTI_InitStruct->EXTI_Mode = EXTI_Mode_Interrupt;
 300              		.loc 1 159 30 view .LVU66
 301 008e 0360     		str	r3, [r0]	@ tmp114, EXTI_InitStruct_2(D)->EXTI_Line
 302              	@ stm32f10x_lib/STM32F10x_StdPeriph_Driver/src/stm32f10x_exti.c:160:   EXTI_InitStruct->EXTI_Mode =
 160:stm32f10x_lib/STM32F10x_StdPeriph_Driver/src/stm32f10x_exti.c ****   EXTI_InitStruct->EXTI_Trigger = EXTI_Trigger_Falling;
 303              		.loc 1 160 30 view .LVU67
 304 0090 8280     		strh	r2, [r0, #4]	@ movhi	@ tmp116, MEM <unsigned short> [(void *)EXTI_InitStruct_2(D) + 4B]
 305              	@ stm32f10x_lib/STM32F10x_StdPeriph_Driver/src/stm32f10x_exti.c:162:   EXTI_InitStruct->EXTI_LineCm
 306              		.loc 1 162 33 view .LVU68
 307 0092 8371     		strb	r3, [r0, #6]	@ tmp114, EXTI_InitStruct_2(D)->EXTI_LineCmd
 308              	@ stm32f10x_lib/STM32F10x_StdPeriph_Driver/src/stm32f10x_exti.c:163: }
 163:stm32f10x_lib/STM32F10x_StdPeriph_Driver/src/stm32f10x_exti.c **** }
 309              		.loc 1 163 1 view .LVU69
 310 0094 7047     		bx	lr	@
 311              		.cfi_endproc
 312              	.LFE31:
 313              		.size	EXTI_StructInit, .-EXTI_StructInit
 314              		.align	1
 315              		.global	EXTI_GenerateSWInterrupt
 316              		.syntax unified
 317              		.thumb
 318              		.thumb_func
 319              		.type	EXTI_GenerateSWInterrupt, %function
 320              	EXTI_GenerateSWInterrupt:
 321              	.LVL8:
 322              	.LFB32:
 164:stm32f10x_lib/STM32F10x_StdPeriph_Driver/src/stm32f10x_exti.c **** 
 165:stm32f10x_lib/STM32F10x_StdPeriph_Driver/src/stm32f10x_exti.c **** /**
 166:stm32f10x_lib/STM32F10x_StdPeriph_Driver/src/stm32f10x_exti.c ****   * @brief  Generates a Software interrupt.
 167:stm32f10x_lib/STM32F10x_StdPeriph_Driver/src/stm32f10x_exti.c ****   * @param  EXTI_Line: specifies the EXTI lines to be enabled or disabled.
 168:stm32f10x_lib/STM32F10x_StdPeriph_Driver/src/stm32f10x_exti.c ****   *   This parameter can be any combination of EXTI_Linex where x can be (0..19).
 169:stm32f10x_lib/STM32F10x_StdPeriph_Driver/src/stm32f10x_exti.c ****   * @retval None
ARM GAS  C:\Users\ADMINI~1\AppData\Local\Temp\cc1Kf8hE.s 			page 10


 170:stm32f10x_lib/STM32F10x_StdPeriph_Driver/src/stm32f10x_exti.c ****   */
 171:stm32f10x_lib/STM32F10x_StdPeriph_Driver/src/stm32f10x_exti.c **** void EXTI_GenerateSWInterrupt(uint32_t EXTI_Line)
 172:stm32f10x_lib/STM32F10x_StdPeriph_Driver/src/stm32f10x_exti.c **** {
 323              		.loc 1 172 1 is_stmt 1 view -0
 324              		.cfi_startproc
 325              		@ args = 0, pretend = 0, frame = 0
 326              		@ frame_needed = 0, uses_anonymous_args = 0
 327              		@ link register save eliminated.
 173:stm32f10x_lib/STM32F10x_StdPeriph_Driver/src/stm32f10x_exti.c ****   /* Check the parameters */
 174:stm32f10x_lib/STM32F10x_StdPeriph_Driver/src/stm32f10x_exti.c ****   assert_param(IS_EXTI_LINE(EXTI_Line));
 328              		.loc 1 174 3 view .LVU71
 175:stm32f10x_lib/STM32F10x_StdPeriph_Driver/src/stm32f10x_exti.c ****   
 176:stm32f10x_lib/STM32F10x_StdPeriph_Driver/src/stm32f10x_exti.c ****   EXTI->SWIER |= EXTI_Line;
 329              		.loc 1 176 3 view .LVU72
 330              	@ stm32f10x_lib/STM32F10x_StdPeriph_Driver/src/stm32f10x_exti.c:176:   EXTI->SWIER |= EXTI_Line;
 331              		.loc 1 176 15 is_stmt 0 view .LVU73
 332 0096 024A     		ldr	r2, .L12	@ tmp116,
 333 0098 1369     		ldr	r3, [r2, #16]	@ _1, MEM[(struct EXTI_TypeDef *)1073808384B].SWIER
 334 009a 0343     		orrs	r3, r3, r0	@, _2, _1, tmp118
 335 009c 1361     		str	r3, [r2, #16]	@ _2, MEM[(struct EXTI_TypeDef *)1073808384B].SWIER
 336              	@ stm32f10x_lib/STM32F10x_StdPeriph_Driver/src/stm32f10x_exti.c:177: }
 177:stm32f10x_lib/STM32F10x_StdPeriph_Driver/src/stm32f10x_exti.c **** }
 337              		.loc 1 177 1 view .LVU74
 338 009e 7047     		bx	lr	@
 339              	.L13:
 340              		.align	2
 341              	.L12:
 342 00a0 00040140 		.word	1073808384
 343              		.cfi_endproc
 344              	.LFE32:
 345              		.size	EXTI_GenerateSWInterrupt, .-EXTI_GenerateSWInterrupt
 346              		.align	1
 347              		.global	EXTI_GetFlagStatus
 348              		.syntax unified
 349              		.thumb
 350              		.thumb_func
 351              		.type	EXTI_GetFlagStatus, %function
 352              	EXTI_GetFlagStatus:
 353              	.LVL9:
 354              	.LFB33:
 178:stm32f10x_lib/STM32F10x_StdPeriph_Driver/src/stm32f10x_exti.c **** 
 179:stm32f10x_lib/STM32F10x_StdPeriph_Driver/src/stm32f10x_exti.c **** /**
 180:stm32f10x_lib/STM32F10x_StdPeriph_Driver/src/stm32f10x_exti.c ****   * @brief  Checks whether the specified EXTI line flag is set or not.
 181:stm32f10x_lib/STM32F10x_StdPeriph_Driver/src/stm32f10x_exti.c ****   * @param  EXTI_Line: specifies the EXTI line flag to check.
 182:stm32f10x_lib/STM32F10x_StdPeriph_Driver/src/stm32f10x_exti.c ****   *   This parameter can be:
 183:stm32f10x_lib/STM32F10x_StdPeriph_Driver/src/stm32f10x_exti.c ****   *     @arg EXTI_Linex: External interrupt line x where x(0..19)
 184:stm32f10x_lib/STM32F10x_StdPeriph_Driver/src/stm32f10x_exti.c ****   * @retval The new state of EXTI_Line (SET or RESET).
 185:stm32f10x_lib/STM32F10x_StdPeriph_Driver/src/stm32f10x_exti.c ****   */
 186:stm32f10x_lib/STM32F10x_StdPeriph_Driver/src/stm32f10x_exti.c **** FlagStatus EXTI_GetFlagStatus(uint32_t EXTI_Line)
 187:stm32f10x_lib/STM32F10x_StdPeriph_Driver/src/stm32f10x_exti.c **** {
 355              		.loc 1 187 1 is_stmt 1 view -0
 356              		.cfi_startproc
 357              		@ args = 0, pretend = 0, frame = 0
 358              		@ frame_needed = 0, uses_anonymous_args = 0
 359              		@ link register save eliminated.
 188:stm32f10x_lib/STM32F10x_StdPeriph_Driver/src/stm32f10x_exti.c ****   FlagStatus bitstatus = RESET;
 360              		.loc 1 188 3 view .LVU76
ARM GAS  C:\Users\ADMINI~1\AppData\Local\Temp\cc1Kf8hE.s 			page 11


 189:stm32f10x_lib/STM32F10x_StdPeriph_Driver/src/stm32f10x_exti.c ****   /* Check the parameters */
 190:stm32f10x_lib/STM32F10x_StdPeriph_Driver/src/stm32f10x_exti.c ****   assert_param(IS_GET_EXTI_LINE(EXTI_Line));
 361              		.loc 1 190 3 view .LVU77
 191:stm32f10x_lib/STM32F10x_StdPeriph_Driver/src/stm32f10x_exti.c ****   
 192:stm32f10x_lib/STM32F10x_StdPeriph_Driver/src/stm32f10x_exti.c ****   if ((EXTI->PR & EXTI_Line) != (uint32_t)RESET)
 362              		.loc 1 192 3 view .LVU78
 363              	@ stm32f10x_lib/STM32F10x_StdPeriph_Driver/src/stm32f10x_exti.c:192:   if ((EXTI->PR & EXTI_Line) !
 364              		.loc 1 192 12 is_stmt 0 view .LVU79
 365 00a4 034B     		ldr	r3, .L15	@ tmp118,
 366 00a6 5B69     		ldr	r3, [r3, #20]	@ _1, MEM[(struct EXTI_TypeDef *)1073808384B].PR
 367              	.LVL10:
 193:stm32f10x_lib/STM32F10x_StdPeriph_Driver/src/stm32f10x_exti.c ****   {
 194:stm32f10x_lib/STM32F10x_StdPeriph_Driver/src/stm32f10x_exti.c ****     bitstatus = SET;
 195:stm32f10x_lib/STM32F10x_StdPeriph_Driver/src/stm32f10x_exti.c ****   }
 196:stm32f10x_lib/STM32F10x_StdPeriph_Driver/src/stm32f10x_exti.c ****   else
 197:stm32f10x_lib/STM32F10x_StdPeriph_Driver/src/stm32f10x_exti.c ****   {
 198:stm32f10x_lib/STM32F10x_StdPeriph_Driver/src/stm32f10x_exti.c ****     bitstatus = RESET;
 199:stm32f10x_lib/STM32F10x_StdPeriph_Driver/src/stm32f10x_exti.c ****   }
 200:stm32f10x_lib/STM32F10x_StdPeriph_Driver/src/stm32f10x_exti.c ****   return bitstatus;
 368              		.loc 1 200 3 is_stmt 1 view .LVU80
 369              	@ stm32f10x_lib/STM32F10x_StdPeriph_Driver/src/stm32f10x_exti.c:192:   if ((EXTI->PR & EXTI_Line) !
 192:stm32f10x_lib/STM32F10x_StdPeriph_Driver/src/stm32f10x_exti.c ****   {
 370              		.loc 1 192 6 is_stmt 0 view .LVU81
 371 00a8 0342     		tst	r3, r0	@ _1, tmp123
 372              	@ stm32f10x_lib/STM32F10x_StdPeriph_Driver/src/stm32f10x_exti.c:201: }
 201:stm32f10x_lib/STM32F10x_StdPeriph_Driver/src/stm32f10x_exti.c **** }
 373              		.loc 1 201 1 view .LVU82
 374 00aa 14BF     		ite	ne
 375 00ac 0120     		movne	r0, #1	@,
 376              	.LVL11:
 377              		.loc 1 201 1 view .LVU83
 378 00ae 0020     		moveq	r0, #0	@,
 379 00b0 7047     		bx	lr	@
 380              	.L16:
 381 00b2 00BF     		.align	2
 382              	.L15:
 383 00b4 00040140 		.word	1073808384
 384              		.cfi_endproc
 385              	.LFE33:
 386              		.size	EXTI_GetFlagStatus, .-EXTI_GetFlagStatus
 387              		.align	1
 388              		.global	EXTI_ClearFlag
 389              		.syntax unified
 390              		.thumb
 391              		.thumb_func
 392              		.type	EXTI_ClearFlag, %function
 393              	EXTI_ClearFlag:
 394              	.LVL12:
 395              	.LFB34:
 202:stm32f10x_lib/STM32F10x_StdPeriph_Driver/src/stm32f10x_exti.c **** 
 203:stm32f10x_lib/STM32F10x_StdPeriph_Driver/src/stm32f10x_exti.c **** /**
 204:stm32f10x_lib/STM32F10x_StdPeriph_Driver/src/stm32f10x_exti.c ****   * @brief  Clears the EXTI's line pending flags.
 205:stm32f10x_lib/STM32F10x_StdPeriph_Driver/src/stm32f10x_exti.c ****   * @param  EXTI_Line: specifies the EXTI lines flags to clear.
 206:stm32f10x_lib/STM32F10x_StdPeriph_Driver/src/stm32f10x_exti.c ****   *   This parameter can be any combination of EXTI_Linex where x can be (0..19).
 207:stm32f10x_lib/STM32F10x_StdPeriph_Driver/src/stm32f10x_exti.c ****   * @retval None
 208:stm32f10x_lib/STM32F10x_StdPeriph_Driver/src/stm32f10x_exti.c ****   */
 209:stm32f10x_lib/STM32F10x_StdPeriph_Driver/src/stm32f10x_exti.c **** void EXTI_ClearFlag(uint32_t EXTI_Line)
ARM GAS  C:\Users\ADMINI~1\AppData\Local\Temp\cc1Kf8hE.s 			page 12


 210:stm32f10x_lib/STM32F10x_StdPeriph_Driver/src/stm32f10x_exti.c **** {
 396              		.loc 1 210 1 is_stmt 1 view -0
 397              		.cfi_startproc
 398              		@ args = 0, pretend = 0, frame = 0
 399              		@ frame_needed = 0, uses_anonymous_args = 0
 400              		@ link register save eliminated.
 211:stm32f10x_lib/STM32F10x_StdPeriph_Driver/src/stm32f10x_exti.c ****   /* Check the parameters */
 212:stm32f10x_lib/STM32F10x_StdPeriph_Driver/src/stm32f10x_exti.c ****   assert_param(IS_EXTI_LINE(EXTI_Line));
 401              		.loc 1 212 3 view .LVU85
 213:stm32f10x_lib/STM32F10x_StdPeriph_Driver/src/stm32f10x_exti.c ****   
 214:stm32f10x_lib/STM32F10x_StdPeriph_Driver/src/stm32f10x_exti.c ****   EXTI->PR = EXTI_Line;
 402              		.loc 1 214 3 view .LVU86
 403              	@ stm32f10x_lib/STM32F10x_StdPeriph_Driver/src/stm32f10x_exti.c:214:   EXTI->PR = EXTI_Line;
 404              		.loc 1 214 12 is_stmt 0 view .LVU87
 405 00b8 014B     		ldr	r3, .L18	@ tmp114,
 406 00ba 5861     		str	r0, [r3, #20]	@ EXTI_Line, MEM[(struct EXTI_TypeDef *)1073808384B].PR
 407              	@ stm32f10x_lib/STM32F10x_StdPeriph_Driver/src/stm32f10x_exti.c:215: }
 215:stm32f10x_lib/STM32F10x_StdPeriph_Driver/src/stm32f10x_exti.c **** }
 408              		.loc 1 215 1 view .LVU88
 409 00bc 7047     		bx	lr	@
 410              	.L19:
 411 00be 00BF     		.align	2
 412              	.L18:
 413 00c0 00040140 		.word	1073808384
 414              		.cfi_endproc
 415              	.LFE34:
 416              		.size	EXTI_ClearFlag, .-EXTI_ClearFlag
 417              		.align	1
 418              		.global	EXTI_GetITStatus
 419              		.syntax unified
 420              		.thumb
 421              		.thumb_func
 422              		.type	EXTI_GetITStatus, %function
 423              	EXTI_GetITStatus:
 424              	.LVL13:
 425              	.LFB35:
 216:stm32f10x_lib/STM32F10x_StdPeriph_Driver/src/stm32f10x_exti.c **** 
 217:stm32f10x_lib/STM32F10x_StdPeriph_Driver/src/stm32f10x_exti.c **** /**
 218:stm32f10x_lib/STM32F10x_StdPeriph_Driver/src/stm32f10x_exti.c ****   * @brief  Checks whether the specified EXTI line is asserted or not.
 219:stm32f10x_lib/STM32F10x_StdPeriph_Driver/src/stm32f10x_exti.c ****   * @param  EXTI_Line: specifies the EXTI line to check.
 220:stm32f10x_lib/STM32F10x_StdPeriph_Driver/src/stm32f10x_exti.c ****   *   This parameter can be:
 221:stm32f10x_lib/STM32F10x_StdPeriph_Driver/src/stm32f10x_exti.c ****   *     @arg EXTI_Linex: External interrupt line x where x(0..19)
 222:stm32f10x_lib/STM32F10x_StdPeriph_Driver/src/stm32f10x_exti.c ****   * @retval The new state of EXTI_Line (SET or RESET).
 223:stm32f10x_lib/STM32F10x_StdPeriph_Driver/src/stm32f10x_exti.c ****   */
 224:stm32f10x_lib/STM32F10x_StdPeriph_Driver/src/stm32f10x_exti.c **** ITStatus EXTI_GetITStatus(uint32_t EXTI_Line)
 225:stm32f10x_lib/STM32F10x_StdPeriph_Driver/src/stm32f10x_exti.c **** {
 426              		.loc 1 225 1 is_stmt 1 view -0
 427              		.cfi_startproc
 428              		@ args = 0, pretend = 0, frame = 0
 429              		@ frame_needed = 0, uses_anonymous_args = 0
 430              		@ link register save eliminated.
 226:stm32f10x_lib/STM32F10x_StdPeriph_Driver/src/stm32f10x_exti.c ****   ITStatus bitstatus = RESET;
 431              		.loc 1 226 3 view .LVU90
 227:stm32f10x_lib/STM32F10x_StdPeriph_Driver/src/stm32f10x_exti.c ****   uint32_t enablestatus = 0;
 432              		.loc 1 227 3 view .LVU91
 228:stm32f10x_lib/STM32F10x_StdPeriph_Driver/src/stm32f10x_exti.c ****   /* Check the parameters */
 229:stm32f10x_lib/STM32F10x_StdPeriph_Driver/src/stm32f10x_exti.c ****   assert_param(IS_GET_EXTI_LINE(EXTI_Line));
ARM GAS  C:\Users\ADMINI~1\AppData\Local\Temp\cc1Kf8hE.s 			page 13


 433              		.loc 1 229 3 view .LVU92
 230:stm32f10x_lib/STM32F10x_StdPeriph_Driver/src/stm32f10x_exti.c ****   
 231:stm32f10x_lib/STM32F10x_StdPeriph_Driver/src/stm32f10x_exti.c ****   enablestatus =  EXTI->IMR & EXTI_Line;
 434              		.loc 1 231 3 view .LVU93
 435              	@ stm32f10x_lib/STM32F10x_StdPeriph_Driver/src/stm32f10x_exti.c:225: {
 225:stm32f10x_lib/STM32F10x_StdPeriph_Driver/src/stm32f10x_exti.c ****   ITStatus bitstatus = RESET;
 436              		.loc 1 225 1 is_stmt 0 view .LVU94
 437 00c4 0246     		mov	r2, r0	@ EXTI_Line, tmp127
 438              	@ stm32f10x_lib/STM32F10x_StdPeriph_Driver/src/stm32f10x_exti.c:231:   enablestatus =  EXTI->IMR & 
 439              		.loc 1 231 23 view .LVU95
 440 00c6 054B     		ldr	r3, .L23	@ tmp120,
 441 00c8 1968     		ldr	r1, [r3]	@ _1, MEM[(struct EXTI_TypeDef *)1073808384B].IMR
 442              	.LVL14:
 232:stm32f10x_lib/STM32F10x_StdPeriph_Driver/src/stm32f10x_exti.c ****   if (((EXTI->PR & EXTI_Line) != (uint32_t)RESET) && (enablestatus != (uint32_t)RESET))
 443              		.loc 1 232 3 is_stmt 1 view .LVU96
 444              	@ stm32f10x_lib/STM32F10x_StdPeriph_Driver/src/stm32f10x_exti.c:232:   if (((EXTI->PR & EXTI_Line) 
 445              		.loc 1 232 13 is_stmt 0 view .LVU97
 446 00ca 5869     		ldr	r0, [r3, #20]	@ _2, MEM[(struct EXTI_TypeDef *)1073808384B].PR
 447              	.LVL15:
 448              	@ stm32f10x_lib/STM32F10x_StdPeriph_Driver/src/stm32f10x_exti.c:232:   if (((EXTI->PR & EXTI_Line) 
 449              		.loc 1 232 6 view .LVU98
 450 00cc 1040     		ands	r0, r0, r2	@ tmp122, _2, EXTI_Line
 451 00ce 03D0     		beq	.L21		@,
 452              	@ stm32f10x_lib/STM32F10x_StdPeriph_Driver/src/stm32f10x_exti.c:232:   if (((EXTI->PR & EXTI_Line) 
 453              		.loc 1 232 51 discriminator 1 view .LVU99
 454 00d0 1142     		tst	r1, r2	@ _1, EXTI_Line
 455              	@ stm32f10x_lib/STM32F10x_StdPeriph_Driver/src/stm32f10x_exti.c:238:     bitstatus = RESET;
 233:stm32f10x_lib/STM32F10x_StdPeriph_Driver/src/stm32f10x_exti.c ****   {
 234:stm32f10x_lib/STM32F10x_StdPeriph_Driver/src/stm32f10x_exti.c ****     bitstatus = SET;
 235:stm32f10x_lib/STM32F10x_StdPeriph_Driver/src/stm32f10x_exti.c ****   }
 236:stm32f10x_lib/STM32F10x_StdPeriph_Driver/src/stm32f10x_exti.c ****   else
 237:stm32f10x_lib/STM32F10x_StdPeriph_Driver/src/stm32f10x_exti.c ****   {
 238:stm32f10x_lib/STM32F10x_StdPeriph_Driver/src/stm32f10x_exti.c ****     bitstatus = RESET;
 456              		.loc 1 238 15 discriminator 1 view .LVU100
 457 00d2 14BF     		ite	ne
 458 00d4 0120     		movne	r0, #1	@ <retval>,
 459 00d6 0020     		moveq	r0, #0	@ <retval>,
 460              	.L21:
 461              	.LVL16:
 239:stm32f10x_lib/STM32F10x_StdPeriph_Driver/src/stm32f10x_exti.c ****   }
 240:stm32f10x_lib/STM32F10x_StdPeriph_Driver/src/stm32f10x_exti.c ****   return bitstatus;
 462              		.loc 1 240 3 is_stmt 1 view .LVU101
 463              	@ stm32f10x_lib/STM32F10x_StdPeriph_Driver/src/stm32f10x_exti.c:241: }
 241:stm32f10x_lib/STM32F10x_StdPeriph_Driver/src/stm32f10x_exti.c **** }
 464              		.loc 1 241 1 is_stmt 0 view .LVU102
 465 00d8 7047     		bx	lr	@
 466              	.L24:
 467 00da 00BF     		.align	2
 468              	.L23:
 469 00dc 00040140 		.word	1073808384
 470              		.cfi_endproc
 471              	.LFE35:
 472              		.size	EXTI_GetITStatus, .-EXTI_GetITStatus
 473              		.align	1
 474              		.global	EXTI_ClearITPendingBit
 475              		.syntax unified
 476              		.thumb
ARM GAS  C:\Users\ADMINI~1\AppData\Local\Temp\cc1Kf8hE.s 			page 14


 477              		.thumb_func
 478              		.type	EXTI_ClearITPendingBit, %function
 479              	EXTI_ClearITPendingBit:
 480              	.LFB38:
 481              		.cfi_startproc
 482              		@ args = 0, pretend = 0, frame = 0
 483              		@ frame_needed = 0, uses_anonymous_args = 0
 484              		@ link register save eliminated.
 485 00e0 014B     		ldr	r3, .L26	@ tmp114,
 486 00e2 5861     		str	r0, [r3, #20]	@ EXTI_Line, MEM[(struct EXTI_TypeDef *)1073808384B].PR
 487 00e4 7047     		bx	lr	@
 488              	.L27:
 489 00e6 00BF     		.align	2
 490              	.L26:
 491 00e8 00040140 		.word	1073808384
 492              		.cfi_endproc
 493              	.LFE38:
 494              		.size	EXTI_ClearITPendingBit, .-EXTI_ClearITPendingBit
 495              	.Letext0:
 496              		.file 2 "c:\\program files (x86)\\gnu arm embedded toolchain\\10 2021.10\\arm-none-eabi\\include\\
 497              		.file 3 "c:\\program files (x86)\\gnu arm embedded toolchain\\10 2021.10\\arm-none-eabi\\include\\
 498              		.file 4 "./stm32f10x_lib/CMSIS/CM3/DeviceSupport/ST/STM32F10x/stm32f10x.h"
 499              		.file 5 "./stm32f10x_lib/STM32F10x_StdPeriph_Driver/inc/stm32f10x_exti.h"
 500              		.section	.debug_info,"",%progbits
 501              	.Ldebug_info0:
 502 0000 9F030000 		.4byte	0x39f
 503 0004 0200     		.2byte	0x2
 504 0006 00000000 		.4byte	.Ldebug_abbrev0
 505 000a 04       		.byte	0x4
 506 000b 01       		.uleb128 0x1
 507 000c 64020000 		.4byte	.LASF41
 508 0010 0C       		.byte	0xc
 509 0011 F9000000 		.4byte	.LASF42
 510 0015 EF010000 		.4byte	.LASF43
 511 0019 00000000 		.4byte	.Ltext0
 512 001d EC000000 		.4byte	.Letext0
 513 0021 00000000 		.4byte	.Ldebug_line0
 514 0025 02       		.uleb128 0x2
 515 0026 01       		.byte	0x1
 516 0027 06       		.byte	0x6
 517 0028 32030000 		.4byte	.LASF0
 518 002c 02       		.uleb128 0x2
 519 002d 01       		.byte	0x1
 520 002e 08       		.byte	0x8
 521 002f EB000000 		.4byte	.LASF1
 522 0033 02       		.uleb128 0x2
 523 0034 02       		.byte	0x2
 524 0035 05       		.byte	0x5
 525 0036 1A030000 		.4byte	.LASF2
 526 003a 02       		.uleb128 0x2
 527 003b 02       		.byte	0x2
 528 003c 07       		.byte	0x7
 529 003d 69000000 		.4byte	.LASF3
 530 0041 02       		.uleb128 0x2
 531 0042 04       		.byte	0x4
 532 0043 05       		.byte	0x5
 533 0044 29030000 		.4byte	.LASF4
ARM GAS  C:\Users\ADMINI~1\AppData\Local\Temp\cc1Kf8hE.s 			page 15


 534 0048 03       		.uleb128 0x3
 535 0049 9D010000 		.4byte	.LASF9
 536 004d 02       		.byte	0x2
 537 004e 4F       		.byte	0x4f
 538 004f 19       		.byte	0x19
 539 0050 54000000 		.4byte	0x54
 540 0054 02       		.uleb128 0x2
 541 0055 04       		.byte	0x4
 542 0056 07       		.byte	0x7
 543 0057 51010000 		.4byte	.LASF5
 544 005b 02       		.uleb128 0x2
 545 005c 08       		.byte	0x8
 546 005d 05       		.byte	0x5
 547 005e E4020000 		.4byte	.LASF6
 548 0062 02       		.uleb128 0x2
 549 0063 08       		.byte	0x8
 550 0064 07       		.byte	0x7
 551 0065 3D020000 		.4byte	.LASF7
 552 0069 04       		.uleb128 0x4
 553 006a 04       		.byte	0x4
 554 006b 05       		.byte	0x5
 555 006c 696E7400 		.ascii	"int\000"
 556 0070 02       		.uleb128 0x2
 557 0071 04       		.byte	0x4
 558 0072 07       		.byte	0x7
 559 0073 D8010000 		.4byte	.LASF8
 560 0077 03       		.uleb128 0x3
 561 0078 94010000 		.4byte	.LASF10
 562 007c 03       		.byte	0x3
 563 007d 30       		.byte	0x30
 564 007e 14       		.byte	0x14
 565 007f 48000000 		.4byte	0x48
 566 0083 05       		.uleb128 0x5
 567 0084 77000000 		.4byte	0x77
 568 0088 06       		.uleb128 0x6
 569 0089 07       		.byte	0x7
 570 008a 01       		.byte	0x1
 571 008b 2C000000 		.4byte	0x2c
 572 008f 04       		.byte	0x4
 573 0090 0702     		.2byte	0x207
 574 0092 0E       		.byte	0xe
 575 0093 A4000000 		.4byte	0xa4
 576 0097 07       		.uleb128 0x7
 577 0098 63010000 		.4byte	.LASF11
 578 009c 00       		.byte	0
 579 009d 08       		.uleb128 0x8
 580 009e 53455400 		.ascii	"SET\000"
 581 00a2 01       		.byte	0x1
 582 00a3 00       		.byte	0
 583 00a4 09       		.uleb128 0x9
 584 00a5 37010000 		.4byte	.LASF12
 585 00a9 04       		.byte	0x4
 586 00aa 0702     		.2byte	0x207
 587 00ac 28       		.byte	0x28
 588 00ad 88000000 		.4byte	0x88
 589 00b1 09       		.uleb128 0x9
 590 00b2 14000000 		.4byte	.LASF13
ARM GAS  C:\Users\ADMINI~1\AppData\Local\Temp\cc1Kf8hE.s 			page 16


 591 00b6 04       		.byte	0x4
 592 00b7 0702     		.2byte	0x207
 593 00b9 34       		.byte	0x34
 594 00ba 88000000 		.4byte	0x88
 595 00be 06       		.uleb128 0x6
 596 00bf 07       		.byte	0x7
 597 00c0 01       		.byte	0x1
 598 00c1 2C000000 		.4byte	0x2c
 599 00c5 04       		.byte	0x4
 600 00c6 0902     		.2byte	0x209
 601 00c8 0E       		.byte	0xe
 602 00c9 DA000000 		.4byte	0xda
 603 00cd 07       		.uleb128 0x7
 604 00ce 87010000 		.4byte	.LASF14
 605 00d2 00       		.byte	0
 606 00d3 07       		.uleb128 0x7
 607 00d4 D0000000 		.4byte	.LASF15
 608 00d8 01       		.byte	0x1
 609 00d9 00       		.byte	0
 610 00da 09       		.uleb128 0x9
 611 00db 7C000000 		.4byte	.LASF16
 612 00df 04       		.byte	0x4
 613 00e0 0902     		.2byte	0x209
 614 00e2 2F       		.byte	0x2f
 615 00e3 BE000000 		.4byte	0xbe
 616 00e7 0A       		.uleb128 0xa
 617 00e8 18       		.byte	0x18
 618 00e9 04       		.byte	0x4
 619 00ea 7703     		.2byte	0x377
 620 00ec 09       		.byte	0x9
 621 00ed 51010000 		.4byte	0x151
 622 00f1 0B       		.uleb128 0xb
 623 00f2 494D5200 		.ascii	"IMR\000"
 624 00f6 04       		.byte	0x4
 625 00f7 7903     		.2byte	0x379
 626 00f9 11       		.byte	0x11
 627 00fa 83000000 		.4byte	0x83
 628 00fe 02       		.byte	0x2
 629 00ff 23       		.byte	0x23
 630 0100 00       		.uleb128 0
 631 0101 0B       		.uleb128 0xb
 632 0102 454D5200 		.ascii	"EMR\000"
 633 0106 04       		.byte	0x4
 634 0107 7A03     		.2byte	0x37a
 635 0109 11       		.byte	0x11
 636 010a 83000000 		.4byte	0x83
 637 010e 02       		.byte	0x2
 638 010f 23       		.byte	0x23
 639 0110 04       		.uleb128 0x4
 640 0111 0C       		.uleb128 0xc
 641 0112 8F010000 		.4byte	.LASF17
 642 0116 04       		.byte	0x4
 643 0117 7B03     		.2byte	0x37b
 644 0119 11       		.byte	0x11
 645 011a 83000000 		.4byte	0x83
 646 011e 02       		.byte	0x2
 647 011f 23       		.byte	0x23
ARM GAS  C:\Users\ADMINI~1\AppData\Local\Temp\cc1Kf8hE.s 			page 17


 648 0120 08       		.uleb128 0x8
 649 0121 0C       		.uleb128 0xc
 650 0122 24030000 		.4byte	.LASF18
 651 0126 04       		.byte	0x4
 652 0127 7C03     		.2byte	0x37c
 653 0129 11       		.byte	0x11
 654 012a 83000000 		.4byte	0x83
 655 012e 02       		.byte	0x2
 656 012f 23       		.byte	0x23
 657 0130 0C       		.uleb128 0xc
 658 0131 0C       		.uleb128 0xc
 659 0132 52030000 		.4byte	.LASF19
 660 0136 04       		.byte	0x4
 661 0137 7D03     		.2byte	0x37d
 662 0139 11       		.byte	0x11
 663 013a 83000000 		.4byte	0x83
 664 013e 02       		.byte	0x2
 665 013f 23       		.byte	0x23
 666 0140 10       		.uleb128 0x10
 667 0141 0B       		.uleb128 0xb
 668 0142 505200   		.ascii	"PR\000"
 669 0145 04       		.byte	0x4
 670 0146 7E03     		.2byte	0x37e
 671 0148 11       		.byte	0x11
 672 0149 83000000 		.4byte	0x83
 673 014d 02       		.byte	0x2
 674 014e 23       		.byte	0x23
 675 014f 14       		.uleb128 0x14
 676 0150 00       		.byte	0
 677 0151 09       		.uleb128 0x9
 678 0152 7A010000 		.4byte	.LASF20
 679 0156 04       		.byte	0x4
 680 0157 7F03     		.2byte	0x37f
 681 0159 03       		.byte	0x3
 682 015a E7000000 		.4byte	0xe7
 683 015e 0D       		.uleb128 0xd
 684 015f 07       		.byte	0x7
 685 0160 01       		.byte	0x1
 686 0161 2C000000 		.4byte	0x2c
 687 0165 05       		.byte	0x5
 688 0166 33       		.byte	0x33
 689 0167 01       		.byte	0x1
 690 0168 79010000 		.4byte	0x179
 691 016c 07       		.uleb128 0x7
 692 016d D7000000 		.4byte	.LASF21
 693 0171 00       		.byte	0
 694 0172 07       		.uleb128 0x7
 695 0173 59000000 		.4byte	.LASF22
 696 0177 04       		.byte	0x4
 697 0178 00       		.byte	0
 698 0179 03       		.uleb128 0x3
 699 017a 69010000 		.4byte	.LASF23
 700 017e 05       		.byte	0x5
 701 017f 36       		.byte	0x36
 702 0180 02       		.byte	0x2
 703 0181 5E010000 		.4byte	0x15e
 704 0185 0D       		.uleb128 0xd
ARM GAS  C:\Users\ADMINI~1\AppData\Local\Temp\cc1Kf8hE.s 			page 18


 705 0186 07       		.byte	0x7
 706 0187 01       		.byte	0x1
 707 0188 2C000000 		.4byte	0x2c
 708 018c 05       		.byte	0x5
 709 018d 3F       		.byte	0x3f
 710 018e 01       		.byte	0x1
 711 018f A6010000 		.4byte	0x1a6
 712 0193 07       		.uleb128 0x7
 713 0194 A8010000 		.4byte	.LASF24
 714 0198 08       		.byte	0x8
 715 0199 07       		.uleb128 0x7
 716 019a 44000000 		.4byte	.LASF25
 717 019e 0C       		.byte	0xc
 718 019f 07       		.uleb128 0x7
 719 01a0 BC010000 		.4byte	.LASF26
 720 01a4 10       		.byte	0x10
 721 01a5 00       		.byte	0
 722 01a6 03       		.uleb128 0x3
 723 01a7 3E030000 		.4byte	.LASF27
 724 01ab 05       		.byte	0x5
 725 01ac 43       		.byte	0x43
 726 01ad 02       		.byte	0x2
 727 01ae 85010000 		.4byte	0x185
 728 01b2 0E       		.uleb128 0xe
 729 01b3 08       		.byte	0x8
 730 01b4 05       		.byte	0x5
 731 01b5 4C       		.byte	0x4c
 732 01b6 09       		.byte	0x9
 733 01b7 F8010000 		.4byte	0x1f8
 734 01bb 0F       		.uleb128 0xf
 735 01bc 00000000 		.4byte	.LASF28
 736 01c0 05       		.byte	0x5
 737 01c1 4E       		.byte	0x4e
 738 01c2 0C       		.byte	0xc
 739 01c3 77000000 		.4byte	0x77
 740 01c7 02       		.byte	0x2
 741 01c8 23       		.byte	0x23
 742 01c9 00       		.uleb128 0
 743 01ca 0F       		.uleb128 0xf
 744 01cb 0A000000 		.4byte	.LASF29
 745 01cf 05       		.byte	0x5
 746 01d0 51       		.byte	0x51
 747 01d1 14       		.byte	0x14
 748 01d2 79010000 		.4byte	0x179
 749 01d6 02       		.byte	0x2
 750 01d7 23       		.byte	0x23
 751 01d8 04       		.uleb128 0x4
 752 01d9 0F       		.uleb128 0xf
 753 01da 37000000 		.4byte	.LASF30
 754 01de 05       		.byte	0x5
 755 01df 54       		.byte	0x54
 756 01e0 17       		.byte	0x17
 757 01e1 A6010000 		.4byte	0x1a6
 758 01e5 02       		.byte	0x2
 759 01e6 23       		.byte	0x23
 760 01e7 05       		.uleb128 0x5
 761 01e8 0F       		.uleb128 0xf
ARM GAS  C:\Users\ADMINI~1\AppData\Local\Temp\cc1Kf8hE.s 			page 19


 762 01e9 2A000000 		.4byte	.LASF31
 763 01ed 05       		.byte	0x5
 764 01ee 57       		.byte	0x57
 765 01ef 13       		.byte	0x13
 766 01f0 DA000000 		.4byte	0xda
 767 01f4 02       		.byte	0x2
 768 01f5 23       		.byte	0x23
 769 01f6 06       		.uleb128 0x6
 770 01f7 00       		.byte	0
 771 01f8 03       		.uleb128 0x3
 772 01f9 AF000000 		.4byte	.LASF32
 773 01fd 05       		.byte	0x5
 774 01fe 59       		.byte	0x59
 775 01ff 02       		.byte	0x2
 776 0200 B2010000 		.4byte	0x1b2
 777 0204 10       		.uleb128 0x10
 778 0205 01       		.byte	0x1
 779 0206 03030000 		.4byte	.LASF44
 780 020a 01       		.byte	0x1
 781 020b F9       		.byte	0xf9
 782 020c 06       		.byte	0x6
 783 020d 01       		.byte	0x1
 784 020e 1F020000 		.4byte	0x21f
 785 0212 11       		.uleb128 0x11
 786 0213 00000000 		.4byte	.LASF28
 787 0217 01       		.byte	0x1
 788 0218 F9       		.byte	0xf9
 789 0219 26       		.byte	0x26
 790 021a 77000000 		.4byte	0x77
 791 021e 00       		.byte	0
 792 021f 12       		.uleb128 0x12
 793 0220 01       		.byte	0x1
 794 0221 F2020000 		.4byte	.LASF35
 795 0225 01       		.byte	0x1
 796 0226 E0       		.byte	0xe0
 797 0227 0A       		.byte	0xa
 798 0228 01       		.byte	0x1
 799 0229 B1000000 		.4byte	0xb1
 800 022d C4000000 		.4byte	.LFB35
 801 0231 E0000000 		.4byte	.LFE35
 802 0235 02       		.byte	0x2
 803 0236 7D       		.byte	0x7d
 804 0237 00       		.sleb128 0
 805 0238 01       		.byte	0x1
 806 0239 7A020000 		.4byte	0x27a
 807 023d 13       		.uleb128 0x13
 808 023e 00000000 		.4byte	.LASF28
 809 0242 01       		.byte	0x1
 810 0243 E0       		.byte	0xe0
 811 0244 24       		.byte	0x24
 812 0245 77000000 		.4byte	0x77
 813 0249 04000000 		.4byte	.LLST4
 814 024d 00000000 		.4byte	.LVUS4
 815 0251 14       		.uleb128 0x14
 816 0252 8C000000 		.4byte	.LASF33
 817 0256 01       		.byte	0x1
 818 0257 E2       		.byte	0xe2
ARM GAS  C:\Users\ADMINI~1\AppData\Local\Temp\cc1Kf8hE.s 			page 20


 819 0258 0C       		.byte	0xc
 820 0259 B1000000 		.4byte	0xb1
 821 025d 26000000 		.4byte	.LLST5
 822 0261 22000000 		.4byte	.LVUS5
 823 0265 14       		.uleb128 0x14
 824 0266 1D000000 		.4byte	.LASF34
 825 026a 01       		.byte	0x1
 826 026b E3       		.byte	0xe3
 827 026c 0C       		.byte	0xc
 828 026d 77000000 		.4byte	0x77
 829 0271 4B000000 		.4byte	.LLST6
 830 0275 45000000 		.4byte	.LVUS6
 831 0279 00       		.byte	0
 832 027a 15       		.uleb128 0x15
 833 027b 01       		.byte	0x1
 834 027c 42010000 		.4byte	.LASF45
 835 0280 01       		.byte	0x1
 836 0281 D1       		.byte	0xd1
 837 0282 06       		.byte	0x6
 838 0283 01       		.byte	0x1
 839 0284 01       		.byte	0x1
 840 0285 96020000 		.4byte	0x296
 841 0289 11       		.uleb128 0x11
 842 028a 00000000 		.4byte	.LASF28
 843 028e 01       		.byte	0x1
 844 028f D1       		.byte	0xd1
 845 0290 1E       		.byte	0x1e
 846 0291 77000000 		.4byte	0x77
 847 0295 00       		.byte	0
 848 0296 12       		.uleb128 0x12
 849 0297 01       		.byte	0x1
 850 0298 2A020000 		.4byte	.LASF36
 851 029c 01       		.byte	0x1
 852 029d BA       		.byte	0xba
 853 029e 0C       		.byte	0xc
 854 029f 01       		.byte	0x1
 855 02a0 A4000000 		.4byte	0xa4
 856 02a4 A4000000 		.4byte	.LFB33
 857 02a8 B8000000 		.4byte	.LFE33
 858 02ac 02       		.byte	0x2
 859 02ad 7D       		.byte	0x7d
 860 02ae 00       		.sleb128 0
 861 02af 01       		.byte	0x1
 862 02b0 DD020000 		.4byte	0x2dd
 863 02b4 13       		.uleb128 0x13
 864 02b5 00000000 		.4byte	.LASF28
 865 02b9 01       		.byte	0x1
 866 02ba BA       		.byte	0xba
 867 02bb 28       		.byte	0x28
 868 02bc 77000000 		.4byte	0x77
 869 02c0 83000000 		.4byte	.LLST2
 870 02c4 7F000000 		.4byte	.LVUS2
 871 02c8 14       		.uleb128 0x14
 872 02c9 8C000000 		.4byte	.LASF33
 873 02cd 01       		.byte	0x1
 874 02ce BC       		.byte	0xbc
 875 02cf 0E       		.byte	0xe
ARM GAS  C:\Users\ADMINI~1\AppData\Local\Temp\cc1Kf8hE.s 			page 21


 876 02d0 A4000000 		.4byte	0xa4
 877 02d4 AA000000 		.4byte	.LLST3
 878 02d8 A4000000 		.4byte	.LVUS3
 879 02dc 00       		.byte	0
 880 02dd 16       		.uleb128 0x16
 881 02de 01       		.byte	0x1
 882 02df 96000000 		.4byte	.LASF37
 883 02e3 01       		.byte	0x1
 884 02e4 AB       		.byte	0xab
 885 02e5 06       		.byte	0x6
 886 02e6 01       		.byte	0x1
 887 02e7 96000000 		.4byte	.LFB32
 888 02eb A4000000 		.4byte	.LFE32
 889 02ef 02       		.byte	0x2
 890 02f0 7D       		.byte	0x7d
 891 02f1 00       		.sleb128 0
 892 02f2 01       		.byte	0x1
 893 02f3 06030000 		.4byte	0x306
 894 02f7 17       		.uleb128 0x17
 895 02f8 00000000 		.4byte	.LASF28
 896 02fc 01       		.byte	0x1
 897 02fd AB       		.byte	0xab
 898 02fe 28       		.byte	0x28
 899 02ff 77000000 		.4byte	0x77
 900 0303 01       		.byte	0x1
 901 0304 50       		.byte	0x50
 902 0305 00       		.byte	0
 903 0306 16       		.uleb128 0x16
 904 0307 01       		.byte	0x1
 905 0308 54020000 		.4byte	.LASF38
 906 030c 01       		.byte	0x1
 907 030d 9D       		.byte	0x9d
 908 030e 06       		.byte	0x6
 909 030f 01       		.byte	0x1
 910 0310 88000000 		.4byte	.LFB31
 911 0314 96000000 		.4byte	.LFE31
 912 0318 02       		.byte	0x2
 913 0319 7D       		.byte	0x7d
 914 031a 00       		.sleb128 0
 915 031b 01       		.byte	0x1
 916 031c 2F030000 		.4byte	0x32f
 917 0320 17       		.uleb128 0x17
 918 0321 C0000000 		.4byte	.LASF39
 919 0325 01       		.byte	0x1
 920 0326 9D       		.byte	0x9d
 921 0327 28       		.byte	0x28
 922 0328 2F030000 		.4byte	0x32f
 923 032c 01       		.byte	0x1
 924 032d 50       		.byte	0x50
 925 032e 00       		.byte	0
 926 032f 18       		.uleb128 0x18
 927 0330 04       		.byte	0x4
 928 0331 F8010000 		.4byte	0x1f8
 929 0335 19       		.uleb128 0x19
 930 0336 01       		.byte	0x1
 931 0337 E5010000 		.4byte	.LASF40
 932 033b 01       		.byte	0x1
ARM GAS  C:\Users\ADMINI~1\AppData\Local\Temp\cc1Kf8hE.s 			page 22


 933 033c 65       		.byte	0x65
 934 033d 06       		.byte	0x6
 935 033e 01       		.byte	0x1
 936 033f 1C000000 		.4byte	.LFB30
 937 0343 88000000 		.4byte	.LFE30
 938 0347 E3000000 		.4byte	.LLST0
 939 034b 01       		.byte	0x1
 940 034c 73030000 		.4byte	0x373
 941 0350 17       		.uleb128 0x17
 942 0351 C0000000 		.4byte	.LASF39
 943 0355 01       		.byte	0x1
 944 0356 65       		.byte	0x65
 945 0357 22       		.byte	0x22
 946 0358 2F030000 		.4byte	0x32f
 947 035c 01       		.byte	0x1
 948 035d 50       		.byte	0x50
 949 035e 1A       		.uleb128 0x1a
 950 035f 746D7000 		.ascii	"tmp\000"
 951 0363 01       		.byte	0x1
 952 0364 67       		.byte	0x67
 953 0365 0C       		.byte	0xc
 954 0366 77000000 		.4byte	0x77
 955 036a 11010000 		.4byte	.LLST1
 956 036e 03010000 		.4byte	.LVUS1
 957 0372 00       		.byte	0
 958 0373 1B       		.uleb128 0x1b
 959 0374 01       		.byte	0x1
 960 0375 58030000 		.4byte	.LASF46
 961 0379 01       		.byte	0x1
 962 037a 55       		.byte	0x55
 963 037b 06       		.byte	0x6
 964 037c 01       		.byte	0x1
 965 037d 00000000 		.4byte	.LFB29
 966 0381 1C000000 		.4byte	.LFE29
 967 0385 02       		.byte	0x2
 968 0386 7D       		.byte	0x7d
 969 0387 00       		.sleb128 0
 970 0388 01       		.byte	0x1
 971 0389 1C       		.uleb128 0x1c
 972 038a 7A020000 		.4byte	0x27a
 973 038e B8000000 		.4byte	.LFB34
 974 0392 C4000000 		.4byte	.LFE34
 975 0396 02       		.byte	0x2
 976 0397 7D       		.byte	0x7d
 977 0398 00       		.sleb128 0
 978 0399 01       		.byte	0x1
 979 039a 1D       		.uleb128 0x1d
 980 039b 89020000 		.4byte	0x289
 981 039f 01       		.byte	0x1
 982 03a0 50       		.byte	0x50
 983 03a1 00       		.byte	0
 984 03a2 00       		.byte	0
 985              		.section	.debug_abbrev,"",%progbits
 986              	.Ldebug_abbrev0:
 987 0000 01       		.uleb128 0x1
 988 0001 11       		.uleb128 0x11
 989 0002 01       		.byte	0x1
ARM GAS  C:\Users\ADMINI~1\AppData\Local\Temp\cc1Kf8hE.s 			page 23


 990 0003 25       		.uleb128 0x25
 991 0004 0E       		.uleb128 0xe
 992 0005 13       		.uleb128 0x13
 993 0006 0B       		.uleb128 0xb
 994 0007 03       		.uleb128 0x3
 995 0008 0E       		.uleb128 0xe
 996 0009 1B       		.uleb128 0x1b
 997 000a 0E       		.uleb128 0xe
 998 000b 11       		.uleb128 0x11
 999 000c 01       		.uleb128 0x1
 1000 000d 12       		.uleb128 0x12
 1001 000e 01       		.uleb128 0x1
 1002 000f 10       		.uleb128 0x10
 1003 0010 06       		.uleb128 0x6
 1004 0011 00       		.byte	0
 1005 0012 00       		.byte	0
 1006 0013 02       		.uleb128 0x2
 1007 0014 24       		.uleb128 0x24
 1008 0015 00       		.byte	0
 1009 0016 0B       		.uleb128 0xb
 1010 0017 0B       		.uleb128 0xb
 1011 0018 3E       		.uleb128 0x3e
 1012 0019 0B       		.uleb128 0xb
 1013 001a 03       		.uleb128 0x3
 1014 001b 0E       		.uleb128 0xe
 1015 001c 00       		.byte	0
 1016 001d 00       		.byte	0
 1017 001e 03       		.uleb128 0x3
 1018 001f 16       		.uleb128 0x16
 1019 0020 00       		.byte	0
 1020 0021 03       		.uleb128 0x3
 1021 0022 0E       		.uleb128 0xe
 1022 0023 3A       		.uleb128 0x3a
 1023 0024 0B       		.uleb128 0xb
 1024 0025 3B       		.uleb128 0x3b
 1025 0026 0B       		.uleb128 0xb
 1026 0027 39       		.uleb128 0x39
 1027 0028 0B       		.uleb128 0xb
 1028 0029 49       		.uleb128 0x49
 1029 002a 13       		.uleb128 0x13
 1030 002b 00       		.byte	0
 1031 002c 00       		.byte	0
 1032 002d 04       		.uleb128 0x4
 1033 002e 24       		.uleb128 0x24
 1034 002f 00       		.byte	0
 1035 0030 0B       		.uleb128 0xb
 1036 0031 0B       		.uleb128 0xb
 1037 0032 3E       		.uleb128 0x3e
 1038 0033 0B       		.uleb128 0xb
 1039 0034 03       		.uleb128 0x3
 1040 0035 08       		.uleb128 0x8
 1041 0036 00       		.byte	0
 1042 0037 00       		.byte	0
 1043 0038 05       		.uleb128 0x5
 1044 0039 35       		.uleb128 0x35
 1045 003a 00       		.byte	0
 1046 003b 49       		.uleb128 0x49
ARM GAS  C:\Users\ADMINI~1\AppData\Local\Temp\cc1Kf8hE.s 			page 24


 1047 003c 13       		.uleb128 0x13
 1048 003d 00       		.byte	0
 1049 003e 00       		.byte	0
 1050 003f 06       		.uleb128 0x6
 1051 0040 04       		.uleb128 0x4
 1052 0041 01       		.byte	0x1
 1053 0042 3E       		.uleb128 0x3e
 1054 0043 0B       		.uleb128 0xb
 1055 0044 0B       		.uleb128 0xb
 1056 0045 0B       		.uleb128 0xb
 1057 0046 49       		.uleb128 0x49
 1058 0047 13       		.uleb128 0x13
 1059 0048 3A       		.uleb128 0x3a
 1060 0049 0B       		.uleb128 0xb
 1061 004a 3B       		.uleb128 0x3b
 1062 004b 05       		.uleb128 0x5
 1063 004c 39       		.uleb128 0x39
 1064 004d 0B       		.uleb128 0xb
 1065 004e 01       		.uleb128 0x1
 1066 004f 13       		.uleb128 0x13
 1067 0050 00       		.byte	0
 1068 0051 00       		.byte	0
 1069 0052 07       		.uleb128 0x7
 1070 0053 28       		.uleb128 0x28
 1071 0054 00       		.byte	0
 1072 0055 03       		.uleb128 0x3
 1073 0056 0E       		.uleb128 0xe
 1074 0057 1C       		.uleb128 0x1c
 1075 0058 0B       		.uleb128 0xb
 1076 0059 00       		.byte	0
 1077 005a 00       		.byte	0
 1078 005b 08       		.uleb128 0x8
 1079 005c 28       		.uleb128 0x28
 1080 005d 00       		.byte	0
 1081 005e 03       		.uleb128 0x3
 1082 005f 08       		.uleb128 0x8
 1083 0060 1C       		.uleb128 0x1c
 1084 0061 0B       		.uleb128 0xb
 1085 0062 00       		.byte	0
 1086 0063 00       		.byte	0
 1087 0064 09       		.uleb128 0x9
 1088 0065 16       		.uleb128 0x16
 1089 0066 00       		.byte	0
 1090 0067 03       		.uleb128 0x3
 1091 0068 0E       		.uleb128 0xe
 1092 0069 3A       		.uleb128 0x3a
 1093 006a 0B       		.uleb128 0xb
 1094 006b 3B       		.uleb128 0x3b
 1095 006c 05       		.uleb128 0x5
 1096 006d 39       		.uleb128 0x39
 1097 006e 0B       		.uleb128 0xb
 1098 006f 49       		.uleb128 0x49
 1099 0070 13       		.uleb128 0x13
 1100 0071 00       		.byte	0
 1101 0072 00       		.byte	0
 1102 0073 0A       		.uleb128 0xa
 1103 0074 13       		.uleb128 0x13
ARM GAS  C:\Users\ADMINI~1\AppData\Local\Temp\cc1Kf8hE.s 			page 25


 1104 0075 01       		.byte	0x1
 1105 0076 0B       		.uleb128 0xb
 1106 0077 0B       		.uleb128 0xb
 1107 0078 3A       		.uleb128 0x3a
 1108 0079 0B       		.uleb128 0xb
 1109 007a 3B       		.uleb128 0x3b
 1110 007b 05       		.uleb128 0x5
 1111 007c 39       		.uleb128 0x39
 1112 007d 0B       		.uleb128 0xb
 1113 007e 01       		.uleb128 0x1
 1114 007f 13       		.uleb128 0x13
 1115 0080 00       		.byte	0
 1116 0081 00       		.byte	0
 1117 0082 0B       		.uleb128 0xb
 1118 0083 0D       		.uleb128 0xd
 1119 0084 00       		.byte	0
 1120 0085 03       		.uleb128 0x3
 1121 0086 08       		.uleb128 0x8
 1122 0087 3A       		.uleb128 0x3a
 1123 0088 0B       		.uleb128 0xb
 1124 0089 3B       		.uleb128 0x3b
 1125 008a 05       		.uleb128 0x5
 1126 008b 39       		.uleb128 0x39
 1127 008c 0B       		.uleb128 0xb
 1128 008d 49       		.uleb128 0x49
 1129 008e 13       		.uleb128 0x13
 1130 008f 38       		.uleb128 0x38
 1131 0090 0A       		.uleb128 0xa
 1132 0091 00       		.byte	0
 1133 0092 00       		.byte	0
 1134 0093 0C       		.uleb128 0xc
 1135 0094 0D       		.uleb128 0xd
 1136 0095 00       		.byte	0
 1137 0096 03       		.uleb128 0x3
 1138 0097 0E       		.uleb128 0xe
 1139 0098 3A       		.uleb128 0x3a
 1140 0099 0B       		.uleb128 0xb
 1141 009a 3B       		.uleb128 0x3b
 1142 009b 05       		.uleb128 0x5
 1143 009c 39       		.uleb128 0x39
 1144 009d 0B       		.uleb128 0xb
 1145 009e 49       		.uleb128 0x49
 1146 009f 13       		.uleb128 0x13
 1147 00a0 38       		.uleb128 0x38
 1148 00a1 0A       		.uleb128 0xa
 1149 00a2 00       		.byte	0
 1150 00a3 00       		.byte	0
 1151 00a4 0D       		.uleb128 0xd
 1152 00a5 04       		.uleb128 0x4
 1153 00a6 01       		.byte	0x1
 1154 00a7 3E       		.uleb128 0x3e
 1155 00a8 0B       		.uleb128 0xb
 1156 00a9 0B       		.uleb128 0xb
 1157 00aa 0B       		.uleb128 0xb
 1158 00ab 49       		.uleb128 0x49
 1159 00ac 13       		.uleb128 0x13
 1160 00ad 3A       		.uleb128 0x3a
ARM GAS  C:\Users\ADMINI~1\AppData\Local\Temp\cc1Kf8hE.s 			page 26


 1161 00ae 0B       		.uleb128 0xb
 1162 00af 3B       		.uleb128 0x3b
 1163 00b0 0B       		.uleb128 0xb
 1164 00b1 39       		.uleb128 0x39
 1165 00b2 0B       		.uleb128 0xb
 1166 00b3 01       		.uleb128 0x1
 1167 00b4 13       		.uleb128 0x13
 1168 00b5 00       		.byte	0
 1169 00b6 00       		.byte	0
 1170 00b7 0E       		.uleb128 0xe
 1171 00b8 13       		.uleb128 0x13
 1172 00b9 01       		.byte	0x1
 1173 00ba 0B       		.uleb128 0xb
 1174 00bb 0B       		.uleb128 0xb
 1175 00bc 3A       		.uleb128 0x3a
 1176 00bd 0B       		.uleb128 0xb
 1177 00be 3B       		.uleb128 0x3b
 1178 00bf 0B       		.uleb128 0xb
 1179 00c0 39       		.uleb128 0x39
 1180 00c1 0B       		.uleb128 0xb
 1181 00c2 01       		.uleb128 0x1
 1182 00c3 13       		.uleb128 0x13
 1183 00c4 00       		.byte	0
 1184 00c5 00       		.byte	0
 1185 00c6 0F       		.uleb128 0xf
 1186 00c7 0D       		.uleb128 0xd
 1187 00c8 00       		.byte	0
 1188 00c9 03       		.uleb128 0x3
 1189 00ca 0E       		.uleb128 0xe
 1190 00cb 3A       		.uleb128 0x3a
 1191 00cc 0B       		.uleb128 0xb
 1192 00cd 3B       		.uleb128 0x3b
 1193 00ce 0B       		.uleb128 0xb
 1194 00cf 39       		.uleb128 0x39
 1195 00d0 0B       		.uleb128 0xb
 1196 00d1 49       		.uleb128 0x49
 1197 00d2 13       		.uleb128 0x13
 1198 00d3 38       		.uleb128 0x38
 1199 00d4 0A       		.uleb128 0xa
 1200 00d5 00       		.byte	0
 1201 00d6 00       		.byte	0
 1202 00d7 10       		.uleb128 0x10
 1203 00d8 2E       		.uleb128 0x2e
 1204 00d9 01       		.byte	0x1
 1205 00da 3F       		.uleb128 0x3f
 1206 00db 0C       		.uleb128 0xc
 1207 00dc 03       		.uleb128 0x3
 1208 00dd 0E       		.uleb128 0xe
 1209 00de 3A       		.uleb128 0x3a
 1210 00df 0B       		.uleb128 0xb
 1211 00e0 3B       		.uleb128 0x3b
 1212 00e1 0B       		.uleb128 0xb
 1213 00e2 39       		.uleb128 0x39
 1214 00e3 0B       		.uleb128 0xb
 1215 00e4 27       		.uleb128 0x27
 1216 00e5 0C       		.uleb128 0xc
 1217 00e6 01       		.uleb128 0x1
ARM GAS  C:\Users\ADMINI~1\AppData\Local\Temp\cc1Kf8hE.s 			page 27


 1218 00e7 13       		.uleb128 0x13
 1219 00e8 00       		.byte	0
 1220 00e9 00       		.byte	0
 1221 00ea 11       		.uleb128 0x11
 1222 00eb 05       		.uleb128 0x5
 1223 00ec 00       		.byte	0
 1224 00ed 03       		.uleb128 0x3
 1225 00ee 0E       		.uleb128 0xe
 1226 00ef 3A       		.uleb128 0x3a
 1227 00f0 0B       		.uleb128 0xb
 1228 00f1 3B       		.uleb128 0x3b
 1229 00f2 0B       		.uleb128 0xb
 1230 00f3 39       		.uleb128 0x39
 1231 00f4 0B       		.uleb128 0xb
 1232 00f5 49       		.uleb128 0x49
 1233 00f6 13       		.uleb128 0x13
 1234 00f7 00       		.byte	0
 1235 00f8 00       		.byte	0
 1236 00f9 12       		.uleb128 0x12
 1237 00fa 2E       		.uleb128 0x2e
 1238 00fb 01       		.byte	0x1
 1239 00fc 3F       		.uleb128 0x3f
 1240 00fd 0C       		.uleb128 0xc
 1241 00fe 03       		.uleb128 0x3
 1242 00ff 0E       		.uleb128 0xe
 1243 0100 3A       		.uleb128 0x3a
 1244 0101 0B       		.uleb128 0xb
 1245 0102 3B       		.uleb128 0x3b
 1246 0103 0B       		.uleb128 0xb
 1247 0104 39       		.uleb128 0x39
 1248 0105 0B       		.uleb128 0xb
 1249 0106 27       		.uleb128 0x27
 1250 0107 0C       		.uleb128 0xc
 1251 0108 49       		.uleb128 0x49
 1252 0109 13       		.uleb128 0x13
 1253 010a 11       		.uleb128 0x11
 1254 010b 01       		.uleb128 0x1
 1255 010c 12       		.uleb128 0x12
 1256 010d 01       		.uleb128 0x1
 1257 010e 40       		.uleb128 0x40
 1258 010f 0A       		.uleb128 0xa
 1259 0110 9742     		.uleb128 0x2117
 1260 0112 0C       		.uleb128 0xc
 1261 0113 01       		.uleb128 0x1
 1262 0114 13       		.uleb128 0x13
 1263 0115 00       		.byte	0
 1264 0116 00       		.byte	0
 1265 0117 13       		.uleb128 0x13
 1266 0118 05       		.uleb128 0x5
 1267 0119 00       		.byte	0
 1268 011a 03       		.uleb128 0x3
 1269 011b 0E       		.uleb128 0xe
 1270 011c 3A       		.uleb128 0x3a
 1271 011d 0B       		.uleb128 0xb
 1272 011e 3B       		.uleb128 0x3b
 1273 011f 0B       		.uleb128 0xb
 1274 0120 39       		.uleb128 0x39
ARM GAS  C:\Users\ADMINI~1\AppData\Local\Temp\cc1Kf8hE.s 			page 28


 1275 0121 0B       		.uleb128 0xb
 1276 0122 49       		.uleb128 0x49
 1277 0123 13       		.uleb128 0x13
 1278 0124 02       		.uleb128 0x2
 1279 0125 06       		.uleb128 0x6
 1280 0126 B742     		.uleb128 0x2137
 1281 0128 06       		.uleb128 0x6
 1282 0129 00       		.byte	0
 1283 012a 00       		.byte	0
 1284 012b 14       		.uleb128 0x14
 1285 012c 34       		.uleb128 0x34
 1286 012d 00       		.byte	0
 1287 012e 03       		.uleb128 0x3
 1288 012f 0E       		.uleb128 0xe
 1289 0130 3A       		.uleb128 0x3a
 1290 0131 0B       		.uleb128 0xb
 1291 0132 3B       		.uleb128 0x3b
 1292 0133 0B       		.uleb128 0xb
 1293 0134 39       		.uleb128 0x39
 1294 0135 0B       		.uleb128 0xb
 1295 0136 49       		.uleb128 0x49
 1296 0137 13       		.uleb128 0x13
 1297 0138 02       		.uleb128 0x2
 1298 0139 06       		.uleb128 0x6
 1299 013a B742     		.uleb128 0x2137
 1300 013c 06       		.uleb128 0x6
 1301 013d 00       		.byte	0
 1302 013e 00       		.byte	0
 1303 013f 15       		.uleb128 0x15
 1304 0140 2E       		.uleb128 0x2e
 1305 0141 01       		.byte	0x1
 1306 0142 3F       		.uleb128 0x3f
 1307 0143 0C       		.uleb128 0xc
 1308 0144 03       		.uleb128 0x3
 1309 0145 0E       		.uleb128 0xe
 1310 0146 3A       		.uleb128 0x3a
 1311 0147 0B       		.uleb128 0xb
 1312 0148 3B       		.uleb128 0x3b
 1313 0149 0B       		.uleb128 0xb
 1314 014a 39       		.uleb128 0x39
 1315 014b 0B       		.uleb128 0xb
 1316 014c 27       		.uleb128 0x27
 1317 014d 0C       		.uleb128 0xc
 1318 014e 20       		.uleb128 0x20
 1319 014f 0B       		.uleb128 0xb
 1320 0150 01       		.uleb128 0x1
 1321 0151 13       		.uleb128 0x13
 1322 0152 00       		.byte	0
 1323 0153 00       		.byte	0
 1324 0154 16       		.uleb128 0x16
 1325 0155 2E       		.uleb128 0x2e
 1326 0156 01       		.byte	0x1
 1327 0157 3F       		.uleb128 0x3f
 1328 0158 0C       		.uleb128 0xc
 1329 0159 03       		.uleb128 0x3
 1330 015a 0E       		.uleb128 0xe
 1331 015b 3A       		.uleb128 0x3a
ARM GAS  C:\Users\ADMINI~1\AppData\Local\Temp\cc1Kf8hE.s 			page 29


 1332 015c 0B       		.uleb128 0xb
 1333 015d 3B       		.uleb128 0x3b
 1334 015e 0B       		.uleb128 0xb
 1335 015f 39       		.uleb128 0x39
 1336 0160 0B       		.uleb128 0xb
 1337 0161 27       		.uleb128 0x27
 1338 0162 0C       		.uleb128 0xc
 1339 0163 11       		.uleb128 0x11
 1340 0164 01       		.uleb128 0x1
 1341 0165 12       		.uleb128 0x12
 1342 0166 01       		.uleb128 0x1
 1343 0167 40       		.uleb128 0x40
 1344 0168 0A       		.uleb128 0xa
 1345 0169 9742     		.uleb128 0x2117
 1346 016b 0C       		.uleb128 0xc
 1347 016c 01       		.uleb128 0x1
 1348 016d 13       		.uleb128 0x13
 1349 016e 00       		.byte	0
 1350 016f 00       		.byte	0
 1351 0170 17       		.uleb128 0x17
 1352 0171 05       		.uleb128 0x5
 1353 0172 00       		.byte	0
 1354 0173 03       		.uleb128 0x3
 1355 0174 0E       		.uleb128 0xe
 1356 0175 3A       		.uleb128 0x3a
 1357 0176 0B       		.uleb128 0xb
 1358 0177 3B       		.uleb128 0x3b
 1359 0178 0B       		.uleb128 0xb
 1360 0179 39       		.uleb128 0x39
 1361 017a 0B       		.uleb128 0xb
 1362 017b 49       		.uleb128 0x49
 1363 017c 13       		.uleb128 0x13
 1364 017d 02       		.uleb128 0x2
 1365 017e 0A       		.uleb128 0xa
 1366 017f 00       		.byte	0
 1367 0180 00       		.byte	0
 1368 0181 18       		.uleb128 0x18
 1369 0182 0F       		.uleb128 0xf
 1370 0183 00       		.byte	0
 1371 0184 0B       		.uleb128 0xb
 1372 0185 0B       		.uleb128 0xb
 1373 0186 49       		.uleb128 0x49
 1374 0187 13       		.uleb128 0x13
 1375 0188 00       		.byte	0
 1376 0189 00       		.byte	0
 1377 018a 19       		.uleb128 0x19
 1378 018b 2E       		.uleb128 0x2e
 1379 018c 01       		.byte	0x1
 1380 018d 3F       		.uleb128 0x3f
 1381 018e 0C       		.uleb128 0xc
 1382 018f 03       		.uleb128 0x3
 1383 0190 0E       		.uleb128 0xe
 1384 0191 3A       		.uleb128 0x3a
 1385 0192 0B       		.uleb128 0xb
 1386 0193 3B       		.uleb128 0x3b
 1387 0194 0B       		.uleb128 0xb
 1388 0195 39       		.uleb128 0x39
ARM GAS  C:\Users\ADMINI~1\AppData\Local\Temp\cc1Kf8hE.s 			page 30


 1389 0196 0B       		.uleb128 0xb
 1390 0197 27       		.uleb128 0x27
 1391 0198 0C       		.uleb128 0xc
 1392 0199 11       		.uleb128 0x11
 1393 019a 01       		.uleb128 0x1
 1394 019b 12       		.uleb128 0x12
 1395 019c 01       		.uleb128 0x1
 1396 019d 40       		.uleb128 0x40
 1397 019e 06       		.uleb128 0x6
 1398 019f 9742     		.uleb128 0x2117
 1399 01a1 0C       		.uleb128 0xc
 1400 01a2 01       		.uleb128 0x1
 1401 01a3 13       		.uleb128 0x13
 1402 01a4 00       		.byte	0
 1403 01a5 00       		.byte	0
 1404 01a6 1A       		.uleb128 0x1a
 1405 01a7 34       		.uleb128 0x34
 1406 01a8 00       		.byte	0
 1407 01a9 03       		.uleb128 0x3
 1408 01aa 08       		.uleb128 0x8
 1409 01ab 3A       		.uleb128 0x3a
 1410 01ac 0B       		.uleb128 0xb
 1411 01ad 3B       		.uleb128 0x3b
 1412 01ae 0B       		.uleb128 0xb
 1413 01af 39       		.uleb128 0x39
 1414 01b0 0B       		.uleb128 0xb
 1415 01b1 49       		.uleb128 0x49
 1416 01b2 13       		.uleb128 0x13
 1417 01b3 02       		.uleb128 0x2
 1418 01b4 06       		.uleb128 0x6
 1419 01b5 B742     		.uleb128 0x2137
 1420 01b7 06       		.uleb128 0x6
 1421 01b8 00       		.byte	0
 1422 01b9 00       		.byte	0
 1423 01ba 1B       		.uleb128 0x1b
 1424 01bb 2E       		.uleb128 0x2e
 1425 01bc 00       		.byte	0
 1426 01bd 3F       		.uleb128 0x3f
 1427 01be 0C       		.uleb128 0xc
 1428 01bf 03       		.uleb128 0x3
 1429 01c0 0E       		.uleb128 0xe
 1430 01c1 3A       		.uleb128 0x3a
 1431 01c2 0B       		.uleb128 0xb
 1432 01c3 3B       		.uleb128 0x3b
 1433 01c4 0B       		.uleb128 0xb
 1434 01c5 39       		.uleb128 0x39
 1435 01c6 0B       		.uleb128 0xb
 1436 01c7 27       		.uleb128 0x27
 1437 01c8 0C       		.uleb128 0xc
 1438 01c9 11       		.uleb128 0x11
 1439 01ca 01       		.uleb128 0x1
 1440 01cb 12       		.uleb128 0x12
 1441 01cc 01       		.uleb128 0x1
 1442 01cd 40       		.uleb128 0x40
 1443 01ce 0A       		.uleb128 0xa
 1444 01cf 9742     		.uleb128 0x2117
 1445 01d1 0C       		.uleb128 0xc
ARM GAS  C:\Users\ADMINI~1\AppData\Local\Temp\cc1Kf8hE.s 			page 31


 1446 01d2 00       		.byte	0
 1447 01d3 00       		.byte	0
 1448 01d4 1C       		.uleb128 0x1c
 1449 01d5 2E       		.uleb128 0x2e
 1450 01d6 01       		.byte	0x1
 1451 01d7 31       		.uleb128 0x31
 1452 01d8 13       		.uleb128 0x13
 1453 01d9 11       		.uleb128 0x11
 1454 01da 01       		.uleb128 0x1
 1455 01db 12       		.uleb128 0x12
 1456 01dc 01       		.uleb128 0x1
 1457 01dd 40       		.uleb128 0x40
 1458 01de 0A       		.uleb128 0xa
 1459 01df 9742     		.uleb128 0x2117
 1460 01e1 0C       		.uleb128 0xc
 1461 01e2 00       		.byte	0
 1462 01e3 00       		.byte	0
 1463 01e4 1D       		.uleb128 0x1d
 1464 01e5 05       		.uleb128 0x5
 1465 01e6 00       		.byte	0
 1466 01e7 31       		.uleb128 0x31
 1467 01e8 13       		.uleb128 0x13
 1468 01e9 02       		.uleb128 0x2
 1469 01ea 0A       		.uleb128 0xa
 1470 01eb 00       		.byte	0
 1471 01ec 00       		.byte	0
 1472 01ed 00       		.byte	0
 1473              		.section	.debug_loc,"",%progbits
 1474              	.Ldebug_loc0:
 1475              	.LVUS4:
 1476 0000 00       		.uleb128 0
 1477 0001 00       		.uleb128 .LVU98
 1478 0002 00       		.uleb128 .LVU98
 1479 0003 00       		.uleb128 0
 1480              	.LLST4:
 1481 0004 C4000000 		.4byte	.LVL13-.Ltext0
 1482 0008 CC000000 		.4byte	.LVL15-.Ltext0
 1483 000c 0100     		.2byte	0x1
 1484 000e 50       		.byte	0x50
 1485 000f CC000000 		.4byte	.LVL15-.Ltext0
 1486 0013 E0000000 		.4byte	.LFE35-.Ltext0
 1487 0017 0100     		.2byte	0x1
 1488 0019 52       		.byte	0x52
 1489 001a 00000000 		.4byte	0
 1490 001e 00000000 		.4byte	0
 1491              	.LVUS5:
 1492 0022 02       		.uleb128 .LVU91
 1493 0023 00       		.uleb128 .LVU101
 1494 0024 00       		.uleb128 .LVU101
 1495 0025 00       		.uleb128 0
 1496              	.LLST5:
 1497 0026 C4000000 		.4byte	.LVL13-.Ltext0
 1498 002a D8000000 		.4byte	.LVL16-.Ltext0
 1499 002e 0200     		.2byte	0x2
 1500 0030 30       		.byte	0x30
 1501 0031 9F       		.byte	0x9f
 1502 0032 D8000000 		.4byte	.LVL16-.Ltext0
ARM GAS  C:\Users\ADMINI~1\AppData\Local\Temp\cc1Kf8hE.s 			page 32


 1503 0036 E0000000 		.4byte	.LFE35-.Ltext0
 1504 003a 0100     		.2byte	0x1
 1505 003c 50       		.byte	0x50
 1506 003d 00000000 		.4byte	0
 1507 0041 00000000 		.4byte	0
 1508              	.LVUS6:
 1509 0045 03       		.uleb128 .LVU92
 1510 0046 00       		.uleb128 .LVU96
 1511 0047 00       		.uleb128 .LVU96
 1512 0048 00       		.uleb128 .LVU98
 1513 0049 00       		.uleb128 .LVU98
 1514 004a 00       		.uleb128 0
 1515              	.LLST6:
 1516 004b C4000000 		.4byte	.LVL13-.Ltext0
 1517 004f CA000000 		.4byte	.LVL14-.Ltext0
 1518 0053 0200     		.2byte	0x2
 1519 0055 30       		.byte	0x30
 1520 0056 9F       		.byte	0x9f
 1521 0057 CA000000 		.4byte	.LVL14-.Ltext0
 1522 005b CC000000 		.4byte	.LVL15-.Ltext0
 1523 005f 0600     		.2byte	0x6
 1524 0061 71       		.byte	0x71
 1525 0062 00       		.sleb128 0
 1526 0063 70       		.byte	0x70
 1527 0064 00       		.sleb128 0
 1528 0065 1A       		.byte	0x1a
 1529 0066 9F       		.byte	0x9f
 1530 0067 CC000000 		.4byte	.LVL15-.Ltext0
 1531 006b E0000000 		.4byte	.LFE35-.Ltext0
 1532 006f 0600     		.2byte	0x6
 1533 0071 71       		.byte	0x71
 1534 0072 00       		.sleb128 0
 1535 0073 72       		.byte	0x72
 1536 0074 00       		.sleb128 0
 1537 0075 1A       		.byte	0x1a
 1538 0076 9F       		.byte	0x9f
 1539 0077 00000000 		.4byte	0
 1540 007b 00000000 		.4byte	0
 1541              	.LVUS2:
 1542 007f 00       		.uleb128 0
 1543 0080 00       		.uleb128 .LVU83
 1544 0081 00       		.uleb128 .LVU83
 1545 0082 00       		.uleb128 0
 1546              	.LLST2:
 1547 0083 A4000000 		.4byte	.LVL9-.Ltext0
 1548 0087 AE000000 		.4byte	.LVL11-.Ltext0
 1549 008b 0100     		.2byte	0x1
 1550 008d 50       		.byte	0x50
 1551 008e AE000000 		.4byte	.LVL11-.Ltext0
 1552 0092 B8000000 		.4byte	.LFE33-.Ltext0
 1553 0096 0400     		.2byte	0x4
 1554 0098 F3       		.byte	0xf3
 1555 0099 01       		.uleb128 0x1
 1556 009a 50       		.byte	0x50
 1557 009b 9F       		.byte	0x9f
 1558 009c 00000000 		.4byte	0
 1559 00a0 00000000 		.4byte	0
ARM GAS  C:\Users\ADMINI~1\AppData\Local\Temp\cc1Kf8hE.s 			page 33


 1560              	.LVUS3:
 1561 00a4 02       		.uleb128 .LVU77
 1562 00a5 00       		.uleb128 .LVU80
 1563 00a6 00       		.uleb128 .LVU80
 1564 00a7 00       		.uleb128 .LVU83
 1565 00a8 00       		.uleb128 .LVU83
 1566 00a9 00       		.uleb128 0
 1567              	.LLST3:
 1568 00aa A4000000 		.4byte	.LVL9-.Ltext0
 1569 00ae A8000000 		.4byte	.LVL10-.Ltext0
 1570 00b2 0200     		.2byte	0x2
 1571 00b4 30       		.byte	0x30
 1572 00b5 9F       		.byte	0x9f
 1573 00b6 A8000000 		.4byte	.LVL10-.Ltext0
 1574 00ba AE000000 		.4byte	.LVL11-.Ltext0
 1575 00be 0800     		.2byte	0x8
 1576 00c0 73       		.byte	0x73
 1577 00c1 00       		.sleb128 0
 1578 00c2 70       		.byte	0x70
 1579 00c3 00       		.sleb128 0
 1580 00c4 1A       		.byte	0x1a
 1581 00c5 30       		.byte	0x30
 1582 00c6 2E       		.byte	0x2e
 1583 00c7 9F       		.byte	0x9f
 1584 00c8 AE000000 		.4byte	.LVL11-.Ltext0
 1585 00cc B8000000 		.4byte	.LFE33-.Ltext0
 1586 00d0 0900     		.2byte	0x9
 1587 00d2 73       		.byte	0x73
 1588 00d3 00       		.sleb128 0
 1589 00d4 F3       		.byte	0xf3
 1590 00d5 01       		.uleb128 0x1
 1591 00d6 50       		.byte	0x50
 1592 00d7 1A       		.byte	0x1a
 1593 00d8 30       		.byte	0x30
 1594 00d9 2E       		.byte	0x2e
 1595 00da 9F       		.byte	0x9f
 1596 00db 00000000 		.4byte	0
 1597 00df 00000000 		.4byte	0
 1598              	.LLST0:
 1599 00e3 1C000000 		.4byte	.LFB30-.Ltext0
 1600 00e7 20000000 		.4byte	.LCFI0-.Ltext0
 1601 00eb 0200     		.2byte	0x2
 1602 00ed 7D       		.byte	0x7d
 1603 00ee 00       		.sleb128 0
 1604 00ef 20000000 		.4byte	.LCFI0-.Ltext0
 1605 00f3 88000000 		.4byte	.LFE30-.Ltext0
 1606 00f7 0200     		.2byte	0x2
 1607 00f9 7D       		.byte	0x7d
 1608 00fa 0C       		.sleb128 12
 1609 00fb 00000000 		.4byte	0
 1610 00ff 00000000 		.4byte	0
 1611              	.LVUS1:
 1612 0103 02       		.uleb128 .LVU14
 1613 0104 07       		.uleb128 .LVU19
 1614 0105 07       		.uleb128 .LVU19
 1615 0106 01       		.uleb128 .LVU33
 1616 0107 01       		.uleb128 .LVU33
ARM GAS  C:\Users\ADMINI~1\AppData\Local\Temp\cc1Kf8hE.s 			page 34


 1617 0108 00       		.uleb128 .LVU35
 1618 0109 01       		.uleb128 .LVU50
 1619 010a 02       		.uleb128 .LVU51
 1620 010b 02       		.uleb128 .LVU51
 1621 010c 00       		.uleb128 .LVU54
 1622 010d 00       		.uleb128 .LVU55
 1623 010e 01       		.uleb128 .LVU56
 1624 010f 01       		.uleb128 .LVU56
 1625 0110 00       		.uleb128 .LVU58
 1626              	.LLST1:
 1627 0111 1C000000 		.4byte	.LVL0-.Ltext0
 1628 0115 1C000000 		.4byte	.LVL0-.Ltext0
 1629 0119 0200     		.2byte	0x2
 1630 011b 30       		.byte	0x30
 1631 011c 9F       		.byte	0x9f
 1632 011d 1C000000 		.4byte	.LVL0-.Ltext0
 1633 0121 3E000000 		.4byte	.LVL1-.Ltext0
 1634 0125 0600     		.2byte	0x6
 1635 0127 0C       		.byte	0xc
 1636 0128 00040140 		.4byte	0x40010400
 1637 012c 9F       		.byte	0x9f
 1638 012d 3E000000 		.4byte	.LVL1-.Ltext0
 1639 0131 44000000 		.4byte	.LVL2-.Ltext0
 1640 0135 0E00     		.2byte	0xe
 1641 0137 70       		.byte	0x70
 1642 0138 04       		.sleb128 4
 1643 0139 94       		.byte	0x94
 1644 013a 01       		.byte	0x1
 1645 013b 08       		.byte	0x8
 1646 013c FF       		.byte	0xff
 1647 013d 1A       		.byte	0x1a
 1648 013e 23       		.byte	0x23
 1649 013f 80888480 		.uleb128 0x40010400
 1649      04
 1650 0144 9F       		.byte	0x9f
 1651 0145 6A000000 		.4byte	.LVL3-.Ltext0
 1652 0149 6A000000 		.4byte	.LVL3-.Ltext0
 1653 014d 0600     		.2byte	0x6
 1654 014f 0C       		.byte	0xc
 1655 0150 00040140 		.4byte	0x40010400
 1656 0154 9F       		.byte	0x9f
 1657 0155 6A000000 		.4byte	.LVL3-.Ltext0
 1658 0159 74000000 		.4byte	.LVL4-.Ltext0
 1659 015d 0C00     		.2byte	0xc
 1660 015f 71       		.byte	0x71
 1661 0160 00       		.sleb128 0
 1662 0161 08       		.byte	0x8
 1663 0162 FF       		.byte	0xff
 1664 0163 1A       		.byte	0x1a
 1665 0164 23       		.byte	0x23
 1666 0165 80888480 		.uleb128 0x40010400
 1666      04
 1667 016a 9F       		.byte	0x9f
 1668 016b 7A000000 		.4byte	.LVL5-.Ltext0
 1669 016f 7A000000 		.4byte	.LVL5-.Ltext0
 1670 0173 0600     		.2byte	0x6
 1671 0175 0C       		.byte	0xc
ARM GAS  C:\Users\ADMINI~1\AppData\Local\Temp\cc1Kf8hE.s 			page 35


 1672 0176 00040140 		.4byte	0x40010400
 1673 017a 9F       		.byte	0x9f
 1674 017b 7A000000 		.4byte	.LVL5-.Ltext0
 1675 017f 80000000 		.4byte	.LVL6-.Ltext0
 1676 0183 0E00     		.2byte	0xe
 1677 0185 70       		.byte	0x70
 1678 0186 04       		.sleb128 4
 1679 0187 94       		.byte	0x94
 1680 0188 01       		.byte	0x1
 1681 0189 08       		.byte	0x8
 1682 018a FF       		.byte	0xff
 1683 018b 1A       		.byte	0x1a
 1684 018c 23       		.byte	0x23
 1685 018d 80888480 		.uleb128 0x40010400
 1685      04
 1686 0192 9F       		.byte	0x9f
 1687 0193 00000000 		.4byte	0
 1688 0197 00000000 		.4byte	0
 1689              		.section	.debug_aranges,"",%progbits
 1690 0000 1C000000 		.4byte	0x1c
 1691 0004 0200     		.2byte	0x2
 1692 0006 00000000 		.4byte	.Ldebug_info0
 1693 000a 04       		.byte	0x4
 1694 000b 00       		.byte	0
 1695 000c 0000     		.2byte	0
 1696 000e 0000     		.2byte	0
 1697 0010 00000000 		.4byte	.Ltext0
 1698 0014 EC000000 		.4byte	.Letext0-.Ltext0
 1699 0018 00000000 		.4byte	0
 1700 001c 00000000 		.4byte	0
 1701              		.section	.debug_line,"",%progbits
 1702              	.Ldebug_line0:
 1703 0000 37030000 		.section	.debug_str,"MS",%progbits,1
 1703      0300AE01 
 1703      00000201 
 1703      FB0E0D00 
 1703      01010101 
 1704              	.LASF28:
 1705 0000 45585449 		.ascii	"EXTI_Line\000"
 1705      5F4C696E 
 1705      6500
 1706              	.LASF29:
 1707 000a 45585449 		.ascii	"EXTI_Mode\000"
 1707      5F4D6F64 
 1707      6500
 1708              	.LASF13:
 1709 0014 49545374 		.ascii	"ITStatus\000"
 1709      61747573 
 1709      00
 1710              	.LASF34:
 1711 001d 656E6162 		.ascii	"enablestatus\000"
 1711      6C657374 
 1711      61747573 
 1711      00
 1712              	.LASF31:
 1713 002a 45585449 		.ascii	"EXTI_LineCmd\000"
 1713      5F4C696E 
ARM GAS  C:\Users\ADMINI~1\AppData\Local\Temp\cc1Kf8hE.s 			page 36


 1713      65436D64 
 1713      00
 1714              	.LASF30:
 1715 0037 45585449 		.ascii	"EXTI_Trigger\000"
 1715      5F547269 
 1715      67676572 
 1715      00
 1716              	.LASF25:
 1717 0044 45585449 		.ascii	"EXTI_Trigger_Falling\000"
 1717      5F547269 
 1717      67676572 
 1717      5F46616C 
 1717      6C696E67 
 1718              	.LASF22:
 1719 0059 45585449 		.ascii	"EXTI_Mode_Event\000"
 1719      5F4D6F64 
 1719      655F4576 
 1719      656E7400 
 1720              	.LASF3:
 1721 0069 73686F72 		.ascii	"short unsigned int\000"
 1721      7420756E 
 1721      7369676E 
 1721      65642069 
 1721      6E7400
 1722              	.LASF16:
 1723 007c 46756E63 		.ascii	"FunctionalState\000"
 1723      74696F6E 
 1723      616C5374 
 1723      61746500 
 1724              	.LASF33:
 1725 008c 62697473 		.ascii	"bitstatus\000"
 1725      74617475 
 1725      7300
 1726              	.LASF37:
 1727 0096 45585449 		.ascii	"EXTI_GenerateSWInterrupt\000"
 1727      5F47656E 
 1727      65726174 
 1727      65535749 
 1727      6E746572 
 1728              	.LASF32:
 1729 00af 45585449 		.ascii	"EXTI_InitTypeDef\000"
 1729      5F496E69 
 1729      74547970 
 1729      65446566 
 1729      00
 1730              	.LASF39:
 1731 00c0 45585449 		.ascii	"EXTI_InitStruct\000"
 1731      5F496E69 
 1731      74537472 
 1731      75637400 
 1732              	.LASF15:
 1733 00d0 454E4142 		.ascii	"ENABLE\000"
 1733      4C4500
 1734              	.LASF21:
 1735 00d7 45585449 		.ascii	"EXTI_Mode_Interrupt\000"
 1735      5F4D6F64 
 1735      655F496E 
ARM GAS  C:\Users\ADMINI~1\AppData\Local\Temp\cc1Kf8hE.s 			page 37


 1735      74657272 
 1735      75707400 
 1736              	.LASF1:
 1737 00eb 756E7369 		.ascii	"unsigned char\000"
 1737      676E6564 
 1737      20636861 
 1737      7200
 1738              	.LASF42:
 1739 00f9 73746D33 		.ascii	"stm32f10x_lib/STM32F10x_StdPeriph_Driver/src/stm32f"
 1739      32663130 
 1739      785F6C69 
 1739      622F5354 
 1739      4D333246 
 1740 012c 3130785F 		.ascii	"10x_exti.c\000"
 1740      65787469 
 1740      2E6300
 1741              	.LASF12:
 1742 0137 466C6167 		.ascii	"FlagStatus\000"
 1742      53746174 
 1742      757300
 1743              	.LASF45:
 1744 0142 45585449 		.ascii	"EXTI_ClearFlag\000"
 1744      5F436C65 
 1744      6172466C 
 1744      616700
 1745              	.LASF5:
 1746 0151 6C6F6E67 		.ascii	"long unsigned int\000"
 1746      20756E73 
 1746      69676E65 
 1746      6420696E 
 1746      7400
 1747              	.LASF11:
 1748 0163 52455345 		.ascii	"RESET\000"
 1748      5400
 1749              	.LASF23:
 1750 0169 45585449 		.ascii	"EXTIMode_TypeDef\000"
 1750      4D6F6465 
 1750      5F547970 
 1750      65446566 
 1750      00
 1751              	.LASF20:
 1752 017a 45585449 		.ascii	"EXTI_TypeDef\000"
 1752      5F547970 
 1752      65446566 
 1752      00
 1753              	.LASF14:
 1754 0187 44495341 		.ascii	"DISABLE\000"
 1754      424C4500 
 1755              	.LASF17:
 1756 018f 52545352 		.ascii	"RTSR\000"
 1756      00
 1757              	.LASF10:
 1758 0194 75696E74 		.ascii	"uint32_t\000"
 1758      33325F74 
 1758      00
 1759              	.LASF9:
 1760 019d 5F5F7569 		.ascii	"__uint32_t\000"
ARM GAS  C:\Users\ADMINI~1\AppData\Local\Temp\cc1Kf8hE.s 			page 38


 1760      6E743332 
 1760      5F7400
 1761              	.LASF24:
 1762 01a8 45585449 		.ascii	"EXTI_Trigger_Rising\000"
 1762      5F547269 
 1762      67676572 
 1762      5F526973 
 1762      696E6700 
 1763              	.LASF26:
 1764 01bc 45585449 		.ascii	"EXTI_Trigger_Rising_Falling\000"
 1764      5F547269 
 1764      67676572 
 1764      5F526973 
 1764      696E675F 
 1765              	.LASF8:
 1766 01d8 756E7369 		.ascii	"unsigned int\000"
 1766      676E6564 
 1766      20696E74 
 1766      00
 1767              	.LASF40:
 1768 01e5 45585449 		.ascii	"EXTI_Init\000"
 1768      5F496E69 
 1768      7400
 1769              	.LASF43:
 1770 01ef 443A5C6C 		.ascii	"D:\\liwei_gcc_stm32\\save\\stm32f10x_makefile_freer"
 1770      69776569 
 1770      5F676363 
 1770      5F73746D 
 1770      33325C73 
 1771 021f 746F732D 		.ascii	"tos-master\000"
 1771      6D617374 
 1771      657200
 1772              	.LASF36:
 1773 022a 45585449 		.ascii	"EXTI_GetFlagStatus\000"
 1773      5F476574 
 1773      466C6167 
 1773      53746174 
 1773      757300
 1774              	.LASF7:
 1775 023d 6C6F6E67 		.ascii	"long long unsigned int\000"
 1775      206C6F6E 
 1775      6720756E 
 1775      7369676E 
 1775      65642069 
 1776              	.LASF38:
 1777 0254 45585449 		.ascii	"EXTI_StructInit\000"
 1777      5F537472 
 1777      75637449 
 1777      6E697400 
 1778              	.LASF41:
 1779 0264 474E5520 		.ascii	"GNU C17 10.3.1 20210824 (release) -mcpu=cortex-m3 -"
 1779      43313720 
 1779      31302E33 
 1779      2E312032 
 1779      30323130 
 1780 0297 6D746875 		.ascii	"mthumb -mfloat-abi=soft -march=armv7-m -g -gdwarf-2"
 1780      6D62202D 
ARM GAS  C:\Users\ADMINI~1\AppData\Local\Temp\cc1Kf8hE.s 			page 39


 1780      6D666C6F 
 1780      61742D61 
 1780      62693D73 
 1781 02ca 202D4F73 		.ascii	" -Os -fomit-frame-pointer\000"
 1781      202D666F 
 1781      6D69742D 
 1781      6672616D 
 1781      652D706F 
 1782              	.LASF6:
 1783 02e4 6C6F6E67 		.ascii	"long long int\000"
 1783      206C6F6E 
 1783      6720696E 
 1783      7400
 1784              	.LASF35:
 1785 02f2 45585449 		.ascii	"EXTI_GetITStatus\000"
 1785      5F476574 
 1785      49545374 
 1785      61747573 
 1785      00
 1786              	.LASF44:
 1787 0303 45585449 		.ascii	"EXTI_ClearITPendingBit\000"
 1787      5F436C65 
 1787      61724954 
 1787      50656E64 
 1787      696E6742 
 1788              	.LASF2:
 1789 031a 73686F72 		.ascii	"short int\000"
 1789      7420696E 
 1789      7400
 1790              	.LASF18:
 1791 0324 46545352 		.ascii	"FTSR\000"
 1791      00
 1792              	.LASF4:
 1793 0329 6C6F6E67 		.ascii	"long int\000"
 1793      20696E74 
 1793      00
 1794              	.LASF0:
 1795 0332 7369676E 		.ascii	"signed char\000"
 1795      65642063 
 1795      68617200 
 1796              	.LASF27:
 1797 033e 45585449 		.ascii	"EXTITrigger_TypeDef\000"
 1797      54726967 
 1797      6765725F 
 1797      54797065 
 1797      44656600 
 1798              	.LASF19:
 1799 0352 53574945 		.ascii	"SWIER\000"
 1799      5200
 1800              	.LASF46:
 1801 0358 45585449 		.ascii	"EXTI_DeInit\000"
 1801      5F446549 
 1801      6E697400 
 1802              		.ident	"GCC: (GNU Arm Embedded Toolchain 10.3-2021.10) 10.3.1 20210824 (release)"
ARM GAS  C:\Users\ADMINI~1\AppData\Local\Temp\cc1Kf8hE.s 			page 40


DEFINED SYMBOLS
                            *ABS*:00000000 stm32f10x_exti.c
C:\Users\ADMINI~1\AppData\Local\Temp\cc1Kf8hE.s:78     .text:00000000 $t
C:\Users\ADMINI~1\AppData\Local\Temp\cc1Kf8hE.s:84     .text:00000000 EXTI_DeInit
C:\Users\ADMINI~1\AppData\Local\Temp\cc1Kf8hE.s:121    .text:00000014 $d
C:\Users\ADMINI~1\AppData\Local\Temp\cc1Kf8hE.s:126    .text:0000001c $t
C:\Users\ADMINI~1\AppData\Local\Temp\cc1Kf8hE.s:132    .text:0000001c EXTI_Init
C:\Users\ADMINI~1\AppData\Local\Temp\cc1Kf8hE.s:271    .text:00000084 $d
C:\Users\ADMINI~1\AppData\Local\Temp\cc1Kf8hE.s:275    .text:00000088 $t
C:\Users\ADMINI~1\AppData\Local\Temp\cc1Kf8hE.s:281    .text:00000088 EXTI_StructInit
C:\Users\ADMINI~1\AppData\Local\Temp\cc1Kf8hE.s:320    .text:00000096 EXTI_GenerateSWInterrupt
C:\Users\ADMINI~1\AppData\Local\Temp\cc1Kf8hE.s:342    .text:000000a0 $d
C:\Users\ADMINI~1\AppData\Local\Temp\cc1Kf8hE.s:346    .text:000000a4 $t
C:\Users\ADMINI~1\AppData\Local\Temp\cc1Kf8hE.s:352    .text:000000a4 EXTI_GetFlagStatus
C:\Users\ADMINI~1\AppData\Local\Temp\cc1Kf8hE.s:383    .text:000000b4 $d
C:\Users\ADMINI~1\AppData\Local\Temp\cc1Kf8hE.s:387    .text:000000b8 $t
C:\Users\ADMINI~1\AppData\Local\Temp\cc1Kf8hE.s:393    .text:000000b8 EXTI_ClearFlag
C:\Users\ADMINI~1\AppData\Local\Temp\cc1Kf8hE.s:413    .text:000000c0 $d
C:\Users\ADMINI~1\AppData\Local\Temp\cc1Kf8hE.s:417    .text:000000c4 $t
C:\Users\ADMINI~1\AppData\Local\Temp\cc1Kf8hE.s:423    .text:000000c4 EXTI_GetITStatus
C:\Users\ADMINI~1\AppData\Local\Temp\cc1Kf8hE.s:469    .text:000000dc $d
C:\Users\ADMINI~1\AppData\Local\Temp\cc1Kf8hE.s:473    .text:000000e0 $t
C:\Users\ADMINI~1\AppData\Local\Temp\cc1Kf8hE.s:479    .text:000000e0 EXTI_ClearITPendingBit
C:\Users\ADMINI~1\AppData\Local\Temp\cc1Kf8hE.s:491    .text:000000e8 $d

NO UNDEFINED SYMBOLS
