ARM GAS  C:\Users\ADMINI~1\AppData\Local\Temp\cc1Kf8hE.s 			page 1


   1              		.cpu cortex-m3
   2              		.arch armv7-m
   3              		.fpu softvfp
   4              		.eabi_attribute 20, 1	@ Tag_ABI_FP_denormal
   5              		.eabi_attribute 21, 1	@ Tag_ABI_FP_exceptions
   6              		.eabi_attribute 23, 3	@ Tag_ABI_FP_number_model
   7              		.eabi_attribute 24, 1	@ Tag_ABI_align8_needed
   8              		.eabi_attribute 25, 1	@ Tag_ABI_align8_preserved
   9              		.eabi_attribute 26, 1	@ Tag_ABI_enum_size
  10              		.eabi_attribute 30, 4	@ Tag_ABI_optimization_goals
  11              		.eabi_attribute 34, 1	@ Tag_CPU_unaligned_access
  12              		.eabi_attribute 18, 4	@ Tag_ABI_PCS_wchar_t
  13              		.file	"stm32f10x_exti.c"
  14              	@ GNU C17 (GNU Arm Embedded Toolchain 10.3-2021.10) version 10.3.1 20210824 (release) (arm-none-eab
  15              	@	compiled by GNU C version 7.3-win32 20180312, GMP version 6.1.0, MPFR version 3.1.4, MPC version 
  16              	
  17              	@ GGC heuristics: --param ggc-min-expand=100 --param ggc-min-heapsize=131072
  18              	@ options passed:  -I . -I ./user -I ./stm32f10x_lib/CMSIS/CM3/CoreSupport
  19              	@ -I ./stm32f10x_lib/CMSIS/CM3/DeviceSupport/ST/STM32F10x
  20              	@ -I ./stm32f10x_lib/STM32F10x_StdPeriph_Driver/inc
  21              	@ -I ./stm32f10x_lib/STM32F10x_StdPeriph_Driver -I ./freertos/include
  22              	@ -I ./freertos/portable/GCC/ARM_CM3 -imultilib thumb/v7-m/nofp
  23              	@ -iprefix c:\program files (x86)\gnu arm embedded toolchain\10 2021.10\bin\../lib/gcc/arm-none-eab
  24              	@ -isysroot c:\program files (x86)\gnu arm embedded toolchain\10 2021.10\bin\../arm-none-eabi
  25              	@ -D__USES_INITFINI__ -D STM32F10X_MD -D USE_STDPERIPH_DRIVER
  26              	@ -D HSE_VALUE=8000000 -D RUN_FROM_FLASH=1
  27              	@ stm32f10x_lib/STM32F10x_StdPeriph_Driver/src/stm32f10x_exti.c
  28              	@ -mcpu=cortex-m3 -mthumb -mfloat-abi=soft -mlibarch=armv7-m -march=armv7-m
  29              	@ -auxbase-strip stm32f10x_lib/STM32F10x_StdPeriph_Driver/src/stm32f10x_exti.o
  30              	@ -g -gdwarf-2 -Os -Wall -fomit-frame-pointer -fverbose-asm
  31              	@ options enabled:  -faggressive-loop-optimizations -fallocation-dce
  32              	@ -fauto-inc-dec -fbranch-count-reg -fcaller-saves -fcode-hoisting
  33              	@ -fcombine-stack-adjustments -fcompare-elim -fcprop-registers
  34              	@ -fcrossjumping -fcse-follow-jumps -fdefer-pop
  35              	@ -fdelete-null-pointer-checks -fdevirtualize -fdevirtualize-speculatively
  36              	@ -fdwarf2-cfi-asm -fearly-inlining -feliminate-unused-debug-symbols
  37              	@ -feliminate-unused-debug-types -fexpensive-optimizations
  38              	@ -fforward-propagate -ffp-int-builtin-inexact -ffunction-cse -fgcse
  39              	@ -fgcse-lm -fgnu-unique -fguess-branch-probability -fhoist-adjacent-loads
  40              	@ -fident -fif-conversion -fif-conversion2 -findirect-inlining -finline
  41              	@ -finline-atomics -finline-functions -finline-functions-called-once
  42              	@ -finline-small-functions -fipa-bit-cp -fipa-cp -fipa-icf
  43              	@ -fipa-icf-functions -fipa-icf-variables -fipa-profile -fipa-pure-const
  44              	@ -fipa-ra -fipa-reference -fipa-reference-addressable -fipa-sra
  45              	@ -fipa-stack-alignment -fipa-vrp -fira-hoist-pressure
  46              	@ -fira-share-save-slots -fira-share-spill-slots
  47              	@ -fisolate-erroneous-paths-dereference -fivopts -fkeep-static-consts
  48              	@ -fleading-underscore -flifetime-dse -flra-remat -fmath-errno
  49              	@ -fmerge-constants -fmerge-debug-strings -fmove-loop-invariants
  50              	@ -fomit-frame-pointer -foptimize-sibling-calls -fpartial-inlining
  51              	@ -fpeephole -fpeephole2 -fplt -fprefetch-loop-arrays -freg-struct-return
  52              	@ -freorder-blocks -freorder-functions -frerun-cse-after-loop
  53              	@ -fsched-critical-path-heuristic -fsched-dep-count-heuristic
  54              	@ -fsched-group-heuristic -fsched-interblock -fsched-last-insn-heuristic
  55              	@ -fsched-pressure -fsched-rank-heuristic -fsched-spec
  56              	@ -fsched-spec-insn-heuristic -fsched-stalled-insns-dep -fschedule-insns2
  57              	@ -fsection-anchors -fsemantic-interposition -fshow-column
ARM GAS  C:\Users\ADMINI~1\AppData\Local\Temp\cc1Kf8hE.s 			page 2


  58              	@ -fshrink-wrap-separate -fsigned-zeros -fsplit-ivs-in-unroller
  59              	@ -fsplit-wide-types -fssa-backprop -fssa-phiopt -fstdarg-opt
  60              	@ -fstore-merging -fstrict-aliasing -fstrict-volatile-bitfields
  61              	@ -fsync-libcalls -fthread-jumps -ftoplevel-reorder -ftrapping-math
  62              	@ -ftree-bit-ccp -ftree-builtin-call-dce -ftree-ccp -ftree-ch
  63              	@ -ftree-coalesce-vars -ftree-copy-prop -ftree-cselim -ftree-dce
  64              	@ -ftree-dominator-opts -ftree-dse -ftree-forwprop -ftree-fre
  65              	@ -ftree-loop-distribute-patterns -ftree-loop-if-convert -ftree-loop-im
  66              	@ -ftree-loop-ivcanon -ftree-loop-optimize -ftree-parallelize-loops=
  67              	@ -ftree-phiprop -ftree-pre -ftree-pta -ftree-reassoc -ftree-scev-cprop
  68              	@ -ftree-sink -ftree-slsr -ftree-sra -ftree-switch-conversion
  69              	@ -ftree-tail-merge -ftree-ter -ftree-vrp -funit-at-a-time -fvar-tracking
  70              	@ -fvar-tracking-assignments -fverbose-asm -fzero-initialized-in-bss
  71              	@ -masm-syntax-unified -mbe32 -mfix-cortex-m3-ldrd -mlittle-endian
  72              	@ -mpic-data-is-text-relative -msched-prolog -mthumb -munaligned-access
  73              	@ -mvectorize-with-neon-quad
  74              	
  75              		.text
  76              	.Ltext0:
  77              		.cfi_sections	.debug_frame
  78              		.align	1
  79              		.global	EXTI_DeInit
  80              		.syntax unified
  81              		.thumb
  82              		.thumb_func
  83              		.type	EXTI_DeInit, %function
  84              	EXTI_DeInit:
  85              	.LFB29:
  86              		.file 1 "stm32f10x_lib/STM32F10x_StdPeriph_Driver/src/stm32f10x_exti.c"
   1:stm32f10x_lib/STM32F10x_StdPeriph_Driver/src/stm32f10x_exti.c **** /**
   2:stm32f10x_lib/STM32F10x_StdPeriph_Driver/src/stm32f10x_exti.c ****   ******************************************************************************
   3:stm32f10x_lib/STM32F10x_StdPeriph_Driver/src/stm32f10x_exti.c ****   * @file    stm32f10x_exti.c
   4:stm32f10x_lib/STM32F10x_StdPeriph_Driver/src/stm32f10x_exti.c ****   * @author  MCD Application Team
   5:stm32f10x_lib/STM32F10x_StdPeriph_Driver/src/stm32f10x_exti.c ****   * @version V3.5.0
   6:stm32f10x_lib/STM32F10x_StdPeriph_Driver/src/stm32f10x_exti.c ****   * @date    11-March-2011
   7:stm32f10x_lib/STM32F10x_StdPeriph_Driver/src/stm32f10x_exti.c ****   * @brief   This file provides all the EXTI firmware functions.
   8:stm32f10x_lib/STM32F10x_StdPeriph_Driver/src/stm32f10x_exti.c ****   ******************************************************************************
   9:stm32f10x_lib/STM32F10x_StdPeriph_Driver/src/stm32f10x_exti.c ****   * @attention
  10:stm32f10x_lib/STM32F10x_StdPeriph_Driver/src/stm32f10x_exti.c ****   *
  11:stm32f10x_lib/STM32F10x_StdPeriph_Driver/src/stm32f10x_exti.c ****   * THE PRESENT FIRMWARE WHICH IS FOR GUIDANCE ONLY AIMS AT PROVIDING CUSTOMERS
  12:stm32f10x_lib/STM32F10x_StdPeriph_Driver/src/stm32f10x_exti.c ****   * WITH CODING INFORMATION REGARDING THEIR PRODUCTS IN ORDER FOR THEM TO SAVE
  13:stm32f10x_lib/STM32F10x_StdPeriph_Driver/src/stm32f10x_exti.c ****   * TIME. AS A RESULT, STMICROELECTRONICS SHALL NOT BE HELD LIABLE FOR ANY
  14:stm32f10x_lib/STM32F10x_StdPeriph_Driver/src/stm32f10x_exti.c ****   * DIRECT, INDIRECT OR CONSEQUENTIAL DAMAGES WITH RESPECT TO ANY CLAIMS ARISING
  15:stm32f10x_lib/STM32F10x_StdPeriph_Driver/src/stm32f10x_exti.c ****   * FROM THE CONTENT OF SUCH FIRMWARE AND/OR THE USE MADE BY CUSTOMERS OF THE
  16:stm32f10x_lib/STM32F10x_StdPeriph_Driver/src/stm32f10x_exti.c ****   * CODING INFORMATION CONTAINED HEREIN IN CONNECTION WITH THEIR PRODUCTS.
  17:stm32f10x_lib/STM32F10x_StdPeriph_Driver/src/stm32f10x_exti.c ****   *
  18:stm32f10x_lib/STM32F10x_StdPeriph_Driver/src/stm32f10x_exti.c ****   * <h2><center>&copy; COPYRIGHT 2011 STMicroelectronics</center></h2>
  19:stm32f10x_lib/STM32F10x_StdPeriph_Driver/src/stm32f10x_exti.c ****   ******************************************************************************
  20:stm32f10x_lib/STM32F10x_StdPeriph_Driver/src/stm32f10x_exti.c ****   */
  21:stm32f10x_lib/STM32F10x_StdPeriph_Driver/src/stm32f10x_exti.c **** 
  22:stm32f10x_lib/STM32F10x_StdPeriph_Driver/src/stm32f10x_exti.c **** /* Includes ------------------------------------------------------------------*/
  23:stm32f10x_lib/STM32F10x_StdPeriph_Driver/src/stm32f10x_exti.c **** #include "stm32f10x_exti.h"
  24:stm32f10x_lib/STM32F10x_StdPeriph_Driver/src/stm32f10x_exti.c **** 
  25:stm32f10x_lib/STM32F10x_StdPeriph_Driver/src/stm32f10x_exti.c **** /** @addtogroup STM32F10x_StdPeriph_Driver
  26:stm32f10x_lib/STM32F10x_StdPeriph_Driver/src/stm32f10x_exti.c ****   * @{
  27:stm32f10x_lib/STM32F10x_StdPeriph_Driver/src/stm32f10x_exti.c ****   */
  28:stm32f10x_lib/STM32F10x_StdPeriph_Driver/src/stm32f10x_exti.c **** 
ARM GAS  C:\Users\ADMINI~1\AppData\Local\Temp\cc1Kf8hE.s 			page 3


  29:stm32f10x_lib/STM32F10x_StdPeriph_Driver/src/stm32f10x_exti.c **** /** @defgroup EXTI 
  30:stm32f10x_lib/STM32F10x_StdPeriph_Driver/src/stm32f10x_exti.c ****   * @brief EXTI driver modules
  31:stm32f10x_lib/STM32F10x_StdPeriph_Driver/src/stm32f10x_exti.c ****   * @{
  32:stm32f10x_lib/STM32F10x_StdPeriph_Driver/src/stm32f10x_exti.c ****   */
  33:stm32f10x_lib/STM32F10x_StdPeriph_Driver/src/stm32f10x_exti.c **** 
  34:stm32f10x_lib/STM32F10x_StdPeriph_Driver/src/stm32f10x_exti.c **** /** @defgroup EXTI_Private_TypesDefinitions
  35:stm32f10x_lib/STM32F10x_StdPeriph_Driver/src/stm32f10x_exti.c ****   * @{
  36:stm32f10x_lib/STM32F10x_StdPeriph_Driver/src/stm32f10x_exti.c ****   */
  37:stm32f10x_lib/STM32F10x_StdPeriph_Driver/src/stm32f10x_exti.c **** 
  38:stm32f10x_lib/STM32F10x_StdPeriph_Driver/src/stm32f10x_exti.c **** /**
  39:stm32f10x_lib/STM32F10x_StdPeriph_Driver/src/stm32f10x_exti.c ****   * @}
  40:stm32f10x_lib/STM32F10x_StdPeriph_Driver/src/stm32f10x_exti.c ****   */
  41:stm32f10x_lib/STM32F10x_StdPeriph_Driver/src/stm32f10x_exti.c **** 
  42:stm32f10x_lib/STM32F10x_StdPeriph_Driver/src/stm32f10x_exti.c **** /** @defgroup EXTI_Private_Defines
  43:stm32f10x_lib/STM32F10x_StdPeriph_Driver/src/stm32f10x_exti.c ****   * @{
  44:stm32f10x_lib/STM32F10x_StdPeriph_Driver/src/stm32f10x_exti.c ****   */
  45:stm32f10x_lib/STM32F10x_StdPeriph_Driver/src/stm32f10x_exti.c **** 
  46:stm32f10x_lib/STM32F10x_StdPeriph_Driver/src/stm32f10x_exti.c **** #define EXTI_LINENONE    ((uint32_t)0x00000)  /* No interrupt selected */
  47:stm32f10x_lib/STM32F10x_StdPeriph_Driver/src/stm32f10x_exti.c **** 
  48:stm32f10x_lib/STM32F10x_StdPeriph_Driver/src/stm32f10x_exti.c **** /**
  49:stm32f10x_lib/STM32F10x_StdPeriph_Driver/src/stm32f10x_exti.c ****   * @}
  50:stm32f10x_lib/STM32F10x_StdPeriph_Driver/src/stm32f10x_exti.c ****   */
  51:stm32f10x_lib/STM32F10x_StdPeriph_Driver/src/stm32f10x_exti.c **** 
  52:stm32f10x_lib/STM32F10x_StdPeriph_Driver/src/stm32f10x_exti.c **** /** @defgroup EXTI_Private_Macros
  53:stm32f10x_lib/STM32F10x_StdPeriph_Driver/src/stm32f10x_exti.c ****   * @{
  54:stm32f10x_lib/STM32F10x_StdPeriph_Driver/src/stm32f10x_exti.c ****   */
  55:stm32f10x_lib/STM32F10x_StdPeriph_Driver/src/stm32f10x_exti.c **** 
  56:stm32f10x_lib/STM32F10x_StdPeriph_Driver/src/stm32f10x_exti.c **** /**
  57:stm32f10x_lib/STM32F10x_StdPeriph_Driver/src/stm32f10x_exti.c ****   * @}
  58:stm32f10x_lib/STM32F10x_StdPeriph_Driver/src/stm32f10x_exti.c ****   */
  59:stm32f10x_lib/STM32F10x_StdPeriph_Driver/src/stm32f10x_exti.c **** 
  60:stm32f10x_lib/STM32F10x_StdPeriph_Driver/src/stm32f10x_exti.c **** /** @defgroup EXTI_Private_Variables
  61:stm32f10x_lib/STM32F10x_StdPeriph_Driver/src/stm32f10x_exti.c ****   * @{
  62:stm32f10x_lib/STM32F10x_StdPeriph_Driver/src/stm32f10x_exti.c ****   */
  63:stm32f10x_lib/STM32F10x_StdPeriph_Driver/src/stm32f10x_exti.c **** 
  64:stm32f10x_lib/STM32F10x_StdPeriph_Driver/src/stm32f10x_exti.c **** /**
  65:stm32f10x_lib/STM32F10x_StdPeriph_Driver/src/stm32f10x_exti.c ****   * @}
  66:stm32f10x_lib/STM32F10x_StdPeriph_Driver/src/stm32f10x_exti.c ****   */
  67:stm32f10x_lib/STM32F10x_StdPeriph_Driver/src/stm32f10x_exti.c **** 
  68:stm32f10x_lib/STM32F10x_StdPeriph_Driver/src/stm32f10x_exti.c **** /** @defgroup EXTI_Private_FunctionPrototypes
  69:stm32f10x_lib/STM32F10x_StdPeriph_Driver/src/stm32f10x_exti.c ****   * @{
  70:stm32f10x_lib/STM32F10x_StdPeriph_Driver/src/stm32f10x_exti.c ****   */
  71:stm32f10x_lib/STM32F10x_StdPeriph_Driver/src/stm32f10x_exti.c **** 
  72:stm32f10x_lib/STM32F10x_StdPeriph_Driver/src/stm32f10x_exti.c **** /**
  73:stm32f10x_lib/STM32F10x_StdPeriph_Driver/src/stm32f10x_exti.c ****   * @}
  74:stm32f10x_lib/STM32F10x_StdPeriph_Driver/src/stm32f10x_exti.c ****   */
  75:stm32f10x_lib/STM32F10x_StdPeriph_Driver/src/stm32f10x_exti.c **** 
  76:stm32f10x_lib/STM32F10x_StdPeriph_Driver/src/stm32f10x_exti.c **** /** @defgroup EXTI_Private_Functions
  77:stm32f10x_lib/STM32F10x_StdPeriph_Driver/src/stm32f10x_exti.c ****   * @{
  78:stm32f10x_lib/STM32F10x_StdPeriph_Driver/src/stm32f10x_exti.c ****   */
  79:stm32f10x_lib/STM32F10x_StdPeriph_Driver/src/stm32f10x_exti.c **** 
  80:stm32f10x_lib/STM32F10x_StdPeriph_Driver/src/stm32f10x_exti.c **** /**
  81:stm32f10x_lib/STM32F10x_StdPeriph_Driver/src/stm32f10x_exti.c ****   * @brief  Deinitializes the EXTI peripheral registers to their default reset values.
  82:stm32f10x_lib/STM32F10x_StdPeriph_Driver/src/stm32f10x_exti.c ****   * @param  None
  83:stm32f10x_lib/STM32F10x_StdPeriph_Driver/src/stm32f10x_exti.c ****   * @retval None
  84:stm32f10x_lib/STM32F10x_StdPeriph_Driver/src/stm32f10x_exti.c ****   */
  85:stm32f10x_lib/STM32F10x_StdPeriph_Driver/src/stm32f10x_exti.c **** void EXTI_DeInit(void)
ARM GAS  C:\Users\ADMINI~1\AppData\Local\Temp\cc1Kf8hE.s 			page 4


  86:stm32f10x_lib/STM32F10x_StdPeriph_Driver/src/stm32f10x_exti.c **** {
  87              		.loc 1 86 1 view -0
  88              		.cfi_startproc
  89              		@ args = 0, pretend = 0, frame = 0
  90              		@ frame_needed = 0, uses_anonymous_args = 0
  91              		@ link register save eliminated.
  87:stm32f10x_lib/STM32F10x_StdPeriph_Driver/src/stm32f10x_exti.c ****   EXTI->IMR = 0x00000000;
  92              		.loc 1 87 3 view .LVU1
  93              	@ stm32f10x_lib/STM32F10x_StdPeriph_Driver/src/stm32f10x_exti.c:87:   EXTI->IMR = 0x00000000;
  94              		.loc 1 87 13 is_stmt 0 view .LVU2
  95 0000 0022     		movs	r2, #0	@ tmp114,
  96 0002 044B     		ldr	r3, .L2	@ tmp113,
  97 0004 1A60     		str	r2, [r3]	@ tmp114, MEM[(struct EXTI_TypeDef *)1073808384B].IMR
  88:stm32f10x_lib/STM32F10x_StdPeriph_Driver/src/stm32f10x_exti.c ****   EXTI->EMR = 0x00000000;
  98              		.loc 1 88 3 is_stmt 1 view .LVU3
  99              	@ stm32f10x_lib/STM32F10x_StdPeriph_Driver/src/stm32f10x_exti.c:88:   EXTI->EMR = 0x00000000;
 100              		.loc 1 88 13 is_stmt 0 view .LVU4
 101 0006 5A60     		str	r2, [r3, #4]	@ tmp114, MEM[(struct EXTI_TypeDef *)1073808384B].EMR
  89:stm32f10x_lib/STM32F10x_StdPeriph_Driver/src/stm32f10x_exti.c ****   EXTI->RTSR = 0x00000000; 
 102              		.loc 1 89 3 is_stmt 1 view .LVU5
 103              	@ stm32f10x_lib/STM32F10x_StdPeriph_Driver/src/stm32f10x_exti.c:89:   EXTI->RTSR = 0x00000000; 
 104              		.loc 1 89 14 is_stmt 0 view .LVU6
 105 0008 9A60     		str	r2, [r3, #8]	@ tmp114, MEM[(struct EXTI_TypeDef *)1073808384B].RTSR
  90:stm32f10x_lib/STM32F10x_StdPeriph_Driver/src/stm32f10x_exti.c ****   EXTI->FTSR = 0x00000000; 
 106              		.loc 1 90 3 is_stmt 1 view .LVU7
 107              	@ stm32f10x_lib/STM32F10x_StdPeriph_Driver/src/stm32f10x_exti.c:90:   EXTI->FTSR = 0x00000000; 
 108              		.loc 1 90 14 is_stmt 0 view .LVU8
 109 000a DA60     		str	r2, [r3, #12]	@ tmp114, MEM[(struct EXTI_TypeDef *)1073808384B].FTSR
  91:stm32f10x_lib/STM32F10x_StdPeriph_Driver/src/stm32f10x_exti.c ****   EXTI->PR = 0x000FFFFF;
 110              		.loc 1 91 3 is_stmt 1 view .LVU9
 111              	@ stm32f10x_lib/STM32F10x_StdPeriph_Driver/src/stm32f10x_exti.c:91:   EXTI->PR = 0x000FFFFF;
 112              		.loc 1 91 12 is_stmt 0 view .LVU10
 113 000c 024A     		ldr	r2, .L2+4	@ tmp122,
 114 000e 5A61     		str	r2, [r3, #20]	@ tmp122, MEM[(struct EXTI_TypeDef *)1073808384B].PR
 115              	@ stm32f10x_lib/STM32F10x_StdPeriph_Driver/src/stm32f10x_exti.c:92: }
  92:stm32f10x_lib/STM32F10x_StdPeriph_Driver/src/stm32f10x_exti.c **** }
 116              		.loc 1 92 1 view .LVU11
 117 0010 7047     		bx	lr	@
 118              	.L3:
 119 0012 00BF     		.align	2
 120              	.L2:
 121 0014 00040140 		.word	1073808384
 122 0018 FFFF0F00 		.word	1048575
 123              		.cfi_endproc
 124              	.LFE29:
 125              		.size	EXTI_DeInit, .-EXTI_DeInit
 126              		.align	1
 127              		.global	EXTI_Init
 128              		.syntax unified
 129              		.thumb
 130              		.thumb_func
 131              		.type	EXTI_Init, %function
 132              	EXTI_Init:
 133              	.LVL0:
 134              	.LFB30:
  93:stm32f10x_lib/STM32F10x_StdPeriph_Driver/src/stm32f10x_exti.c **** 
  94:stm32f10x_lib/STM32F10x_StdPeriph_Driver/src/stm32f10x_exti.c **** /**
ARM GAS  C:\Users\ADMINI~1\AppData\Local\Temp\cc1Kf8hE.s 			page 5


  95:stm32f10x_lib/STM32F10x_StdPeriph_Driver/src/stm32f10x_exti.c ****   * @brief  Initializes the EXTI peripheral according to the specified
  96:stm32f10x_lib/STM32F10x_StdPeriph_Driver/src/stm32f10x_exti.c ****   *         parameters in the EXTI_InitStruct.
  97:stm32f10x_lib/STM32F10x_StdPeriph_Driver/src/stm32f10x_exti.c ****   * @param  EXTI_InitStruct: pointer to a EXTI_InitTypeDef structure
  98:stm32f10x_lib/STM32F10x_StdPeriph_Driver/src/stm32f10x_exti.c ****   *         that contains the configuration information for the EXTI peripheral.
  99:stm32f10x_lib/STM32F10x_StdPeriph_Driver/src/stm32f10x_exti.c ****   * @retval None
 100:stm32f10x_lib/STM32F10x_StdPeriph_Driver/src/stm32f10x_exti.c ****   */
 101:stm32f10x_lib/STM32F10x_StdPeriph_Driver/src/stm32f10x_exti.c **** void EXTI_Init(EXTI_InitTypeDef* EXTI_InitStruct)
 102:stm32f10x_lib/STM32F10x_StdPeriph_Driver/src/stm32f10x_exti.c **** {
 135              		.loc 1 102 1 is_stmt 1 view -0
 136              		.cfi_startproc
 137              		@ args = 0, pretend = 0, frame = 0
 138              		@ frame_needed = 0, uses_anonymous_args = 0
 103:stm32f10x_lib/STM32F10x_StdPeriph_Driver/src/stm32f10x_exti.c ****   uint32_t tmp = 0;
 139              		.loc 1 103 3 view .LVU13
 104:stm32f10x_lib/STM32F10x_StdPeriph_Driver/src/stm32f10x_exti.c **** 
 105:stm32f10x_lib/STM32F10x_StdPeriph_Driver/src/stm32f10x_exti.c ****   /* Check the parameters */
 106:stm32f10x_lib/STM32F10x_StdPeriph_Driver/src/stm32f10x_exti.c ****   assert_param(IS_EXTI_MODE(EXTI_InitStruct->EXTI_Mode));
 140              		.loc 1 106 3 view .LVU14
 107:stm32f10x_lib/STM32F10x_StdPeriph_Driver/src/stm32f10x_exti.c ****   assert_param(IS_EXTI_TRIGGER(EXTI_InitStruct->EXTI_Trigger));
 141              		.loc 1 107 3 view .LVU15
 108:stm32f10x_lib/STM32F10x_StdPeriph_Driver/src/stm32f10x_exti.c ****   assert_param(IS_EXTI_LINE(EXTI_InitStruct->EXTI_Line));  
 142              		.loc 1 108 3 view .LVU16
 109:stm32f10x_lib/STM32F10x_StdPeriph_Driver/src/stm32f10x_exti.c ****   assert_param(IS_FUNCTIONAL_STATE(EXTI_InitStruct->EXTI_LineCmd));
 143              		.loc 1 109 3 view .LVU17
 110:stm32f10x_lib/STM32F10x_StdPeriph_Driver/src/stm32f10x_exti.c **** 
 111:stm32f10x_lib/STM32F10x_StdPeriph_Driver/src/stm32f10x_exti.c ****   tmp = (uint32_t)EXTI_BASE;
 144              		.loc 1 111 3 view .LVU18
 112:stm32f10x_lib/STM32F10x_StdPeriph_Driver/src/stm32f10x_exti.c ****      
 113:stm32f10x_lib/STM32F10x_StdPeriph_Driver/src/stm32f10x_exti.c ****   if (EXTI_InitStruct->EXTI_LineCmd != DISABLE)
 145              		.loc 1 113 3 view .LVU19
 146              	@ stm32f10x_lib/STM32F10x_StdPeriph_Driver/src/stm32f10x_exti.c:119:     tmp += EXTI_InitStruct->EX
 114:stm32f10x_lib/STM32F10x_StdPeriph_Driver/src/stm32f10x_exti.c ****   {
 115:stm32f10x_lib/STM32F10x_StdPeriph_Driver/src/stm32f10x_exti.c ****     /* Clear EXTI line configuration */
 116:stm32f10x_lib/STM32F10x_StdPeriph_Driver/src/stm32f10x_exti.c ****     EXTI->IMR &= ~EXTI_InitStruct->EXTI_Line;
 117:stm32f10x_lib/STM32F10x_StdPeriph_Driver/src/stm32f10x_exti.c ****     EXTI->EMR &= ~EXTI_InitStruct->EXTI_Line;
 118:stm32f10x_lib/STM32F10x_StdPeriph_Driver/src/stm32f10x_exti.c ****     
 119:stm32f10x_lib/STM32F10x_StdPeriph_Driver/src/stm32f10x_exti.c ****     tmp += EXTI_InitStruct->EXTI_Mode;
 147              		.loc 1 119 27 is_stmt 0 view .LVU20
 148 001c 0279     		ldrb	r2, [r0, #4]	@ zero_extendqisi2	@ EXTI_InitStruct_37(D)->EXTI_Mode, EXTI_InitStruct_37(D)->EX
 149              	@ stm32f10x_lib/STM32F10x_StdPeriph_Driver/src/stm32f10x_exti.c:102: {
 102:stm32f10x_lib/STM32F10x_StdPeriph_Driver/src/stm32f10x_exti.c ****   uint32_t tmp = 0;
 150              		.loc 1 102 1 view .LVU21
 151 001e 30B5     		push	{r4, r5, lr}	@
 152              	.LCFI0:
 153              		.cfi_def_cfa_offset 12
 154              		.cfi_offset 4, -12
 155              		.cfi_offset 5, -8
 156              		.cfi_offset 14, -4
 157              	@ stm32f10x_lib/STM32F10x_StdPeriph_Driver/src/stm32f10x_exti.c:113:   if (EXTI_InitStruct->EXTI_Li
 113:stm32f10x_lib/STM32F10x_StdPeriph_Driver/src/stm32f10x_exti.c ****   {
 158              		.loc 1 113 6 view .LVU22
 159 0020 8379     		ldrb	r3, [r0, #6]	@ zero_extendqisi2	@ EXTI_InitStruct_37(D)->EXTI_LineCmd, EXTI_InitStruct_37(D)-
 160              	@ stm32f10x_lib/STM32F10x_StdPeriph_Driver/src/stm32f10x_exti.c:116:     EXTI->IMR &= ~EXTI_InitStr
 116:stm32f10x_lib/STM32F10x_StdPeriph_Driver/src/stm32f10x_exti.c ****     EXTI->EMR &= ~EXTI_InitStruct->EXTI_Line;
 161              		.loc 1 116 34 view .LVU23
 162 0022 0568     		ldr	r5, [r0]	@ pretmp_50, EXTI_InitStruct_37(D)->EXTI_Line
 163              	@ stm32f10x_lib/STM32F10x_StdPeriph_Driver/src/stm32f10x_exti.c:119:     tmp += EXTI_InitStruct->EX
ARM GAS  C:\Users\ADMINI~1\AppData\Local\Temp\cc1Kf8hE.s 			page 6


 164              		.loc 1 119 9 view .LVU24
 165 0024 02F18042 		add	r2, r2, #1073741824	@ _51, EXTI_InitStruct_37(D)->EXTI_Mode,
 166              	@ stm32f10x_lib/STM32F10x_StdPeriph_Driver/src/stm32f10x_exti.c:116:     EXTI->IMR &= ~EXTI_InitStr
 116:stm32f10x_lib/STM32F10x_StdPeriph_Driver/src/stm32f10x_exti.c ****     EXTI->EMR &= ~EXTI_InitStruct->EXTI_Line;
 167              		.loc 1 116 18 view .LVU25
 168 0028 E943     		mvns	r1, r5	@ _54, pretmp_50
 169              	@ stm32f10x_lib/STM32F10x_StdPeriph_Driver/src/stm32f10x_exti.c:119:     tmp += EXTI_InitStruct->EX
 170              		.loc 1 119 9 view .LVU26
 171 002a 02F58232 		add	r2, r2, #66560	@ _51, _51,
 172              	@ stm32f10x_lib/STM32F10x_StdPeriph_Driver/src/stm32f10x_exti.c:113:   if (EXTI_InitStruct->EXTI_Li
 113:stm32f10x_lib/STM32F10x_StdPeriph_Driver/src/stm32f10x_exti.c ****   {
 173              		.loc 1 113 6 view .LVU27
 174 002e 23B3     		cbz	r3, .L5	@ EXTI_InitStruct_37(D)->EXTI_LineCmd,
 116:stm32f10x_lib/STM32F10x_StdPeriph_Driver/src/stm32f10x_exti.c ****     EXTI->EMR &= ~EXTI_InitStruct->EXTI_Line;
 175              		.loc 1 116 5 is_stmt 1 view .LVU28
 176              	@ stm32f10x_lib/STM32F10x_StdPeriph_Driver/src/stm32f10x_exti.c:116:     EXTI->IMR &= ~EXTI_InitStr
 116:stm32f10x_lib/STM32F10x_StdPeriph_Driver/src/stm32f10x_exti.c ****     EXTI->EMR &= ~EXTI_InitStruct->EXTI_Line;
 177              		.loc 1 116 15 is_stmt 0 view .LVU29
 178 0030 144B     		ldr	r3, .L8	@ tmp148,
 179 0032 1C68     		ldr	r4, [r3]	@ _2, MEM[(struct EXTI_TypeDef *)1073808384B].IMR
 180 0034 0C40     		ands	r4, r4, r1	@, _5, _2, _54
 181 0036 1C60     		str	r4, [r3]	@ _5, MEM[(struct EXTI_TypeDef *)1073808384B].IMR
 117:stm32f10x_lib/STM32F10x_StdPeriph_Driver/src/stm32f10x_exti.c ****     
 182              		.loc 1 117 5 is_stmt 1 view .LVU30
 183              	@ stm32f10x_lib/STM32F10x_StdPeriph_Driver/src/stm32f10x_exti.c:117:     EXTI->EMR &= ~EXTI_InitStr
 117:stm32f10x_lib/STM32F10x_StdPeriph_Driver/src/stm32f10x_exti.c ****     
 184              		.loc 1 117 15 is_stmt 0 view .LVU31
 185 0038 5C68     		ldr	r4, [r3, #4]	@ _6, MEM[(struct EXTI_TypeDef *)1073808384B].EMR
 186 003a 2140     		ands	r1, r1, r4	@, _7, _54, _6
 187 003c 5960     		str	r1, [r3, #4]	@ _7, MEM[(struct EXTI_TypeDef *)1073808384B].EMR
 188              		.loc 1 119 5 is_stmt 1 view .LVU32
 189              	.LVL1:
 120:stm32f10x_lib/STM32F10x_StdPeriph_Driver/src/stm32f10x_exti.c **** 
 121:stm32f10x_lib/STM32F10x_StdPeriph_Driver/src/stm32f10x_exti.c ****     *(__IO uint32_t *) tmp |= EXTI_InitStruct->EXTI_Line;
 190              		.loc 1 121 5 view .LVU33
 191              	@ stm32f10x_lib/STM32F10x_StdPeriph_Driver/src/stm32f10x_exti.c:121:     *(__IO uint32_t *) tmp |= 
 192              		.loc 1 121 28 is_stmt 0 view .LVU34
 193 003e 1168     		ldr	r1, [r2]	@ _11, *_51
 194 0040 2943     		orrs	r1, r1, r5	@, _12, _11, pretmp_50
 195 0042 1160     		str	r1, [r2]	@ _12, *_51
 196              	.LVL2:
 122:stm32f10x_lib/STM32F10x_StdPeriph_Driver/src/stm32f10x_exti.c **** 
 123:stm32f10x_lib/STM32F10x_StdPeriph_Driver/src/stm32f10x_exti.c ****     /* Clear Rising Falling edge configuration */
 124:stm32f10x_lib/STM32F10x_StdPeriph_Driver/src/stm32f10x_exti.c ****     EXTI->RTSR &= ~EXTI_InitStruct->EXTI_Line;
 197              		.loc 1 124 5 is_stmt 1 view .LVU35
 198              	@ stm32f10x_lib/STM32F10x_StdPeriph_Driver/src/stm32f10x_exti.c:124:     EXTI->RTSR &= ~EXTI_InitSt
 199              		.loc 1 124 16 is_stmt 0 view .LVU36
 200 0044 9968     		ldr	r1, [r3, #8]	@ _13, MEM[(struct EXTI_TypeDef *)1073808384B].RTSR
 201              	@ stm32f10x_lib/STM32F10x_StdPeriph_Driver/src/stm32f10x_exti.c:124:     EXTI->RTSR &= ~EXTI_InitSt
 202              		.loc 1 124 35 view .LVU37
 203 0046 0268     		ldr	r2, [r0]	@ _14, EXTI_InitStruct_37(D)->EXTI_Line
 204              	@ stm32f10x_lib/STM32F10x_StdPeriph_Driver/src/stm32f10x_exti.c:124:     EXTI->RTSR &= ~EXTI_InitSt
 205              		.loc 1 124 16 view .LVU38
 206 0048 21EA0201 		bic	r1, r1, r2	@ _16, _13, _14
 207 004c 9960     		str	r1, [r3, #8]	@ _16, MEM[(struct EXTI_TypeDef *)1073808384B].RTSR
 125:stm32f10x_lib/STM32F10x_StdPeriph_Driver/src/stm32f10x_exti.c ****     EXTI->FTSR &= ~EXTI_InitStruct->EXTI_Line;
 208              		.loc 1 125 5 is_stmt 1 view .LVU39
ARM GAS  C:\Users\ADMINI~1\AppData\Local\Temp\cc1Kf8hE.s 			page 7


 209              	@ stm32f10x_lib/STM32F10x_StdPeriph_Driver/src/stm32f10x_exti.c:125:     EXTI->FTSR &= ~EXTI_InitSt
 210              		.loc 1 125 16 is_stmt 0 view .LVU40
 211 004e D968     		ldr	r1, [r3, #12]	@ _17, MEM[(struct EXTI_TypeDef *)1073808384B].FTSR
 212 0050 21EA0201 		bic	r1, r1, r2	@ _18, _17, _14
 213 0054 D960     		str	r1, [r3, #12]	@ _18, MEM[(struct EXTI_TypeDef *)1073808384B].FTSR
 126:stm32f10x_lib/STM32F10x_StdPeriph_Driver/src/stm32f10x_exti.c ****     
 127:stm32f10x_lib/STM32F10x_StdPeriph_Driver/src/stm32f10x_exti.c ****     /* Select the trigger for the selected external interrupts */
 128:stm32f10x_lib/STM32F10x_StdPeriph_Driver/src/stm32f10x_exti.c ****     if (EXTI_InitStruct->EXTI_Trigger == EXTI_Trigger_Rising_Falling)
 214              		.loc 1 128 5 is_stmt 1 view .LVU41
 215              	@ stm32f10x_lib/STM32F10x_StdPeriph_Driver/src/stm32f10x_exti.c:128:     if (EXTI_InitStruct->EXTI_
 216              		.loc 1 128 24 is_stmt 0 view .LVU42
 217 0056 4179     		ldrb	r1, [r0, #5]	@ zero_extendqisi2	@ _19, EXTI_InitStruct_37(D)->EXTI_Trigger
 218              	@ stm32f10x_lib/STM32F10x_StdPeriph_Driver/src/stm32f10x_exti.c:128:     if (EXTI_InitStruct->EXTI_
 219              		.loc 1 128 8 view .LVU43
 220 0058 1029     		cmp	r1, #16	@ _19,
 221 005a 06D1     		bne	.L6		@,
 129:stm32f10x_lib/STM32F10x_StdPeriph_Driver/src/stm32f10x_exti.c ****     {
 130:stm32f10x_lib/STM32F10x_StdPeriph_Driver/src/stm32f10x_exti.c ****       /* Rising Falling edge */
 131:stm32f10x_lib/STM32F10x_StdPeriph_Driver/src/stm32f10x_exti.c ****       EXTI->RTSR |= EXTI_InitStruct->EXTI_Line;
 222              		.loc 1 131 7 is_stmt 1 view .LVU44
 223              	@ stm32f10x_lib/STM32F10x_StdPeriph_Driver/src/stm32f10x_exti.c:131:       EXTI->RTSR |= EXTI_InitS
 224              		.loc 1 131 18 is_stmt 0 view .LVU45
 225 005c 9968     		ldr	r1, [r3, #8]	@ _20, MEM[(struct EXTI_TypeDef *)1073808384B].RTSR
 226 005e 1143     		orrs	r1, r1, r2	@, _21, _20, _14
 227 0060 9960     		str	r1, [r3, #8]	@ _21, MEM[(struct EXTI_TypeDef *)1073808384B].RTSR
 132:stm32f10x_lib/STM32F10x_StdPeriph_Driver/src/stm32f10x_exti.c ****       EXTI->FTSR |= EXTI_InitStruct->EXTI_Line;
 228              		.loc 1 132 7 is_stmt 1 view .LVU46
 229              	@ stm32f10x_lib/STM32F10x_StdPeriph_Driver/src/stm32f10x_exti.c:132:       EXTI->FTSR |= EXTI_InitS
 230              		.loc 1 132 18 is_stmt 0 view .LVU47
 231 0062 D968     		ldr	r1, [r3, #12]	@ _22, MEM[(struct EXTI_TypeDef *)1073808384B].FTSR
 232 0064 0A43     		orrs	r2, r2, r1	@, _23, _14, _22
 233 0066 DA60     		str	r2, [r3, #12]	@ _23, MEM[(struct EXTI_TypeDef *)1073808384B].FTSR
 234              	.L4:
 235              	@ stm32f10x_lib/STM32F10x_StdPeriph_Driver/src/stm32f10x_exti.c:149: }
 133:stm32f10x_lib/STM32F10x_StdPeriph_Driver/src/stm32f10x_exti.c ****     }
 134:stm32f10x_lib/STM32F10x_StdPeriph_Driver/src/stm32f10x_exti.c ****     else
 135:stm32f10x_lib/STM32F10x_StdPeriph_Driver/src/stm32f10x_exti.c ****     {
 136:stm32f10x_lib/STM32F10x_StdPeriph_Driver/src/stm32f10x_exti.c ****       tmp = (uint32_t)EXTI_BASE;
 137:stm32f10x_lib/STM32F10x_StdPeriph_Driver/src/stm32f10x_exti.c ****       tmp += EXTI_InitStruct->EXTI_Trigger;
 138:stm32f10x_lib/STM32F10x_StdPeriph_Driver/src/stm32f10x_exti.c **** 
 139:stm32f10x_lib/STM32F10x_StdPeriph_Driver/src/stm32f10x_exti.c ****       *(__IO uint32_t *) tmp |= EXTI_InitStruct->EXTI_Line;
 140:stm32f10x_lib/STM32F10x_StdPeriph_Driver/src/stm32f10x_exti.c ****     }
 141:stm32f10x_lib/STM32F10x_StdPeriph_Driver/src/stm32f10x_exti.c ****   }
 142:stm32f10x_lib/STM32F10x_StdPeriph_Driver/src/stm32f10x_exti.c ****   else
 143:stm32f10x_lib/STM32F10x_StdPeriph_Driver/src/stm32f10x_exti.c ****   {
 144:stm32f10x_lib/STM32F10x_StdPeriph_Driver/src/stm32f10x_exti.c ****     tmp += EXTI_InitStruct->EXTI_Mode;
 145:stm32f10x_lib/STM32F10x_StdPeriph_Driver/src/stm32f10x_exti.c **** 
 146:stm32f10x_lib/STM32F10x_StdPeriph_Driver/src/stm32f10x_exti.c ****     /* Disable the selected external lines */
 147:stm32f10x_lib/STM32F10x_StdPeriph_Driver/src/stm32f10x_exti.c ****     *(__IO uint32_t *) tmp &= ~EXTI_InitStruct->EXTI_Line;
 148:stm32f10x_lib/STM32F10x_StdPeriph_Driver/src/stm32f10x_exti.c ****   }
 149:stm32f10x_lib/STM32F10x_StdPeriph_Driver/src/stm32f10x_exti.c **** }
 236              		.loc 1 149 1 view .LVU48
 237 0068 30BD     		pop	{r4, r5, pc}	@
 238              	.L6:
 136:stm32f10x_lib/STM32F10x_StdPeriph_Driver/src/stm32f10x_exti.c ****       tmp += EXTI_InitStruct->EXTI_Trigger;
 239              		.loc 1 136 7 is_stmt 1 view .LVU49
 240              	.LVL3:
ARM GAS  C:\Users\ADMINI~1\AppData\Local\Temp\cc1Kf8hE.s 			page 8


 137:stm32f10x_lib/STM32F10x_StdPeriph_Driver/src/stm32f10x_exti.c **** 
 241              		.loc 1 137 7 view .LVU50
 139:stm32f10x_lib/STM32F10x_StdPeriph_Driver/src/stm32f10x_exti.c ****     }
 242              		.loc 1 139 7 view .LVU51
 243              	@ stm32f10x_lib/STM32F10x_StdPeriph_Driver/src/stm32f10x_exti.c:137:       tmp += EXTI_InitStruct->
 137:stm32f10x_lib/STM32F10x_StdPeriph_Driver/src/stm32f10x_exti.c **** 
 244              		.loc 1 137 11 is_stmt 0 view .LVU52
 245 006a 01F18043 		add	r3, r1, #1073741824	@ tmp.2_25, _19,
 246 006e 03F58233 		add	r3, r3, #66560	@ tmp.2_25, tmp.2_25,
 247              	@ stm32f10x_lib/STM32F10x_StdPeriph_Driver/src/stm32f10x_exti.c:139:       *(__IO uint32_t *) tmp |
 139:stm32f10x_lib/STM32F10x_StdPeriph_Driver/src/stm32f10x_exti.c ****     }
 248              		.loc 1 139 30 view .LVU53
 249 0072 1968     		ldr	r1, [r3]	@ _26, *tmp.2_25
 250              	.LVL4:
 139:stm32f10x_lib/STM32F10x_StdPeriph_Driver/src/stm32f10x_exti.c ****     }
 251              		.loc 1 139 30 view .LVU54
 252 0074 0A43     		orrs	r2, r2, r1	@, _27, _14, _26
 253 0076 1A60     		str	r2, [r3]	@ _27, *tmp.2_25
 254 0078 F6E7     		b	.L4		@
 255              	.LVL5:
 256              	.L5:
 144:stm32f10x_lib/STM32F10x_StdPeriph_Driver/src/stm32f10x_exti.c **** 
 257              		.loc 1 144 5 is_stmt 1 view .LVU55
 147:stm32f10x_lib/STM32F10x_StdPeriph_Driver/src/stm32f10x_exti.c ****   }
 258              		.loc 1 147 5 view .LVU56
 259              	@ stm32f10x_lib/STM32F10x_StdPeriph_Driver/src/stm32f10x_exti.c:147:     *(__IO uint32_t *) tmp &= 
 147:stm32f10x_lib/STM32F10x_StdPeriph_Driver/src/stm32f10x_exti.c ****   }
 260              		.loc 1 147 28 is_stmt 0 view .LVU57
 261 007a 1368     		ldr	r3, [r2]	@ _31, *_51
 262 007c 0B40     		ands	r3, r3, r1	@, _34, _31, _54
 263 007e 1360     		str	r3, [r2]	@ _34, *_51
 264              	.LVL6:
 265              	@ stm32f10x_lib/STM32F10x_StdPeriph_Driver/src/stm32f10x_exti.c:149: }
 266              		.loc 1 149 1 view .LVU58
 267 0080 F2E7     		b	.L4		@
 268              	.L9:
 269 0082 00BF     		.align	2
 270              	.L8:
 271 0084 00040140 		.word	1073808384
 272              		.cfi_endproc
 273              	.LFE30:
 274              		.size	EXTI_Init, .-EXTI_Init
 275              		.align	1
 276              		.global	EXTI_StructInit
 277              		.syntax unified
 278              		.thumb
 279              		.thumb_func
 280              		.type	EXTI_StructInit, %function
 281              	EXTI_StructInit:
 282              	.LVL7:
 283              	.LFB31:
 150:stm32f10x_lib/STM32F10x_StdPeriph_Driver/src/stm32f10x_exti.c **** 
 151:stm32f10x_lib/STM32F10x_StdPeriph_Driver/src/stm32f10x_exti.c **** /**
 152:stm32f10x_lib/STM32F10x_StdPeriph_Driver/src/stm32f10x_exti.c ****   * @brief  Fills each EXTI_InitStruct member with its reset value.
 153:stm32f10x_lib/STM32F10x_StdPeriph_Driver/src/stm32f10x_exti.c ****   * @param  EXTI_InitStruct: pointer to a EXTI_InitTypeDef structure which will
 154:stm32f10x_lib/STM32F10x_StdPeriph_Driver/src/stm32f10x_exti.c ****   *         be initialized.
 155:stm32f10x_lib/STM32F10x_StdPeriph_Driver/src/stm32f10x_exti.c ****   * @retval None
ARM GAS  C:\Users\ADMINI~1\AppData\Local\Temp\cc1Kf8hE.s 			page 9


 156:stm32f10x_lib/STM32F10x_StdPeriph_Driver/src/stm32f10x_exti.c ****   */
 157:stm32f10x_lib/STM32F10x_StdPeriph_Driver/src/stm32f10x_exti.c **** void EXTI_StructInit(EXTI_InitTypeDef* EXTI_InitStruct)
 158:stm32f10x_lib/STM32F10x_StdPeriph_Driver/src/stm32f10x_exti.c **** {
 284              		.loc 1 158 1 is_stmt 1 view -0
 285              		.cfi_startproc
 286              		@ args = 0, pretend = 0, frame = 0
 287              		@ frame_needed = 0, uses_anonymous_args = 0
 288              		@ link register save eliminated.
 159:stm32f10x_lib/STM32F10x_StdPeriph_Driver/src/stm32f10x_exti.c ****   EXTI_InitStruct->EXTI_Line = EXTI_LINENONE;
 289              		.loc 1 159 3 view .LVU60
 160:stm32f10x_lib/STM32F10x_StdPeriph_Driver/src/stm32f10x_exti.c ****   EXTI_InitStruct->EXTI_Mode = EXTI_Mode_Interrupt;
 290              		.loc 1 160 3 view .LVU61
 161:stm32f10x_lib/STM32F10x_StdPeriph_Driver/src/stm32f10x_exti.c ****   EXTI_InitStruct->EXTI_Trigger = EXTI_Trigger_Falling;
 291              		.loc 1 161 3 view .LVU62
 162:stm32f10x_lib/STM32F10x_StdPeriph_Driver/src/stm32f10x_exti.c ****   EXTI_InitStruct->EXTI_LineCmd = DISABLE;
 292              		.loc 1 162 3 view .LVU63
 293              	@ stm32f10x_lib/STM32F10x_StdPeriph_Driver/src/stm32f10x_exti.c:159:   EXTI_InitStruct->EXTI_Line =
 159:stm32f10x_lib/STM32F10x_StdPeriph_Driver/src/stm32f10x_exti.c ****   EXTI_InitStruct->EXTI_Mode = EXTI_Mode_Interrupt;
 294              		.loc 1 159 30 is_stmt 0 view .LVU64
 295 0088 0023     		movs	r3, #0	@ tmp114,
 296              	@ stm32f10x_lib/STM32F10x_StdPeriph_Driver/src/stm32f10x_exti.c:160:   EXTI_InitStruct->EXTI_Mode =
 160:stm32f10x_lib/STM32F10x_StdPeriph_Driver/src/stm32f10x_exti.c ****   EXTI_InitStruct->EXTI_Trigger = EXTI_Trigger_Falling;
 297              		.loc 1 160 30 view .LVU65
 298 008a 4FF44062 		mov	r2, #3072	@ tmp116,
 299              	@ stm32f10x_lib/STM32F10x_StdPeriph_Driver/src/stm32f10x_exti.c:159:   EXTI_InitStruct->EXTI_Line =
 159:stm32f10x_lib/STM32F10x_StdPeriph_Driver/src/stm32f10x_exti.c ****   EXTI_InitStruct->EXTI_Mode = EXTI_Mode_Interrupt;
 300              		.loc 1 159 30 view .LVU66
 301 008e 0360     		str	r3, [r0]	@ tmp114, EXTI_InitStruct_2(D)->EXTI_Line
 302              	@ stm32f10x_lib/STM32F10x_StdPeriph_Driver/src/stm32f10x_exti.c:160:   EXTI_InitStruct->EXTI_Mode =
 160:stm32f10x_lib/STM32F10x_StdPeriph_Driver/src/stm32f10x_exti.c ****   EXTI_InitStruct->EXTI_Trigger = EXTI_Trigger_Falling;
 303              		.loc 1 160 30 view .LVU67
 304 0090 8280     		strh	r2, [r0, #4]	@ movhi	@ tmp116, MEM <unsigned short> [(void *)EXTI_InitStruct_2(D) + 4B]
 305              	@ stm32f10x_lib/STM32F10x_StdPeriph_Driver/src/stm32f10x_exti.c:162:   EXTI_InitStruct->EXTI_LineCm
 306              		.loc 1 162 33 view .LVU68
 307 0092 8371     		strb	r3, [r0, #6]	@ tmp114, EXTI_InitStruct_2(D)->EXTI_LineCmd
 308              	@ stm32f10x_lib/STM32F10x_StdPeriph_Driver/src/stm32f10x_exti.c:163: }
 163:stm32f10x_lib/STM32F10x_StdPeriph_Driver/src/stm32f10x_exti.c **** }
 309              		.loc 1 163 1 view .LVU69
 310 0094 7047     		bx	lr	@
 311              		.cfi_endproc
 312              	.LFE31:
 313              		.size	EXTI_StructInit, .-EXTI_StructInit
 314              		.align	1
 315              		.global	EXTI_GenerateSWInterrupt
 316              		.syntax unified
 317              		.thumb
 318              		.thumb_func
 319              		.type	EXTI_GenerateSWInterrupt, %function
 320              	EXTI_GenerateSWInterrupt:
 321              	.LVL8:
 322              	.LFB32:
 164:stm32f10x_lib/STM32F10x_StdPeriph_Driver/src/stm32f10x_exti.c **** 
 165:stm32f10x_lib/STM32F10x_StdPeriph_Driver/src/stm32f10x_exti.c **** /**
 166:stm32f10x_lib/STM32F10x_StdPeriph_Driver/src/stm32f10x_exti.c ****   * @brief  Generates a Software interrupt.
 167:stm32f10x_lib/STM32F10x_StdPeriph_Driver/src/stm32f10x_exti.c ****   * @param  EXTI_Line: specifies the EXTI lines to be enabled or disabled.
 168:stm32f10x_lib/STM32F10x_StdPeriph_Driver/src/stm32f10x_exti.c ****   *   This parameter can be any combination of EXTI_Linex where x can be (0..19).
 169:stm32f10x_lib/STM32F10x_StdPeriph_Driver/src/stm32f10x_exti.c ****   * @retval None
ARM GAS  C:\Users\ADMINI~1\AppData\Local\Temp\cc1Kf8hE.s 			page 10


 170:stm32f10x_lib/STM32F10x_StdPeriph_Driver/src/stm32f10x_exti.c ****   */
 171:stm32f10x_lib/STM32F10x_StdPeriph_Driver/src/stm32f10x_exti.c **** void EXTI_GenerateSWInterrupt(uint32_t EXTI_Line)
 172:stm32f10x_lib/STM32F10x_StdPeriph_Driver/src/stm32f10x_exti.c **** {
 323              		.loc 1 172 1 is_stmt 1 view -0
 324              		.cfi_startproc
 325              		@ args = 0, pretend = 0, frame = 0
 326              		@ frame_needed = 0, uses_anonymous_args = 0
 327              		@ link register save eliminated.
 173:stm32f10x_lib/STM32F10x_StdPeriph_Driver/src/stm32f10x_exti.c ****   /* Check the parameters */
 174:stm32f10x_lib/STM32F10x_StdPeriph_Driver/src/stm32f10x_exti.c ****   assert_param(IS_EXTI_LINE(EXTI_Line));
 328              		.loc 1 174 3 view .LVU71
 175:stm32f10x_lib/STM32F10x_StdPeriph_Driver/src/stm32f10x_exti.c ****   
 176:stm32f10x_lib/STM32F10x_StdPeriph_Driver/src/stm32f10x_exti.c ****   EXTI->SWIER |= EXTI_Line;
 329              		.loc 1 176 3 view .LVU72
 330              	@ stm32f10x_lib/STM32F10x_StdPeriph_Driver/src/stm32f10x_exti.c:176:   EXTI->SWIER |= EXTI_Line;
 331              		.loc 1 176 15 is_stmt 0 view .LVU73
 332 0096 024A     		ldr	r2, .L12	@ tmp116,
 333 0098 1369     		ldr	r3, [r2, #16]	@ _1, MEM[(struct EXTI_TypeDef *)1073808384B].SWIER
 334 009a 0343     		orrs	r3, r3, r0	@, _2, _1, tmp118
 335 009c 1361     		str	r3, [r2, #16]	@ _2, MEM[(struct EXTI_TypeDef *)1073808384B].SWIER
 336              	@ stm32f10x_lib/STM32F10x_StdPeriph_Driver/src/stm32f10x_exti.c:177: }
 177:stm32f10x_lib/STM32F10x_StdPeriph_Driver/src/stm32f10x_exti.c **** }
 337              		.loc 1 177 1 view .LVU74
 338 009e 7047     		bx	lr	@
 339              	.L13:
 340              		.align	2
 341              	.L12:
 342 00a0 00040140 		.word	1073808384
 343              		.cfi_endproc
 344              	.LFE32:
 345              		.size	EXTI_GenerateSWInterrupt, .-EXTI_GenerateSWInterrupt
 346              		.align	1
 347              		.global	EXTI_GetFlagStatus
 348              		.syntax unified
 349              		.thumb
 350              		.thumb_func
 351              		.type	EXTI_GetFlagStatus, %function
 352              	EXTI_GetFlagStatus:
 353              	.LVL9:
 354              	.LFB33:
 178:stm32f10x_lib/STM32F10x_StdPeriph_Driver/src/stm32f10x_exti.c **** 
 179:stm32f10x_lib/STM32F10x_StdPeriph_Driver/src/stm32f10x_exti.c **** /**
 180:stm32f10x_lib/STM32F10x_StdPeriph_Driver/src/stm32f10x_exti.c ****   * @brief  Checks whether the specified EXTI line flag is set or not.
 181:stm32f10x_lib/STM32F10x_StdPeriph_Driver/src/stm32f10x_exti.c ****   * @param  EXTI_Line: specifies the EXTI line flag to check.
 182:stm32f10x_lib/STM32F10x_StdPeriph_Driver/src/stm32f10x_exti.c ****   *   This parameter can be:
 183:stm32f10x_lib/STM32F10x_StdPeriph_Driver/src/stm32f10x_exti.c ****   *     @arg EXTI_Linex: External interrupt line x where x(0..19)
 184:stm32f10x_lib/STM32F10x_StdPeriph_Driver/src/stm32f10x_exti.c ****   * @retval The new state of EXTI_Line (SET or RESET).
 185:stm32f10x_lib/STM32F10x_StdPeriph_Driver/src/stm32f10x_exti.c ****   */
 186:stm32f10x_lib/STM32F10x_StdPeriph_Driver/src/stm32f10x_exti.c **** FlagStatus EXTI_GetFlagStatus(uint32_t EXTI_Line)
 187:stm32f10x_lib/STM32F10x_StdPeriph_Driver/src/stm32f10x_exti.c **** {
 355              		.loc 1 187 1 is_stmt 1 view -0
 356              		.cfi_startproc
 357              		@ args = 0, pretend = 0, frame = 0
 358              		@ frame_needed = 0, uses_anonymous_args = 0
 359              		@ link register save eliminated.
 188:stm32f10x_lib/STM32F10x_StdPeriph_Driver/src/stm32f10x_exti.c ****   FlagStatus bitstatus = RESET;
 360              		.loc 1 188 3 view .LVU76
ARM GAS  C:\Users\ADMINI~1\AppData\Local\Temp\cc1Kf8hE.s 			page 11


 189:stm32f10x_lib/STM32F10x_StdPeriph_Driver/src/stm32f10x_exti.c ****   /* Check the parameters */
 190:stm32f10x_lib/STM32F10x_StdPeriph_Driver/src/stm32f10x_exti.c ****   assert_param(IS_GET_EXTI_LINE(EXTI_Line));
 361              		.loc 1 190 3 view .LVU77
 191:stm32f10x_lib/STM32F10x_StdPeriph_Driver/src/stm32f10x_exti.c ****   
 192:stm32f10x_lib/STM32F10x_StdPeriph_Driver/src/stm32f10x_exti.c ****   if ((EXTI->PR & EXTI_Line) != (uint32_t)RESET)
 362              		.loc 1 192 3 view .LVU78
 363              	@ stm32f10x_lib/STM32F10x_StdPeriph_Driver/src/stm32f10x_exti.c:192:   if ((EXTI->PR & EXTI_Line) !
 364              		.loc 1 192 12 is_stmt 0 view .LVU79
 365 00a4 034B     		ldr	r3, .L15	@ tmp118,
 366 00a6 5B69     		ldr	r3, [r3, #20]	@ _1, MEM[(struct EXTI_TypeDef *)1073808384B].PR
 367              	.LVL10:
 193:stm32f10x_lib/STM32F10x_StdPeriph_Driver/src/stm32f10x_exti.c ****   {
 194:stm32f10x_lib/STM32F10x_StdPeriph_Driver/src/stm32f10x_exti.c ****     bitstatus = SET;
 195:stm32f10x_lib/STM32F10x_StdPeriph_Driver/src/stm32f10x_exti.c ****   }
 196:stm32f10x_lib/STM32F10x_StdPeriph_Driver/src/stm32f10x_exti.c ****   else
 197:stm32f10x_lib/STM32F10x_StdPeriph_Driver/src/stm32f10x_exti.c ****   {
 198:stm32f10x_lib/STM32F10x_StdPeriph_Driver/src/stm32f10x_exti.c ****     bitstatus = RESET;
 199:stm32f10x_lib/STM32F10x_StdPeriph_Driver/src/stm32f10x_exti.c ****   }
 200:stm32f10x_lib/STM32F10x_StdPeriph_Driver/src/stm32f10x_exti.c ****   return bitstatus;
 368              		.loc 1 200 3 is_stmt 1 view .LVU80
 369              	@ stm32f10x_lib/STM32F10x_StdPeriph_Driver/src/stm32f10x_exti.c:192:   if ((EXTI->PR & EXTI_Line) !
 192:stm32f10x_lib/STM32F10x_StdPeriph_Driver/src/stm32f10x_exti.c ****   {
 370              		.loc 1 192 6 is_stmt 0 view .LVU81
 371 00a8 0342     		tst	r3, r0	@ _1, tmp123
 372              	@ stm32f10x_lib/STM32F10x_StdPeriph_Driver/src/stm32f10x_exti.c:201: }
 201:stm32f10x_lib/STM32F10x_StdPeriph_Driver/src/stm32f10x_exti.c **** }
 373              		.loc 1 201 1 view .LVU82
 374 00aa 14BF     		ite	ne
 375 00ac 0120     		movne	r0, #1	@,
 376              	.LVL11:
 377              		.loc 1 201 1 view .LVU83
 378 00ae 0020     		moveq	r0, #0	@,
 379 00b0 7047     		bx	lr	@
 380              	.L16:
 381 00b2 00BF     		.align	2
 382              	.L15:
 383 00b4 00040140 		.word	1073808384
 384              		.cfi_endproc
 385              	.LFE33:
 386              		.size	EXTI_GetFlagStatus, .-EXTI_GetFlagStatus
 387              		.align	1
 388              		.global	EXTI_ClearFlag
 389              		.syntax unified
 390              		.thumb
 391              		.thumb_func
 392              		.type	EXTI_ClearFlag, %function
 393              	EXTI_ClearFlag:
 394              	.LVL12:
 395              	.LFB34:
 202:stm32f10x_lib/STM32F10x_StdPeriph_Driver/src/stm32f10x_exti.c **** 
 203:stm32f10x_lib/STM32F10x_StdPeriph_Driver/src/stm32f10x_exti.c **** /**
 204:stm32f10x_lib/STM32F10x_StdPeriph_Driver/src/stm32f10x_exti.c ****   * @brief  Clears the EXTI's line pending flags.
 205:stm32f10x_lib/STM32F10x_StdPeriph_Driver/src/stm32f10x_exti.c ****   * @param  EXTI_Line: specifies the EXTI lines flags to clear.
 206:stm32f10x_lib/STM32F10x_StdPeriph_Driver/src/stm32f10x_exti.c ****   *   This parameter can be any combination of EXTI_Linex where x can be (0..19).
 207:stm32f10x_lib/STM32F10x_StdPeriph_Driver/src/stm32f10x_exti.c ****   * @retval None
 208:stm32f10x_lib/STM32F10x_StdPeriph_Driver/src/stm32f10x_exti.c ****   */
 209:stm32f10x_lib/STM32F10x_StdPeriph_Driver/src/stm32f10x_exti.c **** void EXTI_ClearFlag(uint32_t EXTI_Line)
ARM GAS  C:\Users\ADMINI~1\AppData\Local\Temp\cc1Kf8hE.s 			page 12


 210:stm32f10x_lib/STM32F10x_StdPeriph_Driver/src/stm32f10x_exti.c **** {
 396              		.loc 1 210 1 is_stmt 1 view -0
 397              		.cfi_startproc
 398              		@ args = 0, pretend = 0, frame = 0
 399              		@ frame_needed = 0, uses_anonymous_args = 0
 400              		@ link register save eliminated.
 211:stm32f10x_lib/STM32F10x_StdPeriph_Driver/src/stm32f10x_exti.c ****   /* Check the parameters */
 212:stm32f10x_lib/STM32F10x_StdPeriph_Driver/src/stm32f10x_exti.c ****   assert_param(IS_EXTI_LINE(EXTI_Line));
 401              		.loc 1 212 3 view .LVU85
 213:stm32f10x_lib/STM32F10x_StdPeriph_Driver/src/stm32f10x_exti.c ****   
 214:stm32f10x_lib/STM32F10x_StdPeriph_Driver/src/stm32f10x_exti.c ****   EXTI->PR = EXTI_Line;
 402              		.loc 1 214 3 view .LVU86
 403              	@ stm32f10x_lib/STM32F10x_StdPeriph_Driver/src/stm32f10x_exti.c:214:   EXTI->PR = EXTI_Line;
 404              		.loc 1 214 12 is_stmt 0 view .LVU87
 405 00b8 014B     		ldr	r3, .L18	@ tmp114,
 406 00ba 5861     		str	r0, [r3, #20]	@ EXTI_Line, MEM[(struct EXTI_TypeDef *)1073808384B].PR
 407              	@ stm32f10x_lib/STM32F10x_StdPeriph_Driver/src/stm32f10x_exti.c:215: }
 215:stm32f10x_lib/STM32F10x_StdPeriph_Driver/src/stm32f10x_exti.c **** }
 408              		.loc 1 215 1 view .LVU88
 409 00bc 7047     		bx	lr	@
 410              	.L19:
 411 00be 00BF     		.align	2
 412              	.L18:
 413 00c0 00040140 		.word	1073808384
 414              		.cfi_endproc
 415              	.LFE34:
 416              		.size	EXTI_ClearFlag, .-EXTI_ClearFlag
 417              		.align	1
 418              		.global	EXTI_GetITStatus
 419              		.syntax unified
 420              		.thumb
 421              		.thumb_func
 422              		.type	EXTI_GetITStatus, %function
 423              	EXTI_GetITStatus:
 424              	.LVL13:
 425              	.LFB35:
 216:stm32f10x_lib/STM32F10x_StdPeriph_Driver/src/stm32f10x_exti.c **** 
 217:stm32f10x_lib/STM32F10x_StdPeriph_Driver/src/stm32f10x_exti.c **** /**
 218:stm32f10x_lib/STM32F10x_StdPeriph_Driver/src/stm32f10x_exti.c ****   * @brief  Checks whether the specified EXTI line is asserted or not.
 219:stm32f10x_lib/STM32F10x_StdPeriph_Driver/src/stm32f10x_exti.c ****   * @param  EXTI_Line: specifies the EXTI line to check.
 220:stm32f10x_lib/STM32F10x_StdPeriph_Driver/src/stm32f10x_exti.c ****   *   This parameter can be:
 221:stm32f10x_lib/STM32F10x_StdPeriph_Driver/src/stm32f10x_exti.c ****   *     @arg EXTI_Linex: External interrupt line x where x(0..19)
 222:stm32f10x_lib/STM32F10x_StdPeriph_Driver/src/stm32f10x_exti.c ****   * @retval The new state of EXTI_Line (SET or RESET).
 223:stm32f10x_lib/STM32F10x_StdPeriph_Driver/src/stm32f10x_exti.c ****   */
 224:stm32f10x_lib/STM32F10x_StdPeriph_Driver/src/stm32f10x_exti.c **** ITStatus EXTI_GetITStatus(uint32_t EXTI_Line)
 225:stm32f10x_lib/STM32F10x_StdPeriph_Driver/src/stm32f10x_exti.c **** {
 426              		.loc 1 225 1 is_stmt 1 view -0
 427              		.cfi_startproc
 428              		@ args = 0, pretend = 0, frame = 0
 429              		@ frame_needed = 0, uses_anonymous_args = 0
 430              		@ link register save eliminated.
 226:stm32f10x_lib/STM32F10x_StdPeriph_Driver/src/stm32f10x_exti.c ****   ITStatus bitstatus = RESET;
 431              		.loc 1 226 3 view .LVU90
 227:stm32f10x_lib/STM32F10x_StdPeriph_Driver/src/stm32f10x_exti.c ****   uint32_t enablestatus = 0;
 432              		.loc 1 227 3 view .LVU91
 228:stm32f10x_lib/STM32F10x_StdPeriph_Driver/src/stm32f10x_exti.c ****   /* Check the parameters */
 229:stm32f10x_lib/STM32F10x_StdPeriph_Driver/src/stm32f10x_exti.c ****   assert_param(IS_GET_EXTI_LINE(EXTI_Line));
ARM GAS  C:\Users\ADMINI~1\AppData\Local\Temp\cc1Kf8hE.s 			page 13


 433              		.loc 1 229 3 view .LVU92
 230:stm32f10x_lib/STM32F10x_StdPeriph_Driver/src/stm32f10x_exti.c ****   
 231:stm32f10x_lib/STM32F10x_StdPeriph_Driver/src/stm32f10x_exti.c ****   enablestatus =  EXTI->IMR & EXTI_Line;
 434              		.loc 1 231 3 view .LVU93
 435              	@ stm32f10x_lib/STM32F10x_StdPeriph_Driver/src/stm32f10x_exti.c:225: {
 225:stm32f10x_lib/STM32F10x_StdPeriph_Driver/src/stm32f10x_exti.c ****   ITStatus bitstatus = RESET;
 436              		.loc 1 225 1 is_stmt 0 view .LVU94
 437 00c4 0246     		mov	r2, r0	@ EXTI_Line, tmp127
 438              	@ stm32f10x_lib/STM32F10x_StdPeriph_Driver/src/stm32f10x_exti.c:231:   enablestatus =  EXTI->IMR & 
 439              		.loc 1 231 23 view .LVU95
 440 00c6 054B     		ldr	r3, .L23	@ tmp120,
 441 00c8 1968     		ldr	r1, [r3]	@ _1, MEM[(struct EXTI_TypeDef *)1073808384B].IMR
 442              	.LVL14:
 232:stm32f10x_lib/STM32F10x_StdPeriph_Driver/src/stm32f10x_exti.c ****   if (((EXTI->PR & EXTI_Line) != (uint32_t)RESET) && (enablestatus != (uint32_t)RESET))
 443              		.loc 1 232 3 is_stmt 1 view .LVU96
 444              	@ stm32f10x_lib/STM32F10x_StdPeriph_Driver/src/stm32f10x_exti.c:232:   if (((EXTI->PR & EXTI_Line) 
 445              		.loc 1 232 13 is_stmt 0 view .LVU97
 446 00ca 5869     		ldr	r0, [r3, #20]	@ _2, MEM[(struct EXTI_TypeDef *)1073808384B].PR
 447              	.LVL15:
 448              	@ stm32f10x_lib/STM32F10x_StdPeriph_Driver/src/stm32f10x_exti.c:232:   if (((EXTI->PR & EXTI_Line) 
 449              		.loc 1 232 6 view .LVU98
 450 00cc 1040     		ands	r0, r0, r2	@ tmp122, _2, EXTI_Line
 451 00ce 03D0     		beq	.L21		@,
 452              	@ stm32f10x_lib/STM32F10x_StdPeriph_Driver/src/stm32f10x_exti.c:232:   if (((EXTI->PR & EXTI_Line) 
 453              		.loc 1 232 51 discriminator 1 view .LVU99
 454 00d0 1142     		tst	r1, r2	@ _1, EXTI_Line
 455              	@ stm32f10x_lib/STM32F10x_StdPeriph_Driver/src/stm32f10x_exti.c:238:     bitstatus = RESET;
 233:stm32f10x_lib/STM32F10x_StdPeriph_Driver/src/stm32f10x_exti.c ****   {
 234:stm32f10x_lib/STM32F10x_StdPeriph_Driver/src/stm32f10x_exti.c ****     bitstatus = SET;
 235:stm32f10x_lib/STM32F10x_StdPeriph_Driver/src/stm32f10x_exti.c ****   }
 236:stm32f10x_lib/STM32F10x_StdPeriph_Driver/src/stm32f10x_exti.c ****   else
 237:stm32f10x_lib/STM32F10x_StdPeriph_Driver/src/stm32f10x_exti.c ****   {
 238:stm32f10x_lib/STM32F10x_StdPeriph_Driver/src/stm32f10x_exti.c ****     bitstatus = RESET;
 456              		.loc 1 238 15 discriminator 1 view .LVU100
 457 00d2 14BF     		ite	ne
 458 00d4 0120     		movne	r0, #1	@ <retval>,
 459 00d6 0020     		moveq	r0, #0	@ <retval>,
 460              	.L21:
 461              	.LVL16:
 239:stm32f10x_lib/STM32F10x_StdPeriph_Driver/src/stm32f10x_exti.c ****   }
 240:stm32f10x_lib/STM32F10x_StdPeriph_Driver/src/stm32f10x_exti.c ****   return bitstatus;
 462              		.loc 1 240 3 is_stmt 1 view .LVU101
 463              	@ stm32f10x_lib/STM32F10x_StdPeriph_Driver/src/stm32f10x_exti.c:241: }
 241:stm32f10x_lib/STM32F10x_StdPeriph_Driver/src/stm32f10x_exti.c **** }
 464              		.loc 1 241 1 is_stmt 0 view .LVU102
 465 00d8 7047     		bx	lr	@
 466              	.L24:
 467 00da 00BF     		.align	2
 468              	.L23:
 469 00dc 00040140 		.word	1073808384
 470              		.cfi_endproc
 471              	.LFE35:
 472              		.size	EXTI_GetITStatus, .-EXTI_GetITStatus
 473              		.align	1
 474              		.global	EXTI_ClearITPendingBit
 475              		.syntax unified
 476              		.thumb
ARM GAS  C:\Users\ADMINI~1\AppData\Local\Temp\cc1Kf8hE.s 			page 14


 477              		.thumb_func
 478              		.type	EXTI_ClearITPendingBit, %function
 479              	EXTI_ClearITPendingBit:
 480              	.LFB38:
 481              		.cfi_startproc
 482              		@ args = 0, pretend = 0, frame = 0
 483              		@ frame_needed = 0, uses_anonymous_args = 0
 484              		@ link register save eliminated.
 485 00e0 014B     		ldr	r3, .L26	@ tmp114,
 486 00e2 5861     		str	r0, [r3, #20]	@ EXTI_Line, MEM[(struct EXTI_TypeDef *)1073808384B].PR
 487 00e4 7047     		bx	lr	@
 488              	.L27:
 489 00e6 00BF     		.align	2
 490              	.L26:
 491 00e8 00040140 		.word	1073808384
 492              		.cfi_endproc
 493              	.LFE38:
 494              		.size	EXTI_ClearITPendingBit, .-EXTI_ClearITPendingBit
 495              	.Letext0:
 496              		.file 2 "c:\\program files (x86)\\gnu arm embedded toolchain\\10 2021.10\\arm-none-eabi\\include\\
 497              		.file 3 "c:\\program files (x86)\\gnu arm embedded toolchain\\10 2021.10\\arm-none-eabi\\include\\
 498              		.file 4 "./stm32f10x_lib/CMSIS/CM3/DeviceSupport/ST/STM32F10x/stm32f10x.h"
 499              		.file 5 "./stm32f10x_lib/STM32F10x_StdPeriph_Driver/inc/stm32f10x_exti.h"