ARM GAS  C:\Users\ADMINI~1\AppData\Local\Temp\cc5w2WuM.s 			page 1


   1              		.cpu cortex-m3
   2              		.arch armv7-m
   3              		.fpu softvfp
   4              		.eabi_attribute 20, 1	@ Tag_ABI_FP_denormal
   5              		.eabi_attribute 21, 1	@ Tag_ABI_FP_exceptions
   6              		.eabi_attribute 23, 3	@ Tag_ABI_FP_number_model
   7              		.eabi_attribute 24, 1	@ Tag_ABI_align8_needed
   8              		.eabi_attribute 25, 1	@ Tag_ABI_align8_preserved
   9              		.eabi_attribute 26, 1	@ Tag_ABI_enum_size
  10              		.eabi_attribute 30, 4	@ Tag_ABI_optimization_goals
  11              		.eabi_attribute 34, 1	@ Tag_CPU_unaligned_access
  12              		.eabi_attribute 18, 4	@ Tag_ABI_PCS_wchar_t
  13              		.file	"stm32f10x_usart.c"
  14              	@ GNU C17 (GNU Arm Embedded Toolchain 10.3-2021.10) version 10.3.1 20210824 (release) (arm-none-eab
  15              	@	compiled by GNU C version 7.3-win32 20180312, GMP version 6.1.0, MPFR version 3.1.4, MPC version 
  16              	
  17              	@ GGC heuristics: --param ggc-min-expand=100 --param ggc-min-heapsize=131072
  18              	@ options passed:  -I . -I ./user -I ./stm32f10x_lib/CMSIS/CM3/CoreSupport
  19              	@ -I ./stm32f10x_lib/CMSIS/CM3/DeviceSupport/ST/STM32F10x
  20              	@ -I ./stm32f10x_lib/STM32F10x_StdPeriph_Driver/inc
  21              	@ -I ./stm32f10x_lib/STM32F10x_StdPeriph_Driver -I ./freertos/include
  22              	@ -I ./freertos/portable/GCC/ARM_CM3 -imultilib thumb/v7-m/nofp
  23              	@ -iprefix c:\program files (x86)\gnu arm embedded toolchain\10 2021.10\bin\../lib/gcc/arm-none-eab
  24              	@ -isysroot c:\program files (x86)\gnu arm embedded toolchain\10 2021.10\bin\../arm-none-eabi
  25              	@ -D__USES_INITFINI__ -D STM32F10X_MD -D USE_STDPERIPH_DRIVER
  26              	@ -D HSE_VALUE=8000000 -D RUN_FROM_FLASH=1
  27              	@ stm32f10x_lib/STM32F10x_StdPeriph_Driver/src/stm32f10x_usart.c
  28              	@ -mcpu=cortex-m3 -mthumb -mfloat-abi=soft -mlibarch=armv7-m -march=armv7-m
  29              	@ -auxbase-strip stm32f10x_lib/STM32F10x_StdPeriph_Driver/src/stm32f10x_usart.o
  30              	@ -g -gdwarf-2 -Os -Wall -fomit-frame-pointer -fverbose-asm
  31              	@ options enabled:  -faggressive-loop-optimizations -fallocation-dce
  32              	@ -fauto-inc-dec -fbranch-count-reg -fcaller-saves -fcode-hoisting
  33              	@ -fcombine-stack-adjustments -fcompare-elim -fcprop-registers
  34              	@ -fcrossjumping -fcse-follow-jumps -fdefer-pop
  35              	@ -fdelete-null-pointer-checks -fdevirtualize -fdevirtualize-speculatively
  36              	@ -fdwarf2-cfi-asm -fearly-inlining -feliminate-unused-debug-symbols
  37              	@ -feliminate-unused-debug-types -fexpensive-optimizations
  38              	@ -fforward-propagate -ffp-int-builtin-inexact -ffunction-cse -fgcse
  39              	@ -fgcse-lm -fgnu-unique -fguess-branch-probability -fhoist-adjacent-loads
  40              	@ -fident -fif-conversion -fif-conversion2 -findirect-inlining -finline
  41              	@ -finline-atomics -finline-functions -finline-functions-called-once
  42              	@ -finline-small-functions -fipa-bit-cp -fipa-cp -fipa-icf
  43              	@ -fipa-icf-functions -fipa-icf-variables -fipa-profile -fipa-pure-const
  44              	@ -fipa-ra -fipa-reference -fipa-reference-addressable -fipa-sra
  45              	@ -fipa-stack-alignment -fipa-vrp -fira-hoist-pressure
  46              	@ -fira-share-save-slots -fira-share-spill-slots
  47              	@ -fisolate-erroneous-paths-dereference -fivopts -fkeep-static-consts
  48              	@ -fleading-underscore -flifetime-dse -flra-remat -fmath-errno
  49              	@ -fmerge-constants -fmerge-debug-strings -fmove-loop-invariants
  50              	@ -fomit-frame-pointer -foptimize-sibling-calls -fpartial-inlining
  51              	@ -fpeephole -fpeephole2 -fplt -fprefetch-loop-arrays -freg-struct-return
  52              	@ -freorder-blocks -freorder-functions -frerun-cse-after-loop
  53              	@ -fsched-critical-path-heuristic -fsched-dep-count-heuristic
  54              	@ -fsched-group-heuristic -fsched-interblock -fsched-last-insn-heuristic
  55              	@ -fsched-pressure -fsched-rank-heuristic -fsched-spec
  56              	@ -fsched-spec-insn-heuristic -fsched-stalled-insns-dep -fschedule-insns2
  57              	@ -fsection-anchors -fsemantic-interposition -fshow-column
ARM GAS  C:\Users\ADMINI~1\AppData\Local\Temp\cc5w2WuM.s 			page 2


  58              	@ -fshrink-wrap-separate -fsigned-zeros -fsplit-ivs-in-unroller
  59              	@ -fsplit-wide-types -fssa-backprop -fssa-phiopt -fstdarg-opt
  60              	@ -fstore-merging -fstrict-aliasing -fstrict-volatile-bitfields
  61              	@ -fsync-libcalls -fthread-jumps -ftoplevel-reorder -ftrapping-math
  62              	@ -ftree-bit-ccp -ftree-builtin-call-dce -ftree-ccp -ftree-ch
  63              	@ -ftree-coalesce-vars -ftree-copy-prop -ftree-cselim -ftree-dce
  64              	@ -ftree-dominator-opts -ftree-dse -ftree-forwprop -ftree-fre
  65              	@ -ftree-loop-distribute-patterns -ftree-loop-if-convert -ftree-loop-im
  66              	@ -ftree-loop-ivcanon -ftree-loop-optimize -ftree-parallelize-loops=
  67              	@ -ftree-phiprop -ftree-pre -ftree-pta -ftree-reassoc -ftree-scev-cprop
  68              	@ -ftree-sink -ftree-slsr -ftree-sra -ftree-switch-conversion
  69              	@ -ftree-tail-merge -ftree-ter -ftree-vrp -funit-at-a-time -fvar-tracking
  70              	@ -fvar-tracking-assignments -fverbose-asm -fzero-initialized-in-bss
  71              	@ -masm-syntax-unified -mbe32 -mfix-cortex-m3-ldrd -mlittle-endian
  72              	@ -mpic-data-is-text-relative -msched-prolog -mthumb -munaligned-access
  73              	@ -mvectorize-with-neon-quad
  74              	
  75              		.text
  76              	.Ltext0:
  77              		.cfi_sections	.debug_frame
  78              		.align	1
  79              		.global	USART_DeInit
  80              		.syntax unified
  81              		.thumb
  82              		.thumb_func
  83              		.type	USART_DeInit, %function
  84              	USART_DeInit:
  85              	.LVL0:
  86              	.LFB29:
  87              		.file 1 "stm32f10x_lib/STM32F10x_StdPeriph_Driver/src/stm32f10x_usart.c"
   1:stm32f10x_lib/STM32F10x_StdPeriph_Driver/src/stm32f10x_usart.c **** /**
   2:stm32f10x_lib/STM32F10x_StdPeriph_Driver/src/stm32f10x_usart.c ****   ******************************************************************************
   3:stm32f10x_lib/STM32F10x_StdPeriph_Driver/src/stm32f10x_usart.c ****   * @file    stm32f10x_usart.c
   4:stm32f10x_lib/STM32F10x_StdPeriph_Driver/src/stm32f10x_usart.c ****   * @author  MCD Application Team
   5:stm32f10x_lib/STM32F10x_StdPeriph_Driver/src/stm32f10x_usart.c ****   * @version V3.5.0
   6:stm32f10x_lib/STM32F10x_StdPeriph_Driver/src/stm32f10x_usart.c ****   * @date    11-March-2011
   7:stm32f10x_lib/STM32F10x_StdPeriph_Driver/src/stm32f10x_usart.c ****   * @brief   This file provides all the USART firmware functions.
   8:stm32f10x_lib/STM32F10x_StdPeriph_Driver/src/stm32f10x_usart.c ****   ******************************************************************************
   9:stm32f10x_lib/STM32F10x_StdPeriph_Driver/src/stm32f10x_usart.c ****   * @attention
  10:stm32f10x_lib/STM32F10x_StdPeriph_Driver/src/stm32f10x_usart.c ****   *
  11:stm32f10x_lib/STM32F10x_StdPeriph_Driver/src/stm32f10x_usart.c ****   * THE PRESENT FIRMWARE WHICH IS FOR GUIDANCE ONLY AIMS AT PROVIDING CUSTOMERS
  12:stm32f10x_lib/STM32F10x_StdPeriph_Driver/src/stm32f10x_usart.c ****   * WITH CODING INFORMATION REGARDING THEIR PRODUCTS IN ORDER FOR THEM TO SAVE
  13:stm32f10x_lib/STM32F10x_StdPeriph_Driver/src/stm32f10x_usart.c ****   * TIME. AS A RESULT, STMICROELECTRONICS SHALL NOT BE HELD LIABLE FOR ANY
  14:stm32f10x_lib/STM32F10x_StdPeriph_Driver/src/stm32f10x_usart.c ****   * DIRECT, INDIRECT OR CONSEQUENTIAL DAMAGES WITH RESPECT TO ANY CLAIMS ARISING
  15:stm32f10x_lib/STM32F10x_StdPeriph_Driver/src/stm32f10x_usart.c ****   * FROM THE CONTENT OF SUCH FIRMWARE AND/OR THE USE MADE BY CUSTOMERS OF THE
  16:stm32f10x_lib/STM32F10x_StdPeriph_Driver/src/stm32f10x_usart.c ****   * CODING INFORMATION CONTAINED HEREIN IN CONNECTION WITH THEIR PRODUCTS.
  17:stm32f10x_lib/STM32F10x_StdPeriph_Driver/src/stm32f10x_usart.c ****   *
  18:stm32f10x_lib/STM32F10x_StdPeriph_Driver/src/stm32f10x_usart.c ****   * <h2><center>&copy; COPYRIGHT 2011 STMicroelectronics</center></h2>
  19:stm32f10x_lib/STM32F10x_StdPeriph_Driver/src/stm32f10x_usart.c ****   ******************************************************************************
  20:stm32f10x_lib/STM32F10x_StdPeriph_Driver/src/stm32f10x_usart.c ****   */
  21:stm32f10x_lib/STM32F10x_StdPeriph_Driver/src/stm32f10x_usart.c **** 
  22:stm32f10x_lib/STM32F10x_StdPeriph_Driver/src/stm32f10x_usart.c **** /* Includes ------------------------------------------------------------------*/
  23:stm32f10x_lib/STM32F10x_StdPeriph_Driver/src/stm32f10x_usart.c **** #include "stm32f10x_usart.h"
  24:stm32f10x_lib/STM32F10x_StdPeriph_Driver/src/stm32f10x_usart.c **** #include "stm32f10x_rcc.h"
  25:stm32f10x_lib/STM32F10x_StdPeriph_Driver/src/stm32f10x_usart.c **** 
  26:stm32f10x_lib/STM32F10x_StdPeriph_Driver/src/stm32f10x_usart.c **** /** @addtogroup STM32F10x_StdPeriph_Driver
  27:stm32f10x_lib/STM32F10x_StdPeriph_Driver/src/stm32f10x_usart.c ****   * @{
ARM GAS  C:\Users\ADMINI~1\AppData\Local\Temp\cc5w2WuM.s 			page 3


  28:stm32f10x_lib/STM32F10x_StdPeriph_Driver/src/stm32f10x_usart.c ****   */
  29:stm32f10x_lib/STM32F10x_StdPeriph_Driver/src/stm32f10x_usart.c **** 
  30:stm32f10x_lib/STM32F10x_StdPeriph_Driver/src/stm32f10x_usart.c **** /** @defgroup USART 
  31:stm32f10x_lib/STM32F10x_StdPeriph_Driver/src/stm32f10x_usart.c ****   * @brief USART driver modules
  32:stm32f10x_lib/STM32F10x_StdPeriph_Driver/src/stm32f10x_usart.c ****   * @{
  33:stm32f10x_lib/STM32F10x_StdPeriph_Driver/src/stm32f10x_usart.c ****   */
  34:stm32f10x_lib/STM32F10x_StdPeriph_Driver/src/stm32f10x_usart.c **** 
  35:stm32f10x_lib/STM32F10x_StdPeriph_Driver/src/stm32f10x_usart.c **** /** @defgroup USART_Private_TypesDefinitions
  36:stm32f10x_lib/STM32F10x_StdPeriph_Driver/src/stm32f10x_usart.c ****   * @{
  37:stm32f10x_lib/STM32F10x_StdPeriph_Driver/src/stm32f10x_usart.c ****   */
  38:stm32f10x_lib/STM32F10x_StdPeriph_Driver/src/stm32f10x_usart.c **** 
  39:stm32f10x_lib/STM32F10x_StdPeriph_Driver/src/stm32f10x_usart.c **** /**
  40:stm32f10x_lib/STM32F10x_StdPeriph_Driver/src/stm32f10x_usart.c ****   * @}
  41:stm32f10x_lib/STM32F10x_StdPeriph_Driver/src/stm32f10x_usart.c ****   */
  42:stm32f10x_lib/STM32F10x_StdPeriph_Driver/src/stm32f10x_usart.c **** 
  43:stm32f10x_lib/STM32F10x_StdPeriph_Driver/src/stm32f10x_usart.c **** /** @defgroup USART_Private_Defines
  44:stm32f10x_lib/STM32F10x_StdPeriph_Driver/src/stm32f10x_usart.c ****   * @{
  45:stm32f10x_lib/STM32F10x_StdPeriph_Driver/src/stm32f10x_usart.c ****   */
  46:stm32f10x_lib/STM32F10x_StdPeriph_Driver/src/stm32f10x_usart.c **** 
  47:stm32f10x_lib/STM32F10x_StdPeriph_Driver/src/stm32f10x_usart.c **** #define CR1_UE_Set                ((uint16_t)0x2000)  /*!< USART Enable Mask */
  48:stm32f10x_lib/STM32F10x_StdPeriph_Driver/src/stm32f10x_usart.c **** #define CR1_UE_Reset              ((uint16_t)0xDFFF)  /*!< USART Disable Mask */
  49:stm32f10x_lib/STM32F10x_StdPeriph_Driver/src/stm32f10x_usart.c **** 
  50:stm32f10x_lib/STM32F10x_StdPeriph_Driver/src/stm32f10x_usart.c **** #define CR1_WAKE_Mask             ((uint16_t)0xF7FF)  /*!< USART WakeUp Method Mask */
  51:stm32f10x_lib/STM32F10x_StdPeriph_Driver/src/stm32f10x_usart.c **** 
  52:stm32f10x_lib/STM32F10x_StdPeriph_Driver/src/stm32f10x_usart.c **** #define CR1_RWU_Set               ((uint16_t)0x0002)  /*!< USART mute mode Enable Mask */
  53:stm32f10x_lib/STM32F10x_StdPeriph_Driver/src/stm32f10x_usart.c **** #define CR1_RWU_Reset             ((uint16_t)0xFFFD)  /*!< USART mute mode Enable Mask */
  54:stm32f10x_lib/STM32F10x_StdPeriph_Driver/src/stm32f10x_usart.c **** #define CR1_SBK_Set               ((uint16_t)0x0001)  /*!< USART Break Character send Mask */
  55:stm32f10x_lib/STM32F10x_StdPeriph_Driver/src/stm32f10x_usart.c **** #define CR1_CLEAR_Mask            ((uint16_t)0xE9F3)  /*!< USART CR1 Mask */
  56:stm32f10x_lib/STM32F10x_StdPeriph_Driver/src/stm32f10x_usart.c **** #define CR2_Address_Mask          ((uint16_t)0xFFF0)  /*!< USART address Mask */
  57:stm32f10x_lib/STM32F10x_StdPeriph_Driver/src/stm32f10x_usart.c **** 
  58:stm32f10x_lib/STM32F10x_StdPeriph_Driver/src/stm32f10x_usart.c **** #define CR2_LINEN_Set              ((uint16_t)0x4000)  /*!< USART LIN Enable Mask */
  59:stm32f10x_lib/STM32F10x_StdPeriph_Driver/src/stm32f10x_usart.c **** #define CR2_LINEN_Reset            ((uint16_t)0xBFFF)  /*!< USART LIN Disable Mask */
  60:stm32f10x_lib/STM32F10x_StdPeriph_Driver/src/stm32f10x_usart.c **** 
  61:stm32f10x_lib/STM32F10x_StdPeriph_Driver/src/stm32f10x_usart.c **** #define CR2_LBDL_Mask             ((uint16_t)0xFFDF)  /*!< USART LIN Break detection Mask */
  62:stm32f10x_lib/STM32F10x_StdPeriph_Driver/src/stm32f10x_usart.c **** #define CR2_STOP_CLEAR_Mask       ((uint16_t)0xCFFF)  /*!< USART CR2 STOP Bits Mask */
  63:stm32f10x_lib/STM32F10x_StdPeriph_Driver/src/stm32f10x_usart.c **** #define CR2_CLOCK_CLEAR_Mask      ((uint16_t)0xF0FF)  /*!< USART CR2 Clock Mask */
  64:stm32f10x_lib/STM32F10x_StdPeriph_Driver/src/stm32f10x_usart.c **** 
  65:stm32f10x_lib/STM32F10x_StdPeriph_Driver/src/stm32f10x_usart.c **** #define CR3_SCEN_Set              ((uint16_t)0x0020)  /*!< USART SC Enable Mask */
  66:stm32f10x_lib/STM32F10x_StdPeriph_Driver/src/stm32f10x_usart.c **** #define CR3_SCEN_Reset            ((uint16_t)0xFFDF)  /*!< USART SC Disable Mask */
  67:stm32f10x_lib/STM32F10x_StdPeriph_Driver/src/stm32f10x_usart.c **** 
  68:stm32f10x_lib/STM32F10x_StdPeriph_Driver/src/stm32f10x_usart.c **** #define CR3_NACK_Set              ((uint16_t)0x0010)  /*!< USART SC NACK Enable Mask */
  69:stm32f10x_lib/STM32F10x_StdPeriph_Driver/src/stm32f10x_usart.c **** #define CR3_NACK_Reset            ((uint16_t)0xFFEF)  /*!< USART SC NACK Disable Mask */
  70:stm32f10x_lib/STM32F10x_StdPeriph_Driver/src/stm32f10x_usart.c **** 
  71:stm32f10x_lib/STM32F10x_StdPeriph_Driver/src/stm32f10x_usart.c **** #define CR3_HDSEL_Set             ((uint16_t)0x0008)  /*!< USART Half-Duplex Enable Mask */
  72:stm32f10x_lib/STM32F10x_StdPeriph_Driver/src/stm32f10x_usart.c **** #define CR3_HDSEL_Reset           ((uint16_t)0xFFF7)  /*!< USART Half-Duplex Disable Mask */
  73:stm32f10x_lib/STM32F10x_StdPeriph_Driver/src/stm32f10x_usart.c **** 
  74:stm32f10x_lib/STM32F10x_StdPeriph_Driver/src/stm32f10x_usart.c **** #define CR3_IRLP_Mask             ((uint16_t)0xFFFB)  /*!< USART IrDA LowPower mode Mask */
  75:stm32f10x_lib/STM32F10x_StdPeriph_Driver/src/stm32f10x_usart.c **** #define CR3_CLEAR_Mask            ((uint16_t)0xFCFF)  /*!< USART CR3 Mask */
  76:stm32f10x_lib/STM32F10x_StdPeriph_Driver/src/stm32f10x_usart.c **** 
  77:stm32f10x_lib/STM32F10x_StdPeriph_Driver/src/stm32f10x_usart.c **** #define CR3_IREN_Set              ((uint16_t)0x0002)  /*!< USART IrDA Enable Mask */
  78:stm32f10x_lib/STM32F10x_StdPeriph_Driver/src/stm32f10x_usart.c **** #define CR3_IREN_Reset            ((uint16_t)0xFFFD)  /*!< USART IrDA Disable Mask */
  79:stm32f10x_lib/STM32F10x_StdPeriph_Driver/src/stm32f10x_usart.c **** #define GTPR_LSB_Mask             ((uint16_t)0x00FF)  /*!< Guard Time Register LSB Mask */
  80:stm32f10x_lib/STM32F10x_StdPeriph_Driver/src/stm32f10x_usart.c **** #define GTPR_MSB_Mask             ((uint16_t)0xFF00)  /*!< Guard Time Register MSB Mask */
  81:stm32f10x_lib/STM32F10x_StdPeriph_Driver/src/stm32f10x_usart.c **** #define IT_Mask                   ((uint16_t)0x001F)  /*!< USART Interrupt Mask */
  82:stm32f10x_lib/STM32F10x_StdPeriph_Driver/src/stm32f10x_usart.c **** 
  83:stm32f10x_lib/STM32F10x_StdPeriph_Driver/src/stm32f10x_usart.c **** /* USART OverSampling-8 Mask */
  84:stm32f10x_lib/STM32F10x_StdPeriph_Driver/src/stm32f10x_usart.c **** #define CR1_OVER8_Set             ((u16)0x8000)  /* USART OVER8 mode Enable Mask */
ARM GAS  C:\Users\ADMINI~1\AppData\Local\Temp\cc5w2WuM.s 			page 4


  85:stm32f10x_lib/STM32F10x_StdPeriph_Driver/src/stm32f10x_usart.c **** #define CR1_OVER8_Reset           ((u16)0x7FFF)  /* USART OVER8 mode Disable Mask */
  86:stm32f10x_lib/STM32F10x_StdPeriph_Driver/src/stm32f10x_usart.c **** 
  87:stm32f10x_lib/STM32F10x_StdPeriph_Driver/src/stm32f10x_usart.c **** /* USART One Bit Sampling Mask */
  88:stm32f10x_lib/STM32F10x_StdPeriph_Driver/src/stm32f10x_usart.c **** #define CR3_ONEBITE_Set           ((u16)0x0800)  /* USART ONEBITE mode Enable Mask */
  89:stm32f10x_lib/STM32F10x_StdPeriph_Driver/src/stm32f10x_usart.c **** #define CR3_ONEBITE_Reset         ((u16)0xF7FF)  /* USART ONEBITE mode Disable Mask */
  90:stm32f10x_lib/STM32F10x_StdPeriph_Driver/src/stm32f10x_usart.c **** 
  91:stm32f10x_lib/STM32F10x_StdPeriph_Driver/src/stm32f10x_usart.c **** /**
  92:stm32f10x_lib/STM32F10x_StdPeriph_Driver/src/stm32f10x_usart.c ****   * @}
  93:stm32f10x_lib/STM32F10x_StdPeriph_Driver/src/stm32f10x_usart.c ****   */
  94:stm32f10x_lib/STM32F10x_StdPeriph_Driver/src/stm32f10x_usart.c **** 
  95:stm32f10x_lib/STM32F10x_StdPeriph_Driver/src/stm32f10x_usart.c **** /** @defgroup USART_Private_Macros
  96:stm32f10x_lib/STM32F10x_StdPeriph_Driver/src/stm32f10x_usart.c ****   * @{
  97:stm32f10x_lib/STM32F10x_StdPeriph_Driver/src/stm32f10x_usart.c ****   */
  98:stm32f10x_lib/STM32F10x_StdPeriph_Driver/src/stm32f10x_usart.c **** 
  99:stm32f10x_lib/STM32F10x_StdPeriph_Driver/src/stm32f10x_usart.c **** /**
 100:stm32f10x_lib/STM32F10x_StdPeriph_Driver/src/stm32f10x_usart.c ****   * @}
 101:stm32f10x_lib/STM32F10x_StdPeriph_Driver/src/stm32f10x_usart.c ****   */
 102:stm32f10x_lib/STM32F10x_StdPeriph_Driver/src/stm32f10x_usart.c **** 
 103:stm32f10x_lib/STM32F10x_StdPeriph_Driver/src/stm32f10x_usart.c **** /** @defgroup USART_Private_Variables
 104:stm32f10x_lib/STM32F10x_StdPeriph_Driver/src/stm32f10x_usart.c ****   * @{
 105:stm32f10x_lib/STM32F10x_StdPeriph_Driver/src/stm32f10x_usart.c ****   */
 106:stm32f10x_lib/STM32F10x_StdPeriph_Driver/src/stm32f10x_usart.c **** 
 107:stm32f10x_lib/STM32F10x_StdPeriph_Driver/src/stm32f10x_usart.c **** /**
 108:stm32f10x_lib/STM32F10x_StdPeriph_Driver/src/stm32f10x_usart.c ****   * @}
 109:stm32f10x_lib/STM32F10x_StdPeriph_Driver/src/stm32f10x_usart.c ****   */
 110:stm32f10x_lib/STM32F10x_StdPeriph_Driver/src/stm32f10x_usart.c **** 
 111:stm32f10x_lib/STM32F10x_StdPeriph_Driver/src/stm32f10x_usart.c **** /** @defgroup USART_Private_FunctionPrototypes
 112:stm32f10x_lib/STM32F10x_StdPeriph_Driver/src/stm32f10x_usart.c ****   * @{
 113:stm32f10x_lib/STM32F10x_StdPeriph_Driver/src/stm32f10x_usart.c ****   */
 114:stm32f10x_lib/STM32F10x_StdPeriph_Driver/src/stm32f10x_usart.c **** 
 115:stm32f10x_lib/STM32F10x_StdPeriph_Driver/src/stm32f10x_usart.c **** /**
 116:stm32f10x_lib/STM32F10x_StdPeriph_Driver/src/stm32f10x_usart.c ****   * @}
 117:stm32f10x_lib/STM32F10x_StdPeriph_Driver/src/stm32f10x_usart.c ****   */
 118:stm32f10x_lib/STM32F10x_StdPeriph_Driver/src/stm32f10x_usart.c **** 
 119:stm32f10x_lib/STM32F10x_StdPeriph_Driver/src/stm32f10x_usart.c **** /** @defgroup USART_Private_Functions
 120:stm32f10x_lib/STM32F10x_StdPeriph_Driver/src/stm32f10x_usart.c ****   * @{
 121:stm32f10x_lib/STM32F10x_StdPeriph_Driver/src/stm32f10x_usart.c ****   */
 122:stm32f10x_lib/STM32F10x_StdPeriph_Driver/src/stm32f10x_usart.c **** 
 123:stm32f10x_lib/STM32F10x_StdPeriph_Driver/src/stm32f10x_usart.c **** /**
 124:stm32f10x_lib/STM32F10x_StdPeriph_Driver/src/stm32f10x_usart.c ****   * @brief  Deinitializes the USARTx peripheral registers to their default reset values.
 125:stm32f10x_lib/STM32F10x_StdPeriph_Driver/src/stm32f10x_usart.c ****   * @param  USARTx: Select the USART or the UART peripheral. 
 126:stm32f10x_lib/STM32F10x_StdPeriph_Driver/src/stm32f10x_usart.c ****   *   This parameter can be one of the following values: 
 127:stm32f10x_lib/STM32F10x_StdPeriph_Driver/src/stm32f10x_usart.c ****   *      USART1, USART2, USART3, UART4 or UART5.
 128:stm32f10x_lib/STM32F10x_StdPeriph_Driver/src/stm32f10x_usart.c ****   * @retval None
 129:stm32f10x_lib/STM32F10x_StdPeriph_Driver/src/stm32f10x_usart.c ****   */
 130:stm32f10x_lib/STM32F10x_StdPeriph_Driver/src/stm32f10x_usart.c **** void USART_DeInit(USART_TypeDef* USARTx)
 131:stm32f10x_lib/STM32F10x_StdPeriph_Driver/src/stm32f10x_usart.c **** {
  88              		.loc 1 131 1 view -0
  89              		.cfi_startproc
  90              		@ args = 0, pretend = 0, frame = 0
  91              		@ frame_needed = 0, uses_anonymous_args = 0
 132:stm32f10x_lib/STM32F10x_StdPeriph_Driver/src/stm32f10x_usart.c ****   /* Check the parameters */
 133:stm32f10x_lib/STM32F10x_StdPeriph_Driver/src/stm32f10x_usart.c ****   assert_param(IS_USART_ALL_PERIPH(USARTx));
  92              		.loc 1 133 3 view .LVU1
 134:stm32f10x_lib/STM32F10x_StdPeriph_Driver/src/stm32f10x_usart.c **** 
 135:stm32f10x_lib/STM32F10x_StdPeriph_Driver/src/stm32f10x_usart.c ****   if (USARTx == USART1)
  93              		.loc 1 135 3 view .LVU2
ARM GAS  C:\Users\ADMINI~1\AppData\Local\Temp\cc5w2WuM.s 			page 5


  94              	@ stm32f10x_lib/STM32F10x_StdPeriph_Driver/src/stm32f10x_usart.c:131: {
 131:stm32f10x_lib/STM32F10x_StdPeriph_Driver/src/stm32f10x_usart.c ****   /* Check the parameters */
  95              		.loc 1 131 1 is_stmt 0 view .LVU3
  96 0000 08B5     		push	{r3, lr}	@
  97              	.LCFI0:
  98              		.cfi_def_cfa_offset 8
  99              		.cfi_offset 3, -8
 100              		.cfi_offset 14, -4
 101              	@ stm32f10x_lib/STM32F10x_StdPeriph_Driver/src/stm32f10x_usart.c:135:   if (USARTx == USART1)
 102              		.loc 1 135 6 view .LVU4
 103 0002 214B     		ldr	r3, .L8	@ tmp114,
 104 0004 9842     		cmp	r0, r3	@ USARTx, tmp114
 105 0006 0BD1     		bne	.L2		@,
 136:stm32f10x_lib/STM32F10x_StdPeriph_Driver/src/stm32f10x_usart.c ****   {
 137:stm32f10x_lib/STM32F10x_StdPeriph_Driver/src/stm32f10x_usart.c ****     RCC_APB2PeriphResetCmd(RCC_APB2Periph_USART1, ENABLE);
 106              		.loc 1 137 5 is_stmt 1 view .LVU5
 107 0008 0121     		movs	r1, #1	@,
 108 000a 4FF48040 		mov	r0, #16384	@,
 109              	.LVL1:
 110              		.loc 1 137 5 is_stmt 0 view .LVU6
 111 000e FFF7FEFF 		bl	RCC_APB2PeriphResetCmd		@
 112              	.LVL2:
 138:stm32f10x_lib/STM32F10x_StdPeriph_Driver/src/stm32f10x_usart.c ****     RCC_APB2PeriphResetCmd(RCC_APB2Periph_USART1, DISABLE);
 113              		.loc 1 138 5 is_stmt 1 view .LVU7
 114              	@ stm32f10x_lib/STM32F10x_StdPeriph_Driver/src/stm32f10x_usart.c:163: }
 139:stm32f10x_lib/STM32F10x_StdPeriph_Driver/src/stm32f10x_usart.c ****   }
 140:stm32f10x_lib/STM32F10x_StdPeriph_Driver/src/stm32f10x_usart.c ****   else if (USARTx == USART2)
 141:stm32f10x_lib/STM32F10x_StdPeriph_Driver/src/stm32f10x_usart.c ****   {
 142:stm32f10x_lib/STM32F10x_StdPeriph_Driver/src/stm32f10x_usart.c ****     RCC_APB1PeriphResetCmd(RCC_APB1Periph_USART2, ENABLE);
 143:stm32f10x_lib/STM32F10x_StdPeriph_Driver/src/stm32f10x_usart.c ****     RCC_APB1PeriphResetCmd(RCC_APB1Periph_USART2, DISABLE);
 144:stm32f10x_lib/STM32F10x_StdPeriph_Driver/src/stm32f10x_usart.c ****   }
 145:stm32f10x_lib/STM32F10x_StdPeriph_Driver/src/stm32f10x_usart.c ****   else if (USARTx == USART3)
 146:stm32f10x_lib/STM32F10x_StdPeriph_Driver/src/stm32f10x_usart.c ****   {
 147:stm32f10x_lib/STM32F10x_StdPeriph_Driver/src/stm32f10x_usart.c ****     RCC_APB1PeriphResetCmd(RCC_APB1Periph_USART3, ENABLE);
 148:stm32f10x_lib/STM32F10x_StdPeriph_Driver/src/stm32f10x_usart.c ****     RCC_APB1PeriphResetCmd(RCC_APB1Periph_USART3, DISABLE);
 149:stm32f10x_lib/STM32F10x_StdPeriph_Driver/src/stm32f10x_usart.c ****   }    
 150:stm32f10x_lib/STM32F10x_StdPeriph_Driver/src/stm32f10x_usart.c ****   else if (USARTx == UART4)
 151:stm32f10x_lib/STM32F10x_StdPeriph_Driver/src/stm32f10x_usart.c ****   {
 152:stm32f10x_lib/STM32F10x_StdPeriph_Driver/src/stm32f10x_usart.c ****     RCC_APB1PeriphResetCmd(RCC_APB1Periph_UART4, ENABLE);
 153:stm32f10x_lib/STM32F10x_StdPeriph_Driver/src/stm32f10x_usart.c ****     RCC_APB1PeriphResetCmd(RCC_APB1Periph_UART4, DISABLE);
 154:stm32f10x_lib/STM32F10x_StdPeriph_Driver/src/stm32f10x_usart.c ****   }    
 155:stm32f10x_lib/STM32F10x_StdPeriph_Driver/src/stm32f10x_usart.c ****   else
 156:stm32f10x_lib/STM32F10x_StdPeriph_Driver/src/stm32f10x_usart.c ****   {
 157:stm32f10x_lib/STM32F10x_StdPeriph_Driver/src/stm32f10x_usart.c ****     if (USARTx == UART5)
 158:stm32f10x_lib/STM32F10x_StdPeriph_Driver/src/stm32f10x_usart.c ****     { 
 159:stm32f10x_lib/STM32F10x_StdPeriph_Driver/src/stm32f10x_usart.c ****       RCC_APB1PeriphResetCmd(RCC_APB1Periph_UART5, ENABLE);
 160:stm32f10x_lib/STM32F10x_StdPeriph_Driver/src/stm32f10x_usart.c ****       RCC_APB1PeriphResetCmd(RCC_APB1Periph_UART5, DISABLE);
 161:stm32f10x_lib/STM32F10x_StdPeriph_Driver/src/stm32f10x_usart.c ****     }
 162:stm32f10x_lib/STM32F10x_StdPeriph_Driver/src/stm32f10x_usart.c ****   }
 163:stm32f10x_lib/STM32F10x_StdPeriph_Driver/src/stm32f10x_usart.c **** }
 115              		.loc 1 163 1 is_stmt 0 view .LVU8
 116 0012 BDE80840 		pop	{r3, lr}	@
 117              	.LCFI1:
 118              		.cfi_remember_state
 119              		.cfi_restore 14
 120              		.cfi_restore 3
 121              		.cfi_def_cfa_offset 0
ARM GAS  C:\Users\ADMINI~1\AppData\Local\Temp\cc5w2WuM.s 			page 6


 122              	@ stm32f10x_lib/STM32F10x_StdPeriph_Driver/src/stm32f10x_usart.c:138:     RCC_APB2PeriphResetCmd(RC
 138:stm32f10x_lib/STM32F10x_StdPeriph_Driver/src/stm32f10x_usart.c ****     RCC_APB2PeriphResetCmd(RCC_APB2Periph_USART1, DISABLE);
 123              		.loc 1 138 5 view .LVU9
 124 0016 0021     		movs	r1, #0	@,
 125 0018 4FF48040 		mov	r0, #16384	@,
 126 001c FFF7FEBF 		b	RCC_APB2PeriphResetCmd		@
 127              	.LVL3:
 128              	.L2:
 129              	.LCFI2:
 130              		.cfi_restore_state
 140:stm32f10x_lib/STM32F10x_StdPeriph_Driver/src/stm32f10x_usart.c ****   {
 131              		.loc 1 140 8 is_stmt 1 view .LVU10
 132              	@ stm32f10x_lib/STM32F10x_StdPeriph_Driver/src/stm32f10x_usart.c:140:   else if (USARTx == USART2)
 140:stm32f10x_lib/STM32F10x_StdPeriph_Driver/src/stm32f10x_usart.c ****   {
 133              		.loc 1 140 11 is_stmt 0 view .LVU11
 134 0020 1A4B     		ldr	r3, .L8+4	@ tmp115,
 135 0022 9842     		cmp	r0, r3	@ USARTx, tmp115
 136 0024 0BD1     		bne	.L3		@,
 142:stm32f10x_lib/STM32F10x_StdPeriph_Driver/src/stm32f10x_usart.c ****     RCC_APB1PeriphResetCmd(RCC_APB1Periph_USART2, DISABLE);
 137              		.loc 1 142 5 is_stmt 1 view .LVU12
 138 0026 0121     		movs	r1, #1	@,
 139 0028 4FF40030 		mov	r0, #131072	@,
 140              	.LVL4:
 142:stm32f10x_lib/STM32F10x_StdPeriph_Driver/src/stm32f10x_usart.c ****     RCC_APB1PeriphResetCmd(RCC_APB1Periph_USART2, DISABLE);
 141              		.loc 1 142 5 is_stmt 0 view .LVU13
 142 002c FFF7FEFF 		bl	RCC_APB1PeriphResetCmd		@
 143              	.LVL5:
 143:stm32f10x_lib/STM32F10x_StdPeriph_Driver/src/stm32f10x_usart.c ****   }
 144              		.loc 1 143 5 is_stmt 1 view .LVU14
 145 0030 0021     		movs	r1, #0	@,
 146 0032 4FF40030 		mov	r0, #131072	@,
 147              	.L7:
 148              	@ stm32f10x_lib/STM32F10x_StdPeriph_Driver/src/stm32f10x_usart.c:163: }
 149              		.loc 1 163 1 is_stmt 0 view .LVU15
 150 0036 BDE80840 		pop	{r3, lr}	@
 151              	.LCFI3:
 152              		.cfi_remember_state
 153              		.cfi_restore 14
 154              		.cfi_restore 3
 155              		.cfi_def_cfa_offset 0
 156              	@ stm32f10x_lib/STM32F10x_StdPeriph_Driver/src/stm32f10x_usart.c:160:       RCC_APB1PeriphResetCmd(
 160:stm32f10x_lib/STM32F10x_StdPeriph_Driver/src/stm32f10x_usart.c ****     }
 157              		.loc 1 160 7 view .LVU16
 158 003a FFF7FEBF 		b	RCC_APB1PeriphResetCmd		@
 159              	.LVL6:
 160              	.L3:
 161              	.LCFI4:
 162              		.cfi_restore_state
 145:stm32f10x_lib/STM32F10x_StdPeriph_Driver/src/stm32f10x_usart.c ****   {
 163              		.loc 1 145 8 is_stmt 1 view .LVU17
 164              	@ stm32f10x_lib/STM32F10x_StdPeriph_Driver/src/stm32f10x_usart.c:145:   else if (USARTx == USART3)
 145:stm32f10x_lib/STM32F10x_StdPeriph_Driver/src/stm32f10x_usart.c ****   {
 165              		.loc 1 145 11 is_stmt 0 view .LVU18
 166 003e 144B     		ldr	r3, .L8+8	@ tmp116,
 167 0040 9842     		cmp	r0, r3	@ USARTx, tmp116
 168 0042 08D1     		bne	.L4		@,
 147:stm32f10x_lib/STM32F10x_StdPeriph_Driver/src/stm32f10x_usart.c ****     RCC_APB1PeriphResetCmd(RCC_APB1Periph_USART3, DISABLE);
ARM GAS  C:\Users\ADMINI~1\AppData\Local\Temp\cc5w2WuM.s 			page 7


 169              		.loc 1 147 5 is_stmt 1 view .LVU19
 170 0044 0121     		movs	r1, #1	@,
 171 0046 4FF48020 		mov	r0, #262144	@,
 172              	.LVL7:
 147:stm32f10x_lib/STM32F10x_StdPeriph_Driver/src/stm32f10x_usart.c ****     RCC_APB1PeriphResetCmd(RCC_APB1Periph_USART3, DISABLE);
 173              		.loc 1 147 5 is_stmt 0 view .LVU20
 174 004a FFF7FEFF 		bl	RCC_APB1PeriphResetCmd		@
 175              	.LVL8:
 148:stm32f10x_lib/STM32F10x_StdPeriph_Driver/src/stm32f10x_usart.c ****   }    
 176              		.loc 1 148 5 is_stmt 1 view .LVU21
 177 004e 0021     		movs	r1, #0	@,
 178 0050 4FF48020 		mov	r0, #262144	@,
 179 0054 EFE7     		b	.L7		@
 180              	.LVL9:
 181              	.L4:
 150:stm32f10x_lib/STM32F10x_StdPeriph_Driver/src/stm32f10x_usart.c ****   {
 182              		.loc 1 150 8 view .LVU22
 183              	@ stm32f10x_lib/STM32F10x_StdPeriph_Driver/src/stm32f10x_usart.c:150:   else if (USARTx == UART4)
 150:stm32f10x_lib/STM32F10x_StdPeriph_Driver/src/stm32f10x_usart.c ****   {
 184              		.loc 1 150 11 is_stmt 0 view .LVU23
 185 0056 0F4B     		ldr	r3, .L8+12	@ tmp117,
 186 0058 9842     		cmp	r0, r3	@ USARTx, tmp117
 187 005a 08D1     		bne	.L5		@,
 152:stm32f10x_lib/STM32F10x_StdPeriph_Driver/src/stm32f10x_usart.c ****     RCC_APB1PeriphResetCmd(RCC_APB1Periph_UART4, DISABLE);
 188              		.loc 1 152 5 is_stmt 1 view .LVU24
 189 005c 0121     		movs	r1, #1	@,
 190 005e 4FF40020 		mov	r0, #524288	@,
 191              	.LVL10:
 152:stm32f10x_lib/STM32F10x_StdPeriph_Driver/src/stm32f10x_usart.c ****     RCC_APB1PeriphResetCmd(RCC_APB1Periph_UART4, DISABLE);
 192              		.loc 1 152 5 is_stmt 0 view .LVU25
 193 0062 FFF7FEFF 		bl	RCC_APB1PeriphResetCmd		@
 194              	.LVL11:
 153:stm32f10x_lib/STM32F10x_StdPeriph_Driver/src/stm32f10x_usart.c ****   }    
 195              		.loc 1 153 5 is_stmt 1 view .LVU26
 196 0066 0021     		movs	r1, #0	@,
 197 0068 4FF40020 		mov	r0, #524288	@,
 198 006c E3E7     		b	.L7		@
 199              	.LVL12:
 200              	.L5:
 157:stm32f10x_lib/STM32F10x_StdPeriph_Driver/src/stm32f10x_usart.c ****     { 
 201              		.loc 1 157 5 view .LVU27
 202              	@ stm32f10x_lib/STM32F10x_StdPeriph_Driver/src/stm32f10x_usart.c:157:     if (USARTx == UART5)
 157:stm32f10x_lib/STM32F10x_StdPeriph_Driver/src/stm32f10x_usart.c ****     { 
 203              		.loc 1 157 8 is_stmt 0 view .LVU28
 204 006e 0A4B     		ldr	r3, .L8+16	@ tmp118,
 205 0070 9842     		cmp	r0, r3	@ USARTx, tmp118
 206 0072 08D1     		bne	.L1		@,
 159:stm32f10x_lib/STM32F10x_StdPeriph_Driver/src/stm32f10x_usart.c ****       RCC_APB1PeriphResetCmd(RCC_APB1Periph_UART5, DISABLE);
 207              		.loc 1 159 7 is_stmt 1 view .LVU29
 208 0074 0121     		movs	r1, #1	@,
 209 0076 4FF48010 		mov	r0, #1048576	@,
 210              	.LVL13:
 159:stm32f10x_lib/STM32F10x_StdPeriph_Driver/src/stm32f10x_usart.c ****       RCC_APB1PeriphResetCmd(RCC_APB1Periph_UART5, DISABLE);
 211              		.loc 1 159 7 is_stmt 0 view .LVU30
 212 007a FFF7FEFF 		bl	RCC_APB1PeriphResetCmd		@
 213              	.LVL14:
 160:stm32f10x_lib/STM32F10x_StdPeriph_Driver/src/stm32f10x_usart.c ****     }
ARM GAS  C:\Users\ADMINI~1\AppData\Local\Temp\cc5w2WuM.s 			page 8


 214              		.loc 1 160 7 is_stmt 1 view .LVU31
 215 007e 0021     		movs	r1, #0	@,
 216 0080 4FF48010 		mov	r0, #1048576	@,
 217 0084 D7E7     		b	.L7		@
 218              	.LVL15:
 219              	.L1:
 220              	@ stm32f10x_lib/STM32F10x_StdPeriph_Driver/src/stm32f10x_usart.c:163: }
 221              		.loc 1 163 1 is_stmt 0 view .LVU32
 222 0086 08BD     		pop	{r3, pc}	@
 223              	.L9:
 224              		.align	2
 225              	.L8:
 226 0088 00380140 		.word	1073821696
 227 008c 00440040 		.word	1073759232
 228 0090 00480040 		.word	1073760256
 229 0094 004C0040 		.word	1073761280
 230 0098 00500040 		.word	1073762304
 231              		.cfi_endproc
 232              	.LFE29:
 233              		.size	USART_DeInit, .-USART_DeInit
 234              		.align	1
 235              		.global	USART_Init
 236              		.syntax unified
 237              		.thumb
 238              		.thumb_func
 239              		.type	USART_Init, %function
 240              	USART_Init:
 241              	.LVL16:
 242              	.LFB30:
 164:stm32f10x_lib/STM32F10x_StdPeriph_Driver/src/stm32f10x_usart.c **** 
 165:stm32f10x_lib/STM32F10x_StdPeriph_Driver/src/stm32f10x_usart.c **** /**
 166:stm32f10x_lib/STM32F10x_StdPeriph_Driver/src/stm32f10x_usart.c ****   * @brief  Initializes the USARTx peripheral according to the specified
 167:stm32f10x_lib/STM32F10x_StdPeriph_Driver/src/stm32f10x_usart.c ****   *         parameters in the USART_InitStruct .
 168:stm32f10x_lib/STM32F10x_StdPeriph_Driver/src/stm32f10x_usart.c ****   * @param  USARTx: Select the USART or the UART peripheral. 
 169:stm32f10x_lib/STM32F10x_StdPeriph_Driver/src/stm32f10x_usart.c ****   *   This parameter can be one of the following values:
 170:stm32f10x_lib/STM32F10x_StdPeriph_Driver/src/stm32f10x_usart.c ****   *   USART1, USART2, USART3, UART4 or UART5.
 171:stm32f10x_lib/STM32F10x_StdPeriph_Driver/src/stm32f10x_usart.c ****   * @param  USART_InitStruct: pointer to a USART_InitTypeDef structure
 172:stm32f10x_lib/STM32F10x_StdPeriph_Driver/src/stm32f10x_usart.c ****   *         that contains the configuration information for the specified USART 
 173:stm32f10x_lib/STM32F10x_StdPeriph_Driver/src/stm32f10x_usart.c ****   *         peripheral.
 174:stm32f10x_lib/STM32F10x_StdPeriph_Driver/src/stm32f10x_usart.c ****   * @retval None
 175:stm32f10x_lib/STM32F10x_StdPeriph_Driver/src/stm32f10x_usart.c ****   */
 176:stm32f10x_lib/STM32F10x_StdPeriph_Driver/src/stm32f10x_usart.c **** void USART_Init(USART_TypeDef* USARTx, USART_InitTypeDef* USART_InitStruct)
 177:stm32f10x_lib/STM32F10x_StdPeriph_Driver/src/stm32f10x_usart.c **** {
 243              		.loc 1 177 1 is_stmt 1 view -0
 244              		.cfi_startproc
 245              		@ args = 0, pretend = 0, frame = 24
 246              		@ frame_needed = 0, uses_anonymous_args = 0
 178:stm32f10x_lib/STM32F10x_StdPeriph_Driver/src/stm32f10x_usart.c ****   uint32_t tmpreg = 0x00, apbclock = 0x00;
 247              		.loc 1 178 3 view .LVU34
 179:stm32f10x_lib/STM32F10x_StdPeriph_Driver/src/stm32f10x_usart.c ****   uint32_t integerdivider = 0x00;
 248              		.loc 1 179 3 view .LVU35
 180:stm32f10x_lib/STM32F10x_StdPeriph_Driver/src/stm32f10x_usart.c ****   uint32_t fractionaldivider = 0x00;
 249              		.loc 1 180 3 view .LVU36
 181:stm32f10x_lib/STM32F10x_StdPeriph_Driver/src/stm32f10x_usart.c ****   uint32_t usartxbase = 0;
 250              		.loc 1 181 3 view .LVU37
 182:stm32f10x_lib/STM32F10x_StdPeriph_Driver/src/stm32f10x_usart.c ****   RCC_ClocksTypeDef RCC_ClocksStatus;
 251              		.loc 1 182 3 view .LVU38
ARM GAS  C:\Users\ADMINI~1\AppData\Local\Temp\cc5w2WuM.s 			page 9


 183:stm32f10x_lib/STM32F10x_StdPeriph_Driver/src/stm32f10x_usart.c ****   /* Check the parameters */
 184:stm32f10x_lib/STM32F10x_StdPeriph_Driver/src/stm32f10x_usart.c ****   assert_param(IS_USART_ALL_PERIPH(USARTx));
 252              		.loc 1 184 3 view .LVU39
 185:stm32f10x_lib/STM32F10x_StdPeriph_Driver/src/stm32f10x_usart.c ****   assert_param(IS_USART_BAUDRATE(USART_InitStruct->USART_BaudRate));  
 253              		.loc 1 185 3 view .LVU40
 186:stm32f10x_lib/STM32F10x_StdPeriph_Driver/src/stm32f10x_usart.c ****   assert_param(IS_USART_WORD_LENGTH(USART_InitStruct->USART_WordLength));
 254              		.loc 1 186 3 view .LVU41
 187:stm32f10x_lib/STM32F10x_StdPeriph_Driver/src/stm32f10x_usart.c ****   assert_param(IS_USART_STOPBITS(USART_InitStruct->USART_StopBits));
 255              		.loc 1 187 3 view .LVU42
 188:stm32f10x_lib/STM32F10x_StdPeriph_Driver/src/stm32f10x_usart.c ****   assert_param(IS_USART_PARITY(USART_InitStruct->USART_Parity));
 256              		.loc 1 188 3 view .LVU43
 189:stm32f10x_lib/STM32F10x_StdPeriph_Driver/src/stm32f10x_usart.c ****   assert_param(IS_USART_MODE(USART_InitStruct->USART_Mode));
 257              		.loc 1 189 3 view .LVU44
 190:stm32f10x_lib/STM32F10x_StdPeriph_Driver/src/stm32f10x_usart.c ****   assert_param(IS_USART_HARDWARE_FLOW_CONTROL(USART_InitStruct->USART_HardwareFlowControl));
 258              		.loc 1 190 3 view .LVU45
 191:stm32f10x_lib/STM32F10x_StdPeriph_Driver/src/stm32f10x_usart.c ****   /* The hardware flow control is available only for USART1, USART2 and USART3 */
 192:stm32f10x_lib/STM32F10x_StdPeriph_Driver/src/stm32f10x_usart.c ****   if (USART_InitStruct->USART_HardwareFlowControl != USART_HardwareFlowControl_None)
 259              		.loc 1 192 3 view .LVU46
 260              	@ stm32f10x_lib/STM32F10x_StdPeriph_Driver/src/stm32f10x_usart.c:177: {
 177:stm32f10x_lib/STM32F10x_StdPeriph_Driver/src/stm32f10x_usart.c ****   uint32_t tmpreg = 0x00, apbclock = 0x00;
 261              		.loc 1 177 1 is_stmt 0 view .LVU47
 262 009c 30B5     		push	{r4, r5, lr}	@
 263              	.LCFI5:
 264              		.cfi_def_cfa_offset 12
 265              		.cfi_offset 4, -12
 266              		.cfi_offset 5, -8
 267              		.cfi_offset 14, -4
 268 009e 0D46     		mov	r5, r1	@ USART_InitStruct, tmp226
 269 00a0 0446     		mov	r4, r0	@ USARTx, tmp225
 270              	@ stm32f10x_lib/STM32F10x_StdPeriph_Driver/src/stm32f10x_usart.c:200:   tmpreg = USARTx->CR2;
 193:stm32f10x_lib/STM32F10x_StdPeriph_Driver/src/stm32f10x_usart.c ****   {
 194:stm32f10x_lib/STM32F10x_StdPeriph_Driver/src/stm32f10x_usart.c ****     assert_param(IS_USART_123_PERIPH(USARTx));
 195:stm32f10x_lib/STM32F10x_StdPeriph_Driver/src/stm32f10x_usart.c ****   }
 196:stm32f10x_lib/STM32F10x_StdPeriph_Driver/src/stm32f10x_usart.c **** 
 197:stm32f10x_lib/STM32F10x_StdPeriph_Driver/src/stm32f10x_usart.c ****   usartxbase = (uint32_t)USARTx;
 198:stm32f10x_lib/STM32F10x_StdPeriph_Driver/src/stm32f10x_usart.c **** 
 199:stm32f10x_lib/STM32F10x_StdPeriph_Driver/src/stm32f10x_usart.c **** /*---------------------------- USART CR2 Configuration -----------------------*/
 200:stm32f10x_lib/STM32F10x_StdPeriph_Driver/src/stm32f10x_usart.c ****   tmpreg = USARTx->CR2;
 271              		.loc 1 200 18 view .LVU48
 272 00a2 038A     		ldrh	r3, [r0, #16]	@, USARTx_43(D)->CR2
 273              	@ stm32f10x_lib/STM32F10x_StdPeriph_Driver/src/stm32f10x_usart.c:192:   if (USART_InitStruct->USART
 192:stm32f10x_lib/STM32F10x_StdPeriph_Driver/src/stm32f10x_usart.c ****   {
 274              		.loc 1 192 23 view .LVU49
 275 00a4 8A89     		ldrh	r2, [r1, #12]	@ _1, USART_InitStruct_42(D)->USART_HardwareFlowControl
 194:stm32f10x_lib/STM32F10x_StdPeriph_Driver/src/stm32f10x_usart.c ****   }
 276              		.loc 1 194 5 is_stmt 1 view .LVU50
 197:stm32f10x_lib/STM32F10x_StdPeriph_Driver/src/stm32f10x_usart.c **** 
 277              		.loc 1 197 3 view .LVU51
 278              	.LVL17:
 279              		.loc 1 200 3 view .LVU52
 280              	@ stm32f10x_lib/STM32F10x_StdPeriph_Driver/src/stm32f10x_usart.c:200:   tmpreg = USARTx->CR2;
 281              		.loc 1 200 18 is_stmt 0 view .LVU53
 282 00a6 9BB2     		uxth	r3, r3	@ _2, USARTx_43(D)->CR2
 283              	.LVL18:
 201:stm32f10x_lib/STM32F10x_StdPeriph_Driver/src/stm32f10x_usart.c ****   /* Clear STOP[13:12] bits */
 202:stm32f10x_lib/STM32F10x_StdPeriph_Driver/src/stm32f10x_usart.c ****   tmpreg &= CR2_STOP_CLEAR_Mask;
 284              		.loc 1 202 3 is_stmt 1 view .LVU54
ARM GAS  C:\Users\ADMINI~1\AppData\Local\Temp\cc5w2WuM.s 			page 10


 203:stm32f10x_lib/STM32F10x_StdPeriph_Driver/src/stm32f10x_usart.c ****   /* Configure the USART Stop Bits, Clock, CPOL, CPHA and LastBit ------------*/
 204:stm32f10x_lib/STM32F10x_StdPeriph_Driver/src/stm32f10x_usart.c ****   /* Set STOP[13:12] bits according to USART_StopBits value */
 205:stm32f10x_lib/STM32F10x_StdPeriph_Driver/src/stm32f10x_usart.c ****   tmpreg |= (uint32_t)USART_InitStruct->USART_StopBits;
 285              		.loc 1 205 3 view .LVU55
 286 00a8 C988     		ldrh	r1, [r1, #6]	@ tmp160, USART_InitStruct_42(D)->USART_StopBits
 287              	.LVL19:
 288              		.loc 1 205 3 is_stmt 0 view .LVU56
 289 00aa 23F44053 		bic	r3, r3, #12288	@ tmp157, _2,
 290              	.LVL20:
 291              		.loc 1 205 3 view .LVU57
 292 00ae 0B43     		orrs	r3, r3, r1	@, _37, tmp157, tmp160
 293              	.LVL21:
 206:stm32f10x_lib/STM32F10x_StdPeriph_Driver/src/stm32f10x_usart.c ****   
 207:stm32f10x_lib/STM32F10x_StdPeriph_Driver/src/stm32f10x_usart.c ****   /* Write to USART CR2 */
 208:stm32f10x_lib/STM32F10x_StdPeriph_Driver/src/stm32f10x_usart.c ****   USARTx->CR2 = (uint16_t)tmpreg;
 294              		.loc 1 208 3 is_stmt 1 view .LVU58
 295              	@ stm32f10x_lib/STM32F10x_StdPeriph_Driver/src/stm32f10x_usart.c:208:   USARTx->CR2 = (uint16_t)tmp
 296              		.loc 1 208 15 is_stmt 0 view .LVU59
 297 00b0 0382     		strh	r3, [r0, #16]	@ movhi	@ _37, USARTx_43(D)->CR2
 209:stm32f10x_lib/STM32F10x_StdPeriph_Driver/src/stm32f10x_usart.c **** 
 210:stm32f10x_lib/STM32F10x_StdPeriph_Driver/src/stm32f10x_usart.c **** /*---------------------------- USART CR1 Configuration -----------------------*/
 211:stm32f10x_lib/STM32F10x_StdPeriph_Driver/src/stm32f10x_usart.c ****   tmpreg = USARTx->CR1;
 298              		.loc 1 211 3 is_stmt 1 view .LVU60
 299              	@ stm32f10x_lib/STM32F10x_StdPeriph_Driver/src/stm32f10x_usart.c:211:   tmpreg = USARTx->CR1;
 300              		.loc 1 211 18 is_stmt 0 view .LVU61
 301 00b2 8389     		ldrh	r3, [r0, #12]	@, USARTx_43(D)->CR1
 302              	.LVL22:
 212:stm32f10x_lib/STM32F10x_StdPeriph_Driver/src/stm32f10x_usart.c ****   /* Clear M, PCE, PS, TE and RE bits */
 213:stm32f10x_lib/STM32F10x_StdPeriph_Driver/src/stm32f10x_usart.c ****   tmpreg &= CR1_CLEAR_Mask;
 303              		.loc 1 213 3 is_stmt 1 view .LVU62
 214:stm32f10x_lib/STM32F10x_StdPeriph_Driver/src/stm32f10x_usart.c ****   /* Configure the USART Word Length, Parity and mode ----------------------- */
 215:stm32f10x_lib/STM32F10x_StdPeriph_Driver/src/stm32f10x_usart.c ****   /* Set the M bits according to USART_WordLength value */
 216:stm32f10x_lib/STM32F10x_StdPeriph_Driver/src/stm32f10x_usart.c ****   /* Set PCE and PS bits according to USART_Parity value */
 217:stm32f10x_lib/STM32F10x_StdPeriph_Driver/src/stm32f10x_usart.c ****   /* Set TE and RE bits according to USART_Mode value */
 218:stm32f10x_lib/STM32F10x_StdPeriph_Driver/src/stm32f10x_usart.c ****   tmpreg |= (uint32_t)USART_InitStruct->USART_WordLength | USART_InitStruct->USART_Parity |
 304              		.loc 1 218 3 view .LVU63
 305 00b4 A988     		ldrh	r1, [r5, #4]	@, USART_InitStruct_42(D)->USART_WordLength
 306 00b6 23F4B053 		bic	r3, r3, #5632	@ tmp164, USARTx_43(D)->CR1,
 307              	.LVL23:
 308              		.loc 1 218 3 is_stmt 0 view .LVU64
 309 00ba 23F00C03 		bic	r3, r3, #12	@ tmp164, tmp164,
 310 00be 1B04     		lsls	r3, r3, #16	@ tmp164, tmp164,
 311 00c0 1B0C     		lsrs	r3, r3, #16	@ tmp164, tmp164,
 312 00c2 0B43     		orrs	r3, r3, r1	@, tmp168, tmp164, USART_InitStruct_42(D)->USART_WordLength
 313 00c4 2989     		ldrh	r1, [r5, #8]	@, USART_InitStruct_42(D)->USART_Parity
 314              	@ stm32f10x_lib/STM32F10x_StdPeriph_Driver/src/stm32f10x_usart.c:177: {
 177:stm32f10x_lib/STM32F10x_StdPeriph_Driver/src/stm32f10x_usart.c ****   uint32_t tmpreg = 0x00, apbclock = 0x00;
 315              		.loc 1 177 1 view .LVU65
 316 00c6 87B0     		sub	sp, sp, #28	@,,
 317              	.LCFI6:
 318              		.cfi_def_cfa_offset 40
 319 00c8 0B43     		orrs	r3, r3, r1	@, tmp171, tmp168, USART_InitStruct_42(D)->USART_Parity
 320 00ca 6989     		ldrh	r1, [r5, #10]	@, USART_InitStruct_42(D)->USART_Mode
 321 00cc 0B43     		orrs	r3, r3, r1	@, tmp174, tmp171, USART_InitStruct_42(D)->USART_Mode
 322 00ce 9BB2     		uxth	r3, r3	@ _39, tmp174
 323              	.LVL24:
 219:stm32f10x_lib/STM32F10x_StdPeriph_Driver/src/stm32f10x_usart.c ****             USART_InitStruct->USART_Mode;
ARM GAS  C:\Users\ADMINI~1\AppData\Local\Temp\cc5w2WuM.s 			page 11


 220:stm32f10x_lib/STM32F10x_StdPeriph_Driver/src/stm32f10x_usart.c ****   /* Write to USART CR1 */
 221:stm32f10x_lib/STM32F10x_StdPeriph_Driver/src/stm32f10x_usart.c ****   USARTx->CR1 = (uint16_t)tmpreg;
 324              		.loc 1 221 3 is_stmt 1 view .LVU66
 325              	@ stm32f10x_lib/STM32F10x_StdPeriph_Driver/src/stm32f10x_usart.c:221:   USARTx->CR1 = (uint16_t)tmp
 326              		.loc 1 221 15 is_stmt 0 view .LVU67
 327 00d0 8381     		strh	r3, [r0, #12]	@ movhi	@ _39, USARTx_43(D)->CR1
 222:stm32f10x_lib/STM32F10x_StdPeriph_Driver/src/stm32f10x_usart.c **** 
 223:stm32f10x_lib/STM32F10x_StdPeriph_Driver/src/stm32f10x_usart.c **** /*---------------------------- USART CR3 Configuration -----------------------*/  
 224:stm32f10x_lib/STM32F10x_StdPeriph_Driver/src/stm32f10x_usart.c ****   tmpreg = USARTx->CR3;
 328              		.loc 1 224 3 is_stmt 1 view .LVU68
 329              	@ stm32f10x_lib/STM32F10x_StdPeriph_Driver/src/stm32f10x_usart.c:224:   tmpreg = USARTx->CR3;
 330              		.loc 1 224 18 is_stmt 0 view .LVU69
 331 00d2 838A     		ldrh	r3, [r0, #20]	@, USARTx_43(D)->CR3
 332              	.LVL25:
 333              		.loc 1 224 18 view .LVU70
 334 00d4 9BB2     		uxth	r3, r3	@ _10, USARTx_43(D)->CR3
 335              	.LVL26:
 225:stm32f10x_lib/STM32F10x_StdPeriph_Driver/src/stm32f10x_usart.c ****   /* Clear CTSE and RTSE bits */
 226:stm32f10x_lib/STM32F10x_StdPeriph_Driver/src/stm32f10x_usart.c ****   tmpreg &= CR3_CLEAR_Mask;
 336              		.loc 1 226 3 is_stmt 1 view .LVU71
 227:stm32f10x_lib/STM32F10x_StdPeriph_Driver/src/stm32f10x_usart.c ****   /* Configure the USART HFC -------------------------------------------------*/
 228:stm32f10x_lib/STM32F10x_StdPeriph_Driver/src/stm32f10x_usart.c ****   /* Set CTSE and RTSE bits according to USART_HardwareFlowControl value */
 229:stm32f10x_lib/STM32F10x_StdPeriph_Driver/src/stm32f10x_usart.c ****   tmpreg |= USART_InitStruct->USART_HardwareFlowControl;
 337              		.loc 1 229 3 view .LVU72
 338 00d6 23F44073 		bic	r3, r3, #768	@ tmp178, _10,
 339              	.LVL27:
 340              		.loc 1 229 3 is_stmt 0 view .LVU73
 341 00da 1343     		orrs	r3, r3, r2	@, _58, tmp178, _1
 342              	.LVL28:
 230:stm32f10x_lib/STM32F10x_StdPeriph_Driver/src/stm32f10x_usart.c ****   /* Write to USART CR3 */
 231:stm32f10x_lib/STM32F10x_StdPeriph_Driver/src/stm32f10x_usart.c ****   USARTx->CR3 = (uint16_t)tmpreg;
 343              		.loc 1 231 3 is_stmt 1 view .LVU74
 344              	@ stm32f10x_lib/STM32F10x_StdPeriph_Driver/src/stm32f10x_usart.c:231:   USARTx->CR3 = (uint16_t)tmp
 345              		.loc 1 231 15 is_stmt 0 view .LVU75
 346 00dc 8382     		strh	r3, [r0, #20]	@ movhi	@ _58, USARTx_43(D)->CR3
 232:stm32f10x_lib/STM32F10x_StdPeriph_Driver/src/stm32f10x_usart.c **** 
 233:stm32f10x_lib/STM32F10x_StdPeriph_Driver/src/stm32f10x_usart.c **** /*---------------------------- USART BRR Configuration -----------------------*/
 234:stm32f10x_lib/STM32F10x_StdPeriph_Driver/src/stm32f10x_usart.c ****   /* Configure the USART Baud Rate -------------------------------------------*/
 235:stm32f10x_lib/STM32F10x_StdPeriph_Driver/src/stm32f10x_usart.c ****   RCC_GetClocksFreq(&RCC_ClocksStatus);
 347              		.loc 1 235 3 is_stmt 1 view .LVU76
 348 00de 01A8     		add	r0, sp, #4	@,,
 349              	.LVL29:
 350              		.loc 1 235 3 is_stmt 0 view .LVU77
 351 00e0 FFF7FEFF 		bl	RCC_GetClocksFreq		@
 352              	.LVL30:
 236:stm32f10x_lib/STM32F10x_StdPeriph_Driver/src/stm32f10x_usart.c ****   if (usartxbase == USART1_BASE)
 353              		.loc 1 236 3 is_stmt 1 view .LVU78
 354              	@ stm32f10x_lib/STM32F10x_StdPeriph_Driver/src/stm32f10x_usart.c:238:     apbclock = RCC_ClocksStat
 237:stm32f10x_lib/STM32F10x_StdPeriph_Driver/src/stm32f10x_usart.c ****   {
 238:stm32f10x_lib/STM32F10x_StdPeriph_Driver/src/stm32f10x_usart.c ****     apbclock = RCC_ClocksStatus.PCLK2_Frequency;
 355              		.loc 1 238 14 is_stmt 0 view .LVU79
 356 00e4 DDE90332 		ldrd	r3, r2, [sp, #12]	@ apbclock, apbclock,,
 357 00e8 1449     		ldr	r1, .L18	@ tmp183,
 358 00ea 8C42     		cmp	r4, r1	@ USARTx, tmp183
 359 00ec 08BF     		it	eq		@
 360 00ee 1346     		moveq	r3, r2	@, apbclock, apbclock
 361              	.LVL31:
ARM GAS  C:\Users\ADMINI~1\AppData\Local\Temp\cc5w2WuM.s 			page 12


 239:stm32f10x_lib/STM32F10x_StdPeriph_Driver/src/stm32f10x_usart.c ****   }
 240:stm32f10x_lib/STM32F10x_StdPeriph_Driver/src/stm32f10x_usart.c ****   else
 241:stm32f10x_lib/STM32F10x_StdPeriph_Driver/src/stm32f10x_usart.c ****   {
 242:stm32f10x_lib/STM32F10x_StdPeriph_Driver/src/stm32f10x_usart.c ****     apbclock = RCC_ClocksStatus.PCLK1_Frequency;
 243:stm32f10x_lib/STM32F10x_StdPeriph_Driver/src/stm32f10x_usart.c ****   }
 244:stm32f10x_lib/STM32F10x_StdPeriph_Driver/src/stm32f10x_usart.c ****   
 245:stm32f10x_lib/STM32F10x_StdPeriph_Driver/src/stm32f10x_usart.c ****   /* Determine the integer part */
 246:stm32f10x_lib/STM32F10x_StdPeriph_Driver/src/stm32f10x_usart.c ****   if ((USARTx->CR1 & CR1_OVER8_Set) != 0)
 362              		.loc 1 246 3 is_stmt 1 view .LVU80
 363              	@ stm32f10x_lib/STM32F10x_StdPeriph_Driver/src/stm32f10x_usart.c:249:     integerdivider = ((25 * a
 247:stm32f10x_lib/STM32F10x_StdPeriph_Driver/src/stm32f10x_usart.c ****   {
 248:stm32f10x_lib/STM32F10x_StdPeriph_Driver/src/stm32f10x_usart.c ****     /* Integer part computing in case Oversampling mode is 8 Samples */
 249:stm32f10x_lib/STM32F10x_StdPeriph_Driver/src/stm32f10x_usart.c ****     integerdivider = ((25 * apbclock) / (2 * (USART_InitStruct->USART_BaudRate)));    
 364              		.loc 1 249 27 is_stmt 0 view .LVU81
 365 00f0 1922     		movs	r2, #25	@ tmp186,
 366              	@ stm32f10x_lib/STM32F10x_StdPeriph_Driver/src/stm32f10x_usart.c:246:   if ((USARTx->CR1 & CR1_OVER
 246:stm32f10x_lib/STM32F10x_StdPeriph_Driver/src/stm32f10x_usart.c ****   {
 367              		.loc 1 246 14 view .LVU82
 368 00f2 A189     		ldrh	r1, [r4, #12]	@, USARTx_43(D)->CR1
 369              	@ stm32f10x_lib/STM32F10x_StdPeriph_Driver/src/stm32f10x_usart.c:249:     integerdivider = ((25 * a
 370              		.loc 1 249 27 view .LVU83
 371 00f4 5343     		muls	r3, r2, r3	@ _53, tmp186
 372              	.LVL32:
 373              	@ stm32f10x_lib/STM32F10x_StdPeriph_Driver/src/stm32f10x_usart.c:249:     integerdivider = ((25 * a
 374              		.loc 1 249 63 view .LVU84
 375 00f6 2A68     		ldr	r2, [r5]	@ pretmp_61, USART_InitStruct_42(D)->USART_BaudRate
 376              	@ stm32f10x_lib/STM32F10x_StdPeriph_Driver/src/stm32f10x_usart.c:246:   if ((USARTx->CR1 & CR1_OVER
 246:stm32f10x_lib/STM32F10x_StdPeriph_Driver/src/stm32f10x_usart.c ****   {
 377              		.loc 1 246 6 view .LVU85
 378 00f8 0D04     		lsls	r5, r1, #16	@, USARTx_43(D)->CR1,
 379              	.LVL33:
 380              		.loc 1 249 5 is_stmt 1 view .LVU86
 381              	@ stm32f10x_lib/STM32F10x_StdPeriph_Driver/src/stm32f10x_usart.c:249:     integerdivider = ((25 * a
 382              		.loc 1 249 44 is_stmt 0 view .LVU87
 383 00fa 4CBF     		ite	mi
 384 00fc 5200     		lslmi	r2, r2, #1	@ tmp190, pretmp_61,
 250:stm32f10x_lib/STM32F10x_StdPeriph_Driver/src/stm32f10x_usart.c ****   }
 251:stm32f10x_lib/STM32F10x_StdPeriph_Driver/src/stm32f10x_usart.c ****   else /* if ((USARTx->CR1 & CR1_OVER8_Set) == 0) */
 252:stm32f10x_lib/STM32F10x_StdPeriph_Driver/src/stm32f10x_usart.c ****   {
 253:stm32f10x_lib/STM32F10x_StdPeriph_Driver/src/stm32f10x_usart.c ****     /* Integer part computing in case Oversampling mode is 16 Samples */
 254:stm32f10x_lib/STM32F10x_StdPeriph_Driver/src/stm32f10x_usart.c ****     integerdivider = ((25 * apbclock) / (4 * (USART_InitStruct->USART_BaudRate)));    
 385              		.loc 1 254 5 is_stmt 1 view .LVU88
 386              	@ stm32f10x_lib/STM32F10x_StdPeriph_Driver/src/stm32f10x_usart.c:254:     integerdivider = ((25 * a
 387              		.loc 1 254 44 is_stmt 0 view .LVU89
 388 00fe 9200     		lslpl	r2, r2, #2	@ tmp191, pretmp_61,
 389              	@ stm32f10x_lib/STM32F10x_StdPeriph_Driver/src/stm32f10x_usart.c:256:   tmpreg = (integerdivider / 
 255:stm32f10x_lib/STM32F10x_StdPeriph_Driver/src/stm32f10x_usart.c ****   }
 256:stm32f10x_lib/STM32F10x_StdPeriph_Driver/src/stm32f10x_usart.c ****   tmpreg = (integerdivider / 100) << 4;
 390              		.loc 1 256 28 view .LVU90
 391 0100 6421     		movs	r1, #100	@ tmp194,
 392              	@ stm32f10x_lib/STM32F10x_StdPeriph_Driver/src/stm32f10x_usart.c:254:     integerdivider = ((25 * a
 254:stm32f10x_lib/STM32F10x_StdPeriph_Driver/src/stm32f10x_usart.c ****   }
 393              		.loc 1 254 20 view .LVU91
 394 0102 B3FBF2F3 		udiv	r3, r3, r2	@ integerdivider, _53, tmp191
 395              	.LVL34:
 396              		.loc 1 256 3 is_stmt 1 view .LVU92
 397              	@ stm32f10x_lib/STM32F10x_StdPeriph_Driver/src/stm32f10x_usart.c:256:   tmpreg = (integerdivider / 
ARM GAS  C:\Users\ADMINI~1\AppData\Local\Temp\cc5w2WuM.s 			page 13


 398              		.loc 1 256 28 is_stmt 0 view .LVU93
 399 0106 B3FBF1F0 		udiv	r0, r3, r1	@ tmp193, integerdivider, tmp194
 400 010a 01FB1033 		mls	r3, r1, r0, r3	@ _59, tmp194, tmp193, integerdivider
 401              	.LVL35:
 402              	@ stm32f10x_lib/STM32F10x_StdPeriph_Driver/src/stm32f10x_usart.c:256:   tmpreg = (integerdivider / 
 403              		.loc 1 256 10 view .LVU94
 404 010e 0201     		lsls	r2, r0, #4	@ tmpreg, tmp193,
 405              	.LVL36:
 257:stm32f10x_lib/STM32F10x_StdPeriph_Driver/src/stm32f10x_usart.c **** 
 258:stm32f10x_lib/STM32F10x_StdPeriph_Driver/src/stm32f10x_usart.c ****   /* Determine the fractional part */
 259:stm32f10x_lib/STM32F10x_StdPeriph_Driver/src/stm32f10x_usart.c ****   fractionaldivider = integerdivider - (100 * (tmpreg >> 4));
 406              		.loc 1 259 3 is_stmt 1 view .LVU95
 260:stm32f10x_lib/STM32F10x_StdPeriph_Driver/src/stm32f10x_usart.c **** 
 261:stm32f10x_lib/STM32F10x_StdPeriph_Driver/src/stm32f10x_usart.c ****   /* Implement the fractional part in the register */
 262:stm32f10x_lib/STM32F10x_StdPeriph_Driver/src/stm32f10x_usart.c ****   if ((USARTx->CR1 & CR1_OVER8_Set) != 0)
 407              		.loc 1 262 3 view .LVU96
 408              	@ stm32f10x_lib/STM32F10x_StdPeriph_Driver/src/stm32f10x_usart.c:262:   if ((USARTx->CR1 & CR1_OVER
 409              		.loc 1 262 14 is_stmt 0 view .LVU97
 410 0110 A089     		ldrh	r0, [r4, #12]	@, USARTx_43(D)->CR1
 411              	@ stm32f10x_lib/STM32F10x_StdPeriph_Driver/src/stm32f10x_usart.c:262:   if ((USARTx->CR1 & CR1_OVER
 412              		.loc 1 262 6 view .LVU98
 413 0112 0004     		lsls	r0, r0, #16	@, USARTx_43(D)->CR1,
 414              	.LVL37:
 263:stm32f10x_lib/STM32F10x_StdPeriph_Driver/src/stm32f10x_usart.c ****   {
 264:stm32f10x_lib/STM32F10x_StdPeriph_Driver/src/stm32f10x_usart.c ****     tmpreg |= ((((fractionaldivider * 8) + 50) / 100)) & ((uint8_t)0x07);
 415              		.loc 1 264 5 is_stmt 1 view .LVU99
 416              	@ stm32f10x_lib/STM32F10x_StdPeriph_Driver/src/stm32f10x_usart.c:264:     tmpreg |= ((((fractionald
 417              		.loc 1 264 37 is_stmt 0 view .LVU100
 418 0114 4BBF     		itete	mi
 419 0116 DB00     		lslmi	r3, r3, #3	@ tmp206, _59,
 420              	.LVL38:
 421              	@ stm32f10x_lib/STM32F10x_StdPeriph_Driver/src/stm32f10x_usart.c:268:     tmpreg |= ((((fractionald
 265:stm32f10x_lib/STM32F10x_StdPeriph_Driver/src/stm32f10x_usart.c ****   }
 266:stm32f10x_lib/STM32F10x_StdPeriph_Driver/src/stm32f10x_usart.c ****   else /* if ((USARTx->CR1 & CR1_OVER8_Set) == 0) */
 267:stm32f10x_lib/STM32F10x_StdPeriph_Driver/src/stm32f10x_usart.c ****   {
 268:stm32f10x_lib/STM32F10x_StdPeriph_Driver/src/stm32f10x_usart.c ****     tmpreg |= ((((fractionaldivider * 16) + 50) / 100)) & ((uint8_t)0x0F);
 422              		.loc 1 268 37 view .LVU101
 423 0118 1B01     		lslpl	r3, r3, #4	@ tmp215, _59,
 424              	@ stm32f10x_lib/STM32F10x_StdPeriph_Driver/src/stm32f10x_usart.c:264:     tmpreg |= ((((fractionald
 264:stm32f10x_lib/STM32F10x_StdPeriph_Driver/src/stm32f10x_usart.c ****   }
 425              		.loc 1 264 42 view .LVU102
 426 011a 3233     		addmi	r3, r3, #50	@ tmp207, tmp206,
 427              	@ stm32f10x_lib/STM32F10x_StdPeriph_Driver/src/stm32f10x_usart.c:268:     tmpreg |= ((((fractionald
 428              		.loc 1 268 43 view .LVU103
 429 011c 3233     		addpl	r3, r3, #50	@ tmp216, tmp215,
 430              	@ stm32f10x_lib/STM32F10x_StdPeriph_Driver/src/stm32f10x_usart.c:264:     tmpreg |= ((((fractionald
 264:stm32f10x_lib/STM32F10x_StdPeriph_Driver/src/stm32f10x_usart.c ****   }
 431              		.loc 1 264 48 view .LVU104
 432 011e 4BBF     		itete	mi
 433 0120 B3FBF1F3 		udivmi	r3, r3, r1	@ tmp209, tmp207, tmp194
 434              	@ stm32f10x_lib/STM32F10x_StdPeriph_Driver/src/stm32f10x_usart.c:268:     tmpreg |= ((((fractionald
 435              		.loc 1 268 49 view .LVU105
 436 0124 B3FBF1F3 		udivpl	r3, r3, r1	@ tmp218, tmp216, tmp194
 437              	@ stm32f10x_lib/STM32F10x_StdPeriph_Driver/src/stm32f10x_usart.c:264:     tmpreg |= ((((fractionald
 264:stm32f10x_lib/STM32F10x_StdPeriph_Driver/src/stm32f10x_usart.c ****   }
 438              		.loc 1 264 56 view .LVU106
 439 0128 03F00703 		andmi	r3, r3, #7	@ tmp214, tmp209,
ARM GAS  C:\Users\ADMINI~1\AppData\Local\Temp\cc5w2WuM.s 			page 14


 440              		.loc 1 268 5 is_stmt 1 view .LVU107
 441              	@ stm32f10x_lib/STM32F10x_StdPeriph_Driver/src/stm32f10x_usart.c:268:     tmpreg |= ((((fractionald
 442              		.loc 1 268 57 is_stmt 0 view .LVU108
 443 012c 03F00F03 		andpl	r3, r3, #15	@ tmp223, tmp218,
 444              	@ stm32f10x_lib/STM32F10x_StdPeriph_Driver/src/stm32f10x_usart.c:268:     tmpreg |= ((((fractionald
 445              		.loc 1 268 12 view .LVU109
 446 0130 1343     		orrs	r3, r3, r2	@, tmpreg, tmp223, tmpreg
 447              	.LVL39:
 269:stm32f10x_lib/STM32F10x_StdPeriph_Driver/src/stm32f10x_usart.c ****   }
 270:stm32f10x_lib/STM32F10x_StdPeriph_Driver/src/stm32f10x_usart.c ****   
 271:stm32f10x_lib/STM32F10x_StdPeriph_Driver/src/stm32f10x_usart.c ****   /* Write to USART BRR */
 272:stm32f10x_lib/STM32F10x_StdPeriph_Driver/src/stm32f10x_usart.c ****   USARTx->BRR = (uint16_t)tmpreg;
 448              		.loc 1 272 3 is_stmt 1 view .LVU110
 449              	@ stm32f10x_lib/STM32F10x_StdPeriph_Driver/src/stm32f10x_usart.c:272:   USARTx->BRR = (uint16_t)tmp
 450              		.loc 1 272 17 is_stmt 0 view .LVU111
 451 0132 9BB2     		uxth	r3, r3	@ _32, tmpreg
 452              	.LVL40:
 453              	@ stm32f10x_lib/STM32F10x_StdPeriph_Driver/src/stm32f10x_usart.c:272:   USARTx->BRR = (uint16_t)tmp
 454              		.loc 1 272 15 view .LVU112
 455 0134 2381     		strh	r3, [r4, #8]	@ movhi	@ _32, USARTx_43(D)->BRR
 456              	@ stm32f10x_lib/STM32F10x_StdPeriph_Driver/src/stm32f10x_usart.c:273: }
 273:stm32f10x_lib/STM32F10x_StdPeriph_Driver/src/stm32f10x_usart.c **** }
 457              		.loc 1 273 1 view .LVU113
 458 0136 07B0     		add	sp, sp, #28	@,,
 459              	.LCFI7:
 460              		.cfi_def_cfa_offset 12
 461              		@ sp needed	@
 462 0138 30BD     		pop	{r4, r5, pc}	@
 463              	.LVL41:
 464              	.L19:
 465              		.loc 1 273 1 view .LVU114
 466 013a 00BF     		.align	2
 467              	.L18:
 468 013c 00380140 		.word	1073821696
 469              		.cfi_endproc
 470              	.LFE30:
 471              		.size	USART_Init, .-USART_Init
 472              		.align	1
 473              		.global	USART_StructInit
 474              		.syntax unified
 475              		.thumb
 476              		.thumb_func
 477              		.type	USART_StructInit, %function
 478              	USART_StructInit:
 479              	.LVL42:
 480              	.LFB31:
 274:stm32f10x_lib/STM32F10x_StdPeriph_Driver/src/stm32f10x_usart.c **** 
 275:stm32f10x_lib/STM32F10x_StdPeriph_Driver/src/stm32f10x_usart.c **** /**
 276:stm32f10x_lib/STM32F10x_StdPeriph_Driver/src/stm32f10x_usart.c ****   * @brief  Fills each USART_InitStruct member with its default value.
 277:stm32f10x_lib/STM32F10x_StdPeriph_Driver/src/stm32f10x_usart.c ****   * @param  USART_InitStruct: pointer to a USART_InitTypeDef structure
 278:stm32f10x_lib/STM32F10x_StdPeriph_Driver/src/stm32f10x_usart.c ****   *         which will be initialized.
 279:stm32f10x_lib/STM32F10x_StdPeriph_Driver/src/stm32f10x_usart.c ****   * @retval None
 280:stm32f10x_lib/STM32F10x_StdPeriph_Driver/src/stm32f10x_usart.c ****   */
 281:stm32f10x_lib/STM32F10x_StdPeriph_Driver/src/stm32f10x_usart.c **** void USART_StructInit(USART_InitTypeDef* USART_InitStruct)
 282:stm32f10x_lib/STM32F10x_StdPeriph_Driver/src/stm32f10x_usart.c **** {
 481              		.loc 1 282 1 is_stmt 1 view -0
 482              		.cfi_startproc
ARM GAS  C:\Users\ADMINI~1\AppData\Local\Temp\cc5w2WuM.s 			page 15


 483              		@ args = 0, pretend = 0, frame = 0
 484              		@ frame_needed = 0, uses_anonymous_args = 0
 485              		@ link register save eliminated.
 283:stm32f10x_lib/STM32F10x_StdPeriph_Driver/src/stm32f10x_usart.c ****   /* USART_InitStruct members default value */
 284:stm32f10x_lib/STM32F10x_StdPeriph_Driver/src/stm32f10x_usart.c ****   USART_InitStruct->USART_BaudRate = 9600;
 486              		.loc 1 284 3 view .LVU116
 285:stm32f10x_lib/STM32F10x_StdPeriph_Driver/src/stm32f10x_usart.c ****   USART_InitStruct->USART_WordLength = USART_WordLength_8b;
 487              		.loc 1 285 3 view .LVU117
 286:stm32f10x_lib/STM32F10x_StdPeriph_Driver/src/stm32f10x_usart.c ****   USART_InitStruct->USART_StopBits = USART_StopBits_1;
 488              		.loc 1 286 3 view .LVU118
 287:stm32f10x_lib/STM32F10x_StdPeriph_Driver/src/stm32f10x_usart.c ****   USART_InitStruct->USART_Parity = USART_Parity_No ;
 489              		.loc 1 287 3 view .LVU119
 288:stm32f10x_lib/STM32F10x_StdPeriph_Driver/src/stm32f10x_usart.c ****   USART_InitStruct->USART_Mode = USART_Mode_Rx | USART_Mode_Tx;
 490              		.loc 1 288 3 view .LVU120
 289:stm32f10x_lib/STM32F10x_StdPeriph_Driver/src/stm32f10x_usart.c ****   USART_InitStruct->USART_HardwareFlowControl = USART_HardwareFlowControl_None;  
 491              		.loc 1 289 3 view .LVU121
 492              	@ stm32f10x_lib/STM32F10x_StdPeriph_Driver/src/stm32f10x_usart.c:285:   USART_InitStruct->USART_Wor
 285:stm32f10x_lib/STM32F10x_StdPeriph_Driver/src/stm32f10x_usart.c ****   USART_InitStruct->USART_StopBits = USART_StopBits_1;
 493              		.loc 1 285 38 is_stmt 0 view .LVU122
 494 0140 4FF41652 		mov	r2, #9600	@,
 495 0144 0023     		movs	r3, #0	@ tmp115,
 496 0146 C0E90023 		strd	r2, r3, [r0]	@, tmp115, USART_InitStruct
 497              	@ stm32f10x_lib/STM32F10x_StdPeriph_Driver/src/stm32f10x_usart.c:287:   USART_InitStruct->USART_Par
 287:stm32f10x_lib/STM32F10x_StdPeriph_Driver/src/stm32f10x_usart.c ****   USART_InitStruct->USART_Mode = USART_Mode_Rx | USART_Mode_Tx;
 498              		.loc 1 287 34 view .LVU123
 499 014a 4FF44022 		mov	r2, #786432	@ tmp116,
 500              	@ stm32f10x_lib/STM32F10x_StdPeriph_Driver/src/stm32f10x_usart.c:289:   USART_InitStruct->USART_Har
 501              		.loc 1 289 47 view .LVU124
 502 014e 8381     		strh	r3, [r0, #12]	@ movhi	@ tmp115, USART_InitStruct_2(D)->USART_HardwareFlowControl
 503              	@ stm32f10x_lib/STM32F10x_StdPeriph_Driver/src/stm32f10x_usart.c:287:   USART_InitStruct->USART_Par
 287:stm32f10x_lib/STM32F10x_StdPeriph_Driver/src/stm32f10x_usart.c ****   USART_InitStruct->USART_Mode = USART_Mode_Rx | USART_Mode_Tx;
 504              		.loc 1 287 34 view .LVU125
 505 0150 8260     		str	r2, [r0, #8]	@ tmp116, MEM <unsigned int> [(short unsigned int *)USART_InitStruct_2(D) + 8B]
 506              	@ stm32f10x_lib/STM32F10x_StdPeriph_Driver/src/stm32f10x_usart.c:290: }
 290:stm32f10x_lib/STM32F10x_StdPeriph_Driver/src/stm32f10x_usart.c **** }
 507              		.loc 1 290 1 view .LVU126
 508 0152 7047     		bx	lr	@
 509              		.cfi_endproc
 510              	.LFE31:
 511              		.size	USART_StructInit, .-USART_StructInit
 512              		.align	1
 513              		.global	USART_ClockInit
 514              		.syntax unified
 515              		.thumb
 516              		.thumb_func
 517              		.type	USART_ClockInit, %function
 518              	USART_ClockInit:
 519              	.LVL43:
 520              	.LFB32:
 291:stm32f10x_lib/STM32F10x_StdPeriph_Driver/src/stm32f10x_usart.c **** 
 292:stm32f10x_lib/STM32F10x_StdPeriph_Driver/src/stm32f10x_usart.c **** /**
 293:stm32f10x_lib/STM32F10x_StdPeriph_Driver/src/stm32f10x_usart.c ****   * @brief  Initializes the USARTx peripheral Clock according to the 
 294:stm32f10x_lib/STM32F10x_StdPeriph_Driver/src/stm32f10x_usart.c ****   *          specified parameters in the USART_ClockInitStruct .
 295:stm32f10x_lib/STM32F10x_StdPeriph_Driver/src/stm32f10x_usart.c ****   * @param  USARTx: where x can be 1, 2, 3 to select the USART peripheral.
 296:stm32f10x_lib/STM32F10x_StdPeriph_Driver/src/stm32f10x_usart.c ****   * @param  USART_ClockInitStruct: pointer to a USART_ClockInitTypeDef
 297:stm32f10x_lib/STM32F10x_StdPeriph_Driver/src/stm32f10x_usart.c ****   *         structure that contains the configuration information for the specified 
 298:stm32f10x_lib/STM32F10x_StdPeriph_Driver/src/stm32f10x_usart.c ****   *         USART peripheral.  
ARM GAS  C:\Users\ADMINI~1\AppData\Local\Temp\cc5w2WuM.s 			page 16


 299:stm32f10x_lib/STM32F10x_StdPeriph_Driver/src/stm32f10x_usart.c ****   * @note The Smart Card and Synchronous modes are not available for UART4 and UART5.
 300:stm32f10x_lib/STM32F10x_StdPeriph_Driver/src/stm32f10x_usart.c ****   * @retval None
 301:stm32f10x_lib/STM32F10x_StdPeriph_Driver/src/stm32f10x_usart.c ****   */
 302:stm32f10x_lib/STM32F10x_StdPeriph_Driver/src/stm32f10x_usart.c **** void USART_ClockInit(USART_TypeDef* USARTx, USART_ClockInitTypeDef* USART_ClockInitStruct)
 303:stm32f10x_lib/STM32F10x_StdPeriph_Driver/src/stm32f10x_usart.c **** {
 521              		.loc 1 303 1 is_stmt 1 view -0
 522              		.cfi_startproc
 523              		@ args = 0, pretend = 0, frame = 0
 524              		@ frame_needed = 0, uses_anonymous_args = 0
 304:stm32f10x_lib/STM32F10x_StdPeriph_Driver/src/stm32f10x_usart.c ****   uint32_t tmpreg = 0x00;
 525              		.loc 1 304 3 view .LVU128
 305:stm32f10x_lib/STM32F10x_StdPeriph_Driver/src/stm32f10x_usart.c ****   /* Check the parameters */
 306:stm32f10x_lib/STM32F10x_StdPeriph_Driver/src/stm32f10x_usart.c ****   assert_param(IS_USART_123_PERIPH(USARTx));
 526              		.loc 1 306 3 view .LVU129
 307:stm32f10x_lib/STM32F10x_StdPeriph_Driver/src/stm32f10x_usart.c ****   assert_param(IS_USART_CLOCK(USART_ClockInitStruct->USART_Clock));
 527              		.loc 1 307 3 view .LVU130
 308:stm32f10x_lib/STM32F10x_StdPeriph_Driver/src/stm32f10x_usart.c ****   assert_param(IS_USART_CPOL(USART_ClockInitStruct->USART_CPOL));
 528              		.loc 1 308 3 view .LVU131
 309:stm32f10x_lib/STM32F10x_StdPeriph_Driver/src/stm32f10x_usart.c ****   assert_param(IS_USART_CPHA(USART_ClockInitStruct->USART_CPHA));
 529              		.loc 1 309 3 view .LVU132
 310:stm32f10x_lib/STM32F10x_StdPeriph_Driver/src/stm32f10x_usart.c ****   assert_param(IS_USART_LASTBIT(USART_ClockInitStruct->USART_LastBit));
 530              		.loc 1 310 3 view .LVU133
 311:stm32f10x_lib/STM32F10x_StdPeriph_Driver/src/stm32f10x_usart.c ****   
 312:stm32f10x_lib/STM32F10x_StdPeriph_Driver/src/stm32f10x_usart.c **** /*---------------------------- USART CR2 Configuration -----------------------*/
 313:stm32f10x_lib/STM32F10x_StdPeriph_Driver/src/stm32f10x_usart.c ****   tmpreg = USARTx->CR2;
 531              		.loc 1 313 3 view .LVU134
 532              	@ stm32f10x_lib/STM32F10x_StdPeriph_Driver/src/stm32f10x_usart.c:322:                  USART_ClockI
 314:stm32f10x_lib/STM32F10x_StdPeriph_Driver/src/stm32f10x_usart.c ****   /* Clear CLKEN, CPOL, CPHA and LBCL bits */
 315:stm32f10x_lib/STM32F10x_StdPeriph_Driver/src/stm32f10x_usart.c ****   tmpreg &= CR2_CLOCK_CLEAR_Mask;
 316:stm32f10x_lib/STM32F10x_StdPeriph_Driver/src/stm32f10x_usart.c ****   /* Configure the USART Clock, CPOL, CPHA and LastBit ------------*/
 317:stm32f10x_lib/STM32F10x_StdPeriph_Driver/src/stm32f10x_usart.c ****   /* Set CLKEN bit according to USART_Clock value */
 318:stm32f10x_lib/STM32F10x_StdPeriph_Driver/src/stm32f10x_usart.c ****   /* Set CPOL bit according to USART_CPOL value */
 319:stm32f10x_lib/STM32F10x_StdPeriph_Driver/src/stm32f10x_usart.c ****   /* Set CPHA bit according to USART_CPHA value */
 320:stm32f10x_lib/STM32F10x_StdPeriph_Driver/src/stm32f10x_usart.c ****   /* Set LBCL bit according to USART_LastBit value */
 321:stm32f10x_lib/STM32F10x_StdPeriph_Driver/src/stm32f10x_usart.c ****   tmpreg |= (uint32_t)USART_ClockInitStruct->USART_Clock | USART_ClockInitStruct->USART_CPOL | 
 322:stm32f10x_lib/STM32F10x_StdPeriph_Driver/src/stm32f10x_usart.c ****                  USART_ClockInitStruct->USART_CPHA | USART_ClockInitStruct->USART_LastBit;
 533              		.loc 1 322 52 is_stmt 0 view .LVU135
 534 0154 0B88     		ldrh	r3, [r1]	@, USART_ClockInitStruct_12(D)->USART_Clock
 535              	@ stm32f10x_lib/STM32F10x_StdPeriph_Driver/src/stm32f10x_usart.c:303: {
 303:stm32f10x_lib/STM32F10x_StdPeriph_Driver/src/stm32f10x_usart.c ****   uint32_t tmpreg = 0x00;
 536              		.loc 1 303 1 view .LVU136
 537 0156 10B5     		push	{r4, lr}	@
 538              	.LCFI8:
 539              		.cfi_def_cfa_offset 8
 540              		.cfi_offset 4, -8
 541              		.cfi_offset 14, -4
 542              	@ stm32f10x_lib/STM32F10x_StdPeriph_Driver/src/stm32f10x_usart.c:322:                  USART_ClockI
 543              		.loc 1 322 52 view .LVU137
 544 0158 4C88     		ldrh	r4, [r1, #2]	@, USART_ClockInitStruct_12(D)->USART_CPOL
 545              	@ stm32f10x_lib/STM32F10x_StdPeriph_Driver/src/stm32f10x_usart.c:313:   tmpreg = USARTx->CR2;
 313:stm32f10x_lib/STM32F10x_StdPeriph_Driver/src/stm32f10x_usart.c ****   /* Clear CLKEN, CPOL, CPHA and LBCL bits */
 546              		.loc 1 313 18 view .LVU138
 547 015a 028A     		ldrh	r2, [r0, #16]	@, USARTx_11(D)->CR2
 548              	@ stm32f10x_lib/STM32F10x_StdPeriph_Driver/src/stm32f10x_usart.c:322:                  USART_ClockI
 549              		.loc 1 322 52 view .LVU139
 550 015c 2343     		orrs	r3, r3, r4	@, tmp129, USART_ClockInitStruct_12(D)->USART_Clock, USART_ClockInitStruct_12(D)->
 551 015e 8C88     		ldrh	r4, [r1, #4]	@, USART_ClockInitStruct_12(D)->USART_CPHA
ARM GAS  C:\Users\ADMINI~1\AppData\Local\Temp\cc5w2WuM.s 			page 17


 552 0160 C988     		ldrh	r1, [r1, #6]	@, USART_ClockInitStruct_12(D)->USART_LastBit
 553              	.LVL44:
 554              	@ stm32f10x_lib/STM32F10x_StdPeriph_Driver/src/stm32f10x_usart.c:313:   tmpreg = USARTx->CR2;
 313:stm32f10x_lib/STM32F10x_StdPeriph_Driver/src/stm32f10x_usart.c ****   /* Clear CLKEN, CPOL, CPHA and LBCL bits */
 555              		.loc 1 313 18 view .LVU140
 556 0162 92B2     		uxth	r2, r2	@ _1, USARTx_11(D)->CR2
 557              	.LVL45:
 315:stm32f10x_lib/STM32F10x_StdPeriph_Driver/src/stm32f10x_usart.c ****   /* Configure the USART Clock, CPOL, CPHA and LastBit ------------*/
 558              		.loc 1 315 3 is_stmt 1 view .LVU141
 321:stm32f10x_lib/STM32F10x_StdPeriph_Driver/src/stm32f10x_usart.c ****                  USART_ClockInitStruct->USART_CPHA | USART_ClockInitStruct->USART_LastBit;
 559              		.loc 1 321 3 view .LVU142
 560              	@ stm32f10x_lib/STM32F10x_StdPeriph_Driver/src/stm32f10x_usart.c:322:                  USART_ClockI
 561              		.loc 1 322 52 is_stmt 0 view .LVU143
 562 0164 2343     		orrs	r3, r3, r4	@, tmp132, tmp129, USART_ClockInitStruct_12(D)->USART_CPHA
 563 0166 0B43     		orrs	r3, r3, r1	@, tmp135, tmp132, USART_ClockInitStruct_12(D)->USART_LastBit
 564 0168 22F47062 		bic	r2, r2, #3840	@ tmp136, _1,
 565              	.LVL46:
 566              		.loc 1 322 52 view .LVU144
 567 016c 1343     		orrs	r3, r3, r2	@, tmp139, tmp135, tmp136
 568 016e 9BB2     		uxth	r3, r3	@ _14, tmp139
 569              	.LVL47:
 323:stm32f10x_lib/STM32F10x_StdPeriph_Driver/src/stm32f10x_usart.c ****   /* Write to USART CR2 */
 324:stm32f10x_lib/STM32F10x_StdPeriph_Driver/src/stm32f10x_usart.c ****   USARTx->CR2 = (uint16_t)tmpreg;
 570              		.loc 1 324 3 is_stmt 1 view .LVU145
 571              	@ stm32f10x_lib/STM32F10x_StdPeriph_Driver/src/stm32f10x_usart.c:324:   USARTx->CR2 = (uint16_t)tmp
 572              		.loc 1 324 15 is_stmt 0 view .LVU146
 573 0170 0382     		strh	r3, [r0, #16]	@ movhi	@ _14, USARTx_11(D)->CR2
 574              	@ stm32f10x_lib/STM32F10x_StdPeriph_Driver/src/stm32f10x_usart.c:325: }
 325:stm32f10x_lib/STM32F10x_StdPeriph_Driver/src/stm32f10x_usart.c **** }
 575              		.loc 1 325 1 view .LVU147
 576 0172 10BD     		pop	{r4, pc}	@
 577              		.cfi_endproc
 578              	.LFE32:
 579              		.size	USART_ClockInit, .-USART_ClockInit
 580              		.align	1
 581              		.global	USART_ClockStructInit
 582              		.syntax unified
 583              		.thumb
 584              		.thumb_func
 585              		.type	USART_ClockStructInit, %function
 586              	USART_ClockStructInit:
 587              	.LVL48:
 588              	.LFB33:
 326:stm32f10x_lib/STM32F10x_StdPeriph_Driver/src/stm32f10x_usart.c **** 
 327:stm32f10x_lib/STM32F10x_StdPeriph_Driver/src/stm32f10x_usart.c **** /**
 328:stm32f10x_lib/STM32F10x_StdPeriph_Driver/src/stm32f10x_usart.c ****   * @brief  Fills each USART_ClockInitStruct member with its default value.
 329:stm32f10x_lib/STM32F10x_StdPeriph_Driver/src/stm32f10x_usart.c ****   * @param  USART_ClockInitStruct: pointer to a USART_ClockInitTypeDef
 330:stm32f10x_lib/STM32F10x_StdPeriph_Driver/src/stm32f10x_usart.c ****   *         structure which will be initialized.
 331:stm32f10x_lib/STM32F10x_StdPeriph_Driver/src/stm32f10x_usart.c ****   * @retval None
 332:stm32f10x_lib/STM32F10x_StdPeriph_Driver/src/stm32f10x_usart.c ****   */
 333:stm32f10x_lib/STM32F10x_StdPeriph_Driver/src/stm32f10x_usart.c **** void USART_ClockStructInit(USART_ClockInitTypeDef* USART_ClockInitStruct)
 334:stm32f10x_lib/STM32F10x_StdPeriph_Driver/src/stm32f10x_usart.c **** {
 589              		.loc 1 334 1 is_stmt 1 view -0
 590              		.cfi_startproc
 591              		@ args = 0, pretend = 0, frame = 0
 592              		@ frame_needed = 0, uses_anonymous_args = 0
 593              		@ link register save eliminated.
ARM GAS  C:\Users\ADMINI~1\AppData\Local\Temp\cc5w2WuM.s 			page 18


 335:stm32f10x_lib/STM32F10x_StdPeriph_Driver/src/stm32f10x_usart.c ****   /* USART_ClockInitStruct members default value */
 336:stm32f10x_lib/STM32F10x_StdPeriph_Driver/src/stm32f10x_usart.c ****   USART_ClockInitStruct->USART_Clock = USART_Clock_Disable;
 594              		.loc 1 336 3 view .LVU149
 595              	@ stm32f10x_lib/STM32F10x_StdPeriph_Driver/src/stm32f10x_usart.c:336:   USART_ClockInitStruct->USAR
 596              		.loc 1 336 38 is_stmt 0 view .LVU150
 597 0174 0023     		movs	r3, #0	@ tmp115,
 598 0176 0380     		strh	r3, [r0]	@ movhi	@ tmp115, USART_ClockInitStruct_2(D)->USART_Clock
 337:stm32f10x_lib/STM32F10x_StdPeriph_Driver/src/stm32f10x_usart.c ****   USART_ClockInitStruct->USART_CPOL = USART_CPOL_Low;
 599              		.loc 1 337 3 is_stmt 1 view .LVU151
 600              	@ stm32f10x_lib/STM32F10x_StdPeriph_Driver/src/stm32f10x_usart.c:337:   USART_ClockInitStruct->USAR
 601              		.loc 1 337 37 is_stmt 0 view .LVU152
 602 0178 4380     		strh	r3, [r0, #2]	@ movhi	@ tmp115, USART_ClockInitStruct_2(D)->USART_CPOL
 338:stm32f10x_lib/STM32F10x_StdPeriph_Driver/src/stm32f10x_usart.c ****   USART_ClockInitStruct->USART_CPHA = USART_CPHA_1Edge;
 603              		.loc 1 338 3 is_stmt 1 view .LVU153
 604              	@ stm32f10x_lib/STM32F10x_StdPeriph_Driver/src/stm32f10x_usart.c:338:   USART_ClockInitStruct->USAR
 605              		.loc 1 338 37 is_stmt 0 view .LVU154
 606 017a 8380     		strh	r3, [r0, #4]	@ movhi	@ tmp115, USART_ClockInitStruct_2(D)->USART_CPHA
 339:stm32f10x_lib/STM32F10x_StdPeriph_Driver/src/stm32f10x_usart.c ****   USART_ClockInitStruct->USART_LastBit = USART_LastBit_Disable;
 607              		.loc 1 339 3 is_stmt 1 view .LVU155
 608              	@ stm32f10x_lib/STM32F10x_StdPeriph_Driver/src/stm32f10x_usart.c:339:   USART_ClockInitStruct->USAR
 609              		.loc 1 339 40 is_stmt 0 view .LVU156
 610 017c C380     		strh	r3, [r0, #6]	@ movhi	@ tmp115, USART_ClockInitStruct_2(D)->USART_LastBit
 611              	@ stm32f10x_lib/STM32F10x_StdPeriph_Driver/src/stm32f10x_usart.c:340: }
 340:stm32f10x_lib/STM32F10x_StdPeriph_Driver/src/stm32f10x_usart.c **** }
 612              		.loc 1 340 1 view .LVU157
 613 017e 7047     		bx	lr	@
 614              		.cfi_endproc
 615              	.LFE33:
 616              		.size	USART_ClockStructInit, .-USART_ClockStructInit
 617              		.align	1
 618              		.global	USART_Cmd
 619              		.syntax unified
 620              		.thumb
 621              		.thumb_func
 622              		.type	USART_Cmd, %function
 623              	USART_Cmd:
 624              	.LVL49:
 625              	.LFB34:
 341:stm32f10x_lib/STM32F10x_StdPeriph_Driver/src/stm32f10x_usart.c **** 
 342:stm32f10x_lib/STM32F10x_StdPeriph_Driver/src/stm32f10x_usart.c **** /**
 343:stm32f10x_lib/STM32F10x_StdPeriph_Driver/src/stm32f10x_usart.c ****   * @brief  Enables or disables the specified USART peripheral.
 344:stm32f10x_lib/STM32F10x_StdPeriph_Driver/src/stm32f10x_usart.c ****   * @param  USARTx: Select the USART or the UART peripheral. 
 345:stm32f10x_lib/STM32F10x_StdPeriph_Driver/src/stm32f10x_usart.c ****   *         This parameter can be one of the following values:
 346:stm32f10x_lib/STM32F10x_StdPeriph_Driver/src/stm32f10x_usart.c ****   *           USART1, USART2, USART3, UART4 or UART5.
 347:stm32f10x_lib/STM32F10x_StdPeriph_Driver/src/stm32f10x_usart.c ****   * @param  NewState: new state of the USARTx peripheral.
 348:stm32f10x_lib/STM32F10x_StdPeriph_Driver/src/stm32f10x_usart.c ****   *         This parameter can be: ENABLE or DISABLE.
 349:stm32f10x_lib/STM32F10x_StdPeriph_Driver/src/stm32f10x_usart.c ****   * @retval None
 350:stm32f10x_lib/STM32F10x_StdPeriph_Driver/src/stm32f10x_usart.c ****   */
 351:stm32f10x_lib/STM32F10x_StdPeriph_Driver/src/stm32f10x_usart.c **** void USART_Cmd(USART_TypeDef* USARTx, FunctionalState NewState)
 352:stm32f10x_lib/STM32F10x_StdPeriph_Driver/src/stm32f10x_usart.c **** {
 626              		.loc 1 352 1 is_stmt 1 view -0
 627              		.cfi_startproc
 628              		@ args = 0, pretend = 0, frame = 0
 629              		@ frame_needed = 0, uses_anonymous_args = 0
 630              		@ link register save eliminated.
 353:stm32f10x_lib/STM32F10x_StdPeriph_Driver/src/stm32f10x_usart.c ****   /* Check the parameters */
 354:stm32f10x_lib/STM32F10x_StdPeriph_Driver/src/stm32f10x_usart.c ****   assert_param(IS_USART_ALL_PERIPH(USARTx));
ARM GAS  C:\Users\ADMINI~1\AppData\Local\Temp\cc5w2WuM.s 			page 19


 631              		.loc 1 354 3 view .LVU159
 355:stm32f10x_lib/STM32F10x_StdPeriph_Driver/src/stm32f10x_usart.c ****   assert_param(IS_FUNCTIONAL_STATE(NewState));
 632              		.loc 1 355 3 view .LVU160
 356:stm32f10x_lib/STM32F10x_StdPeriph_Driver/src/stm32f10x_usart.c ****   
 357:stm32f10x_lib/STM32F10x_StdPeriph_Driver/src/stm32f10x_usart.c ****   if (NewState != DISABLE)
 633              		.loc 1 357 3 view .LVU161
 634              	@ stm32f10x_lib/STM32F10x_StdPeriph_Driver/src/stm32f10x_usart.c:360:     USARTx->CR1 |= CR1_UE_Set
 358:stm32f10x_lib/STM32F10x_StdPeriph_Driver/src/stm32f10x_usart.c ****   {
 359:stm32f10x_lib/STM32F10x_StdPeriph_Driver/src/stm32f10x_usart.c ****     /* Enable the selected USART by setting the UE bit in the CR1 register */
 360:stm32f10x_lib/STM32F10x_StdPeriph_Driver/src/stm32f10x_usart.c ****     USARTx->CR1 |= CR1_UE_Set;
 635              		.loc 1 360 17 is_stmt 0 view .LVU162
 636 0180 8389     		ldrh	r3, [r0, #12]	@,
 637              	@ stm32f10x_lib/STM32F10x_StdPeriph_Driver/src/stm32f10x_usart.c:357:   if (NewState != DISABLE)
 357:stm32f10x_lib/STM32F10x_StdPeriph_Driver/src/stm32f10x_usart.c ****   {
 638              		.loc 1 357 6 view .LVU163
 639 0182 21B1     		cbz	r1, .L24	@ tmp128,
 640              		.loc 1 360 5 is_stmt 1 view .LVU164
 641              	@ stm32f10x_lib/STM32F10x_StdPeriph_Driver/src/stm32f10x_usart.c:360:     USARTx->CR1 |= CR1_UE_Set
 642              		.loc 1 360 17 is_stmt 0 view .LVU165
 643 0184 9BB2     		uxth	r3, r3	@ _1, USARTx_8(D)->CR1
 644 0186 43F40053 		orr	r3, r3, #8192	@ _2, _1,
 645              	.L26:
 646              	@ stm32f10x_lib/STM32F10x_StdPeriph_Driver/src/stm32f10x_usart.c:365:     USARTx->CR1 &= CR1_UE_Res
 361:stm32f10x_lib/STM32F10x_StdPeriph_Driver/src/stm32f10x_usart.c ****   }
 362:stm32f10x_lib/STM32F10x_StdPeriph_Driver/src/stm32f10x_usart.c ****   else
 363:stm32f10x_lib/STM32F10x_StdPeriph_Driver/src/stm32f10x_usart.c ****   {
 364:stm32f10x_lib/STM32F10x_StdPeriph_Driver/src/stm32f10x_usart.c ****     /* Disable the selected USART by clearing the UE bit in the CR1 register */
 365:stm32f10x_lib/STM32F10x_StdPeriph_Driver/src/stm32f10x_usart.c ****     USARTx->CR1 &= CR1_UE_Reset;
 647              		.loc 1 365 17 view .LVU166
 648 018a 8381     		strh	r3, [r0, #12]	@ movhi	@ _4,
 649              	@ stm32f10x_lib/STM32F10x_StdPeriph_Driver/src/stm32f10x_usart.c:367: }
 366:stm32f10x_lib/STM32F10x_StdPeriph_Driver/src/stm32f10x_usart.c ****   }
 367:stm32f10x_lib/STM32F10x_StdPeriph_Driver/src/stm32f10x_usart.c **** }
 650              		.loc 1 367 1 view .LVU167
 651 018c 7047     		bx	lr	@
 652              	.L24:
 365:stm32f10x_lib/STM32F10x_StdPeriph_Driver/src/stm32f10x_usart.c ****   }
 653              		.loc 1 365 5 is_stmt 1 view .LVU168
 654              	@ stm32f10x_lib/STM32F10x_StdPeriph_Driver/src/stm32f10x_usart.c:365:     USARTx->CR1 &= CR1_UE_Res
 365:stm32f10x_lib/STM32F10x_StdPeriph_Driver/src/stm32f10x_usart.c ****   }
 655              		.loc 1 365 17 is_stmt 0 view .LVU169
 656 018e 23F40053 		bic	r3, r3, #8192	@ _4, USARTx_8(D)->CR1,
 657 0192 1B04     		lsls	r3, r3, #16	@ _4, _4,
 658 0194 1B0C     		lsrs	r3, r3, #16	@ _4, _4,
 659 0196 F8E7     		b	.L26		@
 660              		.cfi_endproc
 661              	.LFE34:
 662              		.size	USART_Cmd, .-USART_Cmd
 663              		.align	1
 664              		.global	USART_ITConfig
 665              		.syntax unified
 666              		.thumb
 667              		.thumb_func
 668              		.type	USART_ITConfig, %function
 669              	USART_ITConfig:
 670              	.LVL50:
 671              	.LFB35:
ARM GAS  C:\Users\ADMINI~1\AppData\Local\Temp\cc5w2WuM.s 			page 20


 368:stm32f10x_lib/STM32F10x_StdPeriph_Driver/src/stm32f10x_usart.c **** 
 369:stm32f10x_lib/STM32F10x_StdPeriph_Driver/src/stm32f10x_usart.c **** /**
 370:stm32f10x_lib/STM32F10x_StdPeriph_Driver/src/stm32f10x_usart.c ****   * @brief  Enables or disables the specified USART interrupts.
 371:stm32f10x_lib/STM32F10x_StdPeriph_Driver/src/stm32f10x_usart.c ****   * @param  USARTx: Select the USART or the UART peripheral. 
 372:stm32f10x_lib/STM32F10x_StdPeriph_Driver/src/stm32f10x_usart.c ****   *   This parameter can be one of the following values:
 373:stm32f10x_lib/STM32F10x_StdPeriph_Driver/src/stm32f10x_usart.c ****   *   USART1, USART2, USART3, UART4 or UART5.
 374:stm32f10x_lib/STM32F10x_StdPeriph_Driver/src/stm32f10x_usart.c ****   * @param  USART_IT: specifies the USART interrupt sources to be enabled or disabled.
 375:stm32f10x_lib/STM32F10x_StdPeriph_Driver/src/stm32f10x_usart.c ****   *   This parameter can be one of the following values:
 376:stm32f10x_lib/STM32F10x_StdPeriph_Driver/src/stm32f10x_usart.c ****   *     @arg USART_IT_CTS:  CTS change interrupt (not available for UART4 and UART5)
 377:stm32f10x_lib/STM32F10x_StdPeriph_Driver/src/stm32f10x_usart.c ****   *     @arg USART_IT_LBD:  LIN Break detection interrupt
 378:stm32f10x_lib/STM32F10x_StdPeriph_Driver/src/stm32f10x_usart.c ****   *     @arg USART_IT_TXE:  Transmit Data Register empty interrupt
 379:stm32f10x_lib/STM32F10x_StdPeriph_Driver/src/stm32f10x_usart.c ****   *     @arg USART_IT_TC:   Transmission complete interrupt
 380:stm32f10x_lib/STM32F10x_StdPeriph_Driver/src/stm32f10x_usart.c ****   *     @arg USART_IT_RXNE: Receive Data register not empty interrupt
 381:stm32f10x_lib/STM32F10x_StdPeriph_Driver/src/stm32f10x_usart.c ****   *     @arg USART_IT_IDLE: Idle line detection interrupt
 382:stm32f10x_lib/STM32F10x_StdPeriph_Driver/src/stm32f10x_usart.c ****   *     @arg USART_IT_PE:   Parity Error interrupt
 383:stm32f10x_lib/STM32F10x_StdPeriph_Driver/src/stm32f10x_usart.c ****   *     @arg USART_IT_ERR:  Error interrupt(Frame error, noise error, overrun error)
 384:stm32f10x_lib/STM32F10x_StdPeriph_Driver/src/stm32f10x_usart.c ****   * @param  NewState: new state of the specified USARTx interrupts.
 385:stm32f10x_lib/STM32F10x_StdPeriph_Driver/src/stm32f10x_usart.c ****   *   This parameter can be: ENABLE or DISABLE.
 386:stm32f10x_lib/STM32F10x_StdPeriph_Driver/src/stm32f10x_usart.c ****   * @retval None
 387:stm32f10x_lib/STM32F10x_StdPeriph_Driver/src/stm32f10x_usart.c ****   */
 388:stm32f10x_lib/STM32F10x_StdPeriph_Driver/src/stm32f10x_usart.c **** void USART_ITConfig(USART_TypeDef* USARTx, uint16_t USART_IT, FunctionalState NewState)
 389:stm32f10x_lib/STM32F10x_StdPeriph_Driver/src/stm32f10x_usart.c **** {
 672              		.loc 1 389 1 is_stmt 1 view -0
 673              		.cfi_startproc
 674              		@ args = 0, pretend = 0, frame = 0
 675              		@ frame_needed = 0, uses_anonymous_args = 0
 390:stm32f10x_lib/STM32F10x_StdPeriph_Driver/src/stm32f10x_usart.c ****   uint32_t usartreg = 0x00, itpos = 0x00, itmask = 0x00;
 676              		.loc 1 390 3 view .LVU171
 391:stm32f10x_lib/STM32F10x_StdPeriph_Driver/src/stm32f10x_usart.c ****   uint32_t usartxbase = 0x00;
 677              		.loc 1 391 3 view .LVU172
 392:stm32f10x_lib/STM32F10x_StdPeriph_Driver/src/stm32f10x_usart.c ****   /* Check the parameters */
 393:stm32f10x_lib/STM32F10x_StdPeriph_Driver/src/stm32f10x_usart.c ****   assert_param(IS_USART_ALL_PERIPH(USARTx));
 678              		.loc 1 393 3 view .LVU173
 394:stm32f10x_lib/STM32F10x_StdPeriph_Driver/src/stm32f10x_usart.c ****   assert_param(IS_USART_CONFIG_IT(USART_IT));
 679              		.loc 1 394 3 view .LVU174
 395:stm32f10x_lib/STM32F10x_StdPeriph_Driver/src/stm32f10x_usart.c ****   assert_param(IS_FUNCTIONAL_STATE(NewState));
 680              		.loc 1 395 3 view .LVU175
 396:stm32f10x_lib/STM32F10x_StdPeriph_Driver/src/stm32f10x_usart.c ****   /* The CTS interrupt is not available for UART4 and UART5 */
 397:stm32f10x_lib/STM32F10x_StdPeriph_Driver/src/stm32f10x_usart.c ****   if (USART_IT == USART_IT_CTS)
 681              		.loc 1 397 3 view .LVU176
 398:stm32f10x_lib/STM32F10x_StdPeriph_Driver/src/stm32f10x_usart.c ****   {
 399:stm32f10x_lib/STM32F10x_StdPeriph_Driver/src/stm32f10x_usart.c ****     assert_param(IS_USART_123_PERIPH(USARTx));
 682              		.loc 1 399 5 view .LVU177
 400:stm32f10x_lib/STM32F10x_StdPeriph_Driver/src/stm32f10x_usart.c ****   }   
 401:stm32f10x_lib/STM32F10x_StdPeriph_Driver/src/stm32f10x_usart.c ****   
 402:stm32f10x_lib/STM32F10x_StdPeriph_Driver/src/stm32f10x_usart.c ****   usartxbase = (uint32_t)USARTx;
 683              		.loc 1 402 3 view .LVU178
 403:stm32f10x_lib/STM32F10x_StdPeriph_Driver/src/stm32f10x_usart.c **** 
 404:stm32f10x_lib/STM32F10x_StdPeriph_Driver/src/stm32f10x_usart.c ****   /* Get the USART register index */
 405:stm32f10x_lib/STM32F10x_StdPeriph_Driver/src/stm32f10x_usart.c ****   usartreg = (((uint8_t)USART_IT) >> 0x05);
 684              		.loc 1 405 3 view .LVU179
 685              	@ stm32f10x_lib/STM32F10x_StdPeriph_Driver/src/stm32f10x_usart.c:409:   itmask = (((uint32_t)0x01) 
 406:stm32f10x_lib/STM32F10x_StdPeriph_Driver/src/stm32f10x_usart.c **** 
 407:stm32f10x_lib/STM32F10x_StdPeriph_Driver/src/stm32f10x_usart.c ****   /* Get the interrupt position */
 408:stm32f10x_lib/STM32F10x_StdPeriph_Driver/src/stm32f10x_usart.c ****   itpos = USART_IT & IT_Mask;
 409:stm32f10x_lib/STM32F10x_StdPeriph_Driver/src/stm32f10x_usart.c ****   itmask = (((uint32_t)0x01) << itpos);
 686              		.loc 1 409 10 is_stmt 0 view .LVU180
ARM GAS  C:\Users\ADMINI~1\AppData\Local\Temp\cc5w2WuM.s 			page 21


 687 0198 0123     		movs	r3, #1	@ tmp133,
 688              	@ stm32f10x_lib/STM32F10x_StdPeriph_Driver/src/stm32f10x_usart.c:389: {
 389:stm32f10x_lib/STM32F10x_StdPeriph_Driver/src/stm32f10x_usart.c ****   uint32_t usartreg = 0x00, itpos = 0x00, itmask = 0x00;
 689              		.loc 1 389 1 view .LVU181
 690 019a 10B5     		push	{r4, lr}	@
 691              	.LCFI9:
 692              		.cfi_def_cfa_offset 8
 693              		.cfi_offset 4, -8
 694              		.cfi_offset 14, -4
 695              	@ stm32f10x_lib/STM32F10x_StdPeriph_Driver/src/stm32f10x_usart.c:405:   usartreg = (((uint8_t)USART
 405:stm32f10x_lib/STM32F10x_StdPeriph_Driver/src/stm32f10x_usart.c **** 
 696              		.loc 1 405 35 view .LVU182
 697 019c C1F34214 		ubfx	r4, r1, #5, #3	@ _2, USART_IT,,
 698              	.LVL51:
 408:stm32f10x_lib/STM32F10x_StdPeriph_Driver/src/stm32f10x_usart.c ****   itmask = (((uint32_t)0x01) << itpos);
 699              		.loc 1 408 3 is_stmt 1 view .LVU183
 700              		.loc 1 409 3 view .LVU184
 701              	@ stm32f10x_lib/STM32F10x_StdPeriph_Driver/src/stm32f10x_usart.c:411:   if (usartreg == 0x01) /* Th
 410:stm32f10x_lib/STM32F10x_StdPeriph_Driver/src/stm32f10x_usart.c ****     
 411:stm32f10x_lib/STM32F10x_StdPeriph_Driver/src/stm32f10x_usart.c ****   if (usartreg == 0x01) /* The IT is in CR1 register */
 702              		.loc 1 411 6 is_stmt 0 view .LVU185
 703 01a0 9C42     		cmp	r4, r3	@ _2,
 704              	@ stm32f10x_lib/STM32F10x_StdPeriph_Driver/src/stm32f10x_usart.c:408:   itpos = USART_IT & IT_Mask;
 408:stm32f10x_lib/STM32F10x_StdPeriph_Driver/src/stm32f10x_usart.c ****   itmask = (((uint32_t)0x01) << itpos);
 705              		.loc 1 408 9 view .LVU186
 706 01a2 01F01F01 		and	r1, r1, #31	@ itpos, USART_IT,
 707              	.LVL52:
 708              	@ stm32f10x_lib/STM32F10x_StdPeriph_Driver/src/stm32f10x_usart.c:409:   itmask = (((uint32_t)0x01) 
 409:stm32f10x_lib/STM32F10x_StdPeriph_Driver/src/stm32f10x_usart.c ****     
 709              		.loc 1 409 10 view .LVU187
 710 01a6 03FA01F1 		lsl	r1, r3, r1	@ itmask, tmp133, itpos
 711              	.LVL53:
 712              		.loc 1 411 3 is_stmt 1 view .LVU188
 713              	@ stm32f10x_lib/STM32F10x_StdPeriph_Driver/src/stm32f10x_usart.c:411:   if (usartreg == 0x01) /* Th
 714              		.loc 1 411 6 is_stmt 0 view .LVU189
 715 01aa 05D1     		bne	.L28		@,
 412:stm32f10x_lib/STM32F10x_StdPeriph_Driver/src/stm32f10x_usart.c ****   {
 413:stm32f10x_lib/STM32F10x_StdPeriph_Driver/src/stm32f10x_usart.c ****     usartxbase += 0x0C;
 716              		.loc 1 413 5 is_stmt 1 view .LVU190
 717              	@ stm32f10x_lib/STM32F10x_StdPeriph_Driver/src/stm32f10x_usart.c:413:     usartxbase += 0x0C;
 718              		.loc 1 413 16 is_stmt 0 view .LVU191
 719 01ac 0C30     		adds	r0, r0, #12	@ usartxbase, USARTx,
 720              	.LVL54:
 721              	.L29:
 414:stm32f10x_lib/STM32F10x_StdPeriph_Driver/src/stm32f10x_usart.c ****   }
 415:stm32f10x_lib/STM32F10x_StdPeriph_Driver/src/stm32f10x_usart.c ****   else if (usartreg == 0x02) /* The IT is in CR2 register */
 416:stm32f10x_lib/STM32F10x_StdPeriph_Driver/src/stm32f10x_usart.c ****   {
 417:stm32f10x_lib/STM32F10x_StdPeriph_Driver/src/stm32f10x_usart.c ****     usartxbase += 0x10;
 418:stm32f10x_lib/STM32F10x_StdPeriph_Driver/src/stm32f10x_usart.c ****   }
 419:stm32f10x_lib/STM32F10x_StdPeriph_Driver/src/stm32f10x_usart.c ****   else /* The IT is in CR3 register */
 420:stm32f10x_lib/STM32F10x_StdPeriph_Driver/src/stm32f10x_usart.c ****   {
 421:stm32f10x_lib/STM32F10x_StdPeriph_Driver/src/stm32f10x_usart.c ****     usartxbase += 0x14; 
 422:stm32f10x_lib/STM32F10x_StdPeriph_Driver/src/stm32f10x_usart.c ****   }
 423:stm32f10x_lib/STM32F10x_StdPeriph_Driver/src/stm32f10x_usart.c ****   if (NewState != DISABLE)
 722              		.loc 1 423 3 is_stmt 1 view .LVU192
 723              	@ stm32f10x_lib/STM32F10x_StdPeriph_Driver/src/stm32f10x_usart.c:425:     *(__IO uint32_t*)usartxba
 424:stm32f10x_lib/STM32F10x_StdPeriph_Driver/src/stm32f10x_usart.c ****   {
ARM GAS  C:\Users\ADMINI~1\AppData\Local\Temp\cc5w2WuM.s 			page 22


 425:stm32f10x_lib/STM32F10x_StdPeriph_Driver/src/stm32f10x_usart.c ****     *(__IO uint32_t*)usartxbase  |= itmask;
 724              		.loc 1 425 34 is_stmt 0 view .LVU193
 725 01ae 0368     		ldr	r3, [r0]	@ _4,* usartxbase
 726              	@ stm32f10x_lib/STM32F10x_StdPeriph_Driver/src/stm32f10x_usart.c:423:   if (NewState != DISABLE)
 423:stm32f10x_lib/STM32F10x_StdPeriph_Driver/src/stm32f10x_usart.c ****   {
 727              		.loc 1 423 6 view .LVU194
 728 01b0 3AB1     		cbz	r2, .L31	@ NewState,
 729              		.loc 1 425 5 is_stmt 1 view .LVU195
 730              	@ stm32f10x_lib/STM32F10x_StdPeriph_Driver/src/stm32f10x_usart.c:425:     *(__IO uint32_t*)usartxba
 731              		.loc 1 425 34 is_stmt 0 view .LVU196
 732 01b2 1943     		orrs	r1, r1, r3	@, _5, itmask, _4
 733              	.LVL55:
 734              	.L33:
 735              	@ stm32f10x_lib/STM32F10x_StdPeriph_Driver/src/stm32f10x_usart.c:429:     *(__IO uint32_t*)usartxba
 426:stm32f10x_lib/STM32F10x_StdPeriph_Driver/src/stm32f10x_usart.c ****   }
 427:stm32f10x_lib/STM32F10x_StdPeriph_Driver/src/stm32f10x_usart.c ****   else
 428:stm32f10x_lib/STM32F10x_StdPeriph_Driver/src/stm32f10x_usart.c ****   {
 429:stm32f10x_lib/STM32F10x_StdPeriph_Driver/src/stm32f10x_usart.c ****     *(__IO uint32_t*)usartxbase &= ~itmask;
 736              		.loc 1 429 33 view .LVU197
 737 01b4 0160     		str	r1, [r0]	@ _9,* usartxbase
 738              	@ stm32f10x_lib/STM32F10x_StdPeriph_Driver/src/stm32f10x_usart.c:431: }
 430:stm32f10x_lib/STM32F10x_StdPeriph_Driver/src/stm32f10x_usart.c ****   }
 431:stm32f10x_lib/STM32F10x_StdPeriph_Driver/src/stm32f10x_usart.c **** }
 739              		.loc 1 431 1 view .LVU198
 740 01b6 10BD     		pop	{r4, pc}	@
 741              	.LVL56:
 742              	.L28:
 415:stm32f10x_lib/STM32F10x_StdPeriph_Driver/src/stm32f10x_usart.c ****   {
 743              		.loc 1 415 8 is_stmt 1 view .LVU199
 744              	@ stm32f10x_lib/STM32F10x_StdPeriph_Driver/src/stm32f10x_usart.c:415:   else if (usartreg == 0x02) 
 415:stm32f10x_lib/STM32F10x_StdPeriph_Driver/src/stm32f10x_usart.c ****   {
 745              		.loc 1 415 11 is_stmt 0 view .LVU200
 746 01b8 022C     		cmp	r4, #2	@ _2,
 417:stm32f10x_lib/STM32F10x_StdPeriph_Driver/src/stm32f10x_usart.c ****   }
 747              		.loc 1 417 5 is_stmt 1 view .LVU201
 748              	@ stm32f10x_lib/STM32F10x_StdPeriph_Driver/src/stm32f10x_usart.c:417:     usartxbase += 0x10;
 417:stm32f10x_lib/STM32F10x_StdPeriph_Driver/src/stm32f10x_usart.c ****   }
 749              		.loc 1 417 16 is_stmt 0 view .LVU202
 750 01ba 0CBF     		ite	eq
 751 01bc 1030     		addeq	r0, r0, #16	@ usartxbase, USARTx,
 752              	.LVL57:
 421:stm32f10x_lib/STM32F10x_StdPeriph_Driver/src/stm32f10x_usart.c ****   }
 753              		.loc 1 421 5 is_stmt 1 view .LVU203
 754              	@ stm32f10x_lib/STM32F10x_StdPeriph_Driver/src/stm32f10x_usart.c:421:     usartxbase += 0x14; 
 421:stm32f10x_lib/STM32F10x_StdPeriph_Driver/src/stm32f10x_usart.c ****   }
 755              		.loc 1 421 16 is_stmt 0 view .LVU204
 756 01be 1430     		addne	r0, r0, #20	@ usartxbase, USARTx,
 757              	.LVL58:
 421:stm32f10x_lib/STM32F10x_StdPeriph_Driver/src/stm32f10x_usart.c ****   }
 758              		.loc 1 421 16 view .LVU205
 759 01c0 F5E7     		b	.L29		@
 760              	.L31:
 429:stm32f10x_lib/STM32F10x_StdPeriph_Driver/src/stm32f10x_usart.c ****   }
 761              		.loc 1 429 5 is_stmt 1 view .LVU206
 762              	@ stm32f10x_lib/STM32F10x_StdPeriph_Driver/src/stm32f10x_usart.c:429:     *(__IO uint32_t*)usartxba
 429:stm32f10x_lib/STM32F10x_StdPeriph_Driver/src/stm32f10x_usart.c ****   }
 763              		.loc 1 429 33 is_stmt 0 view .LVU207
ARM GAS  C:\Users\ADMINI~1\AppData\Local\Temp\cc5w2WuM.s 			page 23


 764 01c2 23EA0101 		bic	r1, r3, r1	@ _9, _7, itmask
 765              	.LVL59:
 429:stm32f10x_lib/STM32F10x_StdPeriph_Driver/src/stm32f10x_usart.c ****   }
 766              		.loc 1 429 33 view .LVU208
 767 01c6 F5E7     		b	.L33		@
 768              		.cfi_endproc
 769              	.LFE35:
 770              		.size	USART_ITConfig, .-USART_ITConfig
 771              		.align	1
 772              		.global	USART_DMACmd
 773              		.syntax unified
 774              		.thumb
 775              		.thumb_func
 776              		.type	USART_DMACmd, %function
 777              	USART_DMACmd:
 778              	.LVL60:
 779              	.LFB36:
 432:stm32f10x_lib/STM32F10x_StdPeriph_Driver/src/stm32f10x_usart.c **** 
 433:stm32f10x_lib/STM32F10x_StdPeriph_Driver/src/stm32f10x_usart.c **** /**
 434:stm32f10x_lib/STM32F10x_StdPeriph_Driver/src/stm32f10x_usart.c ****   * @brief  Enables or disables the USARTs DMA interface.
 435:stm32f10x_lib/STM32F10x_StdPeriph_Driver/src/stm32f10x_usart.c ****   * @param  USARTx: Select the USART or the UART peripheral. 
 436:stm32f10x_lib/STM32F10x_StdPeriph_Driver/src/stm32f10x_usart.c ****   *   This parameter can be one of the following values:
 437:stm32f10x_lib/STM32F10x_StdPeriph_Driver/src/stm32f10x_usart.c ****   *   USART1, USART2, USART3, UART4 or UART5.
 438:stm32f10x_lib/STM32F10x_StdPeriph_Driver/src/stm32f10x_usart.c ****   * @param  USART_DMAReq: specifies the DMA request.
 439:stm32f10x_lib/STM32F10x_StdPeriph_Driver/src/stm32f10x_usart.c ****   *   This parameter can be any combination of the following values:
 440:stm32f10x_lib/STM32F10x_StdPeriph_Driver/src/stm32f10x_usart.c ****   *     @arg USART_DMAReq_Tx: USART DMA transmit request
 441:stm32f10x_lib/STM32F10x_StdPeriph_Driver/src/stm32f10x_usart.c ****   *     @arg USART_DMAReq_Rx: USART DMA receive request
 442:stm32f10x_lib/STM32F10x_StdPeriph_Driver/src/stm32f10x_usart.c ****   * @param  NewState: new state of the DMA Request sources.
 443:stm32f10x_lib/STM32F10x_StdPeriph_Driver/src/stm32f10x_usart.c ****   *   This parameter can be: ENABLE or DISABLE.
 444:stm32f10x_lib/STM32F10x_StdPeriph_Driver/src/stm32f10x_usart.c ****   * @note The DMA mode is not available for UART5 except in the STM32
 445:stm32f10x_lib/STM32F10x_StdPeriph_Driver/src/stm32f10x_usart.c ****   *       High density value line devices(STM32F10X_HD_VL).  
 446:stm32f10x_lib/STM32F10x_StdPeriph_Driver/src/stm32f10x_usart.c ****   * @retval None
 447:stm32f10x_lib/STM32F10x_StdPeriph_Driver/src/stm32f10x_usart.c ****   */
 448:stm32f10x_lib/STM32F10x_StdPeriph_Driver/src/stm32f10x_usart.c **** void USART_DMACmd(USART_TypeDef* USARTx, uint16_t USART_DMAReq, FunctionalState NewState)
 449:stm32f10x_lib/STM32F10x_StdPeriph_Driver/src/stm32f10x_usart.c **** {
 780              		.loc 1 449 1 is_stmt 1 view -0
 781              		.cfi_startproc
 782              		@ args = 0, pretend = 0, frame = 0
 783              		@ frame_needed = 0, uses_anonymous_args = 0
 784              		@ link register save eliminated.
 450:stm32f10x_lib/STM32F10x_StdPeriph_Driver/src/stm32f10x_usart.c ****   /* Check the parameters */
 451:stm32f10x_lib/STM32F10x_StdPeriph_Driver/src/stm32f10x_usart.c ****   assert_param(IS_USART_ALL_PERIPH(USARTx));
 785              		.loc 1 451 3 view .LVU210
 452:stm32f10x_lib/STM32F10x_StdPeriph_Driver/src/stm32f10x_usart.c ****   assert_param(IS_USART_DMAREQ(USART_DMAReq));  
 786              		.loc 1 452 3 view .LVU211
 453:stm32f10x_lib/STM32F10x_StdPeriph_Driver/src/stm32f10x_usart.c ****   assert_param(IS_FUNCTIONAL_STATE(NewState)); 
 787              		.loc 1 453 3 view .LVU212
 454:stm32f10x_lib/STM32F10x_StdPeriph_Driver/src/stm32f10x_usart.c ****   if (NewState != DISABLE)
 788              		.loc 1 454 3 view .LVU213
 789              	@ stm32f10x_lib/STM32F10x_StdPeriph_Driver/src/stm32f10x_usart.c:458:     USARTx->CR3 |= USART_DMAR
 455:stm32f10x_lib/STM32F10x_StdPeriph_Driver/src/stm32f10x_usart.c ****   {
 456:stm32f10x_lib/STM32F10x_StdPeriph_Driver/src/stm32f10x_usart.c ****     /* Enable the DMA transfer for selected requests by setting the DMAT and/or
 457:stm32f10x_lib/STM32F10x_StdPeriph_Driver/src/stm32f10x_usart.c ****        DMAR bits in the USART CR3 register */
 458:stm32f10x_lib/STM32F10x_StdPeriph_Driver/src/stm32f10x_usart.c ****     USARTx->CR3 |= USART_DMAReq;
 790              		.loc 1 458 17 is_stmt 0 view .LVU214
 791 01c8 838A     		ldrh	r3, [r0, #20]	@,
 792 01ca 9BB2     		uxth	r3, r3	@ _1, USARTx_9(D)->CR3
ARM GAS  C:\Users\ADMINI~1\AppData\Local\Temp\cc5w2WuM.s 			page 24


 793              	@ stm32f10x_lib/STM32F10x_StdPeriph_Driver/src/stm32f10x_usart.c:454:   if (NewState != DISABLE)
 454:stm32f10x_lib/STM32F10x_StdPeriph_Driver/src/stm32f10x_usart.c ****   if (NewState != DISABLE)
 794              		.loc 1 454 6 view .LVU215
 795 01cc 12B1     		cbz	r2, .L35	@ tmp133,
 796              		.loc 1 458 5 is_stmt 1 view .LVU216
 797              	@ stm32f10x_lib/STM32F10x_StdPeriph_Driver/src/stm32f10x_usart.c:458:     USARTx->CR3 |= USART_DMAR
 798              		.loc 1 458 17 is_stmt 0 view .LVU217
 799 01ce 1943     		orrs	r1, r1, r3	@, _2, USART_DMAReq, _1
 800              	.LVL61:
 801              	.L37:
 802              	@ stm32f10x_lib/STM32F10x_StdPeriph_Driver/src/stm32f10x_usart.c:464:     USARTx->CR3 &= (uint16_t)
 459:stm32f10x_lib/STM32F10x_StdPeriph_Driver/src/stm32f10x_usart.c ****   }
 460:stm32f10x_lib/STM32F10x_StdPeriph_Driver/src/stm32f10x_usart.c ****   else
 461:stm32f10x_lib/STM32F10x_StdPeriph_Driver/src/stm32f10x_usart.c ****   {
 462:stm32f10x_lib/STM32F10x_StdPeriph_Driver/src/stm32f10x_usart.c ****     /* Disable the DMA transfer for selected requests by clearing the DMAT and/or
 463:stm32f10x_lib/STM32F10x_StdPeriph_Driver/src/stm32f10x_usart.c ****        DMAR bits in the USART CR3 register */
 464:stm32f10x_lib/STM32F10x_StdPeriph_Driver/src/stm32f10x_usart.c ****     USARTx->CR3 &= (uint16_t)~USART_DMAReq;
 803              		.loc 1 464 17 view .LVU218
 804 01d0 8182     		strh	r1, [r0, #20]	@ movhi	@ _5,
 805              	@ stm32f10x_lib/STM32F10x_StdPeriph_Driver/src/stm32f10x_usart.c:466: }
 465:stm32f10x_lib/STM32F10x_StdPeriph_Driver/src/stm32f10x_usart.c ****   }
 466:stm32f10x_lib/STM32F10x_StdPeriph_Driver/src/stm32f10x_usart.c **** }
 806              		.loc 1 466 1 view .LVU219
 807 01d2 7047     		bx	lr	@
 808              	.LVL62:
 809              	.L35:
 464:stm32f10x_lib/STM32F10x_StdPeriph_Driver/src/stm32f10x_usart.c ****   }
 810              		.loc 1 464 5 is_stmt 1 view .LVU220
 811              	@ stm32f10x_lib/STM32F10x_StdPeriph_Driver/src/stm32f10x_usart.c:464:     USARTx->CR3 &= (uint16_t)
 464:stm32f10x_lib/STM32F10x_StdPeriph_Driver/src/stm32f10x_usart.c ****   }
 812              		.loc 1 464 17 is_stmt 0 view .LVU221
 813 01d4 23EA0101 		bic	r1, r3, r1	@ _5, _3, USART_DMAReq
 814              	.LVL63:
 464:stm32f10x_lib/STM32F10x_StdPeriph_Driver/src/stm32f10x_usart.c ****   }
 815              		.loc 1 464 17 view .LVU222
 816 01d8 FAE7     		b	.L37		@
 817              		.cfi_endproc
 818              	.LFE36:
 819              		.size	USART_DMACmd, .-USART_DMACmd
 820              		.align	1
 821              		.global	USART_SetAddress
 822              		.syntax unified
 823              		.thumb
 824              		.thumb_func
 825              		.type	USART_SetAddress, %function
 826              	USART_SetAddress:
 827              	.LVL64:
 828              	.LFB37:
 467:stm32f10x_lib/STM32F10x_StdPeriph_Driver/src/stm32f10x_usart.c **** 
 468:stm32f10x_lib/STM32F10x_StdPeriph_Driver/src/stm32f10x_usart.c **** /**
 469:stm32f10x_lib/STM32F10x_StdPeriph_Driver/src/stm32f10x_usart.c ****   * @brief  Sets the address of the USART node.
 470:stm32f10x_lib/STM32F10x_StdPeriph_Driver/src/stm32f10x_usart.c ****   * @param  USARTx: Select the USART or the UART peripheral. 
 471:stm32f10x_lib/STM32F10x_StdPeriph_Driver/src/stm32f10x_usart.c ****   *   This parameter can be one of the following values:
 472:stm32f10x_lib/STM32F10x_StdPeriph_Driver/src/stm32f10x_usart.c ****   *   USART1, USART2, USART3, UART4 or UART5.
 473:stm32f10x_lib/STM32F10x_StdPeriph_Driver/src/stm32f10x_usart.c ****   * @param  USART_Address: Indicates the address of the USART node.
 474:stm32f10x_lib/STM32F10x_StdPeriph_Driver/src/stm32f10x_usart.c ****   * @retval None
 475:stm32f10x_lib/STM32F10x_StdPeriph_Driver/src/stm32f10x_usart.c ****   */
ARM GAS  C:\Users\ADMINI~1\AppData\Local\Temp\cc5w2WuM.s 			page 25


 476:stm32f10x_lib/STM32F10x_StdPeriph_Driver/src/stm32f10x_usart.c **** void USART_SetAddress(USART_TypeDef* USARTx, uint8_t USART_Address)
 477:stm32f10x_lib/STM32F10x_StdPeriph_Driver/src/stm32f10x_usart.c **** {
 829              		.loc 1 477 1 is_stmt 1 view -0
 830              		.cfi_startproc
 831              		@ args = 0, pretend = 0, frame = 0
 832              		@ frame_needed = 0, uses_anonymous_args = 0
 833              		@ link register save eliminated.
 478:stm32f10x_lib/STM32F10x_StdPeriph_Driver/src/stm32f10x_usart.c ****   /* Check the parameters */
 479:stm32f10x_lib/STM32F10x_StdPeriph_Driver/src/stm32f10x_usart.c ****   assert_param(IS_USART_ALL_PERIPH(USARTx));
 834              		.loc 1 479 3 view .LVU224
 480:stm32f10x_lib/STM32F10x_StdPeriph_Driver/src/stm32f10x_usart.c ****   assert_param(IS_USART_ADDRESS(USART_Address)); 
 835              		.loc 1 480 3 view .LVU225
 481:stm32f10x_lib/STM32F10x_StdPeriph_Driver/src/stm32f10x_usart.c ****     
 482:stm32f10x_lib/STM32F10x_StdPeriph_Driver/src/stm32f10x_usart.c ****   /* Clear the USART address */
 483:stm32f10x_lib/STM32F10x_StdPeriph_Driver/src/stm32f10x_usart.c ****   USARTx->CR2 &= CR2_Address_Mask;
 836              		.loc 1 483 3 view .LVU226
 837              	@ stm32f10x_lib/STM32F10x_StdPeriph_Driver/src/stm32f10x_usart.c:483:   USARTx->CR2 &= CR2_Address_
 838              		.loc 1 483 15 is_stmt 0 view .LVU227
 839 01da 038A     		ldrh	r3, [r0, #16]	@, USARTx_7(D)->CR2
 840 01dc 23F00F03 		bic	r3, r3, #15	@ _2, USARTx_7(D)->CR2,
 841 01e0 1B04     		lsls	r3, r3, #16	@ _2, _2,
 842 01e2 1B0C     		lsrs	r3, r3, #16	@ _2, _2,
 843 01e4 0382     		strh	r3, [r0, #16]	@ movhi	@ _2, USARTx_7(D)->CR2
 484:stm32f10x_lib/STM32F10x_StdPeriph_Driver/src/stm32f10x_usart.c ****   /* Set the USART address node */
 485:stm32f10x_lib/STM32F10x_StdPeriph_Driver/src/stm32f10x_usart.c ****   USARTx->CR2 |= USART_Address;
 844              		.loc 1 485 3 is_stmt 1 view .LVU228
 845              	@ stm32f10x_lib/STM32F10x_StdPeriph_Driver/src/stm32f10x_usart.c:485:   USARTx->CR2 |= USART_Addres
 846              		.loc 1 485 15 is_stmt 0 view .LVU229
 847 01e6 038A     		ldrh	r3, [r0, #16]	@, USARTx_7(D)->CR2
 848 01e8 9BB2     		uxth	r3, r3	@ _3, USARTx_7(D)->CR2
 849 01ea 0B43     		orrs	r3, r3, r1	@, _5, _3, tmp130
 850 01ec 0382     		strh	r3, [r0, #16]	@ movhi	@ _5, USARTx_7(D)->CR2
 851              	@ stm32f10x_lib/STM32F10x_StdPeriph_Driver/src/stm32f10x_usart.c:486: }
 486:stm32f10x_lib/STM32F10x_StdPeriph_Driver/src/stm32f10x_usart.c **** }
 852              		.loc 1 486 1 view .LVU230
 853 01ee 7047     		bx	lr	@
 854              		.cfi_endproc
 855              	.LFE37:
 856              		.size	USART_SetAddress, .-USART_SetAddress
 857              		.align	1
 858              		.global	USART_WakeUpConfig
 859              		.syntax unified
 860              		.thumb
 861              		.thumb_func
 862              		.type	USART_WakeUpConfig, %function
 863              	USART_WakeUpConfig:
 864              	.LVL65:
 865              	.LFB38:
 487:stm32f10x_lib/STM32F10x_StdPeriph_Driver/src/stm32f10x_usart.c **** 
 488:stm32f10x_lib/STM32F10x_StdPeriph_Driver/src/stm32f10x_usart.c **** /**
 489:stm32f10x_lib/STM32F10x_StdPeriph_Driver/src/stm32f10x_usart.c ****   * @brief  Selects the USART WakeUp method.
 490:stm32f10x_lib/STM32F10x_StdPeriph_Driver/src/stm32f10x_usart.c ****   * @param  USARTx: Select the USART or the UART peripheral. 
 491:stm32f10x_lib/STM32F10x_StdPeriph_Driver/src/stm32f10x_usart.c ****   *   This parameter can be one of the following values:
 492:stm32f10x_lib/STM32F10x_StdPeriph_Driver/src/stm32f10x_usart.c ****   *   USART1, USART2, USART3, UART4 or UART5.
 493:stm32f10x_lib/STM32F10x_StdPeriph_Driver/src/stm32f10x_usart.c ****   * @param  USART_WakeUp: specifies the USART wakeup method.
 494:stm32f10x_lib/STM32F10x_StdPeriph_Driver/src/stm32f10x_usart.c ****   *   This parameter can be one of the following values:
 495:stm32f10x_lib/STM32F10x_StdPeriph_Driver/src/stm32f10x_usart.c ****   *     @arg USART_WakeUp_IdleLine: WakeUp by an idle line detection
ARM GAS  C:\Users\ADMINI~1\AppData\Local\Temp\cc5w2WuM.s 			page 26


 496:stm32f10x_lib/STM32F10x_StdPeriph_Driver/src/stm32f10x_usart.c ****   *     @arg USART_WakeUp_AddressMark: WakeUp by an address mark
 497:stm32f10x_lib/STM32F10x_StdPeriph_Driver/src/stm32f10x_usart.c ****   * @retval None
 498:stm32f10x_lib/STM32F10x_StdPeriph_Driver/src/stm32f10x_usart.c ****   */
 499:stm32f10x_lib/STM32F10x_StdPeriph_Driver/src/stm32f10x_usart.c **** void USART_WakeUpConfig(USART_TypeDef* USARTx, uint16_t USART_WakeUp)
 500:stm32f10x_lib/STM32F10x_StdPeriph_Driver/src/stm32f10x_usart.c **** {
 866              		.loc 1 500 1 is_stmt 1 view -0
 867              		.cfi_startproc
 868              		@ args = 0, pretend = 0, frame = 0
 869              		@ frame_needed = 0, uses_anonymous_args = 0
 870              		@ link register save eliminated.
 501:stm32f10x_lib/STM32F10x_StdPeriph_Driver/src/stm32f10x_usart.c ****   /* Check the parameters */
 502:stm32f10x_lib/STM32F10x_StdPeriph_Driver/src/stm32f10x_usart.c ****   assert_param(IS_USART_ALL_PERIPH(USARTx));
 871              		.loc 1 502 3 view .LVU232
 503:stm32f10x_lib/STM32F10x_StdPeriph_Driver/src/stm32f10x_usart.c ****   assert_param(IS_USART_WAKEUP(USART_WakeUp));
 872              		.loc 1 503 3 view .LVU233
 504:stm32f10x_lib/STM32F10x_StdPeriph_Driver/src/stm32f10x_usart.c ****   
 505:stm32f10x_lib/STM32F10x_StdPeriph_Driver/src/stm32f10x_usart.c ****   USARTx->CR1 &= CR1_WAKE_Mask;
 873              		.loc 1 505 3 view .LVU234
 874              	@ stm32f10x_lib/STM32F10x_StdPeriph_Driver/src/stm32f10x_usart.c:505:   USARTx->CR1 &= CR1_WAKE_Mas
 875              		.loc 1 505 15 is_stmt 0 view .LVU235
 876 01f0 8389     		ldrh	r3, [r0, #12]	@, USARTx_6(D)->CR1
 877 01f2 23F40063 		bic	r3, r3, #2048	@ _2, USARTx_6(D)->CR1,
 878 01f6 1B04     		lsls	r3, r3, #16	@ _2, _2,
 879 01f8 1B0C     		lsrs	r3, r3, #16	@ _2, _2,
 880 01fa 8381     		strh	r3, [r0, #12]	@ movhi	@ _2, USARTx_6(D)->CR1
 506:stm32f10x_lib/STM32F10x_StdPeriph_Driver/src/stm32f10x_usart.c ****   USARTx->CR1 |= USART_WakeUp;
 881              		.loc 1 506 3 is_stmt 1 view .LVU236
 882              	@ stm32f10x_lib/STM32F10x_StdPeriph_Driver/src/stm32f10x_usart.c:506:   USARTx->CR1 |= USART_WakeUp
 883              		.loc 1 506 15 is_stmt 0 view .LVU237
 884 01fc 8389     		ldrh	r3, [r0, #12]	@, USARTx_6(D)->CR1
 885 01fe 9BB2     		uxth	r3, r3	@ _3, USARTx_6(D)->CR1
 886 0200 0B43     		orrs	r3, r3, r1	@, _4, _3, tmp128
 887 0202 8381     		strh	r3, [r0, #12]	@ movhi	@ _4, USARTx_6(D)->CR1
 888              	@ stm32f10x_lib/STM32F10x_StdPeriph_Driver/src/stm32f10x_usart.c:507: }
 507:stm32f10x_lib/STM32F10x_StdPeriph_Driver/src/stm32f10x_usart.c **** }
 889              		.loc 1 507 1 view .LVU238
 890 0204 7047     		bx	lr	@
 891              		.cfi_endproc
 892              	.LFE38:
 893              		.size	USART_WakeUpConfig, .-USART_WakeUpConfig
 894              		.align	1
 895              		.global	USART_ReceiverWakeUpCmd
 896              		.syntax unified
 897              		.thumb
 898              		.thumb_func
 899              		.type	USART_ReceiverWakeUpCmd, %function
 900              	USART_ReceiverWakeUpCmd:
 901              	.LVL66:
 902              	.LFB39:
 508:stm32f10x_lib/STM32F10x_StdPeriph_Driver/src/stm32f10x_usart.c **** 
 509:stm32f10x_lib/STM32F10x_StdPeriph_Driver/src/stm32f10x_usart.c **** /**
 510:stm32f10x_lib/STM32F10x_StdPeriph_Driver/src/stm32f10x_usart.c ****   * @brief  Determines if the USART is in mute mode or not.
 511:stm32f10x_lib/STM32F10x_StdPeriph_Driver/src/stm32f10x_usart.c ****   * @param  USARTx: Select the USART or the UART peripheral. 
 512:stm32f10x_lib/STM32F10x_StdPeriph_Driver/src/stm32f10x_usart.c ****   *   This parameter can be one of the following values:
 513:stm32f10x_lib/STM32F10x_StdPeriph_Driver/src/stm32f10x_usart.c ****   *   USART1, USART2, USART3, UART4 or UART5.
 514:stm32f10x_lib/STM32F10x_StdPeriph_Driver/src/stm32f10x_usart.c ****   * @param  NewState: new state of the USART mute mode.
 515:stm32f10x_lib/STM32F10x_StdPeriph_Driver/src/stm32f10x_usart.c ****   *   This parameter can be: ENABLE or DISABLE.
ARM GAS  C:\Users\ADMINI~1\AppData\Local\Temp\cc5w2WuM.s 			page 27


 516:stm32f10x_lib/STM32F10x_StdPeriph_Driver/src/stm32f10x_usart.c ****   * @retval None
 517:stm32f10x_lib/STM32F10x_StdPeriph_Driver/src/stm32f10x_usart.c ****   */
 518:stm32f10x_lib/STM32F10x_StdPeriph_Driver/src/stm32f10x_usart.c **** void USART_ReceiverWakeUpCmd(USART_TypeDef* USARTx, FunctionalState NewState)
 519:stm32f10x_lib/STM32F10x_StdPeriph_Driver/src/stm32f10x_usart.c **** {
 903              		.loc 1 519 1 is_stmt 1 view -0
 904              		.cfi_startproc
 905              		@ args = 0, pretend = 0, frame = 0
 906              		@ frame_needed = 0, uses_anonymous_args = 0
 907              		@ link register save eliminated.
 520:stm32f10x_lib/STM32F10x_StdPeriph_Driver/src/stm32f10x_usart.c ****   /* Check the parameters */
 521:stm32f10x_lib/STM32F10x_StdPeriph_Driver/src/stm32f10x_usart.c ****   assert_param(IS_USART_ALL_PERIPH(USARTx));
 908              		.loc 1 521 3 view .LVU240
 522:stm32f10x_lib/STM32F10x_StdPeriph_Driver/src/stm32f10x_usart.c ****   assert_param(IS_FUNCTIONAL_STATE(NewState)); 
 909              		.loc 1 522 3 view .LVU241
 523:stm32f10x_lib/STM32F10x_StdPeriph_Driver/src/stm32f10x_usart.c ****   
 524:stm32f10x_lib/STM32F10x_StdPeriph_Driver/src/stm32f10x_usart.c ****   if (NewState != DISABLE)
 910              		.loc 1 524 3 view .LVU242
 911              	@ stm32f10x_lib/STM32F10x_StdPeriph_Driver/src/stm32f10x_usart.c:527:     USARTx->CR1 |= CR1_RWU_Se
 525:stm32f10x_lib/STM32F10x_StdPeriph_Driver/src/stm32f10x_usart.c ****   {
 526:stm32f10x_lib/STM32F10x_StdPeriph_Driver/src/stm32f10x_usart.c ****     /* Enable the USART mute mode  by setting the RWU bit in the CR1 register */
 527:stm32f10x_lib/STM32F10x_StdPeriph_Driver/src/stm32f10x_usart.c ****     USARTx->CR1 |= CR1_RWU_Set;
 912              		.loc 1 527 17 is_stmt 0 view .LVU243
 913 0206 8389     		ldrh	r3, [r0, #12]	@,
 914              	@ stm32f10x_lib/STM32F10x_StdPeriph_Driver/src/stm32f10x_usart.c:524:   if (NewState != DISABLE)
 524:stm32f10x_lib/STM32F10x_StdPeriph_Driver/src/stm32f10x_usart.c ****   {
 915              		.loc 1 524 6 view .LVU244
 916 0208 21B1     		cbz	r1, .L41	@ tmp128,
 917              		.loc 1 527 5 is_stmt 1 view .LVU245
 918              	@ stm32f10x_lib/STM32F10x_StdPeriph_Driver/src/stm32f10x_usart.c:527:     USARTx->CR1 |= CR1_RWU_Se
 919              		.loc 1 527 17 is_stmt 0 view .LVU246
 920 020a 9BB2     		uxth	r3, r3	@ _1, USARTx_8(D)->CR1
 921 020c 43F00203 		orr	r3, r3, #2	@ _2, _1,
 922              	.L43:
 923              	@ stm32f10x_lib/STM32F10x_StdPeriph_Driver/src/stm32f10x_usart.c:532:     USARTx->CR1 &= CR1_RWU_Re
 528:stm32f10x_lib/STM32F10x_StdPeriph_Driver/src/stm32f10x_usart.c ****   }
 529:stm32f10x_lib/STM32F10x_StdPeriph_Driver/src/stm32f10x_usart.c ****   else
 530:stm32f10x_lib/STM32F10x_StdPeriph_Driver/src/stm32f10x_usart.c ****   {
 531:stm32f10x_lib/STM32F10x_StdPeriph_Driver/src/stm32f10x_usart.c ****     /* Disable the USART mute mode by clearing the RWU bit in the CR1 register */
 532:stm32f10x_lib/STM32F10x_StdPeriph_Driver/src/stm32f10x_usart.c ****     USARTx->CR1 &= CR1_RWU_Reset;
 924              		.loc 1 532 17 view .LVU247
 925 0210 8381     		strh	r3, [r0, #12]	@ movhi	@ _4,
 926              	@ stm32f10x_lib/STM32F10x_StdPeriph_Driver/src/stm32f10x_usart.c:534: }
 533:stm32f10x_lib/STM32F10x_StdPeriph_Driver/src/stm32f10x_usart.c ****   }
 534:stm32f10x_lib/STM32F10x_StdPeriph_Driver/src/stm32f10x_usart.c **** }
 927              		.loc 1 534 1 view .LVU248
 928 0212 7047     		bx	lr	@
 929              	.L41:
 532:stm32f10x_lib/STM32F10x_StdPeriph_Driver/src/stm32f10x_usart.c ****   }
 930              		.loc 1 532 5 is_stmt 1 view .LVU249
 931              	@ stm32f10x_lib/STM32F10x_StdPeriph_Driver/src/stm32f10x_usart.c:532:     USARTx->CR1 &= CR1_RWU_Re
 532:stm32f10x_lib/STM32F10x_StdPeriph_Driver/src/stm32f10x_usart.c ****   }
 932              		.loc 1 532 17 is_stmt 0 view .LVU250
 933 0214 23F00203 		bic	r3, r3, #2	@ _4, USARTx_8(D)->CR1,
 934 0218 1B04     		lsls	r3, r3, #16	@ _4, _4,
 935 021a 1B0C     		lsrs	r3, r3, #16	@ _4, _4,
 936 021c F8E7     		b	.L43		@
 937              		.cfi_endproc
ARM GAS  C:\Users\ADMINI~1\AppData\Local\Temp\cc5w2WuM.s 			page 28


 938              	.LFE39:
 939              		.size	USART_ReceiverWakeUpCmd, .-USART_ReceiverWakeUpCmd
 940              		.align	1
 941              		.global	USART_LINBreakDetectLengthConfig
 942              		.syntax unified
 943              		.thumb
 944              		.thumb_func
 945              		.type	USART_LINBreakDetectLengthConfig, %function
 946              	USART_LINBreakDetectLengthConfig:
 947              	.LVL67:
 948              	.LFB40:
 535:stm32f10x_lib/STM32F10x_StdPeriph_Driver/src/stm32f10x_usart.c **** 
 536:stm32f10x_lib/STM32F10x_StdPeriph_Driver/src/stm32f10x_usart.c **** /**
 537:stm32f10x_lib/STM32F10x_StdPeriph_Driver/src/stm32f10x_usart.c ****   * @brief  Sets the USART LIN Break detection length.
 538:stm32f10x_lib/STM32F10x_StdPeriph_Driver/src/stm32f10x_usart.c ****   * @param  USARTx: Select the USART or the UART peripheral. 
 539:stm32f10x_lib/STM32F10x_StdPeriph_Driver/src/stm32f10x_usart.c ****   *   This parameter can be one of the following values:
 540:stm32f10x_lib/STM32F10x_StdPeriph_Driver/src/stm32f10x_usart.c ****   *   USART1, USART2, USART3, UART4 or UART5.
 541:stm32f10x_lib/STM32F10x_StdPeriph_Driver/src/stm32f10x_usart.c ****   * @param  USART_LINBreakDetectLength: specifies the LIN break detection length.
 542:stm32f10x_lib/STM32F10x_StdPeriph_Driver/src/stm32f10x_usart.c ****   *   This parameter can be one of the following values:
 543:stm32f10x_lib/STM32F10x_StdPeriph_Driver/src/stm32f10x_usart.c ****   *     @arg USART_LINBreakDetectLength_10b: 10-bit break detection
 544:stm32f10x_lib/STM32F10x_StdPeriph_Driver/src/stm32f10x_usart.c ****   *     @arg USART_LINBreakDetectLength_11b: 11-bit break detection
 545:stm32f10x_lib/STM32F10x_StdPeriph_Driver/src/stm32f10x_usart.c ****   * @retval None
 546:stm32f10x_lib/STM32F10x_StdPeriph_Driver/src/stm32f10x_usart.c ****   */
 547:stm32f10x_lib/STM32F10x_StdPeriph_Driver/src/stm32f10x_usart.c **** void USART_LINBreakDetectLengthConfig(USART_TypeDef* USARTx, uint16_t USART_LINBreakDetectLength)
 548:stm32f10x_lib/STM32F10x_StdPeriph_Driver/src/stm32f10x_usart.c **** {
 949              		.loc 1 548 1 is_stmt 1 view -0
 950              		.cfi_startproc
 951              		@ args = 0, pretend = 0, frame = 0
 952              		@ frame_needed = 0, uses_anonymous_args = 0
 953              		@ link register save eliminated.
 549:stm32f10x_lib/STM32F10x_StdPeriph_Driver/src/stm32f10x_usart.c ****   /* Check the parameters */
 550:stm32f10x_lib/STM32F10x_StdPeriph_Driver/src/stm32f10x_usart.c ****   assert_param(IS_USART_ALL_PERIPH(USARTx));
 954              		.loc 1 550 3 view .LVU252
 551:stm32f10x_lib/STM32F10x_StdPeriph_Driver/src/stm32f10x_usart.c ****   assert_param(IS_USART_LIN_BREAK_DETECT_LENGTH(USART_LINBreakDetectLength));
 955              		.loc 1 551 3 view .LVU253
 552:stm32f10x_lib/STM32F10x_StdPeriph_Driver/src/stm32f10x_usart.c ****   
 553:stm32f10x_lib/STM32F10x_StdPeriph_Driver/src/stm32f10x_usart.c ****   USARTx->CR2 &= CR2_LBDL_Mask;
 956              		.loc 1 553 3 view .LVU254
 957              	@ stm32f10x_lib/STM32F10x_StdPeriph_Driver/src/stm32f10x_usart.c:553:   USARTx->CR2 &= CR2_LBDL_Mas
 958              		.loc 1 553 15 is_stmt 0 view .LVU255
 959 021e 038A     		ldrh	r3, [r0, #16]	@, USARTx_6(D)->CR2
 960 0220 23F02003 		bic	r3, r3, #32	@ _2, USARTx_6(D)->CR2,
 961 0224 1B04     		lsls	r3, r3, #16	@ _2, _2,
 962 0226 1B0C     		lsrs	r3, r3, #16	@ _2, _2,
 963 0228 0382     		strh	r3, [r0, #16]	@ movhi	@ _2, USARTx_6(D)->CR2
 554:stm32f10x_lib/STM32F10x_StdPeriph_Driver/src/stm32f10x_usart.c ****   USARTx->CR2 |= USART_LINBreakDetectLength;  
 964              		.loc 1 554 3 is_stmt 1 view .LVU256
 965              	@ stm32f10x_lib/STM32F10x_StdPeriph_Driver/src/stm32f10x_usart.c:554:   USARTx->CR2 |= USART_LINBre
 966              		.loc 1 554 15 is_stmt 0 view .LVU257
 967 022a 038A     		ldrh	r3, [r0, #16]	@, USARTx_6(D)->CR2
 968 022c 9BB2     		uxth	r3, r3	@ _3, USARTx_6(D)->CR2
 969 022e 0B43     		orrs	r3, r3, r1	@, _4, _3, tmp128
 970 0230 0382     		strh	r3, [r0, #16]	@ movhi	@ _4, USARTx_6(D)->CR2
 971              	@ stm32f10x_lib/STM32F10x_StdPeriph_Driver/src/stm32f10x_usart.c:555: }
 555:stm32f10x_lib/STM32F10x_StdPeriph_Driver/src/stm32f10x_usart.c **** }
 972              		.loc 1 555 1 view .LVU258
 973 0232 7047     		bx	lr	@
ARM GAS  C:\Users\ADMINI~1\AppData\Local\Temp\cc5w2WuM.s 			page 29


 974              		.cfi_endproc
 975              	.LFE40:
 976              		.size	USART_LINBreakDetectLengthConfig, .-USART_LINBreakDetectLengthConfig
 977              		.align	1
 978              		.global	USART_LINCmd
 979              		.syntax unified
 980              		.thumb
 981              		.thumb_func
 982              		.type	USART_LINCmd, %function
 983              	USART_LINCmd:
 984              	.LVL68:
 985              	.LFB41:
 556:stm32f10x_lib/STM32F10x_StdPeriph_Driver/src/stm32f10x_usart.c **** 
 557:stm32f10x_lib/STM32F10x_StdPeriph_Driver/src/stm32f10x_usart.c **** /**
 558:stm32f10x_lib/STM32F10x_StdPeriph_Driver/src/stm32f10x_usart.c ****   * @brief  Enables or disables the USARTs LIN mode.
 559:stm32f10x_lib/STM32F10x_StdPeriph_Driver/src/stm32f10x_usart.c ****   * @param  USARTx: Select the USART or the UART peripheral. 
 560:stm32f10x_lib/STM32F10x_StdPeriph_Driver/src/stm32f10x_usart.c ****   *   This parameter can be one of the following values:
 561:stm32f10x_lib/STM32F10x_StdPeriph_Driver/src/stm32f10x_usart.c ****   *   USART1, USART2, USART3, UART4 or UART5.
 562:stm32f10x_lib/STM32F10x_StdPeriph_Driver/src/stm32f10x_usart.c ****   * @param  NewState: new state of the USART LIN mode.
 563:stm32f10x_lib/STM32F10x_StdPeriph_Driver/src/stm32f10x_usart.c ****   *   This parameter can be: ENABLE or DISABLE.
 564:stm32f10x_lib/STM32F10x_StdPeriph_Driver/src/stm32f10x_usart.c ****   * @retval None
 565:stm32f10x_lib/STM32F10x_StdPeriph_Driver/src/stm32f10x_usart.c ****   */
 566:stm32f10x_lib/STM32F10x_StdPeriph_Driver/src/stm32f10x_usart.c **** void USART_LINCmd(USART_TypeDef* USARTx, FunctionalState NewState)
 567:stm32f10x_lib/STM32F10x_StdPeriph_Driver/src/stm32f10x_usart.c **** {
 986              		.loc 1 567 1 is_stmt 1 view -0
 987              		.cfi_startproc
 988              		@ args = 0, pretend = 0, frame = 0
 989              		@ frame_needed = 0, uses_anonymous_args = 0
 990              		@ link register save eliminated.
 568:stm32f10x_lib/STM32F10x_StdPeriph_Driver/src/stm32f10x_usart.c ****   /* Check the parameters */
 569:stm32f10x_lib/STM32F10x_StdPeriph_Driver/src/stm32f10x_usart.c ****   assert_param(IS_USART_ALL_PERIPH(USARTx));
 991              		.loc 1 569 3 view .LVU260
 570:stm32f10x_lib/STM32F10x_StdPeriph_Driver/src/stm32f10x_usart.c ****   assert_param(IS_FUNCTIONAL_STATE(NewState));
 992              		.loc 1 570 3 view .LVU261
 571:stm32f10x_lib/STM32F10x_StdPeriph_Driver/src/stm32f10x_usart.c ****   
 572:stm32f10x_lib/STM32F10x_StdPeriph_Driver/src/stm32f10x_usart.c ****   if (NewState != DISABLE)
 993              		.loc 1 572 3 view .LVU262
 994              	@ stm32f10x_lib/STM32F10x_StdPeriph_Driver/src/stm32f10x_usart.c:575:     USARTx->CR2 |= CR2_LINEN_
 573:stm32f10x_lib/STM32F10x_StdPeriph_Driver/src/stm32f10x_usart.c ****   {
 574:stm32f10x_lib/STM32F10x_StdPeriph_Driver/src/stm32f10x_usart.c ****     /* Enable the LIN mode by setting the LINEN bit in the CR2 register */
 575:stm32f10x_lib/STM32F10x_StdPeriph_Driver/src/stm32f10x_usart.c ****     USARTx->CR2 |= CR2_LINEN_Set;
 995              		.loc 1 575 17 is_stmt 0 view .LVU263
 996 0234 038A     		ldrh	r3, [r0, #16]	@,
 997              	@ stm32f10x_lib/STM32F10x_StdPeriph_Driver/src/stm32f10x_usart.c:572:   if (NewState != DISABLE)
 572:stm32f10x_lib/STM32F10x_StdPeriph_Driver/src/stm32f10x_usart.c ****   {
 998              		.loc 1 572 6 view .LVU264
 999 0236 21B1     		cbz	r1, .L46	@ tmp128,
 1000              		.loc 1 575 5 is_stmt 1 view .LVU265
 1001              	@ stm32f10x_lib/STM32F10x_StdPeriph_Driver/src/stm32f10x_usart.c:575:     USARTx->CR2 |= CR2_LINEN_
 1002              		.loc 1 575 17 is_stmt 0 view .LVU266
 1003 0238 9BB2     		uxth	r3, r3	@ _1, USARTx_8(D)->CR2
 1004 023a 43F48043 		orr	r3, r3, #16384	@ _2, _1,
 1005              	.L48:
 1006              	@ stm32f10x_lib/STM32F10x_StdPeriph_Driver/src/stm32f10x_usart.c:580:     USARTx->CR2 &= CR2_LINEN_
 576:stm32f10x_lib/STM32F10x_StdPeriph_Driver/src/stm32f10x_usart.c ****   }
 577:stm32f10x_lib/STM32F10x_StdPeriph_Driver/src/stm32f10x_usart.c ****   else
 578:stm32f10x_lib/STM32F10x_StdPeriph_Driver/src/stm32f10x_usart.c ****   {
ARM GAS  C:\Users\ADMINI~1\AppData\Local\Temp\cc5w2WuM.s 			page 30


 579:stm32f10x_lib/STM32F10x_StdPeriph_Driver/src/stm32f10x_usart.c ****     /* Disable the LIN mode by clearing the LINEN bit in the CR2 register */
 580:stm32f10x_lib/STM32F10x_StdPeriph_Driver/src/stm32f10x_usart.c ****     USARTx->CR2 &= CR2_LINEN_Reset;
 1007              		.loc 1 580 17 view .LVU267
 1008 023e 0382     		strh	r3, [r0, #16]	@ movhi	@ _4,
 1009              	@ stm32f10x_lib/STM32F10x_StdPeriph_Driver/src/stm32f10x_usart.c:582: }
 581:stm32f10x_lib/STM32F10x_StdPeriph_Driver/src/stm32f10x_usart.c ****   }
 582:stm32f10x_lib/STM32F10x_StdPeriph_Driver/src/stm32f10x_usart.c **** }
 1010              		.loc 1 582 1 view .LVU268
 1011 0240 7047     		bx	lr	@
 1012              	.L46:
 580:stm32f10x_lib/STM32F10x_StdPeriph_Driver/src/stm32f10x_usart.c ****   }
 1013              		.loc 1 580 5 is_stmt 1 view .LVU269
 1014              	@ stm32f10x_lib/STM32F10x_StdPeriph_Driver/src/stm32f10x_usart.c:580:     USARTx->CR2 &= CR2_LINEN_
 580:stm32f10x_lib/STM32F10x_StdPeriph_Driver/src/stm32f10x_usart.c ****   }
 1015              		.loc 1 580 17 is_stmt 0 view .LVU270
 1016 0242 23F48043 		bic	r3, r3, #16384	@ _4, USARTx_8(D)->CR2,
 1017 0246 1B04     		lsls	r3, r3, #16	@ _4, _4,
 1018 0248 1B0C     		lsrs	r3, r3, #16	@ _4, _4,
 1019 024a F8E7     		b	.L48		@
 1020              		.cfi_endproc
 1021              	.LFE41:
 1022              		.size	USART_LINCmd, .-USART_LINCmd
 1023              		.align	1
 1024              		.global	USART_SendData
 1025              		.syntax unified
 1026              		.thumb
 1027              		.thumb_func
 1028              		.type	USART_SendData, %function
 1029              	USART_SendData:
 1030              	.LVL69:
 1031              	.LFB42:
 583:stm32f10x_lib/STM32F10x_StdPeriph_Driver/src/stm32f10x_usart.c **** 
 584:stm32f10x_lib/STM32F10x_StdPeriph_Driver/src/stm32f10x_usart.c **** /**
 585:stm32f10x_lib/STM32F10x_StdPeriph_Driver/src/stm32f10x_usart.c ****   * @brief  Transmits single data through the USARTx peripheral.
 586:stm32f10x_lib/STM32F10x_StdPeriph_Driver/src/stm32f10x_usart.c ****   * @param  USARTx: Select the USART or the UART peripheral. 
 587:stm32f10x_lib/STM32F10x_StdPeriph_Driver/src/stm32f10x_usart.c ****   *   This parameter can be one of the following values:
 588:stm32f10x_lib/STM32F10x_StdPeriph_Driver/src/stm32f10x_usart.c ****   *   USART1, USART2, USART3, UART4 or UART5.
 589:stm32f10x_lib/STM32F10x_StdPeriph_Driver/src/stm32f10x_usart.c ****   * @param  Data: the data to transmit.
 590:stm32f10x_lib/STM32F10x_StdPeriph_Driver/src/stm32f10x_usart.c ****   * @retval None
 591:stm32f10x_lib/STM32F10x_StdPeriph_Driver/src/stm32f10x_usart.c ****   */
 592:stm32f10x_lib/STM32F10x_StdPeriph_Driver/src/stm32f10x_usart.c **** void USART_SendData(USART_TypeDef* USARTx, uint16_t Data)
 593:stm32f10x_lib/STM32F10x_StdPeriph_Driver/src/stm32f10x_usart.c **** {
 1032              		.loc 1 593 1 is_stmt 1 view -0
 1033              		.cfi_startproc
 1034              		@ args = 0, pretend = 0, frame = 0
 1035              		@ frame_needed = 0, uses_anonymous_args = 0
 1036              		@ link register save eliminated.
 594:stm32f10x_lib/STM32F10x_StdPeriph_Driver/src/stm32f10x_usart.c ****   /* Check the parameters */
 595:stm32f10x_lib/STM32F10x_StdPeriph_Driver/src/stm32f10x_usart.c ****   assert_param(IS_USART_ALL_PERIPH(USARTx));
 1037              		.loc 1 595 3 view .LVU272
 596:stm32f10x_lib/STM32F10x_StdPeriph_Driver/src/stm32f10x_usart.c ****   assert_param(IS_USART_DATA(Data)); 
 1038              		.loc 1 596 3 view .LVU273
 597:stm32f10x_lib/STM32F10x_StdPeriph_Driver/src/stm32f10x_usart.c ****     
 598:stm32f10x_lib/STM32F10x_StdPeriph_Driver/src/stm32f10x_usart.c ****   /* Transmit Data */
 599:stm32f10x_lib/STM32F10x_StdPeriph_Driver/src/stm32f10x_usart.c ****   USARTx->DR = (Data & (uint16_t)0x01FF);
 1039              		.loc 1 599 3 view .LVU274
 1040              	@ stm32f10x_lib/STM32F10x_StdPeriph_Driver/src/stm32f10x_usart.c:599:   USARTx->DR = (Data & (uint1
ARM GAS  C:\Users\ADMINI~1\AppData\Local\Temp\cc5w2WuM.s 			page 31


 1041              		.loc 1 599 22 is_stmt 0 view .LVU275
 1042 024c C1F30801 		ubfx	r1, r1, #0, #9	@ _1, tmp120,,
 1043              	.LVL70:
 1044              	@ stm32f10x_lib/STM32F10x_StdPeriph_Driver/src/stm32f10x_usart.c:599:   USARTx->DR = (Data & (uint1
 1045              		.loc 1 599 14 view .LVU276
 1046 0250 8180     		strh	r1, [r0, #4]	@ movhi	@ _1, USARTx_4(D)->DR
 1047              	@ stm32f10x_lib/STM32F10x_StdPeriph_Driver/src/stm32f10x_usart.c:600: }
 600:stm32f10x_lib/STM32F10x_StdPeriph_Driver/src/stm32f10x_usart.c **** }
 1048              		.loc 1 600 1 view .LVU277
 1049 0252 7047     		bx	lr	@
 1050              		.cfi_endproc
 1051              	.LFE42:
 1052              		.size	USART_SendData, .-USART_SendData
 1053              		.align	1
 1054              		.global	USART_ReceiveData
 1055              		.syntax unified
 1056              		.thumb
 1057              		.thumb_func
 1058              		.type	USART_ReceiveData, %function
 1059              	USART_ReceiveData:
 1060              	.LVL71:
 1061              	.LFB43:
 601:stm32f10x_lib/STM32F10x_StdPeriph_Driver/src/stm32f10x_usart.c **** 
 602:stm32f10x_lib/STM32F10x_StdPeriph_Driver/src/stm32f10x_usart.c **** /**
 603:stm32f10x_lib/STM32F10x_StdPeriph_Driver/src/stm32f10x_usart.c ****   * @brief  Returns the most recent received data by the USARTx peripheral.
 604:stm32f10x_lib/STM32F10x_StdPeriph_Driver/src/stm32f10x_usart.c ****   * @param  USARTx: Select the USART or the UART peripheral. 
 605:stm32f10x_lib/STM32F10x_StdPeriph_Driver/src/stm32f10x_usart.c ****   *   This parameter can be one of the following values:
 606:stm32f10x_lib/STM32F10x_StdPeriph_Driver/src/stm32f10x_usart.c ****   *   USART1, USART2, USART3, UART4 or UART5.
 607:stm32f10x_lib/STM32F10x_StdPeriph_Driver/src/stm32f10x_usart.c ****   * @retval The received data.
 608:stm32f10x_lib/STM32F10x_StdPeriph_Driver/src/stm32f10x_usart.c ****   */
 609:stm32f10x_lib/STM32F10x_StdPeriph_Driver/src/stm32f10x_usart.c **** uint16_t USART_ReceiveData(USART_TypeDef* USARTx)
 610:stm32f10x_lib/STM32F10x_StdPeriph_Driver/src/stm32f10x_usart.c **** {
 1062              		.loc 1 610 1 is_stmt 1 view -0
 1063              		.cfi_startproc
 1064              		@ args = 0, pretend = 0, frame = 0
 1065              		@ frame_needed = 0, uses_anonymous_args = 0
 1066              		@ link register save eliminated.
 611:stm32f10x_lib/STM32F10x_StdPeriph_Driver/src/stm32f10x_usart.c ****   /* Check the parameters */
 612:stm32f10x_lib/STM32F10x_StdPeriph_Driver/src/stm32f10x_usart.c ****   assert_param(IS_USART_ALL_PERIPH(USARTx));
 1067              		.loc 1 612 3 view .LVU279
 613:stm32f10x_lib/STM32F10x_StdPeriph_Driver/src/stm32f10x_usart.c ****   
 614:stm32f10x_lib/STM32F10x_StdPeriph_Driver/src/stm32f10x_usart.c ****   /* Receive Data */
 615:stm32f10x_lib/STM32F10x_StdPeriph_Driver/src/stm32f10x_usart.c ****   return (uint16_t)(USARTx->DR & (uint16_t)0x01FF);
 1068              		.loc 1 615 3 view .LVU280
 1069              	@ stm32f10x_lib/STM32F10x_StdPeriph_Driver/src/stm32f10x_usart.c:615:   return (uint16_t)(USARTx->D
 1070              		.loc 1 615 27 is_stmt 0 view .LVU281
 1071 0254 8088     		ldrh	r0, [r0, #4]	@, USARTx_3(D)->DR
 1072              	.LVL72:
 1073              	@ stm32f10x_lib/STM32F10x_StdPeriph_Driver/src/stm32f10x_usart.c:616: }
 616:stm32f10x_lib/STM32F10x_StdPeriph_Driver/src/stm32f10x_usart.c **** }
 1074              		.loc 1 616 1 view .LVU282
 1075 0256 C0F30800 		ubfx	r0, r0, #0, #9	@, USARTx_3(D)->DR,,
 1076 025a 7047     		bx	lr	@
 1077              		.cfi_endproc
 1078              	.LFE43:
 1079              		.size	USART_ReceiveData, .-USART_ReceiveData
 1080              		.align	1
ARM GAS  C:\Users\ADMINI~1\AppData\Local\Temp\cc5w2WuM.s 			page 32


 1081              		.global	USART_SendBreak
 1082              		.syntax unified
 1083              		.thumb
 1084              		.thumb_func
 1085              		.type	USART_SendBreak, %function
 1086              	USART_SendBreak:
 1087              	.LVL73:
 1088              	.LFB44:
 617:stm32f10x_lib/STM32F10x_StdPeriph_Driver/src/stm32f10x_usart.c **** 
 618:stm32f10x_lib/STM32F10x_StdPeriph_Driver/src/stm32f10x_usart.c **** /**
 619:stm32f10x_lib/STM32F10x_StdPeriph_Driver/src/stm32f10x_usart.c ****   * @brief  Transmits break characters.
 620:stm32f10x_lib/STM32F10x_StdPeriph_Driver/src/stm32f10x_usart.c ****   * @param  USARTx: Select the USART or the UART peripheral. 
 621:stm32f10x_lib/STM32F10x_StdPeriph_Driver/src/stm32f10x_usart.c ****   *   This parameter can be one of the following values:
 622:stm32f10x_lib/STM32F10x_StdPeriph_Driver/src/stm32f10x_usart.c ****   *   USART1, USART2, USART3, UART4 or UART5.
 623:stm32f10x_lib/STM32F10x_StdPeriph_Driver/src/stm32f10x_usart.c ****   * @retval None
 624:stm32f10x_lib/STM32F10x_StdPeriph_Driver/src/stm32f10x_usart.c ****   */
 625:stm32f10x_lib/STM32F10x_StdPeriph_Driver/src/stm32f10x_usart.c **** void USART_SendBreak(USART_TypeDef* USARTx)
 626:stm32f10x_lib/STM32F10x_StdPeriph_Driver/src/stm32f10x_usart.c **** {
 1089              		.loc 1 626 1 is_stmt 1 view -0
 1090              		.cfi_startproc
 1091              		@ args = 0, pretend = 0, frame = 0
 1092              		@ frame_needed = 0, uses_anonymous_args = 0
 1093              		@ link register save eliminated.
 627:stm32f10x_lib/STM32F10x_StdPeriph_Driver/src/stm32f10x_usart.c ****   /* Check the parameters */
 628:stm32f10x_lib/STM32F10x_StdPeriph_Driver/src/stm32f10x_usart.c ****   assert_param(IS_USART_ALL_PERIPH(USARTx));
 1094              		.loc 1 628 3 view .LVU284
 629:stm32f10x_lib/STM32F10x_StdPeriph_Driver/src/stm32f10x_usart.c ****   
 630:stm32f10x_lib/STM32F10x_StdPeriph_Driver/src/stm32f10x_usart.c ****   /* Send break characters */
 631:stm32f10x_lib/STM32F10x_StdPeriph_Driver/src/stm32f10x_usart.c ****   USARTx->CR1 |= CR1_SBK_Set;
 1095              		.loc 1 631 3 view .LVU285
 1096              	@ stm32f10x_lib/STM32F10x_StdPeriph_Driver/src/stm32f10x_usart.c:631:   USARTx->CR1 |= CR1_SBK_Set;
 1097              		.loc 1 631 15 is_stmt 0 view .LVU286
 1098 025c 8389     		ldrh	r3, [r0, #12]	@, USARTx_4(D)->CR1
 1099 025e 9BB2     		uxth	r3, r3	@ _1, USARTx_4(D)->CR1
 1100 0260 43F00103 		orr	r3, r3, #1	@ _2, _1,
 1101 0264 8381     		strh	r3, [r0, #12]	@ movhi	@ _2, USARTx_4(D)->CR1
 1102              	@ stm32f10x_lib/STM32F10x_StdPeriph_Driver/src/stm32f10x_usart.c:632: }
 632:stm32f10x_lib/STM32F10x_StdPeriph_Driver/src/stm32f10x_usart.c **** }
 1103              		.loc 1 632 1 view .LVU287
 1104 0266 7047     		bx	lr	@
 1105              		.cfi_endproc
 1106              	.LFE44:
 1107              		.size	USART_SendBreak, .-USART_SendBreak
 1108              		.align	1
 1109              		.global	USART_SetGuardTime
 1110              		.syntax unified
 1111              		.thumb
 1112              		.thumb_func
 1113              		.type	USART_SetGuardTime, %function
 1114              	USART_SetGuardTime:
 1115              	.LVL74:
 1116              	.LFB45:
 633:stm32f10x_lib/STM32F10x_StdPeriph_Driver/src/stm32f10x_usart.c **** 
 634:stm32f10x_lib/STM32F10x_StdPeriph_Driver/src/stm32f10x_usart.c **** /**
 635:stm32f10x_lib/STM32F10x_StdPeriph_Driver/src/stm32f10x_usart.c ****   * @brief  Sets the specified USART guard time.
 636:stm32f10x_lib/STM32F10x_StdPeriph_Driver/src/stm32f10x_usart.c ****   * @param  USARTx: where x can be 1, 2 or 3 to select the USART peripheral.
 637:stm32f10x_lib/STM32F10x_StdPeriph_Driver/src/stm32f10x_usart.c ****   * @param  USART_GuardTime: specifies the guard time.
ARM GAS  C:\Users\ADMINI~1\AppData\Local\Temp\cc5w2WuM.s 			page 33


 638:stm32f10x_lib/STM32F10x_StdPeriph_Driver/src/stm32f10x_usart.c ****   * @note The guard time bits are not available for UART4 and UART5.   
 639:stm32f10x_lib/STM32F10x_StdPeriph_Driver/src/stm32f10x_usart.c ****   * @retval None
 640:stm32f10x_lib/STM32F10x_StdPeriph_Driver/src/stm32f10x_usart.c ****   */
 641:stm32f10x_lib/STM32F10x_StdPeriph_Driver/src/stm32f10x_usart.c **** void USART_SetGuardTime(USART_TypeDef* USARTx, uint8_t USART_GuardTime)
 642:stm32f10x_lib/STM32F10x_StdPeriph_Driver/src/stm32f10x_usart.c **** {    
 1117              		.loc 1 642 1 is_stmt 1 view -0
 1118              		.cfi_startproc
 1119              		@ args = 0, pretend = 0, frame = 0
 1120              		@ frame_needed = 0, uses_anonymous_args = 0
 1121              		@ link register save eliminated.
 643:stm32f10x_lib/STM32F10x_StdPeriph_Driver/src/stm32f10x_usart.c ****   /* Check the parameters */
 644:stm32f10x_lib/STM32F10x_StdPeriph_Driver/src/stm32f10x_usart.c ****   assert_param(IS_USART_123_PERIPH(USARTx));
 1122              		.loc 1 644 3 view .LVU289
 645:stm32f10x_lib/STM32F10x_StdPeriph_Driver/src/stm32f10x_usart.c ****   
 646:stm32f10x_lib/STM32F10x_StdPeriph_Driver/src/stm32f10x_usart.c ****   /* Clear the USART Guard time */
 647:stm32f10x_lib/STM32F10x_StdPeriph_Driver/src/stm32f10x_usart.c ****   USARTx->GTPR &= GTPR_LSB_Mask;
 1123              		.loc 1 647 3 view .LVU290
 1124              	@ stm32f10x_lib/STM32F10x_StdPeriph_Driver/src/stm32f10x_usart.c:647:   USARTx->GTPR &= GTPR_LSB_Ma
 1125              		.loc 1 647 16 is_stmt 0 view .LVU291
 1126 0268 028B     		ldrh	r2, [r0, #24]	@, USARTx_8(D)->GTPR
 1127 026a D2B2     		uxtb	r2, r2	@ _2, USARTx_8(D)->GTPR
 1128 026c 0283     		strh	r2, [r0, #24]	@ movhi	@ _2, USARTx_8(D)->GTPR
 648:stm32f10x_lib/STM32F10x_StdPeriph_Driver/src/stm32f10x_usart.c ****   /* Set the USART guard time */
 649:stm32f10x_lib/STM32F10x_StdPeriph_Driver/src/stm32f10x_usart.c ****   USARTx->GTPR |= (uint16_t)((uint16_t)USART_GuardTime << 0x08);
 1129              		.loc 1 649 3 is_stmt 1 view .LVU292
 1130              	@ stm32f10x_lib/STM32F10x_StdPeriph_Driver/src/stm32f10x_usart.c:649:   USARTx->GTPR |= (uint16_t)(
 1131              		.loc 1 649 16 is_stmt 0 view .LVU293
 1132 026e 038B     		ldrh	r3, [r0, #24]	@, USARTx_8(D)->GTPR
 1133 0270 9BB2     		uxth	r3, r3	@ _3, USARTx_8(D)->GTPR
 1134 0272 43EA0123 		orr	r3, r3, r1, lsl #8	@ _6, _3, tmp133,
 1135 0276 0383     		strh	r3, [r0, #24]	@ movhi	@ _6, USARTx_8(D)->GTPR
 1136              	@ stm32f10x_lib/STM32F10x_StdPeriph_Driver/src/stm32f10x_usart.c:650: }
 650:stm32f10x_lib/STM32F10x_StdPeriph_Driver/src/stm32f10x_usart.c **** }
 1137              		.loc 1 650 1 view .LVU294
 1138 0278 7047     		bx	lr	@
 1139              		.cfi_endproc
 1140              	.LFE45:
 1141              		.size	USART_SetGuardTime, .-USART_SetGuardTime
 1142              		.align	1
 1143              		.global	USART_SetPrescaler
 1144              		.syntax unified
 1145              		.thumb
 1146              		.thumb_func
 1147              		.type	USART_SetPrescaler, %function
 1148              	USART_SetPrescaler:
 1149              	.LVL75:
 1150              	.LFB46:
 651:stm32f10x_lib/STM32F10x_StdPeriph_Driver/src/stm32f10x_usart.c **** 
 652:stm32f10x_lib/STM32F10x_StdPeriph_Driver/src/stm32f10x_usart.c **** /**
 653:stm32f10x_lib/STM32F10x_StdPeriph_Driver/src/stm32f10x_usart.c ****   * @brief  Sets the system clock prescaler.
 654:stm32f10x_lib/STM32F10x_StdPeriph_Driver/src/stm32f10x_usart.c ****   * @param  USARTx: Select the USART or the UART peripheral. 
 655:stm32f10x_lib/STM32F10x_StdPeriph_Driver/src/stm32f10x_usart.c ****   *   This parameter can be one of the following values:
 656:stm32f10x_lib/STM32F10x_StdPeriph_Driver/src/stm32f10x_usart.c ****   *   USART1, USART2, USART3, UART4 or UART5.
 657:stm32f10x_lib/STM32F10x_StdPeriph_Driver/src/stm32f10x_usart.c ****   * @param  USART_Prescaler: specifies the prescaler clock.  
 658:stm32f10x_lib/STM32F10x_StdPeriph_Driver/src/stm32f10x_usart.c ****   * @note   The function is used for IrDA mode with UART4 and UART5.
 659:stm32f10x_lib/STM32F10x_StdPeriph_Driver/src/stm32f10x_usart.c ****   * @retval None
 660:stm32f10x_lib/STM32F10x_StdPeriph_Driver/src/stm32f10x_usart.c ****   */
ARM GAS  C:\Users\ADMINI~1\AppData\Local\Temp\cc5w2WuM.s 			page 34


 661:stm32f10x_lib/STM32F10x_StdPeriph_Driver/src/stm32f10x_usart.c **** void USART_SetPrescaler(USART_TypeDef* USARTx, uint8_t USART_Prescaler)
 662:stm32f10x_lib/STM32F10x_StdPeriph_Driver/src/stm32f10x_usart.c **** { 
 1151              		.loc 1 662 1 is_stmt 1 view -0
 1152              		.cfi_startproc
 1153              		@ args = 0, pretend = 0, frame = 0
 1154              		@ frame_needed = 0, uses_anonymous_args = 0
 1155              		@ link register save eliminated.
 663:stm32f10x_lib/STM32F10x_StdPeriph_Driver/src/stm32f10x_usart.c ****   /* Check the parameters */
 664:stm32f10x_lib/STM32F10x_StdPeriph_Driver/src/stm32f10x_usart.c ****   assert_param(IS_USART_ALL_PERIPH(USARTx));
 1156              		.loc 1 664 3 view .LVU296
 665:stm32f10x_lib/STM32F10x_StdPeriph_Driver/src/stm32f10x_usart.c ****   
 666:stm32f10x_lib/STM32F10x_StdPeriph_Driver/src/stm32f10x_usart.c ****   /* Clear the USART prescaler */
 667:stm32f10x_lib/STM32F10x_StdPeriph_Driver/src/stm32f10x_usart.c ****   USARTx->GTPR &= GTPR_MSB_Mask;
 1157              		.loc 1 667 3 view .LVU297
 1158              	@ stm32f10x_lib/STM32F10x_StdPeriph_Driver/src/stm32f10x_usart.c:667:   USARTx->GTPR &= GTPR_MSB_Ma
 1159              		.loc 1 667 16 is_stmt 0 view .LVU298
 1160 027a 028B     		ldrh	r2, [r0, #24]	@, USARTx_7(D)->GTPR
 1161 027c 02F47F42 		and	r2, r2, #65280	@ _2, USARTx_7(D)->GTPR,
 1162 0280 0283     		strh	r2, [r0, #24]	@ movhi	@ _2, USARTx_7(D)->GTPR
 668:stm32f10x_lib/STM32F10x_StdPeriph_Driver/src/stm32f10x_usart.c ****   /* Set the USART prescaler */
 669:stm32f10x_lib/STM32F10x_StdPeriph_Driver/src/stm32f10x_usart.c ****   USARTx->GTPR |= USART_Prescaler;
 1163              		.loc 1 669 3 is_stmt 1 view .LVU299
 1164              	@ stm32f10x_lib/STM32F10x_StdPeriph_Driver/src/stm32f10x_usart.c:669:   USARTx->GTPR |= USART_Presc
 1165              		.loc 1 669 16 is_stmt 0 view .LVU300
 1166 0282 038B     		ldrh	r3, [r0, #24]	@, USARTx_7(D)->GTPR
 1167 0284 9BB2     		uxth	r3, r3	@ _3, USARTx_7(D)->GTPR
 1168 0286 0B43     		orrs	r3, r3, r1	@, _5, _3, tmp130
 1169 0288 0383     		strh	r3, [r0, #24]	@ movhi	@ _5, USARTx_7(D)->GTPR
 1170              	@ stm32f10x_lib/STM32F10x_StdPeriph_Driver/src/stm32f10x_usart.c:670: }
 670:stm32f10x_lib/STM32F10x_StdPeriph_Driver/src/stm32f10x_usart.c **** }
 1171              		.loc 1 670 1 view .LVU301
 1172 028a 7047     		bx	lr	@
 1173              		.cfi_endproc
 1174              	.LFE46:
 1175              		.size	USART_SetPrescaler, .-USART_SetPrescaler
 1176              		.align	1
 1177              		.global	USART_SmartCardCmd
 1178              		.syntax unified
 1179              		.thumb
 1180              		.thumb_func
 1181              		.type	USART_SmartCardCmd, %function
 1182              	USART_SmartCardCmd:
 1183              	.LVL76:
 1184              	.LFB47:
 671:stm32f10x_lib/STM32F10x_StdPeriph_Driver/src/stm32f10x_usart.c **** 
 672:stm32f10x_lib/STM32F10x_StdPeriph_Driver/src/stm32f10x_usart.c **** /**
 673:stm32f10x_lib/STM32F10x_StdPeriph_Driver/src/stm32f10x_usart.c ****   * @brief  Enables or disables the USARTs Smart Card mode.
 674:stm32f10x_lib/STM32F10x_StdPeriph_Driver/src/stm32f10x_usart.c ****   * @param  USARTx: where x can be 1, 2 or 3 to select the USART peripheral.
 675:stm32f10x_lib/STM32F10x_StdPeriph_Driver/src/stm32f10x_usart.c ****   * @param  NewState: new state of the Smart Card mode.
 676:stm32f10x_lib/STM32F10x_StdPeriph_Driver/src/stm32f10x_usart.c ****   *   This parameter can be: ENABLE or DISABLE.     
 677:stm32f10x_lib/STM32F10x_StdPeriph_Driver/src/stm32f10x_usart.c ****   * @note The Smart Card mode is not available for UART4 and UART5. 
 678:stm32f10x_lib/STM32F10x_StdPeriph_Driver/src/stm32f10x_usart.c ****   * @retval None
 679:stm32f10x_lib/STM32F10x_StdPeriph_Driver/src/stm32f10x_usart.c ****   */
 680:stm32f10x_lib/STM32F10x_StdPeriph_Driver/src/stm32f10x_usart.c **** void USART_SmartCardCmd(USART_TypeDef* USARTx, FunctionalState NewState)
 681:stm32f10x_lib/STM32F10x_StdPeriph_Driver/src/stm32f10x_usart.c **** {
 1185              		.loc 1 681 1 is_stmt 1 view -0
 1186              		.cfi_startproc
ARM GAS  C:\Users\ADMINI~1\AppData\Local\Temp\cc5w2WuM.s 			page 35


 1187              		@ args = 0, pretend = 0, frame = 0
 1188              		@ frame_needed = 0, uses_anonymous_args = 0
 1189              		@ link register save eliminated.
 682:stm32f10x_lib/STM32F10x_StdPeriph_Driver/src/stm32f10x_usart.c ****   /* Check the parameters */
 683:stm32f10x_lib/STM32F10x_StdPeriph_Driver/src/stm32f10x_usart.c ****   assert_param(IS_USART_123_PERIPH(USARTx));
 1190              		.loc 1 683 3 view .LVU303
 684:stm32f10x_lib/STM32F10x_StdPeriph_Driver/src/stm32f10x_usart.c ****   assert_param(IS_FUNCTIONAL_STATE(NewState));
 1191              		.loc 1 684 3 view .LVU304
 685:stm32f10x_lib/STM32F10x_StdPeriph_Driver/src/stm32f10x_usart.c ****   if (NewState != DISABLE)
 1192              		.loc 1 685 3 view .LVU305
 1193              	@ stm32f10x_lib/STM32F10x_StdPeriph_Driver/src/stm32f10x_usart.c:688:     USARTx->CR3 |= CR3_SCEN_S
 686:stm32f10x_lib/STM32F10x_StdPeriph_Driver/src/stm32f10x_usart.c ****   {
 687:stm32f10x_lib/STM32F10x_StdPeriph_Driver/src/stm32f10x_usart.c ****     /* Enable the SC mode by setting the SCEN bit in the CR3 register */
 688:stm32f10x_lib/STM32F10x_StdPeriph_Driver/src/stm32f10x_usart.c ****     USARTx->CR3 |= CR3_SCEN_Set;
 1194              		.loc 1 688 17 is_stmt 0 view .LVU306
 1195 028c 838A     		ldrh	r3, [r0, #20]	@,
 1196              	@ stm32f10x_lib/STM32F10x_StdPeriph_Driver/src/stm32f10x_usart.c:685:   if (NewState != DISABLE)
 685:stm32f10x_lib/STM32F10x_StdPeriph_Driver/src/stm32f10x_usart.c ****   if (NewState != DISABLE)
 1197              		.loc 1 685 6 view .LVU307
 1198 028e 21B1     		cbz	r1, .L55	@ tmp128,
 1199              		.loc 1 688 5 is_stmt 1 view .LVU308
 1200              	@ stm32f10x_lib/STM32F10x_StdPeriph_Driver/src/stm32f10x_usart.c:688:     USARTx->CR3 |= CR3_SCEN_S
 1201              		.loc 1 688 17 is_stmt 0 view .LVU309
 1202 0290 9BB2     		uxth	r3, r3	@ _1, USARTx_8(D)->CR3
 1203 0292 43F02003 		orr	r3, r3, #32	@ _2, _1,
 1204              	.L57:
 1205              	@ stm32f10x_lib/STM32F10x_StdPeriph_Driver/src/stm32f10x_usart.c:693:     USARTx->CR3 &= CR3_SCEN_R
 689:stm32f10x_lib/STM32F10x_StdPeriph_Driver/src/stm32f10x_usart.c ****   }
 690:stm32f10x_lib/STM32F10x_StdPeriph_Driver/src/stm32f10x_usart.c ****   else
 691:stm32f10x_lib/STM32F10x_StdPeriph_Driver/src/stm32f10x_usart.c ****   {
 692:stm32f10x_lib/STM32F10x_StdPeriph_Driver/src/stm32f10x_usart.c ****     /* Disable the SC mode by clearing the SCEN bit in the CR3 register */
 693:stm32f10x_lib/STM32F10x_StdPeriph_Driver/src/stm32f10x_usart.c ****     USARTx->CR3 &= CR3_SCEN_Reset;
 1206              		.loc 1 693 17 view .LVU310
 1207 0296 8382     		strh	r3, [r0, #20]	@ movhi	@ _4,
 1208              	@ stm32f10x_lib/STM32F10x_StdPeriph_Driver/src/stm32f10x_usart.c:695: }
 694:stm32f10x_lib/STM32F10x_StdPeriph_Driver/src/stm32f10x_usart.c ****   }
 695:stm32f10x_lib/STM32F10x_StdPeriph_Driver/src/stm32f10x_usart.c **** }
 1209              		.loc 1 695 1 view .LVU311
 1210 0298 7047     		bx	lr	@
 1211              	.L55:
 693:stm32f10x_lib/STM32F10x_StdPeriph_Driver/src/stm32f10x_usart.c ****   }
 1212              		.loc 1 693 5 is_stmt 1 view .LVU312
 1213              	@ stm32f10x_lib/STM32F10x_StdPeriph_Driver/src/stm32f10x_usart.c:693:     USARTx->CR3 &= CR3_SCEN_R
 693:stm32f10x_lib/STM32F10x_StdPeriph_Driver/src/stm32f10x_usart.c ****   }
 1214              		.loc 1 693 17 is_stmt 0 view .LVU313
 1215 029a 23F02003 		bic	r3, r3, #32	@ _4, USARTx_8(D)->CR3,
 1216 029e 1B04     		lsls	r3, r3, #16	@ _4, _4,
 1217 02a0 1B0C     		lsrs	r3, r3, #16	@ _4, _4,
 1218 02a2 F8E7     		b	.L57		@
 1219              		.cfi_endproc
 1220              	.LFE47:
 1221              		.size	USART_SmartCardCmd, .-USART_SmartCardCmd
 1222              		.align	1
 1223              		.global	USART_SmartCardNACKCmd
 1224              		.syntax unified
 1225              		.thumb
 1226              		.thumb_func
ARM GAS  C:\Users\ADMINI~1\AppData\Local\Temp\cc5w2WuM.s 			page 36


 1227              		.type	USART_SmartCardNACKCmd, %function
 1228              	USART_SmartCardNACKCmd:
 1229              	.LVL77:
 1230              	.LFB48:
 696:stm32f10x_lib/STM32F10x_StdPeriph_Driver/src/stm32f10x_usart.c **** 
 697:stm32f10x_lib/STM32F10x_StdPeriph_Driver/src/stm32f10x_usart.c **** /**
 698:stm32f10x_lib/STM32F10x_StdPeriph_Driver/src/stm32f10x_usart.c ****   * @brief  Enables or disables NACK transmission.
 699:stm32f10x_lib/STM32F10x_StdPeriph_Driver/src/stm32f10x_usart.c ****   * @param  USARTx: where x can be 1, 2 or 3 to select the USART peripheral. 
 700:stm32f10x_lib/STM32F10x_StdPeriph_Driver/src/stm32f10x_usart.c ****   * @param  NewState: new state of the NACK transmission.
 701:stm32f10x_lib/STM32F10x_StdPeriph_Driver/src/stm32f10x_usart.c ****   *   This parameter can be: ENABLE or DISABLE.  
 702:stm32f10x_lib/STM32F10x_StdPeriph_Driver/src/stm32f10x_usart.c ****   * @note The Smart Card mode is not available for UART4 and UART5.
 703:stm32f10x_lib/STM32F10x_StdPeriph_Driver/src/stm32f10x_usart.c ****   * @retval None
 704:stm32f10x_lib/STM32F10x_StdPeriph_Driver/src/stm32f10x_usart.c ****   */
 705:stm32f10x_lib/STM32F10x_StdPeriph_Driver/src/stm32f10x_usart.c **** void USART_SmartCardNACKCmd(USART_TypeDef* USARTx, FunctionalState NewState)
 706:stm32f10x_lib/STM32F10x_StdPeriph_Driver/src/stm32f10x_usart.c **** {
 1231              		.loc 1 706 1 is_stmt 1 view -0
 1232              		.cfi_startproc
 1233              		@ args = 0, pretend = 0, frame = 0
 1234              		@ frame_needed = 0, uses_anonymous_args = 0
 1235              		@ link register save eliminated.
 707:stm32f10x_lib/STM32F10x_StdPeriph_Driver/src/stm32f10x_usart.c ****   /* Check the parameters */
 708:stm32f10x_lib/STM32F10x_StdPeriph_Driver/src/stm32f10x_usart.c ****   assert_param(IS_USART_123_PERIPH(USARTx));  
 1236              		.loc 1 708 3 view .LVU315
 709:stm32f10x_lib/STM32F10x_StdPeriph_Driver/src/stm32f10x_usart.c ****   assert_param(IS_FUNCTIONAL_STATE(NewState));
 1237              		.loc 1 709 3 view .LVU316
 710:stm32f10x_lib/STM32F10x_StdPeriph_Driver/src/stm32f10x_usart.c ****   if (NewState != DISABLE)
 1238              		.loc 1 710 3 view .LVU317
 1239              	@ stm32f10x_lib/STM32F10x_StdPeriph_Driver/src/stm32f10x_usart.c:713:     USARTx->CR3 |= CR3_NACK_S
 711:stm32f10x_lib/STM32F10x_StdPeriph_Driver/src/stm32f10x_usart.c ****   {
 712:stm32f10x_lib/STM32F10x_StdPeriph_Driver/src/stm32f10x_usart.c ****     /* Enable the NACK transmission by setting the NACK bit in the CR3 register */
 713:stm32f10x_lib/STM32F10x_StdPeriph_Driver/src/stm32f10x_usart.c ****     USARTx->CR3 |= CR3_NACK_Set;
 1240              		.loc 1 713 17 is_stmt 0 view .LVU318
 1241 02a4 838A     		ldrh	r3, [r0, #20]	@,
 1242              	@ stm32f10x_lib/STM32F10x_StdPeriph_Driver/src/stm32f10x_usart.c:710:   if (NewState != DISABLE)
 710:stm32f10x_lib/STM32F10x_StdPeriph_Driver/src/stm32f10x_usart.c ****   if (NewState != DISABLE)
 1243              		.loc 1 710 6 view .LVU319
 1244 02a6 21B1     		cbz	r1, .L59	@ tmp128,
 1245              		.loc 1 713 5 is_stmt 1 view .LVU320
 1246              	@ stm32f10x_lib/STM32F10x_StdPeriph_Driver/src/stm32f10x_usart.c:713:     USARTx->CR3 |= CR3_NACK_S
 1247              		.loc 1 713 17 is_stmt 0 view .LVU321
 1248 02a8 9BB2     		uxth	r3, r3	@ _1, USARTx_8(D)->CR3
 1249 02aa 43F01003 		orr	r3, r3, #16	@ _2, _1,
 1250              	.L61:
 1251              	@ stm32f10x_lib/STM32F10x_StdPeriph_Driver/src/stm32f10x_usart.c:718:     USARTx->CR3 &= CR3_NACK_R
 714:stm32f10x_lib/STM32F10x_StdPeriph_Driver/src/stm32f10x_usart.c ****   }
 715:stm32f10x_lib/STM32F10x_StdPeriph_Driver/src/stm32f10x_usart.c ****   else
 716:stm32f10x_lib/STM32F10x_StdPeriph_Driver/src/stm32f10x_usart.c ****   {
 717:stm32f10x_lib/STM32F10x_StdPeriph_Driver/src/stm32f10x_usart.c ****     /* Disable the NACK transmission by clearing the NACK bit in the CR3 register */
 718:stm32f10x_lib/STM32F10x_StdPeriph_Driver/src/stm32f10x_usart.c ****     USARTx->CR3 &= CR3_NACK_Reset;
 1252              		.loc 1 718 17 view .LVU322
 1253 02ae 8382     		strh	r3, [r0, #20]	@ movhi	@ _4,
 1254              	@ stm32f10x_lib/STM32F10x_StdPeriph_Driver/src/stm32f10x_usart.c:720: }
 719:stm32f10x_lib/STM32F10x_StdPeriph_Driver/src/stm32f10x_usart.c ****   }
 720:stm32f10x_lib/STM32F10x_StdPeriph_Driver/src/stm32f10x_usart.c **** }
 1255              		.loc 1 720 1 view .LVU323
 1256 02b0 7047     		bx	lr	@
 1257              	.L59:
ARM GAS  C:\Users\ADMINI~1\AppData\Local\Temp\cc5w2WuM.s 			page 37


 718:stm32f10x_lib/STM32F10x_StdPeriph_Driver/src/stm32f10x_usart.c ****   }
 1258              		.loc 1 718 5 is_stmt 1 view .LVU324
 1259              	@ stm32f10x_lib/STM32F10x_StdPeriph_Driver/src/stm32f10x_usart.c:718:     USARTx->CR3 &= CR3_NACK_R
 718:stm32f10x_lib/STM32F10x_StdPeriph_Driver/src/stm32f10x_usart.c ****   }
 1260              		.loc 1 718 17 is_stmt 0 view .LVU325
 1261 02b2 23F01003 		bic	r3, r3, #16	@ _4, USARTx_8(D)->CR3,
 1262 02b6 1B04     		lsls	r3, r3, #16	@ _4, _4,
 1263 02b8 1B0C     		lsrs	r3, r3, #16	@ _4, _4,
 1264 02ba F8E7     		b	.L61		@
 1265              		.cfi_endproc
 1266              	.LFE48:
 1267              		.size	USART_SmartCardNACKCmd, .-USART_SmartCardNACKCmd
 1268              		.align	1
 1269              		.global	USART_HalfDuplexCmd
 1270              		.syntax unified
 1271              		.thumb
 1272              		.thumb_func
 1273              		.type	USART_HalfDuplexCmd, %function
 1274              	USART_HalfDuplexCmd:
 1275              	.LVL78:
 1276              	.LFB49:
 721:stm32f10x_lib/STM32F10x_StdPeriph_Driver/src/stm32f10x_usart.c **** 
 722:stm32f10x_lib/STM32F10x_StdPeriph_Driver/src/stm32f10x_usart.c **** /**
 723:stm32f10x_lib/STM32F10x_StdPeriph_Driver/src/stm32f10x_usart.c ****   * @brief  Enables or disables the USARTs Half Duplex communication.
 724:stm32f10x_lib/STM32F10x_StdPeriph_Driver/src/stm32f10x_usart.c ****   * @param  USARTx: Select the USART or the UART peripheral. 
 725:stm32f10x_lib/STM32F10x_StdPeriph_Driver/src/stm32f10x_usart.c ****   *   This parameter can be one of the following values:
 726:stm32f10x_lib/STM32F10x_StdPeriph_Driver/src/stm32f10x_usart.c ****   *   USART1, USART2, USART3, UART4 or UART5.
 727:stm32f10x_lib/STM32F10x_StdPeriph_Driver/src/stm32f10x_usart.c ****   * @param  NewState: new state of the USART Communication.
 728:stm32f10x_lib/STM32F10x_StdPeriph_Driver/src/stm32f10x_usart.c ****   *   This parameter can be: ENABLE or DISABLE.
 729:stm32f10x_lib/STM32F10x_StdPeriph_Driver/src/stm32f10x_usart.c ****   * @retval None
 730:stm32f10x_lib/STM32F10x_StdPeriph_Driver/src/stm32f10x_usart.c ****   */
 731:stm32f10x_lib/STM32F10x_StdPeriph_Driver/src/stm32f10x_usart.c **** void USART_HalfDuplexCmd(USART_TypeDef* USARTx, FunctionalState NewState)
 732:stm32f10x_lib/STM32F10x_StdPeriph_Driver/src/stm32f10x_usart.c **** {
 1277              		.loc 1 732 1 is_stmt 1 view -0
 1278              		.cfi_startproc
 1279              		@ args = 0, pretend = 0, frame = 0
 1280              		@ frame_needed = 0, uses_anonymous_args = 0
 1281              		@ link register save eliminated.
 733:stm32f10x_lib/STM32F10x_StdPeriph_Driver/src/stm32f10x_usart.c ****   /* Check the parameters */
 734:stm32f10x_lib/STM32F10x_StdPeriph_Driver/src/stm32f10x_usart.c ****   assert_param(IS_USART_ALL_PERIPH(USARTx));
 1282              		.loc 1 734 3 view .LVU327
 735:stm32f10x_lib/STM32F10x_StdPeriph_Driver/src/stm32f10x_usart.c ****   assert_param(IS_FUNCTIONAL_STATE(NewState));
 1283              		.loc 1 735 3 view .LVU328
 736:stm32f10x_lib/STM32F10x_StdPeriph_Driver/src/stm32f10x_usart.c ****   
 737:stm32f10x_lib/STM32F10x_StdPeriph_Driver/src/stm32f10x_usart.c ****   if (NewState != DISABLE)
 1284              		.loc 1 737 3 view .LVU329
 1285              	@ stm32f10x_lib/STM32F10x_StdPeriph_Driver/src/stm32f10x_usart.c:740:     USARTx->CR3 |= CR3_HDSEL_
 738:stm32f10x_lib/STM32F10x_StdPeriph_Driver/src/stm32f10x_usart.c ****   {
 739:stm32f10x_lib/STM32F10x_StdPeriph_Driver/src/stm32f10x_usart.c ****     /* Enable the Half-Duplex mode by setting the HDSEL bit in the CR3 register */
 740:stm32f10x_lib/STM32F10x_StdPeriph_Driver/src/stm32f10x_usart.c ****     USARTx->CR3 |= CR3_HDSEL_Set;
 1286              		.loc 1 740 17 is_stmt 0 view .LVU330
 1287 02bc 838A     		ldrh	r3, [r0, #20]	@,
 1288              	@ stm32f10x_lib/STM32F10x_StdPeriph_Driver/src/stm32f10x_usart.c:737:   if (NewState != DISABLE)
 737:stm32f10x_lib/STM32F10x_StdPeriph_Driver/src/stm32f10x_usart.c ****   {
 1289              		.loc 1 737 6 view .LVU331
 1290 02be 21B1     		cbz	r1, .L63	@ tmp128,
 1291              		.loc 1 740 5 is_stmt 1 view .LVU332
ARM GAS  C:\Users\ADMINI~1\AppData\Local\Temp\cc5w2WuM.s 			page 38


 1292              	@ stm32f10x_lib/STM32F10x_StdPeriph_Driver/src/stm32f10x_usart.c:740:     USARTx->CR3 |= CR3_HDSEL_
 1293              		.loc 1 740 17 is_stmt 0 view .LVU333
 1294 02c0 9BB2     		uxth	r3, r3	@ _1, USARTx_8(D)->CR3
 1295 02c2 43F00803 		orr	r3, r3, #8	@ _2, _1,
 1296              	.L65:
 1297              	@ stm32f10x_lib/STM32F10x_StdPeriph_Driver/src/stm32f10x_usart.c:745:     USARTx->CR3 &= CR3_HDSEL_
 741:stm32f10x_lib/STM32F10x_StdPeriph_Driver/src/stm32f10x_usart.c ****   }
 742:stm32f10x_lib/STM32F10x_StdPeriph_Driver/src/stm32f10x_usart.c ****   else
 743:stm32f10x_lib/STM32F10x_StdPeriph_Driver/src/stm32f10x_usart.c ****   {
 744:stm32f10x_lib/STM32F10x_StdPeriph_Driver/src/stm32f10x_usart.c ****     /* Disable the Half-Duplex mode by clearing the HDSEL bit in the CR3 register */
 745:stm32f10x_lib/STM32F10x_StdPeriph_Driver/src/stm32f10x_usart.c ****     USARTx->CR3 &= CR3_HDSEL_Reset;
 1298              		.loc 1 745 17 view .LVU334
 1299 02c6 8382     		strh	r3, [r0, #20]	@ movhi	@ _4,
 1300              	@ stm32f10x_lib/STM32F10x_StdPeriph_Driver/src/stm32f10x_usart.c:747: }
 746:stm32f10x_lib/STM32F10x_StdPeriph_Driver/src/stm32f10x_usart.c ****   }
 747:stm32f10x_lib/STM32F10x_StdPeriph_Driver/src/stm32f10x_usart.c **** }
 1301              		.loc 1 747 1 view .LVU335
 1302 02c8 7047     		bx	lr	@
 1303              	.L63:
 745:stm32f10x_lib/STM32F10x_StdPeriph_Driver/src/stm32f10x_usart.c ****   }
 1304              		.loc 1 745 5 is_stmt 1 view .LVU336
 1305              	@ stm32f10x_lib/STM32F10x_StdPeriph_Driver/src/stm32f10x_usart.c:745:     USARTx->CR3 &= CR3_HDSEL_
 745:stm32f10x_lib/STM32F10x_StdPeriph_Driver/src/stm32f10x_usart.c ****   }
 1306              		.loc 1 745 17 is_stmt 0 view .LVU337
 1307 02ca 23F00803 		bic	r3, r3, #8	@ _4, USARTx_8(D)->CR3,
 1308 02ce 1B04     		lsls	r3, r3, #16	@ _4, _4,
 1309 02d0 1B0C     		lsrs	r3, r3, #16	@ _4, _4,
 1310 02d2 F8E7     		b	.L65		@
 1311              		.cfi_endproc
 1312              	.LFE49:
 1313              		.size	USART_HalfDuplexCmd, .-USART_HalfDuplexCmd
 1314              		.align	1
 1315              		.global	USART_OverSampling8Cmd
 1316              		.syntax unified
 1317              		.thumb
 1318              		.thumb_func
 1319              		.type	USART_OverSampling8Cmd, %function
 1320              	USART_OverSampling8Cmd:
 1321              	.LVL79:
 1322              	.LFB50:
 748:stm32f10x_lib/STM32F10x_StdPeriph_Driver/src/stm32f10x_usart.c **** 
 749:stm32f10x_lib/STM32F10x_StdPeriph_Driver/src/stm32f10x_usart.c **** 
 750:stm32f10x_lib/STM32F10x_StdPeriph_Driver/src/stm32f10x_usart.c **** /**
 751:stm32f10x_lib/STM32F10x_StdPeriph_Driver/src/stm32f10x_usart.c ****   * @brief  Enables or disables the USART's 8x oversampling mode.
 752:stm32f10x_lib/STM32F10x_StdPeriph_Driver/src/stm32f10x_usart.c ****   * @param  USARTx: Select the USART or the UART peripheral.
 753:stm32f10x_lib/STM32F10x_StdPeriph_Driver/src/stm32f10x_usart.c ****   *   This parameter can be one of the following values:
 754:stm32f10x_lib/STM32F10x_StdPeriph_Driver/src/stm32f10x_usart.c ****   *   USART1, USART2, USART3, UART4 or UART5.
 755:stm32f10x_lib/STM32F10x_StdPeriph_Driver/src/stm32f10x_usart.c ****   * @param  NewState: new state of the USART one bit sampling method.
 756:stm32f10x_lib/STM32F10x_StdPeriph_Driver/src/stm32f10x_usart.c ****   *   This parameter can be: ENABLE or DISABLE.
 757:stm32f10x_lib/STM32F10x_StdPeriph_Driver/src/stm32f10x_usart.c ****   * @note
 758:stm32f10x_lib/STM32F10x_StdPeriph_Driver/src/stm32f10x_usart.c ****   *     This function has to be called before calling USART_Init()
 759:stm32f10x_lib/STM32F10x_StdPeriph_Driver/src/stm32f10x_usart.c ****   *     function in order to have correct baudrate Divider value.   
 760:stm32f10x_lib/STM32F10x_StdPeriph_Driver/src/stm32f10x_usart.c ****   * @retval None
 761:stm32f10x_lib/STM32F10x_StdPeriph_Driver/src/stm32f10x_usart.c ****   */
 762:stm32f10x_lib/STM32F10x_StdPeriph_Driver/src/stm32f10x_usart.c **** void USART_OverSampling8Cmd(USART_TypeDef* USARTx, FunctionalState NewState)
 763:stm32f10x_lib/STM32F10x_StdPeriph_Driver/src/stm32f10x_usart.c **** {
 1323              		.loc 1 763 1 is_stmt 1 view -0
ARM GAS  C:\Users\ADMINI~1\AppData\Local\Temp\cc5w2WuM.s 			page 39


 1324              		.cfi_startproc
 1325              		@ args = 0, pretend = 0, frame = 0
 1326              		@ frame_needed = 0, uses_anonymous_args = 0
 1327              		@ link register save eliminated.
 764:stm32f10x_lib/STM32F10x_StdPeriph_Driver/src/stm32f10x_usart.c ****   /* Check the parameters */
 765:stm32f10x_lib/STM32F10x_StdPeriph_Driver/src/stm32f10x_usart.c ****   assert_param(IS_USART_ALL_PERIPH(USARTx));
 1328              		.loc 1 765 3 view .LVU339
 766:stm32f10x_lib/STM32F10x_StdPeriph_Driver/src/stm32f10x_usart.c ****   assert_param(IS_FUNCTIONAL_STATE(NewState));
 1329              		.loc 1 766 3 view .LVU340
 767:stm32f10x_lib/STM32F10x_StdPeriph_Driver/src/stm32f10x_usart.c ****   
 768:stm32f10x_lib/STM32F10x_StdPeriph_Driver/src/stm32f10x_usart.c ****   if (NewState != DISABLE)
 1330              		.loc 1 768 3 view .LVU341
 1331              	@ stm32f10x_lib/STM32F10x_StdPeriph_Driver/src/stm32f10x_usart.c:771:     USARTx->CR1 |= CR1_OVER8_
 769:stm32f10x_lib/STM32F10x_StdPeriph_Driver/src/stm32f10x_usart.c ****   {
 770:stm32f10x_lib/STM32F10x_StdPeriph_Driver/src/stm32f10x_usart.c ****     /* Enable the 8x Oversampling mode by setting the OVER8 bit in the CR1 register */
 771:stm32f10x_lib/STM32F10x_StdPeriph_Driver/src/stm32f10x_usart.c ****     USARTx->CR1 |= CR1_OVER8_Set;
 1332              		.loc 1 771 17 is_stmt 0 view .LVU342
 1333 02d4 8389     		ldrh	r3, [r0, #12]	@,
 1334              	@ stm32f10x_lib/STM32F10x_StdPeriph_Driver/src/stm32f10x_usart.c:768:   if (NewState != DISABLE)
 768:stm32f10x_lib/STM32F10x_StdPeriph_Driver/src/stm32f10x_usart.c ****   {
 1335              		.loc 1 768 6 view .LVU343
 1336 02d6 31B1     		cbz	r1, .L67	@ tmp130,
 1337              		.loc 1 771 5 is_stmt 1 view .LVU344
 1338              	@ stm32f10x_lib/STM32F10x_StdPeriph_Driver/src/stm32f10x_usart.c:771:     USARTx->CR1 |= CR1_OVER8_
 1339              		.loc 1 771 17 is_stmt 0 view .LVU345
 1340 02d8 6FEA4343 		mvn	r3, r3, lsl #17	@ tmp121, USARTx_8(D)->CR1,
 1341 02dc 6FEA5343 		mvn	r3, r3, lsr #17	@ tmp121, tmp121,
 1342 02e0 9BB2     		uxth	r3, r3	@ _2, tmp121
 1343              	.L69:
 1344              	@ stm32f10x_lib/STM32F10x_StdPeriph_Driver/src/stm32f10x_usart.c:776:     USARTx->CR1 &= CR1_OVER8_
 772:stm32f10x_lib/STM32F10x_StdPeriph_Driver/src/stm32f10x_usart.c ****   }
 773:stm32f10x_lib/STM32F10x_StdPeriph_Driver/src/stm32f10x_usart.c ****   else
 774:stm32f10x_lib/STM32F10x_StdPeriph_Driver/src/stm32f10x_usart.c ****   {
 775:stm32f10x_lib/STM32F10x_StdPeriph_Driver/src/stm32f10x_usart.c ****     /* Disable the 8x Oversampling mode by clearing the OVER8 bit in the CR1 register */
 776:stm32f10x_lib/STM32F10x_StdPeriph_Driver/src/stm32f10x_usart.c ****     USARTx->CR1 &= CR1_OVER8_Reset;
 1345              		.loc 1 776 17 view .LVU346
 1346 02e2 8381     		strh	r3, [r0, #12]	@ movhi	@ _4,
 1347              	@ stm32f10x_lib/STM32F10x_StdPeriph_Driver/src/stm32f10x_usart.c:778: }
 777:stm32f10x_lib/STM32F10x_StdPeriph_Driver/src/stm32f10x_usart.c ****   }
 778:stm32f10x_lib/STM32F10x_StdPeriph_Driver/src/stm32f10x_usart.c **** }
 1348              		.loc 1 778 1 view .LVU347
 1349 02e4 7047     		bx	lr	@
 1350              	.L67:
 776:stm32f10x_lib/STM32F10x_StdPeriph_Driver/src/stm32f10x_usart.c ****   }
 1351              		.loc 1 776 5 is_stmt 1 view .LVU348
 1352              	@ stm32f10x_lib/STM32F10x_StdPeriph_Driver/src/stm32f10x_usart.c:776:     USARTx->CR1 &= CR1_OVER8_
 776:stm32f10x_lib/STM32F10x_StdPeriph_Driver/src/stm32f10x_usart.c ****   }
 1353              		.loc 1 776 17 is_stmt 0 view .LVU349
 1354 02e6 C3F30E03 		ubfx	r3, r3, #0, #15	@ _4, USARTx_8(D)->CR1,,
 1355 02ea FAE7     		b	.L69		@
 1356              		.cfi_endproc
 1357              	.LFE50:
 1358              		.size	USART_OverSampling8Cmd, .-USART_OverSampling8Cmd
 1359              		.align	1
 1360              		.global	USART_OneBitMethodCmd
 1361              		.syntax unified
 1362              		.thumb
ARM GAS  C:\Users\ADMINI~1\AppData\Local\Temp\cc5w2WuM.s 			page 40


 1363              		.thumb_func
 1364              		.type	USART_OneBitMethodCmd, %function
 1365              	USART_OneBitMethodCmd:
 1366              	.LVL80:
 1367              	.LFB51:
 779:stm32f10x_lib/STM32F10x_StdPeriph_Driver/src/stm32f10x_usart.c **** 
 780:stm32f10x_lib/STM32F10x_StdPeriph_Driver/src/stm32f10x_usart.c **** /**
 781:stm32f10x_lib/STM32F10x_StdPeriph_Driver/src/stm32f10x_usart.c ****   * @brief  Enables or disables the USART's one bit sampling method.
 782:stm32f10x_lib/STM32F10x_StdPeriph_Driver/src/stm32f10x_usart.c ****   * @param  USARTx: Select the USART or the UART peripheral.
 783:stm32f10x_lib/STM32F10x_StdPeriph_Driver/src/stm32f10x_usart.c ****   *   This parameter can be one of the following values:
 784:stm32f10x_lib/STM32F10x_StdPeriph_Driver/src/stm32f10x_usart.c ****   *   USART1, USART2, USART3, UART4 or UART5.
 785:stm32f10x_lib/STM32F10x_StdPeriph_Driver/src/stm32f10x_usart.c ****   * @param  NewState: new state of the USART one bit sampling method.
 786:stm32f10x_lib/STM32F10x_StdPeriph_Driver/src/stm32f10x_usart.c ****   *   This parameter can be: ENABLE or DISABLE.
 787:stm32f10x_lib/STM32F10x_StdPeriph_Driver/src/stm32f10x_usart.c ****   * @retval None
 788:stm32f10x_lib/STM32F10x_StdPeriph_Driver/src/stm32f10x_usart.c ****   */
 789:stm32f10x_lib/STM32F10x_StdPeriph_Driver/src/stm32f10x_usart.c **** void USART_OneBitMethodCmd(USART_TypeDef* USARTx, FunctionalState NewState)
 790:stm32f10x_lib/STM32F10x_StdPeriph_Driver/src/stm32f10x_usart.c **** {
 1368              		.loc 1 790 1 is_stmt 1 view -0
 1369              		.cfi_startproc
 1370              		@ args = 0, pretend = 0, frame = 0
 1371              		@ frame_needed = 0, uses_anonymous_args = 0
 1372              		@ link register save eliminated.
 791:stm32f10x_lib/STM32F10x_StdPeriph_Driver/src/stm32f10x_usart.c ****   /* Check the parameters */
 792:stm32f10x_lib/STM32F10x_StdPeriph_Driver/src/stm32f10x_usart.c ****   assert_param(IS_USART_ALL_PERIPH(USARTx));
 1373              		.loc 1 792 3 view .LVU351
 793:stm32f10x_lib/STM32F10x_StdPeriph_Driver/src/stm32f10x_usart.c ****   assert_param(IS_FUNCTIONAL_STATE(NewState));
 1374              		.loc 1 793 3 view .LVU352
 794:stm32f10x_lib/STM32F10x_StdPeriph_Driver/src/stm32f10x_usart.c ****   
 795:stm32f10x_lib/STM32F10x_StdPeriph_Driver/src/stm32f10x_usart.c ****   if (NewState != DISABLE)
 1375              		.loc 1 795 3 view .LVU353
 1376              	@ stm32f10x_lib/STM32F10x_StdPeriph_Driver/src/stm32f10x_usart.c:798:     USARTx->CR3 |= CR3_ONEBIT
 796:stm32f10x_lib/STM32F10x_StdPeriph_Driver/src/stm32f10x_usart.c ****   {
 797:stm32f10x_lib/STM32F10x_StdPeriph_Driver/src/stm32f10x_usart.c ****     /* Enable the one bit method by setting the ONEBITE bit in the CR3 register */
 798:stm32f10x_lib/STM32F10x_StdPeriph_Driver/src/stm32f10x_usart.c ****     USARTx->CR3 |= CR3_ONEBITE_Set;
 1377              		.loc 1 798 17 is_stmt 0 view .LVU354
 1378 02ec 838A     		ldrh	r3, [r0, #20]	@,
 1379              	@ stm32f10x_lib/STM32F10x_StdPeriph_Driver/src/stm32f10x_usart.c:795:   if (NewState != DISABLE)
 795:stm32f10x_lib/STM32F10x_StdPeriph_Driver/src/stm32f10x_usart.c ****   {
 1380              		.loc 1 795 6 view .LVU355
 1381 02ee 21B1     		cbz	r1, .L71	@ tmp128,
 1382              		.loc 1 798 5 is_stmt 1 view .LVU356
 1383              	@ stm32f10x_lib/STM32F10x_StdPeriph_Driver/src/stm32f10x_usart.c:798:     USARTx->CR3 |= CR3_ONEBIT
 1384              		.loc 1 798 17 is_stmt 0 view .LVU357
 1385 02f0 9BB2     		uxth	r3, r3	@ _1, USARTx_8(D)->CR3
 1386 02f2 43F40063 		orr	r3, r3, #2048	@ _2, _1,
 1387              	.L73:
 1388              	@ stm32f10x_lib/STM32F10x_StdPeriph_Driver/src/stm32f10x_usart.c:803:     USARTx->CR3 &= CR3_ONEBIT
 799:stm32f10x_lib/STM32F10x_StdPeriph_Driver/src/stm32f10x_usart.c ****   }
 800:stm32f10x_lib/STM32F10x_StdPeriph_Driver/src/stm32f10x_usart.c ****   else
 801:stm32f10x_lib/STM32F10x_StdPeriph_Driver/src/stm32f10x_usart.c ****   {
 802:stm32f10x_lib/STM32F10x_StdPeriph_Driver/src/stm32f10x_usart.c ****     /* Disable tthe one bit method by clearing the ONEBITE bit in the CR3 register */
 803:stm32f10x_lib/STM32F10x_StdPeriph_Driver/src/stm32f10x_usart.c ****     USARTx->CR3 &= CR3_ONEBITE_Reset;
 1389              		.loc 1 803 17 view .LVU358
 1390 02f6 8382     		strh	r3, [r0, #20]	@ movhi	@ _4,
 1391              	@ stm32f10x_lib/STM32F10x_StdPeriph_Driver/src/stm32f10x_usart.c:805: }
 804:stm32f10x_lib/STM32F10x_StdPeriph_Driver/src/stm32f10x_usart.c ****   }
 805:stm32f10x_lib/STM32F10x_StdPeriph_Driver/src/stm32f10x_usart.c **** }
ARM GAS  C:\Users\ADMINI~1\AppData\Local\Temp\cc5w2WuM.s 			page 41


 1392              		.loc 1 805 1 view .LVU359
 1393 02f8 7047     		bx	lr	@
 1394              	.L71:
 803:stm32f10x_lib/STM32F10x_StdPeriph_Driver/src/stm32f10x_usart.c ****   }
 1395              		.loc 1 803 5 is_stmt 1 view .LVU360
 1396              	@ stm32f10x_lib/STM32F10x_StdPeriph_Driver/src/stm32f10x_usart.c:803:     USARTx->CR3 &= CR3_ONEBIT
 803:stm32f10x_lib/STM32F10x_StdPeriph_Driver/src/stm32f10x_usart.c ****   }
 1397              		.loc 1 803 17 is_stmt 0 view .LVU361
 1398 02fa 23F40063 		bic	r3, r3, #2048	@ _4, USARTx_8(D)->CR3,
 1399 02fe 1B04     		lsls	r3, r3, #16	@ _4, _4,
 1400 0300 1B0C     		lsrs	r3, r3, #16	@ _4, _4,
 1401 0302 F8E7     		b	.L73		@
 1402              		.cfi_endproc
 1403              	.LFE51:
 1404              		.size	USART_OneBitMethodCmd, .-USART_OneBitMethodCmd
 1405              		.align	1
 1406              		.global	USART_IrDAConfig
 1407              		.syntax unified
 1408              		.thumb
 1409              		.thumb_func
 1410              		.type	USART_IrDAConfig, %function
 1411              	USART_IrDAConfig:
 1412              	.LVL81:
 1413              	.LFB52:
 806:stm32f10x_lib/STM32F10x_StdPeriph_Driver/src/stm32f10x_usart.c **** 
 807:stm32f10x_lib/STM32F10x_StdPeriph_Driver/src/stm32f10x_usart.c **** /**
 808:stm32f10x_lib/STM32F10x_StdPeriph_Driver/src/stm32f10x_usart.c ****   * @brief  Configures the USART's IrDA interface.
 809:stm32f10x_lib/STM32F10x_StdPeriph_Driver/src/stm32f10x_usart.c ****   * @param  USARTx: Select the USART or the UART peripheral. 
 810:stm32f10x_lib/STM32F10x_StdPeriph_Driver/src/stm32f10x_usart.c ****   *   This parameter can be one of the following values:
 811:stm32f10x_lib/STM32F10x_StdPeriph_Driver/src/stm32f10x_usart.c ****   *   USART1, USART2, USART3, UART4 or UART5.
 812:stm32f10x_lib/STM32F10x_StdPeriph_Driver/src/stm32f10x_usart.c ****   * @param  USART_IrDAMode: specifies the IrDA mode.
 813:stm32f10x_lib/STM32F10x_StdPeriph_Driver/src/stm32f10x_usart.c ****   *   This parameter can be one of the following values:
 814:stm32f10x_lib/STM32F10x_StdPeriph_Driver/src/stm32f10x_usart.c ****   *     @arg USART_IrDAMode_LowPower
 815:stm32f10x_lib/STM32F10x_StdPeriph_Driver/src/stm32f10x_usart.c ****   *     @arg USART_IrDAMode_Normal
 816:stm32f10x_lib/STM32F10x_StdPeriph_Driver/src/stm32f10x_usart.c ****   * @retval None
 817:stm32f10x_lib/STM32F10x_StdPeriph_Driver/src/stm32f10x_usart.c ****   */
 818:stm32f10x_lib/STM32F10x_StdPeriph_Driver/src/stm32f10x_usart.c **** void USART_IrDAConfig(USART_TypeDef* USARTx, uint16_t USART_IrDAMode)
 819:stm32f10x_lib/STM32F10x_StdPeriph_Driver/src/stm32f10x_usart.c **** {
 1414              		.loc 1 819 1 is_stmt 1 view -0
 1415              		.cfi_startproc
 1416              		@ args = 0, pretend = 0, frame = 0
 1417              		@ frame_needed = 0, uses_anonymous_args = 0
 1418              		@ link register save eliminated.
 820:stm32f10x_lib/STM32F10x_StdPeriph_Driver/src/stm32f10x_usart.c ****   /* Check the parameters */
 821:stm32f10x_lib/STM32F10x_StdPeriph_Driver/src/stm32f10x_usart.c ****   assert_param(IS_USART_ALL_PERIPH(USARTx));
 1419              		.loc 1 821 3 view .LVU363
 822:stm32f10x_lib/STM32F10x_StdPeriph_Driver/src/stm32f10x_usart.c ****   assert_param(IS_USART_IRDA_MODE(USART_IrDAMode));
 1420              		.loc 1 822 3 view .LVU364
 823:stm32f10x_lib/STM32F10x_StdPeriph_Driver/src/stm32f10x_usart.c ****     
 824:stm32f10x_lib/STM32F10x_StdPeriph_Driver/src/stm32f10x_usart.c ****   USARTx->CR3 &= CR3_IRLP_Mask;
 1421              		.loc 1 824 3 view .LVU365
 1422              	@ stm32f10x_lib/STM32F10x_StdPeriph_Driver/src/stm32f10x_usart.c:824:   USARTx->CR3 &= CR3_IRLP_Mas
 1423              		.loc 1 824 15 is_stmt 0 view .LVU366
 1424 0304 838A     		ldrh	r3, [r0, #20]	@, USARTx_6(D)->CR3
 1425 0306 23F00403 		bic	r3, r3, #4	@ _2, USARTx_6(D)->CR3,
 1426 030a 1B04     		lsls	r3, r3, #16	@ _2, _2,
 1427 030c 1B0C     		lsrs	r3, r3, #16	@ _2, _2,
ARM GAS  C:\Users\ADMINI~1\AppData\Local\Temp\cc5w2WuM.s 			page 42


 1428 030e 8382     		strh	r3, [r0, #20]	@ movhi	@ _2, USARTx_6(D)->CR3
 825:stm32f10x_lib/STM32F10x_StdPeriph_Driver/src/stm32f10x_usart.c ****   USARTx->CR3 |= USART_IrDAMode;
 1429              		.loc 1 825 3 is_stmt 1 view .LVU367
 1430              	@ stm32f10x_lib/STM32F10x_StdPeriph_Driver/src/stm32f10x_usart.c:825:   USARTx->CR3 |= USART_IrDAMo
 1431              		.loc 1 825 15 is_stmt 0 view .LVU368
 1432 0310 838A     		ldrh	r3, [r0, #20]	@, USARTx_6(D)->CR3
 1433 0312 9BB2     		uxth	r3, r3	@ _3, USARTx_6(D)->CR3
 1434 0314 0B43     		orrs	r3, r3, r1	@, _4, _3, tmp128
 1435 0316 8382     		strh	r3, [r0, #20]	@ movhi	@ _4, USARTx_6(D)->CR3
 1436              	@ stm32f10x_lib/STM32F10x_StdPeriph_Driver/src/stm32f10x_usart.c:826: }
 826:stm32f10x_lib/STM32F10x_StdPeriph_Driver/src/stm32f10x_usart.c **** }
 1437              		.loc 1 826 1 view .LVU369
 1438 0318 7047     		bx	lr	@
 1439              		.cfi_endproc
 1440              	.LFE52:
 1441              		.size	USART_IrDAConfig, .-USART_IrDAConfig
 1442              		.align	1
 1443              		.global	USART_IrDACmd
 1444              		.syntax unified
 1445              		.thumb
 1446              		.thumb_func
 1447              		.type	USART_IrDACmd, %function
 1448              	USART_IrDACmd:
 1449              	.LVL82:
 1450              	.LFB53:
 827:stm32f10x_lib/STM32F10x_StdPeriph_Driver/src/stm32f10x_usart.c **** 
 828:stm32f10x_lib/STM32F10x_StdPeriph_Driver/src/stm32f10x_usart.c **** /**
 829:stm32f10x_lib/STM32F10x_StdPeriph_Driver/src/stm32f10x_usart.c ****   * @brief  Enables or disables the USART's IrDA interface.
 830:stm32f10x_lib/STM32F10x_StdPeriph_Driver/src/stm32f10x_usart.c ****   * @param  USARTx: Select the USART or the UART peripheral. 
 831:stm32f10x_lib/STM32F10x_StdPeriph_Driver/src/stm32f10x_usart.c ****   *   This parameter can be one of the following values:
 832:stm32f10x_lib/STM32F10x_StdPeriph_Driver/src/stm32f10x_usart.c ****   *   USART1, USART2, USART3, UART4 or UART5.
 833:stm32f10x_lib/STM32F10x_StdPeriph_Driver/src/stm32f10x_usart.c ****   * @param  NewState: new state of the IrDA mode.
 834:stm32f10x_lib/STM32F10x_StdPeriph_Driver/src/stm32f10x_usart.c ****   *   This parameter can be: ENABLE or DISABLE.
 835:stm32f10x_lib/STM32F10x_StdPeriph_Driver/src/stm32f10x_usart.c ****   * @retval None
 836:stm32f10x_lib/STM32F10x_StdPeriph_Driver/src/stm32f10x_usart.c ****   */
 837:stm32f10x_lib/STM32F10x_StdPeriph_Driver/src/stm32f10x_usart.c **** void USART_IrDACmd(USART_TypeDef* USARTx, FunctionalState NewState)
 838:stm32f10x_lib/STM32F10x_StdPeriph_Driver/src/stm32f10x_usart.c **** {
 1451              		.loc 1 838 1 is_stmt 1 view -0
 1452              		.cfi_startproc
 1453              		@ args = 0, pretend = 0, frame = 0
 1454              		@ frame_needed = 0, uses_anonymous_args = 0
 1455              		@ link register save eliminated.
 839:stm32f10x_lib/STM32F10x_StdPeriph_Driver/src/stm32f10x_usart.c ****   /* Check the parameters */
 840:stm32f10x_lib/STM32F10x_StdPeriph_Driver/src/stm32f10x_usart.c ****   assert_param(IS_USART_ALL_PERIPH(USARTx));
 1456              		.loc 1 840 3 view .LVU371
 841:stm32f10x_lib/STM32F10x_StdPeriph_Driver/src/stm32f10x_usart.c ****   assert_param(IS_FUNCTIONAL_STATE(NewState));
 1457              		.loc 1 841 3 view .LVU372
 842:stm32f10x_lib/STM32F10x_StdPeriph_Driver/src/stm32f10x_usart.c ****     
 843:stm32f10x_lib/STM32F10x_StdPeriph_Driver/src/stm32f10x_usart.c ****   if (NewState != DISABLE)
 1458              		.loc 1 843 3 view .LVU373
 1459              	@ stm32f10x_lib/STM32F10x_StdPeriph_Driver/src/stm32f10x_usart.c:846:     USARTx->CR3 |= CR3_IREN_S
 844:stm32f10x_lib/STM32F10x_StdPeriph_Driver/src/stm32f10x_usart.c ****   {
 845:stm32f10x_lib/STM32F10x_StdPeriph_Driver/src/stm32f10x_usart.c ****     /* Enable the IrDA mode by setting the IREN bit in the CR3 register */
 846:stm32f10x_lib/STM32F10x_StdPeriph_Driver/src/stm32f10x_usart.c ****     USARTx->CR3 |= CR3_IREN_Set;
 1460              		.loc 1 846 17 is_stmt 0 view .LVU374
 1461 031a 838A     		ldrh	r3, [r0, #20]	@,
 1462              	@ stm32f10x_lib/STM32F10x_StdPeriph_Driver/src/stm32f10x_usart.c:843:   if (NewState != DISABLE)
ARM GAS  C:\Users\ADMINI~1\AppData\Local\Temp\cc5w2WuM.s 			page 43


 843:stm32f10x_lib/STM32F10x_StdPeriph_Driver/src/stm32f10x_usart.c ****   {
 1463              		.loc 1 843 6 view .LVU375
 1464 031c 21B1     		cbz	r1, .L76	@ tmp128,
 1465              		.loc 1 846 5 is_stmt 1 view .LVU376
 1466              	@ stm32f10x_lib/STM32F10x_StdPeriph_Driver/src/stm32f10x_usart.c:846:     USARTx->CR3 |= CR3_IREN_S
 1467              		.loc 1 846 17 is_stmt 0 view .LVU377
 1468 031e 9BB2     		uxth	r3, r3	@ _1, USARTx_8(D)->CR3
 1469 0320 43F00203 		orr	r3, r3, #2	@ _2, _1,
 1470              	.L78:
 1471              	@ stm32f10x_lib/STM32F10x_StdPeriph_Driver/src/stm32f10x_usart.c:851:     USARTx->CR3 &= CR3_IREN_R
 847:stm32f10x_lib/STM32F10x_StdPeriph_Driver/src/stm32f10x_usart.c ****   }
 848:stm32f10x_lib/STM32F10x_StdPeriph_Driver/src/stm32f10x_usart.c ****   else
 849:stm32f10x_lib/STM32F10x_StdPeriph_Driver/src/stm32f10x_usart.c ****   {
 850:stm32f10x_lib/STM32F10x_StdPeriph_Driver/src/stm32f10x_usart.c ****     /* Disable the IrDA mode by clearing the IREN bit in the CR3 register */
 851:stm32f10x_lib/STM32F10x_StdPeriph_Driver/src/stm32f10x_usart.c ****     USARTx->CR3 &= CR3_IREN_Reset;
 1472              		.loc 1 851 17 view .LVU378
 1473 0324 8382     		strh	r3, [r0, #20]	@ movhi	@ _4,
 1474              	@ stm32f10x_lib/STM32F10x_StdPeriph_Driver/src/stm32f10x_usart.c:853: }
 852:stm32f10x_lib/STM32F10x_StdPeriph_Driver/src/stm32f10x_usart.c ****   }
 853:stm32f10x_lib/STM32F10x_StdPeriph_Driver/src/stm32f10x_usart.c **** }
 1475              		.loc 1 853 1 view .LVU379
 1476 0326 7047     		bx	lr	@
 1477              	.L76:
 851:stm32f10x_lib/STM32F10x_StdPeriph_Driver/src/stm32f10x_usart.c ****   }
 1478              		.loc 1 851 5 is_stmt 1 view .LVU380
 1479              	@ stm32f10x_lib/STM32F10x_StdPeriph_Driver/src/stm32f10x_usart.c:851:     USARTx->CR3 &= CR3_IREN_R
 851:stm32f10x_lib/STM32F10x_StdPeriph_Driver/src/stm32f10x_usart.c ****   }
 1480              		.loc 1 851 17 is_stmt 0 view .LVU381
 1481 0328 23F00203 		bic	r3, r3, #2	@ _4, USARTx_8(D)->CR3,
 1482 032c 1B04     		lsls	r3, r3, #16	@ _4, _4,
 1483 032e 1B0C     		lsrs	r3, r3, #16	@ _4, _4,
 1484 0330 F8E7     		b	.L78		@
 1485              		.cfi_endproc
 1486              	.LFE53:
 1487              		.size	USART_IrDACmd, .-USART_IrDACmd
 1488              		.align	1
 1489              		.global	USART_GetFlagStatus
 1490              		.syntax unified
 1491              		.thumb
 1492              		.thumb_func
 1493              		.type	USART_GetFlagStatus, %function
 1494              	USART_GetFlagStatus:
 1495              	.LVL83:
 1496              	.LFB54:
 854:stm32f10x_lib/STM32F10x_StdPeriph_Driver/src/stm32f10x_usart.c **** 
 855:stm32f10x_lib/STM32F10x_StdPeriph_Driver/src/stm32f10x_usart.c **** /**
 856:stm32f10x_lib/STM32F10x_StdPeriph_Driver/src/stm32f10x_usart.c ****   * @brief  Checks whether the specified USART flag is set or not.
 857:stm32f10x_lib/STM32F10x_StdPeriph_Driver/src/stm32f10x_usart.c ****   * @param  USARTx: Select the USART or the UART peripheral. 
 858:stm32f10x_lib/STM32F10x_StdPeriph_Driver/src/stm32f10x_usart.c ****   *   This parameter can be one of the following values:
 859:stm32f10x_lib/STM32F10x_StdPeriph_Driver/src/stm32f10x_usart.c ****   *   USART1, USART2, USART3, UART4 or UART5.
 860:stm32f10x_lib/STM32F10x_StdPeriph_Driver/src/stm32f10x_usart.c ****   * @param  USART_FLAG: specifies the flag to check.
 861:stm32f10x_lib/STM32F10x_StdPeriph_Driver/src/stm32f10x_usart.c ****   *   This parameter can be one of the following values:
 862:stm32f10x_lib/STM32F10x_StdPeriph_Driver/src/stm32f10x_usart.c ****   *     @arg USART_FLAG_CTS:  CTS Change flag (not available for UART4 and UART5)
 863:stm32f10x_lib/STM32F10x_StdPeriph_Driver/src/stm32f10x_usart.c ****   *     @arg USART_FLAG_LBD:  LIN Break detection flag
 864:stm32f10x_lib/STM32F10x_StdPeriph_Driver/src/stm32f10x_usart.c ****   *     @arg USART_FLAG_TXE:  Transmit data register empty flag
 865:stm32f10x_lib/STM32F10x_StdPeriph_Driver/src/stm32f10x_usart.c ****   *     @arg USART_FLAG_TC:   Transmission Complete flag
 866:stm32f10x_lib/STM32F10x_StdPeriph_Driver/src/stm32f10x_usart.c ****   *     @arg USART_FLAG_RXNE: Receive data register not empty flag
ARM GAS  C:\Users\ADMINI~1\AppData\Local\Temp\cc5w2WuM.s 			page 44


 867:stm32f10x_lib/STM32F10x_StdPeriph_Driver/src/stm32f10x_usart.c ****   *     @arg USART_FLAG_IDLE: Idle Line detection flag
 868:stm32f10x_lib/STM32F10x_StdPeriph_Driver/src/stm32f10x_usart.c ****   *     @arg USART_FLAG_ORE:  OverRun Error flag
 869:stm32f10x_lib/STM32F10x_StdPeriph_Driver/src/stm32f10x_usart.c ****   *     @arg USART_FLAG_NE:   Noise Error flag
 870:stm32f10x_lib/STM32F10x_StdPeriph_Driver/src/stm32f10x_usart.c ****   *     @arg USART_FLAG_FE:   Framing Error flag
 871:stm32f10x_lib/STM32F10x_StdPeriph_Driver/src/stm32f10x_usart.c ****   *     @arg USART_FLAG_PE:   Parity Error flag
 872:stm32f10x_lib/STM32F10x_StdPeriph_Driver/src/stm32f10x_usart.c ****   * @retval The new state of USART_FLAG (SET or RESET).
 873:stm32f10x_lib/STM32F10x_StdPeriph_Driver/src/stm32f10x_usart.c ****   */
 874:stm32f10x_lib/STM32F10x_StdPeriph_Driver/src/stm32f10x_usart.c **** FlagStatus USART_GetFlagStatus(USART_TypeDef* USARTx, uint16_t USART_FLAG)
 875:stm32f10x_lib/STM32F10x_StdPeriph_Driver/src/stm32f10x_usart.c **** {
 1497              		.loc 1 875 1 is_stmt 1 view -0
 1498              		.cfi_startproc
 1499              		@ args = 0, pretend = 0, frame = 0
 1500              		@ frame_needed = 0, uses_anonymous_args = 0
 1501              		@ link register save eliminated.
 876:stm32f10x_lib/STM32F10x_StdPeriph_Driver/src/stm32f10x_usart.c ****   FlagStatus bitstatus = RESET;
 1502              		.loc 1 876 3 view .LVU383
 877:stm32f10x_lib/STM32F10x_StdPeriph_Driver/src/stm32f10x_usart.c ****   /* Check the parameters */
 878:stm32f10x_lib/STM32F10x_StdPeriph_Driver/src/stm32f10x_usart.c ****   assert_param(IS_USART_ALL_PERIPH(USARTx));
 1503              		.loc 1 878 3 view .LVU384
 879:stm32f10x_lib/STM32F10x_StdPeriph_Driver/src/stm32f10x_usart.c ****   assert_param(IS_USART_FLAG(USART_FLAG));
 1504              		.loc 1 879 3 view .LVU385
 880:stm32f10x_lib/STM32F10x_StdPeriph_Driver/src/stm32f10x_usart.c ****   /* The CTS flag is not available for UART4 and UART5 */
 881:stm32f10x_lib/STM32F10x_StdPeriph_Driver/src/stm32f10x_usart.c ****   if (USART_FLAG == USART_FLAG_CTS)
 1505              		.loc 1 881 3 view .LVU386
 882:stm32f10x_lib/STM32F10x_StdPeriph_Driver/src/stm32f10x_usart.c ****   {
 883:stm32f10x_lib/STM32F10x_StdPeriph_Driver/src/stm32f10x_usart.c ****     assert_param(IS_USART_123_PERIPH(USARTx));
 1506              		.loc 1 883 5 view .LVU387
 884:stm32f10x_lib/STM32F10x_StdPeriph_Driver/src/stm32f10x_usart.c ****   }  
 885:stm32f10x_lib/STM32F10x_StdPeriph_Driver/src/stm32f10x_usart.c ****   
 886:stm32f10x_lib/STM32F10x_StdPeriph_Driver/src/stm32f10x_usart.c ****   if ((USARTx->SR & USART_FLAG) != (uint16_t)RESET)
 1507              		.loc 1 886 3 view .LVU388
 1508              	@ stm32f10x_lib/STM32F10x_StdPeriph_Driver/src/stm32f10x_usart.c:886:   if ((USARTx->SR & USART_FLA
 1509              		.loc 1 886 14 is_stmt 0 view .LVU389
 1510 0332 0388     		ldrh	r3, [r0]	@, USARTx_5(D)->SR
 1511              	.LVL84:
 887:stm32f10x_lib/STM32F10x_StdPeriph_Driver/src/stm32f10x_usart.c ****   {
 888:stm32f10x_lib/STM32F10x_StdPeriph_Driver/src/stm32f10x_usart.c ****     bitstatus = SET;
 889:stm32f10x_lib/STM32F10x_StdPeriph_Driver/src/stm32f10x_usart.c ****   }
 890:stm32f10x_lib/STM32F10x_StdPeriph_Driver/src/stm32f10x_usart.c ****   else
 891:stm32f10x_lib/STM32F10x_StdPeriph_Driver/src/stm32f10x_usart.c ****   {
 892:stm32f10x_lib/STM32F10x_StdPeriph_Driver/src/stm32f10x_usart.c ****     bitstatus = RESET;
 893:stm32f10x_lib/STM32F10x_StdPeriph_Driver/src/stm32f10x_usart.c ****   }
 894:stm32f10x_lib/STM32F10x_StdPeriph_Driver/src/stm32f10x_usart.c ****   return bitstatus;
 1512              		.loc 1 894 3 is_stmt 1 view .LVU390
 1513              	@ stm32f10x_lib/STM32F10x_StdPeriph_Driver/src/stm32f10x_usart.c:886:   if ((USARTx->SR & USART_FLA
 886:stm32f10x_lib/STM32F10x_StdPeriph_Driver/src/stm32f10x_usart.c ****   {
 1514              		.loc 1 886 6 is_stmt 0 view .LVU391
 1515 0334 1942     		tst	r1, r3	@ tmp126, USARTx_5(D)->SR
 1516              	@ stm32f10x_lib/STM32F10x_StdPeriph_Driver/src/stm32f10x_usart.c:895: }
 895:stm32f10x_lib/STM32F10x_StdPeriph_Driver/src/stm32f10x_usart.c **** }
 1517              		.loc 1 895 1 view .LVU392
 1518 0336 14BF     		ite	ne
 1519 0338 0120     		movne	r0, #1	@,
 1520              	.LVL85:
 1521              		.loc 1 895 1 view .LVU393
 1522 033a 0020     		moveq	r0, #0	@,
 1523 033c 7047     		bx	lr	@
ARM GAS  C:\Users\ADMINI~1\AppData\Local\Temp\cc5w2WuM.s 			page 45


 1524              		.cfi_endproc
 1525              	.LFE54:
 1526              		.size	USART_GetFlagStatus, .-USART_GetFlagStatus
 1527              		.align	1
 1528              		.global	USART_ClearFlag
 1529              		.syntax unified
 1530              		.thumb
 1531              		.thumb_func
 1532              		.type	USART_ClearFlag, %function
 1533              	USART_ClearFlag:
 1534              	.LVL86:
 1535              	.LFB55:
 896:stm32f10x_lib/STM32F10x_StdPeriph_Driver/src/stm32f10x_usart.c **** 
 897:stm32f10x_lib/STM32F10x_StdPeriph_Driver/src/stm32f10x_usart.c **** /**
 898:stm32f10x_lib/STM32F10x_StdPeriph_Driver/src/stm32f10x_usart.c ****   * @brief  Clears the USARTx's pending flags.
 899:stm32f10x_lib/STM32F10x_StdPeriph_Driver/src/stm32f10x_usart.c ****   * @param  USARTx: Select the USART or the UART peripheral. 
 900:stm32f10x_lib/STM32F10x_StdPeriph_Driver/src/stm32f10x_usart.c ****   *   This parameter can be one of the following values:
 901:stm32f10x_lib/STM32F10x_StdPeriph_Driver/src/stm32f10x_usart.c ****   *   USART1, USART2, USART3, UART4 or UART5.
 902:stm32f10x_lib/STM32F10x_StdPeriph_Driver/src/stm32f10x_usart.c ****   * @param  USART_FLAG: specifies the flag to clear.
 903:stm32f10x_lib/STM32F10x_StdPeriph_Driver/src/stm32f10x_usart.c ****   *   This parameter can be any combination of the following values:
 904:stm32f10x_lib/STM32F10x_StdPeriph_Driver/src/stm32f10x_usart.c ****   *     @arg USART_FLAG_CTS:  CTS Change flag (not available for UART4 and UART5).
 905:stm32f10x_lib/STM32F10x_StdPeriph_Driver/src/stm32f10x_usart.c ****   *     @arg USART_FLAG_LBD:  LIN Break detection flag.
 906:stm32f10x_lib/STM32F10x_StdPeriph_Driver/src/stm32f10x_usart.c ****   *     @arg USART_FLAG_TC:   Transmission Complete flag.
 907:stm32f10x_lib/STM32F10x_StdPeriph_Driver/src/stm32f10x_usart.c ****   *     @arg USART_FLAG_RXNE: Receive data register not empty flag.
 908:stm32f10x_lib/STM32F10x_StdPeriph_Driver/src/stm32f10x_usart.c ****   *   
 909:stm32f10x_lib/STM32F10x_StdPeriph_Driver/src/stm32f10x_usart.c ****   * @note
 910:stm32f10x_lib/STM32F10x_StdPeriph_Driver/src/stm32f10x_usart.c ****   *   - PE (Parity error), FE (Framing error), NE (Noise error), ORE (OverRun 
 911:stm32f10x_lib/STM32F10x_StdPeriph_Driver/src/stm32f10x_usart.c ****   *     error) and IDLE (Idle line detected) flags are cleared by software 
 912:stm32f10x_lib/STM32F10x_StdPeriph_Driver/src/stm32f10x_usart.c ****   *     sequence: a read operation to USART_SR register (USART_GetFlagStatus()) 
 913:stm32f10x_lib/STM32F10x_StdPeriph_Driver/src/stm32f10x_usart.c ****   *     followed by a read operation to USART_DR register (USART_ReceiveData()).
 914:stm32f10x_lib/STM32F10x_StdPeriph_Driver/src/stm32f10x_usart.c ****   *   - RXNE flag can be also cleared by a read to the USART_DR register 
 915:stm32f10x_lib/STM32F10x_StdPeriph_Driver/src/stm32f10x_usart.c ****   *     (USART_ReceiveData()).
 916:stm32f10x_lib/STM32F10x_StdPeriph_Driver/src/stm32f10x_usart.c ****   *   - TC flag can be also cleared by software sequence: a read operation to 
 917:stm32f10x_lib/STM32F10x_StdPeriph_Driver/src/stm32f10x_usart.c ****   *     USART_SR register (USART_GetFlagStatus()) followed by a write operation
 918:stm32f10x_lib/STM32F10x_StdPeriph_Driver/src/stm32f10x_usart.c ****   *     to USART_DR register (USART_SendData()).
 919:stm32f10x_lib/STM32F10x_StdPeriph_Driver/src/stm32f10x_usart.c ****   *   - TXE flag is cleared only by a write to the USART_DR register 
 920:stm32f10x_lib/STM32F10x_StdPeriph_Driver/src/stm32f10x_usart.c ****   *     (USART_SendData()).
 921:stm32f10x_lib/STM32F10x_StdPeriph_Driver/src/stm32f10x_usart.c ****   * @retval None
 922:stm32f10x_lib/STM32F10x_StdPeriph_Driver/src/stm32f10x_usart.c ****   */
 923:stm32f10x_lib/STM32F10x_StdPeriph_Driver/src/stm32f10x_usart.c **** void USART_ClearFlag(USART_TypeDef* USARTx, uint16_t USART_FLAG)
 924:stm32f10x_lib/STM32F10x_StdPeriph_Driver/src/stm32f10x_usart.c **** {
 1536              		.loc 1 924 1 is_stmt 1 view -0
 1537              		.cfi_startproc
 1538              		@ args = 0, pretend = 0, frame = 0
 1539              		@ frame_needed = 0, uses_anonymous_args = 0
 1540              		@ link register save eliminated.
 925:stm32f10x_lib/STM32F10x_StdPeriph_Driver/src/stm32f10x_usart.c ****   /* Check the parameters */
 926:stm32f10x_lib/STM32F10x_StdPeriph_Driver/src/stm32f10x_usart.c ****   assert_param(IS_USART_ALL_PERIPH(USARTx));
 1541              		.loc 1 926 3 view .LVU395
 927:stm32f10x_lib/STM32F10x_StdPeriph_Driver/src/stm32f10x_usart.c ****   assert_param(IS_USART_CLEAR_FLAG(USART_FLAG));
 1542              		.loc 1 927 3 view .LVU396
 928:stm32f10x_lib/STM32F10x_StdPeriph_Driver/src/stm32f10x_usart.c ****   /* The CTS flag is not available for UART4 and UART5 */
 929:stm32f10x_lib/STM32F10x_StdPeriph_Driver/src/stm32f10x_usart.c ****   if ((USART_FLAG & USART_FLAG_CTS) == USART_FLAG_CTS)
 1543              		.loc 1 929 3 view .LVU397
 930:stm32f10x_lib/STM32F10x_StdPeriph_Driver/src/stm32f10x_usart.c ****   {
 931:stm32f10x_lib/STM32F10x_StdPeriph_Driver/src/stm32f10x_usart.c ****     assert_param(IS_USART_123_PERIPH(USARTx));
 1544              		.loc 1 931 5 view .LVU398
ARM GAS  C:\Users\ADMINI~1\AppData\Local\Temp\cc5w2WuM.s 			page 46


 932:stm32f10x_lib/STM32F10x_StdPeriph_Driver/src/stm32f10x_usart.c ****   } 
 933:stm32f10x_lib/STM32F10x_StdPeriph_Driver/src/stm32f10x_usart.c ****    
 934:stm32f10x_lib/STM32F10x_StdPeriph_Driver/src/stm32f10x_usart.c ****   USARTx->SR = (uint16_t)~USART_FLAG;
 1545              		.loc 1 934 3 view .LVU399
 1546              	@ stm32f10x_lib/STM32F10x_StdPeriph_Driver/src/stm32f10x_usart.c:934:   USARTx->SR = (uint16_t)~USA
 1547              		.loc 1 934 16 is_stmt 0 view .LVU400
 1548 033e C943     		mvns	r1, r1	@ tmp116, tmp119
 1549              	.LVL87:
 1550              		.loc 1 934 16 view .LVU401
 1551 0340 89B2     		uxth	r1, r1	@ _1, tmp116
 1552              	@ stm32f10x_lib/STM32F10x_StdPeriph_Driver/src/stm32f10x_usart.c:934:   USARTx->SR = (uint16_t)~USA
 1553              		.loc 1 934 14 view .LVU402
 1554 0342 0180     		strh	r1, [r0]	@ movhi	@ _1, USARTx_4(D)->SR
 1555              	@ stm32f10x_lib/STM32F10x_StdPeriph_Driver/src/stm32f10x_usart.c:935: }
 935:stm32f10x_lib/STM32F10x_StdPeriph_Driver/src/stm32f10x_usart.c **** }
 1556              		.loc 1 935 1 view .LVU403
 1557 0344 7047     		bx	lr	@
 1558              		.cfi_endproc
 1559              	.LFE55:
 1560              		.size	USART_ClearFlag, .-USART_ClearFlag
 1561              		.align	1
 1562              		.global	USART_GetITStatus
 1563              		.syntax unified
 1564              		.thumb
 1565              		.thumb_func
 1566              		.type	USART_GetITStatus, %function
 1567              	USART_GetITStatus:
 1568              	.LVL88:
 1569              	.LFB56:
 936:stm32f10x_lib/STM32F10x_StdPeriph_Driver/src/stm32f10x_usart.c **** 
 937:stm32f10x_lib/STM32F10x_StdPeriph_Driver/src/stm32f10x_usart.c **** /**
 938:stm32f10x_lib/STM32F10x_StdPeriph_Driver/src/stm32f10x_usart.c ****   * @brief  Checks whether the specified USART interrupt has occurred or not.
 939:stm32f10x_lib/STM32F10x_StdPeriph_Driver/src/stm32f10x_usart.c ****   * @param  USARTx: Select the USART or the UART peripheral. 
 940:stm32f10x_lib/STM32F10x_StdPeriph_Driver/src/stm32f10x_usart.c ****   *   This parameter can be one of the following values:
 941:stm32f10x_lib/STM32F10x_StdPeriph_Driver/src/stm32f10x_usart.c ****   *   USART1, USART2, USART3, UART4 or UART5.
 942:stm32f10x_lib/STM32F10x_StdPeriph_Driver/src/stm32f10x_usart.c ****   * @param  USART_IT: specifies the USART interrupt source to check.
 943:stm32f10x_lib/STM32F10x_StdPeriph_Driver/src/stm32f10x_usart.c ****   *   This parameter can be one of the following values:
 944:stm32f10x_lib/STM32F10x_StdPeriph_Driver/src/stm32f10x_usart.c ****   *     @arg USART_IT_CTS:  CTS change interrupt (not available for UART4 and UART5)
 945:stm32f10x_lib/STM32F10x_StdPeriph_Driver/src/stm32f10x_usart.c ****   *     @arg USART_IT_LBD:  LIN Break detection interrupt
 946:stm32f10x_lib/STM32F10x_StdPeriph_Driver/src/stm32f10x_usart.c ****   *     @arg USART_IT_TXE:  Tansmit Data Register empty interrupt
 947:stm32f10x_lib/STM32F10x_StdPeriph_Driver/src/stm32f10x_usart.c ****   *     @arg USART_IT_TC:   Transmission complete interrupt
 948:stm32f10x_lib/STM32F10x_StdPeriph_Driver/src/stm32f10x_usart.c ****   *     @arg USART_IT_RXNE: Receive Data register not empty interrupt
 949:stm32f10x_lib/STM32F10x_StdPeriph_Driver/src/stm32f10x_usart.c ****   *     @arg USART_IT_IDLE: Idle line detection interrupt
 950:stm32f10x_lib/STM32F10x_StdPeriph_Driver/src/stm32f10x_usart.c ****   *     @arg USART_IT_ORE:  OverRun Error interrupt
 951:stm32f10x_lib/STM32F10x_StdPeriph_Driver/src/stm32f10x_usart.c ****   *     @arg USART_IT_NE:   Noise Error interrupt
 952:stm32f10x_lib/STM32F10x_StdPeriph_Driver/src/stm32f10x_usart.c ****   *     @arg USART_IT_FE:   Framing Error interrupt
 953:stm32f10x_lib/STM32F10x_StdPeriph_Driver/src/stm32f10x_usart.c ****   *     @arg USART_IT_PE:   Parity Error interrupt
 954:stm32f10x_lib/STM32F10x_StdPeriph_Driver/src/stm32f10x_usart.c ****   * @retval The new state of USART_IT (SET or RESET).
 955:stm32f10x_lib/STM32F10x_StdPeriph_Driver/src/stm32f10x_usart.c ****   */
 956:stm32f10x_lib/STM32F10x_StdPeriph_Driver/src/stm32f10x_usart.c **** ITStatus USART_GetITStatus(USART_TypeDef* USARTx, uint16_t USART_IT)
 957:stm32f10x_lib/STM32F10x_StdPeriph_Driver/src/stm32f10x_usart.c **** {
 1570              		.loc 1 957 1 is_stmt 1 view -0
 1571              		.cfi_startproc
 1572              		@ args = 0, pretend = 0, frame = 0
 1573              		@ frame_needed = 0, uses_anonymous_args = 0
 958:stm32f10x_lib/STM32F10x_StdPeriph_Driver/src/stm32f10x_usart.c ****   uint32_t bitpos = 0x00, itmask = 0x00, usartreg = 0x00;
 1574              		.loc 1 958 3 view .LVU405
ARM GAS  C:\Users\ADMINI~1\AppData\Local\Temp\cc5w2WuM.s 			page 47


 959:stm32f10x_lib/STM32F10x_StdPeriph_Driver/src/stm32f10x_usart.c ****   ITStatus bitstatus = RESET;
 1575              		.loc 1 959 3 view .LVU406
 960:stm32f10x_lib/STM32F10x_StdPeriph_Driver/src/stm32f10x_usart.c ****   /* Check the parameters */
 961:stm32f10x_lib/STM32F10x_StdPeriph_Driver/src/stm32f10x_usart.c ****   assert_param(IS_USART_ALL_PERIPH(USARTx));
 1576              		.loc 1 961 3 view .LVU407
 962:stm32f10x_lib/STM32F10x_StdPeriph_Driver/src/stm32f10x_usart.c ****   assert_param(IS_USART_GET_IT(USART_IT));
 1577              		.loc 1 962 3 view .LVU408
 963:stm32f10x_lib/STM32F10x_StdPeriph_Driver/src/stm32f10x_usart.c ****   /* The CTS interrupt is not available for UART4 and UART5 */ 
 964:stm32f10x_lib/STM32F10x_StdPeriph_Driver/src/stm32f10x_usart.c ****   if (USART_IT == USART_IT_CTS)
 1578              		.loc 1 964 3 view .LVU409
 965:stm32f10x_lib/STM32F10x_StdPeriph_Driver/src/stm32f10x_usart.c ****   {
 966:stm32f10x_lib/STM32F10x_StdPeriph_Driver/src/stm32f10x_usart.c ****     assert_param(IS_USART_123_PERIPH(USARTx));
 1579              		.loc 1 966 5 view .LVU410
 967:stm32f10x_lib/STM32F10x_StdPeriph_Driver/src/stm32f10x_usart.c ****   }   
 968:stm32f10x_lib/STM32F10x_StdPeriph_Driver/src/stm32f10x_usart.c ****   
 969:stm32f10x_lib/STM32F10x_StdPeriph_Driver/src/stm32f10x_usart.c ****   /* Get the USART register index */
 970:stm32f10x_lib/STM32F10x_StdPeriph_Driver/src/stm32f10x_usart.c ****   usartreg = (((uint8_t)USART_IT) >> 0x05);
 1580              		.loc 1 970 3 view .LVU411
 1581              	@ stm32f10x_lib/STM32F10x_StdPeriph_Driver/src/stm32f10x_usart.c:973:   itmask = (uint32_t)0x01 << 
 971:stm32f10x_lib/STM32F10x_StdPeriph_Driver/src/stm32f10x_usart.c ****   /* Get the interrupt position */
 972:stm32f10x_lib/STM32F10x_StdPeriph_Driver/src/stm32f10x_usart.c ****   itmask = USART_IT & IT_Mask;
 973:stm32f10x_lib/STM32F10x_StdPeriph_Driver/src/stm32f10x_usart.c ****   itmask = (uint32_t)0x01 << itmask;
 1582              		.loc 1 973 10 is_stmt 0 view .LVU412
 1583 0346 0123     		movs	r3, #1	@ tmp138,
 1584              	@ stm32f10x_lib/STM32F10x_StdPeriph_Driver/src/stm32f10x_usart.c:957: {
 957:stm32f10x_lib/STM32F10x_StdPeriph_Driver/src/stm32f10x_usart.c ****   uint32_t bitpos = 0x00, itmask = 0x00, usartreg = 0x00;
 1585              		.loc 1 957 1 view .LVU413
 1586 0348 10B5     		push	{r4, lr}	@
 1587              	.LCFI10:
 1588              		.cfi_def_cfa_offset 8
 1589              		.cfi_offset 4, -8
 1590              		.cfi_offset 14, -4
 1591              	@ stm32f10x_lib/STM32F10x_StdPeriph_Driver/src/stm32f10x_usart.c:970:   usartreg = (((uint8_t)USART
 970:stm32f10x_lib/STM32F10x_StdPeriph_Driver/src/stm32f10x_usart.c ****   /* Get the interrupt position */
 1592              		.loc 1 970 35 view .LVU414
 1593 034a C1F34214 		ubfx	r4, r1, #5, #3	@ _2, USART_IT,,
 1594              	.LVL89:
 972:stm32f10x_lib/STM32F10x_StdPeriph_Driver/src/stm32f10x_usart.c ****   itmask = (uint32_t)0x01 << itmask;
 1595              		.loc 1 972 3 is_stmt 1 view .LVU415
 1596              	@ stm32f10x_lib/STM32F10x_StdPeriph_Driver/src/stm32f10x_usart.c:957: {
 957:stm32f10x_lib/STM32F10x_StdPeriph_Driver/src/stm32f10x_usart.c ****   uint32_t bitpos = 0x00, itmask = 0x00, usartreg = 0x00;
 1597              		.loc 1 957 1 is_stmt 0 view .LVU416
 1598 034e 0246     		mov	r2, r0	@ USARTx, tmp152
 1599              	@ stm32f10x_lib/STM32F10x_StdPeriph_Driver/src/stm32f10x_usart.c:975:   if (usartreg == 0x01) /* Th
 974:stm32f10x_lib/STM32F10x_StdPeriph_Driver/src/stm32f10x_usart.c ****   
 975:stm32f10x_lib/STM32F10x_StdPeriph_Driver/src/stm32f10x_usart.c ****   if (usartreg == 0x01) /* The IT  is in CR1 register */
 1600              		.loc 1 975 6 view .LVU417
 1601 0350 9C42     		cmp	r4, r3	@ _2,
 1602              	@ stm32f10x_lib/STM32F10x_StdPeriph_Driver/src/stm32f10x_usart.c:972:   itmask = USART_IT & IT_Mask
 972:stm32f10x_lib/STM32F10x_StdPeriph_Driver/src/stm32f10x_usart.c ****   itmask = (uint32_t)0x01 << itmask;
 1603              		.loc 1 972 10 view .LVU418
 1604 0352 01F01F00 		and	r0, r1, #31	@ itmask, USART_IT,
 1605              	.LVL90:
 973:stm32f10x_lib/STM32F10x_StdPeriph_Driver/src/stm32f10x_usart.c ****   
 1606              		.loc 1 973 3 is_stmt 1 view .LVU419
 1607              	@ stm32f10x_lib/STM32F10x_StdPeriph_Driver/src/stm32f10x_usart.c:973:   itmask = (uint32_t)0x01 << 
 973:stm32f10x_lib/STM32F10x_StdPeriph_Driver/src/stm32f10x_usart.c ****   
ARM GAS  C:\Users\ADMINI~1\AppData\Local\Temp\cc5w2WuM.s 			page 48


 1608              		.loc 1 973 10 is_stmt 0 view .LVU420
 1609 0356 03FA00F0 		lsl	r0, r3, r0	@ itmask, tmp138, itmask
 1610              	.LVL91:
 1611              		.loc 1 975 3 is_stmt 1 view .LVU421
 1612              	@ stm32f10x_lib/STM32F10x_StdPeriph_Driver/src/stm32f10x_usart.c:975:   if (usartreg == 0x01) /* Th
 1613              		.loc 1 975 6 is_stmt 0 view .LVU422
 1614 035a 0ED1     		bne	.L82		@,
 976:stm32f10x_lib/STM32F10x_StdPeriph_Driver/src/stm32f10x_usart.c ****   {
 977:stm32f10x_lib/STM32F10x_StdPeriph_Driver/src/stm32f10x_usart.c ****     itmask &= USARTx->CR1;
 1615              		.loc 1 977 5 is_stmt 1 view .LVU423
 1616              	@ stm32f10x_lib/STM32F10x_StdPeriph_Driver/src/stm32f10x_usart.c:977:     itmask &= USARTx->CR1;
 1617              		.loc 1 977 21 is_stmt 0 view .LVU424
 1618 035c 9389     		ldrh	r3, [r2, #12]	@, USARTx_16(D)->CR1
 1619              	.L87:
 1620              	@ stm32f10x_lib/STM32F10x_StdPeriph_Driver/src/stm32f10x_usart.c:990:   bitpos &= USARTx->SR;
 978:stm32f10x_lib/STM32F10x_StdPeriph_Driver/src/stm32f10x_usart.c ****   }
 979:stm32f10x_lib/STM32F10x_StdPeriph_Driver/src/stm32f10x_usart.c ****   else if (usartreg == 0x02) /* The IT  is in CR2 register */
 980:stm32f10x_lib/STM32F10x_StdPeriph_Driver/src/stm32f10x_usart.c ****   {
 981:stm32f10x_lib/STM32F10x_StdPeriph_Driver/src/stm32f10x_usart.c ****     itmask &= USARTx->CR2;
 982:stm32f10x_lib/STM32F10x_StdPeriph_Driver/src/stm32f10x_usart.c ****   }
 983:stm32f10x_lib/STM32F10x_StdPeriph_Driver/src/stm32f10x_usart.c ****   else /* The IT  is in CR3 register */
 984:stm32f10x_lib/STM32F10x_StdPeriph_Driver/src/stm32f10x_usart.c ****   {
 985:stm32f10x_lib/STM32F10x_StdPeriph_Driver/src/stm32f10x_usart.c ****     itmask &= USARTx->CR3;
 986:stm32f10x_lib/STM32F10x_StdPeriph_Driver/src/stm32f10x_usart.c ****   }
 987:stm32f10x_lib/STM32F10x_StdPeriph_Driver/src/stm32f10x_usart.c ****   
 988:stm32f10x_lib/STM32F10x_StdPeriph_Driver/src/stm32f10x_usart.c ****   bitpos = USART_IT >> 0x08;
 989:stm32f10x_lib/STM32F10x_StdPeriph_Driver/src/stm32f10x_usart.c ****   bitpos = (uint32_t)0x01 << bitpos;
 990:stm32f10x_lib/STM32F10x_StdPeriph_Driver/src/stm32f10x_usart.c ****   bitpos &= USARTx->SR;
 1621              		.loc 1 990 19 view .LVU425
 1622 035e 1288     		ldrh	r2, [r2]	@, USARTx_16(D)->SR
 1623              	.LVL92:
 1624              	@ stm32f10x_lib/STM32F10x_StdPeriph_Driver/src/stm32f10x_usart.c:985:     itmask &= USARTx->CR3;
 985:stm32f10x_lib/STM32F10x_StdPeriph_Driver/src/stm32f10x_usart.c ****   }
 1625              		.loc 1 985 21 view .LVU426
 1626 0360 9BB2     		uxth	r3, r3	@ _17, USARTx_16(D)->CR3
 1627              	@ stm32f10x_lib/STM32F10x_StdPeriph_Driver/src/stm32f10x_usart.c:985:     itmask &= USARTx->CR3;
 985:stm32f10x_lib/STM32F10x_StdPeriph_Driver/src/stm32f10x_usart.c ****   }
 1628              		.loc 1 985 12 view .LVU427
 1629 0362 1840     		ands	r0, r0, r3	@, itmask, itmask, _17
 1630              	.LVL93:
 988:stm32f10x_lib/STM32F10x_StdPeriph_Driver/src/stm32f10x_usart.c ****   bitpos = (uint32_t)0x01 << bitpos;
 1631              		.loc 1 988 3 is_stmt 1 view .LVU428
 989:stm32f10x_lib/STM32F10x_StdPeriph_Driver/src/stm32f10x_usart.c ****   bitpos &= USARTx->SR;
 1632              		.loc 1 989 3 view .LVU429
 1633              		.loc 1 990 3 view .LVU430
 1634              	@ stm32f10x_lib/STM32F10x_StdPeriph_Driver/src/stm32f10x_usart.c:990:   bitpos &= USARTx->SR;
 1635              		.loc 1 990 19 is_stmt 0 view .LVU431
 1636 0364 92B2     		uxth	r2, r2	@ _25, USARTx_16(D)->SR
 1637              	.LVL94:
 991:stm32f10x_lib/STM32F10x_StdPeriph_Driver/src/stm32f10x_usart.c ****   if ((itmask != (uint16_t)RESET)&&(bitpos != (uint16_t)RESET))
 1638              		.loc 1 991 3 is_stmt 1 view .LVU432
 1639              	@ stm32f10x_lib/STM32F10x_StdPeriph_Driver/src/stm32f10x_usart.c:991:   if ((itmask != (uint16_t)RE
 1640              		.loc 1 991 6 is_stmt 0 view .LVU433
 1641 0366 38B1     		cbz	r0, .L85	@ itmask,
 1642              	@ stm32f10x_lib/STM32F10x_StdPeriph_Driver/src/stm32f10x_usart.c:989:   bitpos = (uint32_t)0x01 << 
 989:stm32f10x_lib/STM32F10x_StdPeriph_Driver/src/stm32f10x_usart.c ****   bitpos &= USARTx->SR;
 1643              		.loc 1 989 10 discriminator 1 view .LVU434
ARM GAS  C:\Users\ADMINI~1\AppData\Local\Temp\cc5w2WuM.s 			page 49


 1644 0368 0123     		movs	r3, #1	@ tmp147,
 1645              	@ stm32f10x_lib/STM32F10x_StdPeriph_Driver/src/stm32f10x_usart.c:988:   bitpos = USART_IT >> 0x08;
 988:stm32f10x_lib/STM32F10x_StdPeriph_Driver/src/stm32f10x_usart.c ****   bitpos = (uint32_t)0x01 << bitpos;
 1646              		.loc 1 988 10 discriminator 1 view .LVU435
 1647 036a 090A     		lsrs	r1, r1, #8	@ bitpos, USART_IT,
 1648              	.LVL95:
 1649              	@ stm32f10x_lib/STM32F10x_StdPeriph_Driver/src/stm32f10x_usart.c:989:   bitpos = (uint32_t)0x01 << 
 989:stm32f10x_lib/STM32F10x_StdPeriph_Driver/src/stm32f10x_usart.c ****   bitpos &= USARTx->SR;
 1650              		.loc 1 989 10 discriminator 1 view .LVU436
 1651 036c 03FA01F1 		lsl	r1, r3, r1	@ bitpos, tmp147, bitpos
 1652              	@ stm32f10x_lib/STM32F10x_StdPeriph_Driver/src/stm32f10x_usart.c:991:   if ((itmask != (uint16_t)RE
 1653              		.loc 1 991 34 discriminator 1 view .LVU437
 1654 0370 0A42     		tst	r2, r1	@ _25, bitpos
 1655              	@ stm32f10x_lib/STM32F10x_StdPeriph_Driver/src/stm32f10x_usart.c:997:     bitstatus = RESET;
 992:stm32f10x_lib/STM32F10x_StdPeriph_Driver/src/stm32f10x_usart.c ****   {
 993:stm32f10x_lib/STM32F10x_StdPeriph_Driver/src/stm32f10x_usart.c ****     bitstatus = SET;
 994:stm32f10x_lib/STM32F10x_StdPeriph_Driver/src/stm32f10x_usart.c ****   }
 995:stm32f10x_lib/STM32F10x_StdPeriph_Driver/src/stm32f10x_usart.c ****   else
 996:stm32f10x_lib/STM32F10x_StdPeriph_Driver/src/stm32f10x_usart.c ****   {
 997:stm32f10x_lib/STM32F10x_StdPeriph_Driver/src/stm32f10x_usart.c ****     bitstatus = RESET;
 1656              		.loc 1 997 15 discriminator 1 view .LVU438
 1657 0372 14BF     		ite	ne
 1658 0374 1846     		movne	r0, r3	@ <retval>,
 1659              	.LVL96:
 1660              		.loc 1 997 15 discriminator 1 view .LVU439
 1661 0376 0020     		moveq	r0, #0	@ <retval>,
 1662              	.L85:
 1663              	.LVL97:
 998:stm32f10x_lib/STM32F10x_StdPeriph_Driver/src/stm32f10x_usart.c ****   }
 999:stm32f10x_lib/STM32F10x_StdPeriph_Driver/src/stm32f10x_usart.c ****   
1000:stm32f10x_lib/STM32F10x_StdPeriph_Driver/src/stm32f10x_usart.c ****   return bitstatus;  
 1664              		.loc 1 1000 3 is_stmt 1 view .LVU440
 1665              	@ stm32f10x_lib/STM32F10x_StdPeriph_Driver/src/stm32f10x_usart.c:1001: }
1001:stm32f10x_lib/STM32F10x_StdPeriph_Driver/src/stm32f10x_usart.c **** }
 1666              		.loc 1 1001 1 is_stmt 0 view .LVU441
 1667 0378 10BD     		pop	{r4, pc}	@
 1668              	.LVL98:
 1669              	.L82:
 979:stm32f10x_lib/STM32F10x_StdPeriph_Driver/src/stm32f10x_usart.c ****   {
 1670              		.loc 1 979 8 is_stmt 1 view .LVU442
 1671              	@ stm32f10x_lib/STM32F10x_StdPeriph_Driver/src/stm32f10x_usart.c:979:   else if (usartreg == 0x02) 
 979:stm32f10x_lib/STM32F10x_StdPeriph_Driver/src/stm32f10x_usart.c ****   {
 1672              		.loc 1 979 11 is_stmt 0 view .LVU443
 1673 037a 022C     		cmp	r4, #2	@ _2,
 981:stm32f10x_lib/STM32F10x_StdPeriph_Driver/src/stm32f10x_usart.c ****   }
 1674              		.loc 1 981 5 is_stmt 1 view .LVU444
 1675              	@ stm32f10x_lib/STM32F10x_StdPeriph_Driver/src/stm32f10x_usart.c:981:     itmask &= USARTx->CR2;
 981:stm32f10x_lib/STM32F10x_StdPeriph_Driver/src/stm32f10x_usart.c ****   }
 1676              		.loc 1 981 21 is_stmt 0 view .LVU445
 1677 037c 0CBF     		ite	eq
 1678 037e 138A     		ldrheq	r3, [r2, #16]	@, USARTx_16(D)->CR2
 985:stm32f10x_lib/STM32F10x_StdPeriph_Driver/src/stm32f10x_usart.c ****   }
 1679              		.loc 1 985 5 is_stmt 1 view .LVU446
 1680              	@ stm32f10x_lib/STM32F10x_StdPeriph_Driver/src/stm32f10x_usart.c:985:     itmask &= USARTx->CR3;
 985:stm32f10x_lib/STM32F10x_StdPeriph_Driver/src/stm32f10x_usart.c ****   }
 1681              		.loc 1 985 21 is_stmt 0 view .LVU447
 1682 0380 938A     		ldrhne	r3, [r2, #20]	@, USARTx_16(D)->CR3
ARM GAS  C:\Users\ADMINI~1\AppData\Local\Temp\cc5w2WuM.s 			page 50


 1683 0382 ECE7     		b	.L87		@
 1684              		.cfi_endproc
 1685              	.LFE56:
 1686              		.size	USART_GetITStatus, .-USART_GetITStatus
 1687              		.align	1
 1688              		.global	USART_ClearITPendingBit
 1689              		.syntax unified
 1690              		.thumb
 1691              		.thumb_func
 1692              		.type	USART_ClearITPendingBit, %function
 1693              	USART_ClearITPendingBit:
 1694              	.LVL99:
 1695              	.LFB57:
1002:stm32f10x_lib/STM32F10x_StdPeriph_Driver/src/stm32f10x_usart.c **** 
1003:stm32f10x_lib/STM32F10x_StdPeriph_Driver/src/stm32f10x_usart.c **** /**
1004:stm32f10x_lib/STM32F10x_StdPeriph_Driver/src/stm32f10x_usart.c ****   * @brief  Clears the USARTx's interrupt pending bits.
1005:stm32f10x_lib/STM32F10x_StdPeriph_Driver/src/stm32f10x_usart.c ****   * @param  USARTx: Select the USART or the UART peripheral. 
1006:stm32f10x_lib/STM32F10x_StdPeriph_Driver/src/stm32f10x_usart.c ****   *   This parameter can be one of the following values:
1007:stm32f10x_lib/STM32F10x_StdPeriph_Driver/src/stm32f10x_usart.c ****   *   USART1, USART2, USART3, UART4 or UART5.
1008:stm32f10x_lib/STM32F10x_StdPeriph_Driver/src/stm32f10x_usart.c ****   * @param  USART_IT: specifies the interrupt pending bit to clear.
1009:stm32f10x_lib/STM32F10x_StdPeriph_Driver/src/stm32f10x_usart.c ****   *   This parameter can be one of the following values:
1010:stm32f10x_lib/STM32F10x_StdPeriph_Driver/src/stm32f10x_usart.c ****   *     @arg USART_IT_CTS:  CTS change interrupt (not available for UART4 and UART5)
1011:stm32f10x_lib/STM32F10x_StdPeriph_Driver/src/stm32f10x_usart.c ****   *     @arg USART_IT_LBD:  LIN Break detection interrupt
1012:stm32f10x_lib/STM32F10x_StdPeriph_Driver/src/stm32f10x_usart.c ****   *     @arg USART_IT_TC:   Transmission complete interrupt. 
1013:stm32f10x_lib/STM32F10x_StdPeriph_Driver/src/stm32f10x_usart.c ****   *     @arg USART_IT_RXNE: Receive Data register not empty interrupt.
1014:stm32f10x_lib/STM32F10x_StdPeriph_Driver/src/stm32f10x_usart.c ****   *   
1015:stm32f10x_lib/STM32F10x_StdPeriph_Driver/src/stm32f10x_usart.c ****   * @note
1016:stm32f10x_lib/STM32F10x_StdPeriph_Driver/src/stm32f10x_usart.c ****   *   - PE (Parity error), FE (Framing error), NE (Noise error), ORE (OverRun 
1017:stm32f10x_lib/STM32F10x_StdPeriph_Driver/src/stm32f10x_usart.c ****   *     error) and IDLE (Idle line detected) pending bits are cleared by 
1018:stm32f10x_lib/STM32F10x_StdPeriph_Driver/src/stm32f10x_usart.c ****   *     software sequence: a read operation to USART_SR register 
1019:stm32f10x_lib/STM32F10x_StdPeriph_Driver/src/stm32f10x_usart.c ****   *     (USART_GetITStatus()) followed by a read operation to USART_DR register 
1020:stm32f10x_lib/STM32F10x_StdPeriph_Driver/src/stm32f10x_usart.c ****   *     (USART_ReceiveData()).
1021:stm32f10x_lib/STM32F10x_StdPeriph_Driver/src/stm32f10x_usart.c ****   *   - RXNE pending bit can be also cleared by a read to the USART_DR register 
1022:stm32f10x_lib/STM32F10x_StdPeriph_Driver/src/stm32f10x_usart.c ****   *     (USART_ReceiveData()).
1023:stm32f10x_lib/STM32F10x_StdPeriph_Driver/src/stm32f10x_usart.c ****   *   - TC pending bit can be also cleared by software sequence: a read 
1024:stm32f10x_lib/STM32F10x_StdPeriph_Driver/src/stm32f10x_usart.c ****   *     operation to USART_SR register (USART_GetITStatus()) followed by a write 
1025:stm32f10x_lib/STM32F10x_StdPeriph_Driver/src/stm32f10x_usart.c ****   *     operation to USART_DR register (USART_SendData()).
1026:stm32f10x_lib/STM32F10x_StdPeriph_Driver/src/stm32f10x_usart.c ****   *   - TXE pending bit is cleared only by a write to the USART_DR register 
1027:stm32f10x_lib/STM32F10x_StdPeriph_Driver/src/stm32f10x_usart.c ****   *     (USART_SendData()).
1028:stm32f10x_lib/STM32F10x_StdPeriph_Driver/src/stm32f10x_usart.c ****   * @retval None
1029:stm32f10x_lib/STM32F10x_StdPeriph_Driver/src/stm32f10x_usart.c ****   */
1030:stm32f10x_lib/STM32F10x_StdPeriph_Driver/src/stm32f10x_usart.c **** void USART_ClearITPendingBit(USART_TypeDef* USARTx, uint16_t USART_IT)
1031:stm32f10x_lib/STM32F10x_StdPeriph_Driver/src/stm32f10x_usart.c **** {
 1696              		.loc 1 1031 1 is_stmt 1 view -0
 1697              		.cfi_startproc
 1698              		@ args = 0, pretend = 0, frame = 0
 1699              		@ frame_needed = 0, uses_anonymous_args = 0
 1700              		@ link register save eliminated.
1032:stm32f10x_lib/STM32F10x_StdPeriph_Driver/src/stm32f10x_usart.c ****   uint16_t bitpos = 0x00, itmask = 0x00;
 1701              		.loc 1 1032 3 view .LVU449
1033:stm32f10x_lib/STM32F10x_StdPeriph_Driver/src/stm32f10x_usart.c ****   /* Check the parameters */
1034:stm32f10x_lib/STM32F10x_StdPeriph_Driver/src/stm32f10x_usart.c ****   assert_param(IS_USART_ALL_PERIPH(USARTx));
 1702              		.loc 1 1034 3 view .LVU450
1035:stm32f10x_lib/STM32F10x_StdPeriph_Driver/src/stm32f10x_usart.c ****   assert_param(IS_USART_CLEAR_IT(USART_IT));
 1703              		.loc 1 1035 3 view .LVU451
1036:stm32f10x_lib/STM32F10x_StdPeriph_Driver/src/stm32f10x_usart.c ****   /* The CTS interrupt is not available for UART4 and UART5 */
1037:stm32f10x_lib/STM32F10x_StdPeriph_Driver/src/stm32f10x_usart.c ****   if (USART_IT == USART_IT_CTS)
ARM GAS  C:\Users\ADMINI~1\AppData\Local\Temp\cc5w2WuM.s 			page 51


 1704              		.loc 1 1037 3 view .LVU452
1038:stm32f10x_lib/STM32F10x_StdPeriph_Driver/src/stm32f10x_usart.c ****   {
1039:stm32f10x_lib/STM32F10x_StdPeriph_Driver/src/stm32f10x_usart.c ****     assert_param(IS_USART_123_PERIPH(USARTx));
 1705              		.loc 1 1039 5 view .LVU453
1040:stm32f10x_lib/STM32F10x_StdPeriph_Driver/src/stm32f10x_usart.c ****   }   
1041:stm32f10x_lib/STM32F10x_StdPeriph_Driver/src/stm32f10x_usart.c ****   
1042:stm32f10x_lib/STM32F10x_StdPeriph_Driver/src/stm32f10x_usart.c ****   bitpos = USART_IT >> 0x08;
 1706              		.loc 1 1042 3 view .LVU454
1043:stm32f10x_lib/STM32F10x_StdPeriph_Driver/src/stm32f10x_usart.c ****   itmask = ((uint16_t)0x01 << (uint16_t)bitpos);
 1707              		.loc 1 1043 3 view .LVU455
1044:stm32f10x_lib/STM32F10x_StdPeriph_Driver/src/stm32f10x_usart.c ****   USARTx->SR = (uint16_t)~itmask;
 1708              		.loc 1 1044 3 view .LVU456
 1709              	@ stm32f10x_lib/STM32F10x_StdPeriph_Driver/src/stm32f10x_usart.c:1043:   itmask = ((uint16_t)0x01 <
1043:stm32f10x_lib/STM32F10x_StdPeriph_Driver/src/stm32f10x_usart.c ****   itmask = ((uint16_t)0x01 << (uint16_t)bitpos);
 1710              		.loc 1 1043 28 is_stmt 0 view .LVU457
 1711 0384 0123     		movs	r3, #1	@ tmp123,
 1712              	@ stm32f10x_lib/STM32F10x_StdPeriph_Driver/src/stm32f10x_usart.c:1043:   itmask = ((uint16_t)0x01 <
1043:stm32f10x_lib/STM32F10x_StdPeriph_Driver/src/stm32f10x_usart.c ****   itmask = ((uint16_t)0x01 << (uint16_t)bitpos);
 1713              		.loc 1 1043 31 view .LVU458
 1714 0386 090A     		lsrs	r1, r1, #8	@ tmp121, tmp128,
 1715              	.LVL100:
 1716              	@ stm32f10x_lib/STM32F10x_StdPeriph_Driver/src/stm32f10x_usart.c:1043:   itmask = ((uint16_t)0x01 <
1043:stm32f10x_lib/STM32F10x_StdPeriph_Driver/src/stm32f10x_usart.c ****   itmask = ((uint16_t)0x01 << (uint16_t)bitpos);
 1717              		.loc 1 1043 28 view .LVU459
 1718 0388 8B40     		lsls	r3, r3, r1	@ tmp122, tmp123, tmp121
 1719              	@ stm32f10x_lib/STM32F10x_StdPeriph_Driver/src/stm32f10x_usart.c:1044:   USARTx->SR = (uint16_t)~it
 1720              		.loc 1 1044 16 view .LVU460
 1721 038a DB43     		mvns	r3, r3	@ tmp125, tmp122
 1722 038c 9BB2     		uxth	r3, r3	@ _3, tmp125
 1723              	@ stm32f10x_lib/STM32F10x_StdPeriph_Driver/src/stm32f10x_usart.c:1044:   USARTx->SR = (uint16_t)~it
 1724              		.loc 1 1044 14 view .LVU461
 1725 038e 0380     		strh	r3, [r0]	@ movhi	@ _3, USARTx_8(D)->SR
 1726              	@ stm32f10x_lib/STM32F10x_StdPeriph_Driver/src/stm32f10x_usart.c:1045: }
1045:stm32f10x_lib/STM32F10x_StdPeriph_Driver/src/stm32f10x_usart.c **** }
 1727              		.loc 1 1045 1 view .LVU462
 1728 0390 7047     		bx	lr	@
 1729              		.cfi_endproc
 1730              	.LFE57:
 1731              		.size	USART_ClearITPendingBit, .-USART_ClearITPendingBit
 1732              	.Letext0:
 1733              		.file 2 "c:\\program files (x86)\\gnu arm embedded toolchain\\10 2021.10\\arm-none-eabi\\include\\
 1734              		.file 3 "c:\\program files (x86)\\gnu arm embedded toolchain\\10 2021.10\\arm-none-eabi\\include\\
 1735              		.file 4 "./stm32f10x_lib/CMSIS/CM3/DeviceSupport/ST/STM32F10x/stm32f10x.h"
 1736              		.file 5 "./stm32f10x_lib/STM32F10x_StdPeriph_Driver/inc/stm32f10x_rcc.h"
 1737              		.file 6 "./stm32f10x_lib/STM32F10x_StdPeriph_Driver/inc/stm32f10x_usart.h"
 1738 0392 00BF     		.section	.debug_info,"",%progbits
 1739              	.Ldebug_info0:
 1740 0000 600C0000 		.4byte	0xc60
 1741 0004 0200     		.2byte	0x2
 1742 0006 00000000 		.4byte	.Ldebug_abbrev0
 1743 000a 04       		.byte	0x4
 1744 000b 01       		.uleb128 0x1
 1745 000c 28000000 		.4byte	.LASF104
 1746 0010 0C       		.byte	0xc
 1747 0011 EA000000 		.4byte	.LASF105
 1748 0015 B1010000 		.4byte	.LASF106
 1749 0019 00000000 		.4byte	.Ltext0
ARM GAS  C:\Users\ADMINI~1\AppData\Local\Temp\cc5w2WuM.s 			page 52


 1750 001d 92030000 		.4byte	.Letext0
 1751 0021 00000000 		.4byte	.Ldebug_line0
 1752 0025 02       		.uleb128 0x2
 1753 0026 04       		.byte	0x4
 1754 0027 07       		.byte	0x7
 1755 0028 06040000 		.4byte	.LASF0
 1756 002c 02       		.uleb128 0x2
 1757 002d 01       		.byte	0x1
 1758 002e 06       		.byte	0x6
 1759 002f 69020000 		.4byte	.LASF1
 1760 0033 03       		.uleb128 0x3
 1761 0034 2A030000 		.4byte	.LASF4
 1762 0038 02       		.byte	0x2
 1763 0039 2B       		.byte	0x2b
 1764 003a 18       		.byte	0x18
 1765 003b 3F000000 		.4byte	0x3f
 1766 003f 02       		.uleb128 0x2
 1767 0040 01       		.byte	0x1
 1768 0041 08       		.byte	0x8
 1769 0042 91030000 		.4byte	.LASF2
 1770 0046 02       		.uleb128 0x2
 1771 0047 02       		.byte	0x2
 1772 0048 05       		.byte	0x5
 1773 0049 A7010000 		.4byte	.LASF3
 1774 004d 03       		.uleb128 0x3
 1775 004e 7F010000 		.4byte	.LASF5
 1776 0052 02       		.byte	0x2
 1777 0053 39       		.byte	0x39
 1778 0054 19       		.byte	0x19
 1779 0055 59000000 		.4byte	0x59
 1780 0059 02       		.uleb128 0x2
 1781 005a 02       		.byte	0x2
 1782 005b 07       		.byte	0x7
 1783 005c 00050000 		.4byte	.LASF6
 1784 0060 02       		.uleb128 0x2
 1785 0061 04       		.byte	0x4
 1786 0062 05       		.byte	0x5
 1787 0063 D8020000 		.4byte	.LASF7
 1788 0067 03       		.uleb128 0x3
 1789 0068 F2050000 		.4byte	.LASF8
 1790 006c 02       		.byte	0x2
 1791 006d 4F       		.byte	0x4f
 1792 006e 19       		.byte	0x19
 1793 006f 73000000 		.4byte	0x73
 1794 0073 02       		.uleb128 0x2
 1795 0074 04       		.byte	0x4
 1796 0075 07       		.byte	0x7
 1797 0076 1C040000 		.4byte	.LASF9
 1798 007a 02       		.uleb128 0x2
 1799 007b 08       		.byte	0x8
 1800 007c 05       		.byte	0x5
 1801 007d AA020000 		.4byte	.LASF10
 1802 0081 02       		.uleb128 0x2
 1803 0082 08       		.byte	0x8
 1804 0083 07       		.byte	0x7
 1805 0084 CB030000 		.4byte	.LASF11
 1806 0088 04       		.uleb128 0x4
ARM GAS  C:\Users\ADMINI~1\AppData\Local\Temp\cc5w2WuM.s 			page 53


 1807 0089 04       		.byte	0x4
 1808 008a 05       		.byte	0x5
 1809 008b 696E7400 		.ascii	"int\000"
 1810 008f 03       		.uleb128 0x3
 1811 0090 1C020000 		.4byte	.LASF12
 1812 0094 03       		.byte	0x3
 1813 0095 18       		.byte	0x18
 1814 0096 13       		.byte	0x13
 1815 0097 33000000 		.4byte	0x33
 1816 009b 03       		.uleb128 0x3
 1817 009c 13040000 		.4byte	.LASF13
 1818 00a0 03       		.byte	0x3
 1819 00a1 24       		.byte	0x24
 1820 00a2 14       		.byte	0x14
 1821 00a3 4D000000 		.4byte	0x4d
 1822 00a7 05       		.uleb128 0x5
 1823 00a8 9B000000 		.4byte	0x9b
 1824 00ac 03       		.uleb128 0x3
 1825 00ad 0F000000 		.4byte	.LASF14
 1826 00b1 03       		.byte	0x3
 1827 00b2 30       		.byte	0x30
 1828 00b3 14       		.byte	0x14
 1829 00b4 67000000 		.4byte	0x67
 1830 00b8 06       		.uleb128 0x6
 1831 00b9 75313600 		.ascii	"u16\000"
 1832 00bd 04       		.byte	0x4
 1833 00be F801     		.2byte	0x1f8
 1834 00c0 12       		.byte	0x12
 1835 00c1 9B000000 		.4byte	0x9b
 1836 00c5 07       		.uleb128 0x7
 1837 00c6 07       		.byte	0x7
 1838 00c7 01       		.byte	0x1
 1839 00c8 3F000000 		.4byte	0x3f
 1840 00cc 04       		.byte	0x4
 1841 00cd 0702     		.2byte	0x207
 1842 00cf 0E       		.byte	0xe
 1843 00d0 E1000000 		.4byte	0xe1
 1844 00d4 08       		.uleb128 0x8
 1845 00d5 43050000 		.4byte	.LASF15
 1846 00d9 00       		.byte	0
 1847 00da 09       		.uleb128 0x9
 1848 00db 53455400 		.ascii	"SET\000"
 1849 00df 01       		.byte	0x1
 1850 00e0 00       		.byte	0
 1851 00e1 0A       		.uleb128 0xa
 1852 00e2 74010000 		.4byte	.LASF16
 1853 00e6 04       		.byte	0x4
 1854 00e7 0702     		.2byte	0x207
 1855 00e9 28       		.byte	0x28
 1856 00ea C5000000 		.4byte	0xc5
 1857 00ee 0A       		.uleb128 0xa
 1858 00ef CF020000 		.4byte	.LASF17
 1859 00f3 04       		.byte	0x4
 1860 00f4 0702     		.2byte	0x207
 1861 00f6 34       		.byte	0x34
 1862 00f7 C5000000 		.4byte	0xc5
 1863 00fb 07       		.uleb128 0x7
ARM GAS  C:\Users\ADMINI~1\AppData\Local\Temp\cc5w2WuM.s 			page 54


 1864 00fc 07       		.byte	0x7
 1865 00fd 01       		.byte	0x1
 1866 00fe 3F000000 		.4byte	0x3f
 1867 0102 04       		.byte	0x4
 1868 0103 0902     		.2byte	0x209
 1869 0105 0E       		.byte	0xe
 1870 0106 17010000 		.4byte	0x117
 1871 010a 08       		.uleb128 0x8
 1872 010b 61020000 		.4byte	.LASF18
 1873 010f 00       		.byte	0
 1874 0110 08       		.uleb128 0x8
 1875 0111 E4060000 		.4byte	.LASF19
 1876 0115 01       		.byte	0x1
 1877 0116 00       		.byte	0
 1878 0117 0A       		.uleb128 0xa
 1879 0118 CB050000 		.4byte	.LASF20
 1880 011c 04       		.byte	0x4
 1881 011d 0902     		.2byte	0x209
 1882 011f 2F       		.byte	0x2f
 1883 0120 FB000000 		.4byte	0xfb
 1884 0124 0B       		.uleb128 0xb
 1885 0125 1C       		.byte	0x1c
 1886 0126 04       		.byte	0x4
 1887 0127 D204     		.2byte	0x4d2
 1888 0129 09       		.byte	0x9
 1889 012a 0D020000 		.4byte	0x20d
 1890 012e 0C       		.uleb128 0xc
 1891 012f 535200   		.ascii	"SR\000"
 1892 0132 04       		.byte	0x4
 1893 0133 D404     		.2byte	0x4d4
 1894 0135 11       		.byte	0x11
 1895 0136 A7000000 		.4byte	0xa7
 1896 013a 02       		.byte	0x2
 1897 013b 23       		.byte	0x23
 1898 013c 00       		.uleb128 0
 1899 013d 0D       		.uleb128 0xd
 1900 013e 65050000 		.4byte	.LASF21
 1901 0142 04       		.byte	0x4
 1902 0143 D504     		.2byte	0x4d5
 1903 0145 0D       		.byte	0xd
 1904 0146 9B000000 		.4byte	0x9b
 1905 014a 02       		.byte	0x2
 1906 014b 23       		.byte	0x23
 1907 014c 02       		.uleb128 0x2
 1908 014d 0C       		.uleb128 0xc
 1909 014e 445200   		.ascii	"DR\000"
 1910 0151 04       		.byte	0x4
 1911 0152 D604     		.2byte	0x4d6
 1912 0154 11       		.byte	0x11
 1913 0155 A7000000 		.4byte	0xa7
 1914 0159 02       		.byte	0x2
 1915 015a 23       		.byte	0x23
 1916 015b 04       		.uleb128 0x4
 1917 015c 0D       		.uleb128 0xd
 1918 015d 6F050000 		.4byte	.LASF22
 1919 0161 04       		.byte	0x4
 1920 0162 D704     		.2byte	0x4d7
ARM GAS  C:\Users\ADMINI~1\AppData\Local\Temp\cc5w2WuM.s 			page 55


 1921 0164 0D       		.byte	0xd
 1922 0165 9B000000 		.4byte	0x9b
 1923 0169 02       		.byte	0x2
 1924 016a 23       		.byte	0x23
 1925 016b 06       		.uleb128 0x6
 1926 016c 0C       		.uleb128 0xc
 1927 016d 42525200 		.ascii	"BRR\000"
 1928 0171 04       		.byte	0x4
 1929 0172 D804     		.2byte	0x4d8
 1930 0174 11       		.byte	0x11
 1931 0175 A7000000 		.4byte	0xa7
 1932 0179 02       		.byte	0x2
 1933 017a 23       		.byte	0x23
 1934 017b 08       		.uleb128 0x8
 1935 017c 0D       		.uleb128 0xd
 1936 017d 79050000 		.4byte	.LASF23
 1937 0181 04       		.byte	0x4
 1938 0182 D904     		.2byte	0x4d9
 1939 0184 0D       		.byte	0xd
 1940 0185 9B000000 		.4byte	0x9b
 1941 0189 02       		.byte	0x2
 1942 018a 23       		.byte	0x23
 1943 018b 0A       		.uleb128 0xa
 1944 018c 0C       		.uleb128 0xc
 1945 018d 43523100 		.ascii	"CR1\000"
 1946 0191 04       		.byte	0x4
 1947 0192 DA04     		.2byte	0x4da
 1948 0194 11       		.byte	0x11
 1949 0195 A7000000 		.4byte	0xa7
 1950 0199 02       		.byte	0x2
 1951 019a 23       		.byte	0x23
 1952 019b 0C       		.uleb128 0xc
 1953 019c 0D       		.uleb128 0xd
 1954 019d 83050000 		.4byte	.LASF24
 1955 01a1 04       		.byte	0x4
 1956 01a2 DB04     		.2byte	0x4db
 1957 01a4 0D       		.byte	0xd
 1958 01a5 9B000000 		.4byte	0x9b
 1959 01a9 02       		.byte	0x2
 1960 01aa 23       		.byte	0x23
 1961 01ab 0E       		.uleb128 0xe
 1962 01ac 0C       		.uleb128 0xc
 1963 01ad 43523200 		.ascii	"CR2\000"
 1964 01b1 04       		.byte	0x4
 1965 01b2 DC04     		.2byte	0x4dc
 1966 01b4 11       		.byte	0x11
 1967 01b5 A7000000 		.4byte	0xa7
 1968 01b9 02       		.byte	0x2
 1969 01ba 23       		.byte	0x23
 1970 01bb 10       		.uleb128 0x10
 1971 01bc 0D       		.uleb128 0xd
 1972 01bd 8D050000 		.4byte	.LASF25
 1973 01c1 04       		.byte	0x4
 1974 01c2 DD04     		.2byte	0x4dd
 1975 01c4 0D       		.byte	0xd
 1976 01c5 9B000000 		.4byte	0x9b
 1977 01c9 02       		.byte	0x2
ARM GAS  C:\Users\ADMINI~1\AppData\Local\Temp\cc5w2WuM.s 			page 56


 1978 01ca 23       		.byte	0x23
 1979 01cb 12       		.uleb128 0x12
 1980 01cc 0C       		.uleb128 0xc
 1981 01cd 43523300 		.ascii	"CR3\000"
 1982 01d1 04       		.byte	0x4
 1983 01d2 DE04     		.2byte	0x4de
 1984 01d4 11       		.byte	0x11
 1985 01d5 A7000000 		.4byte	0xa7
 1986 01d9 02       		.byte	0x2
 1987 01da 23       		.byte	0x23
 1988 01db 14       		.uleb128 0x14
 1989 01dc 0D       		.uleb128 0xd
 1990 01dd 97050000 		.4byte	.LASF26
 1991 01e1 04       		.byte	0x4
 1992 01e2 DF04     		.2byte	0x4df
 1993 01e4 0D       		.byte	0xd
 1994 01e5 9B000000 		.4byte	0x9b
 1995 01e9 02       		.byte	0x2
 1996 01ea 23       		.byte	0x23
 1997 01eb 16       		.uleb128 0x16
 1998 01ec 0D       		.uleb128 0xd
 1999 01ed 23000000 		.4byte	.LASF27
 2000 01f1 04       		.byte	0x4
 2001 01f2 E004     		.2byte	0x4e0
 2002 01f4 11       		.byte	0x11
 2003 01f5 A7000000 		.4byte	0xa7
 2004 01f9 02       		.byte	0x2
 2005 01fa 23       		.byte	0x23
 2006 01fb 18       		.uleb128 0x18
 2007 01fc 0D       		.uleb128 0xd
 2008 01fd A1050000 		.4byte	.LASF28
 2009 0201 04       		.byte	0x4
 2010 0202 E104     		.2byte	0x4e1
 2011 0204 0D       		.byte	0xd
 2012 0205 9B000000 		.4byte	0x9b
 2013 0209 02       		.byte	0x2
 2014 020a 23       		.byte	0x23
 2015 020b 1A       		.uleb128 0x1a
 2016 020c 00       		.byte	0
 2017 020d 0A       		.uleb128 0xa
 2018 020e 8A010000 		.4byte	.LASF29
 2019 0212 04       		.byte	0x4
 2020 0213 E204     		.2byte	0x4e2
 2021 0215 03       		.byte	0x3
 2022 0216 24010000 		.4byte	0x124
 2023 021a 0E       		.uleb128 0xe
 2024 021b 14       		.byte	0x14
 2025 021c 05       		.byte	0x5
 2026 021d 2E       		.byte	0x2e
 2027 021e 09       		.byte	0x9
 2028 021f 6F020000 		.4byte	0x26f
 2029 0223 0F       		.uleb128 0xf
 2030 0224 C6000000 		.4byte	.LASF30
 2031 0228 05       		.byte	0x5
 2032 0229 30       		.byte	0x30
 2033 022a 0C       		.byte	0xc
 2034 022b AC000000 		.4byte	0xac
ARM GAS  C:\Users\ADMINI~1\AppData\Local\Temp\cc5w2WuM.s 			page 57


 2035 022f 02       		.byte	0x2
 2036 0230 23       		.byte	0x23
 2037 0231 00       		.uleb128 0
 2038 0232 0F       		.uleb128 0xf
 2039 0233 34010000 		.4byte	.LASF31
 2040 0237 05       		.byte	0x5
 2041 0238 31       		.byte	0x31
 2042 0239 0C       		.byte	0xc
 2043 023a AC000000 		.4byte	0xac
 2044 023e 02       		.byte	0x2
 2045 023f 23       		.byte	0x23
 2046 0240 04       		.uleb128 0x4
 2047 0241 0F       		.uleb128 0xf
 2048 0242 FD050000 		.4byte	.LASF32
 2049 0246 05       		.byte	0x5
 2050 0247 32       		.byte	0x32
 2051 0248 0C       		.byte	0xc
 2052 0249 AC000000 		.4byte	0xac
 2053 024d 02       		.byte	0x2
 2054 024e 23       		.byte	0x23
 2055 024f 08       		.uleb128 0x8
 2056 0250 0F       		.uleb128 0xf
 2057 0251 49050000 		.4byte	.LASF33
 2058 0255 05       		.byte	0x5
 2059 0256 33       		.byte	0x33
 2060 0257 0C       		.byte	0xc
 2061 0258 AC000000 		.4byte	0xac
 2062 025c 02       		.byte	0x2
 2063 025d 23       		.byte	0x23
 2064 025e 0C       		.uleb128 0xc
 2065 025f 0F       		.uleb128 0xf
 2066 0260 E2030000 		.4byte	.LASF34
 2067 0264 05       		.byte	0x5
 2068 0265 34       		.byte	0x34
 2069 0266 0C       		.byte	0xc
 2070 0267 AC000000 		.4byte	0xac
 2071 026b 02       		.byte	0x2
 2072 026c 23       		.byte	0x23
 2073 026d 10       		.uleb128 0x10
 2074 026e 00       		.byte	0
 2075 026f 03       		.uleb128 0x3
 2076 0270 76040000 		.4byte	.LASF35
 2077 0274 05       		.byte	0x5
 2078 0275 35       		.byte	0x35
 2079 0276 02       		.byte	0x2
 2080 0277 1A020000 		.4byte	0x21a
 2081 027b 0E       		.uleb128 0xe
 2082 027c 10       		.byte	0x10
 2083 027d 06       		.byte	0x6
 2084 027e 32       		.byte	0x32
 2085 027f 09       		.byte	0x9
 2086 0280 DF020000 		.4byte	0x2df
 2087 0284 0F       		.uleb128 0xf
 2088 0285 83020000 		.4byte	.LASF36
 2089 0289 06       		.byte	0x6
 2090 028a 34       		.byte	0x34
 2091 028b 0C       		.byte	0xc
ARM GAS  C:\Users\ADMINI~1\AppData\Local\Temp\cc5w2WuM.s 			page 58


 2092 028c AC000000 		.4byte	0xac
 2093 0290 02       		.byte	0x2
 2094 0291 23       		.byte	0x23
 2095 0292 00       		.uleb128 0
 2096 0293 0F       		.uleb128 0xf
 2097 0294 3A020000 		.4byte	.LASF37
 2098 0298 06       		.byte	0x6
 2099 0299 39       		.byte	0x39
 2100 029a 0C       		.byte	0xc
 2101 029b 9B000000 		.4byte	0x9b
 2102 029f 02       		.byte	0x2
 2103 02a0 23       		.byte	0x23
 2104 02a1 04       		.uleb128 0x4
 2105 02a2 0F       		.uleb128 0xf
 2106 02a3 98010000 		.4byte	.LASF38
 2107 02a7 06       		.byte	0x6
 2108 02a8 3C       		.byte	0x3c
 2109 02a9 0C       		.byte	0xc
 2110 02aa 9B000000 		.4byte	0x9b
 2111 02ae 02       		.byte	0x2
 2112 02af 23       		.byte	0x23
 2113 02b0 06       		.uleb128 0x6
 2114 02b1 0F       		.uleb128 0xf
 2115 02b2 6E030000 		.4byte	.LASF39
 2116 02b6 06       		.byte	0x6
 2117 02b7 3F       		.byte	0x3f
 2118 02b8 0C       		.byte	0xc
 2119 02b9 9B000000 		.4byte	0x9b
 2120 02bd 02       		.byte	0x2
 2121 02be 23       		.byte	0x23
 2122 02bf 08       		.uleb128 0x8
 2123 02c0 0F       		.uleb128 0xf
 2124 02c1 C9040000 		.4byte	.LASF40
 2125 02c5 06       		.byte	0x6
 2126 02c6 46       		.byte	0x46
 2127 02c7 0C       		.byte	0xc
 2128 02c8 9B000000 		.4byte	0x9b
 2129 02cc 02       		.byte	0x2
 2130 02cd 23       		.byte	0x23
 2131 02ce 0A       		.uleb128 0xa
 2132 02cf 0F       		.uleb128 0xf
 2133 02d0 9C040000 		.4byte	.LASF41
 2134 02d4 06       		.byte	0x6
 2135 02d5 49       		.byte	0x49
 2136 02d6 0C       		.byte	0xc
 2137 02d7 9B000000 		.4byte	0x9b
 2138 02db 02       		.byte	0x2
 2139 02dc 23       		.byte	0x23
 2140 02dd 0C       		.uleb128 0xc
 2141 02de 00       		.byte	0
 2142 02df 03       		.uleb128 0x3
 2143 02e0 3E040000 		.4byte	.LASF42
 2144 02e4 06       		.byte	0x6
 2145 02e5 4C       		.byte	0x4c
 2146 02e6 03       		.byte	0x3
 2147 02e7 7B020000 		.4byte	0x27b
 2148 02eb 0E       		.uleb128 0xe
ARM GAS  C:\Users\ADMINI~1\AppData\Local\Temp\cc5w2WuM.s 			page 59


 2149 02ec 08       		.byte	0x8
 2150 02ed 06       		.byte	0x6
 2151 02ee 52       		.byte	0x52
 2152 02ef 09       		.byte	0x9
 2153 02f0 31030000 		.4byte	0x331
 2154 02f4 0F       		.uleb128 0xf
 2155 02f5 59050000 		.4byte	.LASF43
 2156 02f9 06       		.byte	0x6
 2157 02fa 55       		.byte	0x55
 2158 02fb 0C       		.byte	0xc
 2159 02fc 9B000000 		.4byte	0x9b
 2160 0300 02       		.byte	0x2
 2161 0301 23       		.byte	0x23
 2162 0302 00       		.uleb128 0
 2163 0303 0F       		.uleb128 0xf
 2164 0304 AD060000 		.4byte	.LASF44
 2165 0308 06       		.byte	0x6
 2166 0309 58       		.byte	0x58
 2167 030a 0C       		.byte	0xc
 2168 030b 9B000000 		.4byte	0x9b
 2169 030f 02       		.byte	0x2
 2170 0310 23       		.byte	0x23
 2171 0311 02       		.uleb128 0x2
 2172 0312 0F       		.uleb128 0xf
 2173 0313 18000000 		.4byte	.LASF45
 2174 0317 06       		.byte	0x6
 2175 0318 5B       		.byte	0x5b
 2176 0319 0C       		.byte	0xc
 2177 031a 9B000000 		.4byte	0x9b
 2178 031e 02       		.byte	0x2
 2179 031f 23       		.byte	0x23
 2180 0320 04       		.uleb128 0x4
 2181 0321 0F       		.uleb128 0xf
 2182 0322 75020000 		.4byte	.LASF46
 2183 0326 06       		.byte	0x6
 2184 0327 5E       		.byte	0x5e
 2185 0328 0C       		.byte	0xc
 2186 0329 9B000000 		.4byte	0x9b
 2187 032d 02       		.byte	0x2
 2188 032e 23       		.byte	0x23
 2189 032f 06       		.uleb128 0x6
 2190 0330 00       		.byte	0
 2191 0331 03       		.uleb128 0x3
 2192 0332 EC010000 		.4byte	.LASF47
 2193 0336 06       		.byte	0x6
 2194 0337 61       		.byte	0x61
 2195 0338 03       		.byte	0x3
 2196 0339 EB020000 		.4byte	0x2eb
 2197 033d 10       		.uleb128 0x10
 2198 033e 01       		.byte	0x1
 2199 033f E1020000 		.4byte	.LASF54
 2200 0343 01       		.byte	0x1
 2201 0344 0604     		.2byte	0x406
 2202 0346 06       		.byte	0x6
 2203 0347 01       		.byte	0x1
 2204 0348 84030000 		.4byte	.LFB57
 2205 034c 92030000 		.4byte	.LFE57
ARM GAS  C:\Users\ADMINI~1\AppData\Local\Temp\cc5w2WuM.s 			page 60


 2206 0350 02       		.byte	0x2
 2207 0351 7D       		.byte	0x7d
 2208 0352 00       		.sleb128 0
 2209 0353 01       		.byte	0x1
 2210 0354 A7030000 		.4byte	0x3a7
 2211 0358 11       		.uleb128 0x11
 2212 0359 95040000 		.4byte	.LASF51
 2213 035d 01       		.byte	0x1
 2214 035e 0604     		.2byte	0x406
 2215 0360 2D       		.byte	0x2d
 2216 0361 A7030000 		.4byte	0x3a7
 2217 0365 01       		.byte	0x1
 2218 0366 50       		.byte	0x50
 2219 0367 12       		.uleb128 0x12
 2220 0368 24020000 		.4byte	.LASF50
 2221 036c 01       		.byte	0x1
 2222 036d 0604     		.2byte	0x406
 2223 036f 3E       		.byte	0x3e
 2224 0370 9B000000 		.4byte	0x9b
 2225 0374 04000000 		.4byte	.LLST33
 2226 0378 00000000 		.4byte	.LVUS33
 2227 037c 13       		.uleb128 0x13
 2228 037d E2040000 		.4byte	.LASF48
 2229 0381 01       		.byte	0x1
 2230 0382 0804     		.2byte	0x408
 2231 0384 0C       		.byte	0xc
 2232 0385 9B000000 		.4byte	0x9b
 2233 0389 2B000000 		.4byte	.LLST34
 2234 038d 25000000 		.4byte	.LVUS34
 2235 0391 13       		.uleb128 0x13
 2236 0392 B8060000 		.4byte	.LASF49
 2237 0396 01       		.byte	0x1
 2238 0397 0804     		.2byte	0x408
 2239 0399 1B       		.byte	0x1b
 2240 039a 9B000000 		.4byte	0x9b
 2241 039e 64000000 		.4byte	.LLST35
 2242 03a2 5E000000 		.4byte	.LVUS35
 2243 03a6 00       		.byte	0
 2244 03a7 14       		.uleb128 0x14
 2245 03a8 04       		.byte	0x4
 2246 03a9 0D020000 		.4byte	0x20d
 2247 03ad 15       		.uleb128 0x15
 2248 03ae 01       		.byte	0x1
 2249 03af 13050000 		.4byte	.LASF57
 2250 03b3 01       		.byte	0x1
 2251 03b4 BC03     		.2byte	0x3bc
 2252 03b6 0A       		.byte	0xa
 2253 03b7 01       		.byte	0x1
 2254 03b8 EE000000 		.4byte	0xee
 2255 03bc 46030000 		.4byte	.LFB56
 2256 03c0 84030000 		.4byte	.LFE56
 2257 03c4 9B000000 		.4byte	.LLST26
 2258 03c8 01       		.byte	0x1
 2259 03c9 4C040000 		.4byte	0x44c
 2260 03cd 12       		.uleb128 0x12
 2261 03ce 95040000 		.4byte	.LASF51
 2262 03d2 01       		.byte	0x1
ARM GAS  C:\Users\ADMINI~1\AppData\Local\Temp\cc5w2WuM.s 			page 61


 2263 03d3 BC03     		.2byte	0x3bc
 2264 03d5 2B       		.byte	0x2b
 2265 03d6 A7030000 		.4byte	0x3a7
 2266 03da C3000000 		.4byte	.LLST27
 2267 03de BB000000 		.4byte	.LVUS27
 2268 03e2 12       		.uleb128 0x12
 2269 03e3 24020000 		.4byte	.LASF50
 2270 03e7 01       		.byte	0x1
 2271 03e8 BC03     		.2byte	0x3bc
 2272 03ea 3C       		.byte	0x3c
 2273 03eb 9B000000 		.4byte	0x9b
 2274 03ef 00010000 		.4byte	.LLST28
 2275 03f3 FA000000 		.4byte	.LVUS28
 2276 03f7 13       		.uleb128 0x13
 2277 03f8 E2040000 		.4byte	.LASF48
 2278 03fc 01       		.byte	0x1
 2279 03fd BE03     		.2byte	0x3be
 2280 03ff 0C       		.byte	0xc
 2281 0400 AC000000 		.4byte	0xac
 2282 0404 38010000 		.4byte	.LLST29
 2283 0408 2C010000 		.4byte	.LVUS29
 2284 040c 13       		.uleb128 0x13
 2285 040d B8060000 		.4byte	.LASF49
 2286 0411 01       		.byte	0x1
 2287 0412 BE03     		.2byte	0x3be
 2288 0414 1B       		.byte	0x1b
 2289 0415 AC000000 		.4byte	0xac
 2290 0419 BF010000 		.4byte	.LLST30
 2291 041d B9010000 		.4byte	.LVUS30
 2292 0421 13       		.uleb128 0x13
 2293 0422 DB060000 		.4byte	.LASF52
 2294 0426 01       		.byte	0x1
 2295 0427 BE03     		.2byte	0x3be
 2296 0429 2A       		.byte	0x2a
 2297 042a AC000000 		.4byte	0xac
 2298 042e ED010000 		.4byte	.LLST31
 2299 0432 E9010000 		.4byte	.LVUS31
 2300 0436 13       		.uleb128 0x13
 2301 0437 BF060000 		.4byte	.LASF53
 2302 043b 01       		.byte	0x1
 2303 043c BF03     		.2byte	0x3bf
 2304 043e 0C       		.byte	0xc
 2305 043f EE000000 		.4byte	0xee
 2306 0443 17020000 		.4byte	.LLST32
 2307 0447 11020000 		.4byte	.LVUS32
 2308 044b 00       		.byte	0
 2309 044c 10       		.uleb128 0x10
 2310 044d 01       		.byte	0x1
 2311 044e AA030000 		.4byte	.LASF55
 2312 0452 01       		.byte	0x1
 2313 0453 9B03     		.2byte	0x39b
 2314 0455 06       		.byte	0x6
 2315 0456 01       		.byte	0x1
 2316 0457 3E030000 		.4byte	.LFB55
 2317 045b 46030000 		.4byte	.LFE55
 2318 045f 02       		.byte	0x2
 2319 0460 7D       		.byte	0x7d
ARM GAS  C:\Users\ADMINI~1\AppData\Local\Temp\cc5w2WuM.s 			page 62


 2320 0461 00       		.sleb128 0
 2321 0462 01       		.byte	0x1
 2322 0463 8C040000 		.4byte	0x48c
 2323 0467 11       		.uleb128 0x11
 2324 0468 95040000 		.4byte	.LASF51
 2325 046c 01       		.byte	0x1
 2326 046d 9B03     		.2byte	0x39b
 2327 046f 25       		.byte	0x25
 2328 0470 A7030000 		.4byte	0x3a7
 2329 0474 01       		.byte	0x1
 2330 0475 50       		.byte	0x50
 2331 0476 12       		.uleb128 0x12
 2332 0477 34030000 		.4byte	.LASF56
 2333 047b 01       		.byte	0x1
 2334 047c 9B03     		.2byte	0x39b
 2335 047e 36       		.byte	0x36
 2336 047f 9B000000 		.4byte	0x9b
 2337 0483 46020000 		.4byte	.LLST25
 2338 0487 42020000 		.4byte	.LVUS25
 2339 048b 00       		.byte	0
 2340 048c 16       		.uleb128 0x16
 2341 048d 01       		.byte	0x1
 2342 048e 0D060000 		.4byte	.LASF58
 2343 0492 01       		.byte	0x1
 2344 0493 6A03     		.2byte	0x36a
 2345 0495 0C       		.byte	0xc
 2346 0496 01       		.byte	0x1
 2347 0497 E1000000 		.4byte	0xe1
 2348 049b 32030000 		.4byte	.LFB54
 2349 049f 3E030000 		.4byte	.LFE54
 2350 04a3 02       		.byte	0x2
 2351 04a4 7D       		.byte	0x7d
 2352 04a5 00       		.sleb128 0
 2353 04a6 01       		.byte	0x1
 2354 04a7 E5040000 		.4byte	0x4e5
 2355 04ab 12       		.uleb128 0x12
 2356 04ac 95040000 		.4byte	.LASF51
 2357 04b0 01       		.byte	0x1
 2358 04b1 6A03     		.2byte	0x36a
 2359 04b3 2F       		.byte	0x2f
 2360 04b4 A7030000 		.4byte	0x3a7
 2361 04b8 6B020000 		.4byte	.LLST23
 2362 04bc 67020000 		.4byte	.LVUS23
 2363 04c0 11       		.uleb128 0x11
 2364 04c1 34030000 		.4byte	.LASF56
 2365 04c5 01       		.byte	0x1
 2366 04c6 6A03     		.2byte	0x36a
 2367 04c8 40       		.byte	0x40
 2368 04c9 9B000000 		.4byte	0x9b
 2369 04cd 01       		.byte	0x1
 2370 04ce 51       		.byte	0x51
 2371 04cf 13       		.uleb128 0x13
 2372 04d0 BF060000 		.4byte	.LASF53
 2373 04d4 01       		.byte	0x1
 2374 04d5 6C03     		.2byte	0x36c
 2375 04d7 0E       		.byte	0xe
 2376 04d8 E1000000 		.4byte	0xe1
ARM GAS  C:\Users\ADMINI~1\AppData\Local\Temp\cc5w2WuM.s 			page 63


 2377 04dc 90020000 		.4byte	.LLST24
 2378 04e0 8C020000 		.4byte	.LVUS24
 2379 04e4 00       		.byte	0
 2380 04e5 10       		.uleb128 0x10
 2381 04e6 01       		.byte	0x1
 2382 04e7 AB050000 		.4byte	.LASF59
 2383 04eb 01       		.byte	0x1
 2384 04ec 4503     		.2byte	0x345
 2385 04ee 06       		.byte	0x6
 2386 04ef 01       		.byte	0x1
 2387 04f0 1A030000 		.4byte	.LFB53
 2388 04f4 32030000 		.4byte	.LFE53
 2389 04f8 02       		.byte	0x2
 2390 04f9 7D       		.byte	0x7d
 2391 04fa 00       		.sleb128 0
 2392 04fb 01       		.byte	0x1
 2393 04fc 1F050000 		.4byte	0x51f
 2394 0500 11       		.uleb128 0x11
 2395 0501 95040000 		.4byte	.LASF51
 2396 0505 01       		.byte	0x1
 2397 0506 4503     		.2byte	0x345
 2398 0508 23       		.byte	0x23
 2399 0509 A7030000 		.4byte	0x3a7
 2400 050d 01       		.byte	0x1
 2401 050e 50       		.byte	0x50
 2402 050f 11       		.uleb128 0x11
 2403 0510 4B020000 		.4byte	.LASF60
 2404 0514 01       		.byte	0x1
 2405 0515 4503     		.2byte	0x345
 2406 0517 3B       		.byte	0x3b
 2407 0518 17010000 		.4byte	0x117
 2408 051c 01       		.byte	0x1
 2409 051d 51       		.byte	0x51
 2410 051e 00       		.byte	0
 2411 051f 10       		.uleb128 0x10
 2412 0520 01       		.byte	0x1
 2413 0521 32050000 		.4byte	.LASF61
 2414 0525 01       		.byte	0x1
 2415 0526 3203     		.2byte	0x332
 2416 0528 06       		.byte	0x6
 2417 0529 01       		.byte	0x1
 2418 052a 04030000 		.4byte	.LFB52
 2419 052e 1A030000 		.4byte	.LFE52
 2420 0532 02       		.byte	0x2
 2421 0533 7D       		.byte	0x7d
 2422 0534 00       		.sleb128 0
 2423 0535 01       		.byte	0x1
 2424 0536 59050000 		.4byte	0x559
 2425 053a 11       		.uleb128 0x11
 2426 053b 95040000 		.4byte	.LASF51
 2427 053f 01       		.byte	0x1
 2428 0540 3203     		.2byte	0x332
 2429 0542 26       		.byte	0x26
 2430 0543 A7030000 		.4byte	0x3a7
 2431 0547 01       		.byte	0x1
 2432 0548 50       		.byte	0x50
 2433 0549 11       		.uleb128 0x11
ARM GAS  C:\Users\ADMINI~1\AppData\Local\Temp\cc5w2WuM.s 			page 64


 2434 054a 92020000 		.4byte	.LASF62
 2435 054e 01       		.byte	0x1
 2436 054f 3203     		.2byte	0x332
 2437 0551 37       		.byte	0x37
 2438 0552 9B000000 		.4byte	0x9b
 2439 0556 01       		.byte	0x1
 2440 0557 51       		.byte	0x51
 2441 0558 00       		.byte	0
 2442 0559 10       		.uleb128 0x10
 2443 055a 01       		.byte	0x1
 2444 055b 5E010000 		.4byte	.LASF63
 2445 055f 01       		.byte	0x1
 2446 0560 1503     		.2byte	0x315
 2447 0562 06       		.byte	0x6
 2448 0563 01       		.byte	0x1
 2449 0564 EC020000 		.4byte	.LFB51
 2450 0568 04030000 		.4byte	.LFE51
 2451 056c 02       		.byte	0x2
 2452 056d 7D       		.byte	0x7d
 2453 056e 00       		.sleb128 0
 2454 056f 01       		.byte	0x1
 2455 0570 93050000 		.4byte	0x593
 2456 0574 11       		.uleb128 0x11
 2457 0575 95040000 		.4byte	.LASF51
 2458 0579 01       		.byte	0x1
 2459 057a 1503     		.2byte	0x315
 2460 057c 2B       		.byte	0x2b
 2461 057d A7030000 		.4byte	0x3a7
 2462 0581 01       		.byte	0x1
 2463 0582 50       		.byte	0x50
 2464 0583 11       		.uleb128 0x11
 2465 0584 4B020000 		.4byte	.LASF60
 2466 0588 01       		.byte	0x1
 2467 0589 1503     		.2byte	0x315
 2468 058b 43       		.byte	0x43
 2469 058c 17010000 		.4byte	0x117
 2470 0590 01       		.byte	0x1
 2471 0591 51       		.byte	0x51
 2472 0592 00       		.byte	0
 2473 0593 10       		.uleb128 0x10
 2474 0594 01       		.byte	0x1
 2475 0595 E9040000 		.4byte	.LASF64
 2476 0599 01       		.byte	0x1
 2477 059a FA02     		.2byte	0x2fa
 2478 059c 06       		.byte	0x6
 2479 059d 01       		.byte	0x1
 2480 059e D4020000 		.4byte	.LFB50
 2481 05a2 EC020000 		.4byte	.LFE50
 2482 05a6 02       		.byte	0x2
 2483 05a7 7D       		.byte	0x7d
 2484 05a8 00       		.sleb128 0
 2485 05a9 01       		.byte	0x1
 2486 05aa CD050000 		.4byte	0x5cd
 2487 05ae 11       		.uleb128 0x11
 2488 05af 95040000 		.4byte	.LASF51
 2489 05b3 01       		.byte	0x1
 2490 05b4 FA02     		.2byte	0x2fa
ARM GAS  C:\Users\ADMINI~1\AppData\Local\Temp\cc5w2WuM.s 			page 65


 2491 05b6 2C       		.byte	0x2c
 2492 05b7 A7030000 		.4byte	0x3a7
 2493 05bb 01       		.byte	0x1
 2494 05bc 50       		.byte	0x50
 2495 05bd 11       		.uleb128 0x11
 2496 05be 4B020000 		.4byte	.LASF60
 2497 05c2 01       		.byte	0x1
 2498 05c3 FA02     		.2byte	0x2fa
 2499 05c5 44       		.byte	0x44
 2500 05c6 17010000 		.4byte	0x117
 2501 05ca 01       		.byte	0x1
 2502 05cb 51       		.byte	0x51
 2503 05cc 00       		.byte	0
 2504 05cd 10       		.uleb128 0x10
 2505 05ce 01       		.byte	0x1
 2506 05cf 78060000 		.4byte	.LASF65
 2507 05d3 01       		.byte	0x1
 2508 05d4 DB02     		.2byte	0x2db
 2509 05d6 06       		.byte	0x6
 2510 05d7 01       		.byte	0x1
 2511 05d8 BC020000 		.4byte	.LFB49
 2512 05dc D4020000 		.4byte	.LFE49
 2513 05e0 02       		.byte	0x2
 2514 05e1 7D       		.byte	0x7d
 2515 05e2 00       		.sleb128 0
 2516 05e3 01       		.byte	0x1
 2517 05e4 07060000 		.4byte	0x607
 2518 05e8 11       		.uleb128 0x11
 2519 05e9 95040000 		.4byte	.LASF51
 2520 05ed 01       		.byte	0x1
 2521 05ee DB02     		.2byte	0x2db
 2522 05f0 29       		.byte	0x29
 2523 05f1 A7030000 		.4byte	0x3a7
 2524 05f5 01       		.byte	0x1
 2525 05f6 50       		.byte	0x50
 2526 05f7 11       		.uleb128 0x11
 2527 05f8 4B020000 		.4byte	.LASF60
 2528 05fc 01       		.byte	0x1
 2529 05fd DB02     		.2byte	0x2db
 2530 05ff 41       		.byte	0x41
 2531 0600 17010000 		.4byte	0x117
 2532 0604 01       		.byte	0x1
 2533 0605 51       		.byte	0x51
 2534 0606 00       		.byte	0
 2535 0607 10       		.uleb128 0x10
 2536 0608 01       		.byte	0x1
 2537 0609 DB050000 		.4byte	.LASF66
 2538 060d 01       		.byte	0x1
 2539 060e C102     		.2byte	0x2c1
 2540 0610 06       		.byte	0x6
 2541 0611 01       		.byte	0x1
 2542 0612 A4020000 		.4byte	.LFB48
 2543 0616 BC020000 		.4byte	.LFE48
 2544 061a 02       		.byte	0x2
 2545 061b 7D       		.byte	0x7d
 2546 061c 00       		.sleb128 0
 2547 061d 01       		.byte	0x1
ARM GAS  C:\Users\ADMINI~1\AppData\Local\Temp\cc5w2WuM.s 			page 66


 2548 061e 41060000 		.4byte	0x641
 2549 0622 11       		.uleb128 0x11
 2550 0623 95040000 		.4byte	.LASF51
 2551 0627 01       		.byte	0x1
 2552 0628 C102     		.2byte	0x2c1
 2553 062a 2C       		.byte	0x2c
 2554 062b A7030000 		.4byte	0x3a7
 2555 062f 01       		.byte	0x1
 2556 0630 50       		.byte	0x50
 2557 0631 11       		.uleb128 0x11
 2558 0632 4B020000 		.4byte	.LASF60
 2559 0636 01       		.byte	0x1
 2560 0637 C102     		.2byte	0x2c1
 2561 0639 44       		.byte	0x44
 2562 063a 17010000 		.4byte	0x117
 2563 063e 01       		.byte	0x1
 2564 063f 51       		.byte	0x51
 2565 0640 00       		.byte	0
 2566 0641 10       		.uleb128 0x10
 2567 0642 01       		.byte	0x1
 2568 0643 B6040000 		.4byte	.LASF67
 2569 0647 01       		.byte	0x1
 2570 0648 A802     		.2byte	0x2a8
 2571 064a 06       		.byte	0x6
 2572 064b 01       		.byte	0x1
 2573 064c 8C020000 		.4byte	.LFB47
 2574 0650 A4020000 		.4byte	.LFE47
 2575 0654 02       		.byte	0x2
 2576 0655 7D       		.byte	0x7d
 2577 0656 00       		.sleb128 0
 2578 0657 01       		.byte	0x1
 2579 0658 7B060000 		.4byte	0x67b
 2580 065c 11       		.uleb128 0x11
 2581 065d 95040000 		.4byte	.LASF51
 2582 0661 01       		.byte	0x1
 2583 0662 A802     		.2byte	0x2a8
 2584 0664 28       		.byte	0x28
 2585 0665 A7030000 		.4byte	0x3a7
 2586 0669 01       		.byte	0x1
 2587 066a 50       		.byte	0x50
 2588 066b 11       		.uleb128 0x11
 2589 066c 4B020000 		.4byte	.LASF60
 2590 0670 01       		.byte	0x1
 2591 0671 A802     		.2byte	0x2a8
 2592 0673 40       		.byte	0x40
 2593 0674 17010000 		.4byte	0x117
 2594 0678 01       		.byte	0x1
 2595 0679 51       		.byte	0x51
 2596 067a 00       		.byte	0
 2597 067b 10       		.uleb128 0x10
 2598 067c 01       		.byte	0x1
 2599 067d D7000000 		.4byte	.LASF68
 2600 0681 01       		.byte	0x1
 2601 0682 9502     		.2byte	0x295
 2602 0684 06       		.byte	0x6
 2603 0685 01       		.byte	0x1
 2604 0686 7A020000 		.4byte	.LFB46
ARM GAS  C:\Users\ADMINI~1\AppData\Local\Temp\cc5w2WuM.s 			page 67


 2605 068a 8C020000 		.4byte	.LFE46
 2606 068e 02       		.byte	0x2
 2607 068f 7D       		.byte	0x7d
 2608 0690 00       		.sleb128 0
 2609 0691 01       		.byte	0x1
 2610 0692 B5060000 		.4byte	0x6b5
 2611 0696 11       		.uleb128 0x11
 2612 0697 95040000 		.4byte	.LASF51
 2613 069b 01       		.byte	0x1
 2614 069c 9502     		.2byte	0x295
 2615 069e 28       		.byte	0x28
 2616 069f A7030000 		.4byte	0x3a7
 2617 06a3 01       		.byte	0x1
 2618 06a4 50       		.byte	0x50
 2619 06a5 11       		.uleb128 0x11
 2620 06a6 9D060000 		.4byte	.LASF69
 2621 06aa 01       		.byte	0x1
 2622 06ab 9502     		.2byte	0x295
 2623 06ad 38       		.byte	0x38
 2624 06ae 8F000000 		.4byte	0x8f
 2625 06b2 01       		.byte	0x1
 2626 06b3 51       		.byte	0x51
 2627 06b4 00       		.byte	0
 2628 06b5 10       		.uleb128 0x10
 2629 06b6 01       		.byte	0x1
 2630 06b7 F3030000 		.4byte	.LASF70
 2631 06bb 01       		.byte	0x1
 2632 06bc 8102     		.2byte	0x281
 2633 06be 06       		.byte	0x6
 2634 06bf 01       		.byte	0x1
 2635 06c0 68020000 		.4byte	.LFB45
 2636 06c4 7A020000 		.4byte	.LFE45
 2637 06c8 02       		.byte	0x2
 2638 06c9 7D       		.byte	0x7d
 2639 06ca 00       		.sleb128 0
 2640 06cb 01       		.byte	0x1
 2641 06cc EF060000 		.4byte	0x6ef
 2642 06d0 11       		.uleb128 0x11
 2643 06d1 95040000 		.4byte	.LASF51
 2644 06d5 01       		.byte	0x1
 2645 06d6 8102     		.2byte	0x281
 2646 06d8 28       		.byte	0x28
 2647 06d9 A7030000 		.4byte	0x3a7
 2648 06dd 01       		.byte	0x1
 2649 06de 50       		.byte	0x50
 2650 06df 11       		.uleb128 0x11
 2651 06e0 F9020000 		.4byte	.LASF71
 2652 06e4 01       		.byte	0x1
 2653 06e5 8102     		.2byte	0x281
 2654 06e7 38       		.byte	0x38
 2655 06e8 8F000000 		.4byte	0x8f
 2656 06ec 01       		.byte	0x1
 2657 06ed 51       		.byte	0x51
 2658 06ee 00       		.byte	0
 2659 06ef 10       		.uleb128 0x10
 2660 06f0 01       		.byte	0x1
 2661 06f1 2E040000 		.4byte	.LASF72
ARM GAS  C:\Users\ADMINI~1\AppData\Local\Temp\cc5w2WuM.s 			page 68


 2662 06f5 01       		.byte	0x1
 2663 06f6 7102     		.2byte	0x271
 2664 06f8 06       		.byte	0x6
 2665 06f9 01       		.byte	0x1
 2666 06fa 5C020000 		.4byte	.LFB44
 2667 06fe 68020000 		.4byte	.LFE44
 2668 0702 02       		.byte	0x2
 2669 0703 7D       		.byte	0x7d
 2670 0704 00       		.sleb128 0
 2671 0705 01       		.byte	0x1
 2672 0706 1A070000 		.4byte	0x71a
 2673 070a 11       		.uleb128 0x11
 2674 070b 95040000 		.4byte	.LASF51
 2675 070f 01       		.byte	0x1
 2676 0710 7102     		.2byte	0x271
 2677 0712 25       		.byte	0x25
 2678 0713 A7030000 		.4byte	0x3a7
 2679 0717 01       		.byte	0x1
 2680 0718 50       		.byte	0x50
 2681 0719 00       		.byte	0
 2682 071a 16       		.uleb128 0x16
 2683 071b 01       		.byte	0x1
 2684 071c C9060000 		.4byte	.LASF73
 2685 0720 01       		.byte	0x1
 2686 0721 6102     		.2byte	0x261
 2687 0723 0A       		.byte	0xa
 2688 0724 01       		.byte	0x1
 2689 0725 9B000000 		.4byte	0x9b
 2690 0729 54020000 		.4byte	.LFB43
 2691 072d 5C020000 		.4byte	.LFE43
 2692 0731 02       		.byte	0x2
 2693 0732 7D       		.byte	0x7d
 2694 0733 00       		.sleb128 0
 2695 0734 01       		.byte	0x1
 2696 0735 4F070000 		.4byte	0x74f
 2697 0739 12       		.uleb128 0x12
 2698 073a 95040000 		.4byte	.LASF51
 2699 073e 01       		.byte	0x1
 2700 073f 6102     		.2byte	0x261
 2701 0741 2B       		.byte	0x2b
 2702 0742 A7030000 		.4byte	0x3a7
 2703 0746 BC020000 		.4byte	.LLST22
 2704 074a B8020000 		.4byte	.LVUS22
 2705 074e 00       		.byte	0
 2706 074f 10       		.uleb128 0x10
 2707 0750 01       		.byte	0x1
 2708 0751 0D020000 		.4byte	.LASF74
 2709 0755 01       		.byte	0x1
 2710 0756 5002     		.2byte	0x250
 2711 0758 06       		.byte	0x6
 2712 0759 01       		.byte	0x1
 2713 075a 4C020000 		.4byte	.LFB42
 2714 075e 54020000 		.4byte	.LFE42
 2715 0762 02       		.byte	0x2
 2716 0763 7D       		.byte	0x7d
 2717 0764 00       		.sleb128 0
 2718 0765 01       		.byte	0x1
ARM GAS  C:\Users\ADMINI~1\AppData\Local\Temp\cc5w2WuM.s 			page 69


 2719 0766 8F070000 		.4byte	0x78f
 2720 076a 11       		.uleb128 0x11
 2721 076b 95040000 		.4byte	.LASF51
 2722 076f 01       		.byte	0x1
 2723 0770 5002     		.2byte	0x250
 2724 0772 24       		.byte	0x24
 2725 0773 A7030000 		.4byte	0x3a7
 2726 0777 01       		.byte	0x1
 2727 0778 50       		.byte	0x50
 2728 0779 12       		.uleb128 0x12
 2729 077a 62030000 		.4byte	.LASF75
 2730 077e 01       		.byte	0x1
 2731 077f 5002     		.2byte	0x250
 2732 0781 35       		.byte	0x35
 2733 0782 9B000000 		.4byte	0x9b
 2734 0786 E1020000 		.4byte	.LLST21
 2735 078a DD020000 		.4byte	.LVUS21
 2736 078e 00       		.byte	0
 2737 078f 10       		.uleb128 0x10
 2738 0790 01       		.byte	0x1
 2739 0791 25050000 		.4byte	.LASF76
 2740 0795 01       		.byte	0x1
 2741 0796 3602     		.2byte	0x236
 2742 0798 06       		.byte	0x6
 2743 0799 01       		.byte	0x1
 2744 079a 34020000 		.4byte	.LFB41
 2745 079e 4C020000 		.4byte	.LFE41
 2746 07a2 02       		.byte	0x2
 2747 07a3 7D       		.byte	0x7d
 2748 07a4 00       		.sleb128 0
 2749 07a5 01       		.byte	0x1
 2750 07a6 C9070000 		.4byte	0x7c9
 2751 07aa 11       		.uleb128 0x11
 2752 07ab 95040000 		.4byte	.LASF51
 2753 07af 01       		.byte	0x1
 2754 07b0 3602     		.2byte	0x236
 2755 07b2 22       		.byte	0x22
 2756 07b3 A7030000 		.4byte	0x3a7
 2757 07b7 01       		.byte	0x1
 2758 07b8 50       		.byte	0x50
 2759 07b9 11       		.uleb128 0x11
 2760 07ba 4B020000 		.4byte	.LASF60
 2761 07be 01       		.byte	0x1
 2762 07bf 3602     		.2byte	0x236
 2763 07c1 3A       		.byte	0x3a
 2764 07c2 17010000 		.4byte	0x117
 2765 07c6 01       		.byte	0x1
 2766 07c7 51       		.byte	0x51
 2767 07c8 00       		.byte	0
 2768 07c9 10       		.uleb128 0x10
 2769 07ca 01       		.byte	0x1
 2770 07cb 09030000 		.4byte	.LASF77
 2771 07cf 01       		.byte	0x1
 2772 07d0 2302     		.2byte	0x223
 2773 07d2 06       		.byte	0x6
 2774 07d3 01       		.byte	0x1
 2775 07d4 1E020000 		.4byte	.LFB40
ARM GAS  C:\Users\ADMINI~1\AppData\Local\Temp\cc5w2WuM.s 			page 70


 2776 07d8 34020000 		.4byte	.LFE40
 2777 07dc 02       		.byte	0x2
 2778 07dd 7D       		.byte	0x7d
 2779 07de 00       		.sleb128 0
 2780 07df 01       		.byte	0x1
 2781 07e0 03080000 		.4byte	0x803
 2782 07e4 11       		.uleb128 0x11
 2783 07e5 95040000 		.4byte	.LASF51
 2784 07e9 01       		.byte	0x1
 2785 07ea 2302     		.2byte	0x223
 2786 07ec 36       		.byte	0x36
 2787 07ed A7030000 		.4byte	0x3a7
 2788 07f1 01       		.byte	0x1
 2789 07f2 50       		.byte	0x50
 2790 07f3 11       		.uleb128 0x11
 2791 07f4 43010000 		.4byte	.LASF78
 2792 07f8 01       		.byte	0x1
 2793 07f9 2302     		.2byte	0x223
 2794 07fb 47       		.byte	0x47
 2795 07fc 9B000000 		.4byte	0x9b
 2796 0800 01       		.byte	0x1
 2797 0801 51       		.byte	0x51
 2798 0802 00       		.byte	0
 2799 0803 10       		.uleb128 0x10
 2800 0804 01       		.byte	0x1
 2801 0805 AE000000 		.4byte	.LASF79
 2802 0809 01       		.byte	0x1
 2803 080a 0602     		.2byte	0x206
 2804 080c 06       		.byte	0x6
 2805 080d 01       		.byte	0x1
 2806 080e 06020000 		.4byte	.LFB39
 2807 0812 1E020000 		.4byte	.LFE39
 2808 0816 02       		.byte	0x2
 2809 0817 7D       		.byte	0x7d
 2810 0818 00       		.sleb128 0
 2811 0819 01       		.byte	0x1
 2812 081a 3D080000 		.4byte	0x83d
 2813 081e 11       		.uleb128 0x11
 2814 081f 95040000 		.4byte	.LASF51
 2815 0823 01       		.byte	0x1
 2816 0824 0602     		.2byte	0x206
 2817 0826 2D       		.byte	0x2d
 2818 0827 A7030000 		.4byte	0x3a7
 2819 082b 01       		.byte	0x1
 2820 082c 50       		.byte	0x50
 2821 082d 11       		.uleb128 0x11
 2822 082e 4B020000 		.4byte	.LASF60
 2823 0832 01       		.byte	0x1
 2824 0833 0602     		.2byte	0x206
 2825 0835 45       		.byte	0x45
 2826 0836 17010000 		.4byte	0x117
 2827 083a 01       		.byte	0x1
 2828 083b 51       		.byte	0x51
 2829 083c 00       		.byte	0
 2830 083d 10       		.uleb128 0x10
 2831 083e 01       		.byte	0x1
 2832 083f 65060000 		.4byte	.LASF80
ARM GAS  C:\Users\ADMINI~1\AppData\Local\Temp\cc5w2WuM.s 			page 71


 2833 0843 01       		.byte	0x1
 2834 0844 F301     		.2byte	0x1f3
 2835 0846 06       		.byte	0x6
 2836 0847 01       		.byte	0x1
 2837 0848 F0010000 		.4byte	.LFB38
 2838 084c 06020000 		.4byte	.LFE38
 2839 0850 02       		.byte	0x2
 2840 0851 7D       		.byte	0x7d
 2841 0852 00       		.sleb128 0
 2842 0853 01       		.byte	0x1
 2843 0854 77080000 		.4byte	0x877
 2844 0858 11       		.uleb128 0x11
 2845 0859 95040000 		.4byte	.LASF51
 2846 085d 01       		.byte	0x1
 2847 085e F301     		.2byte	0x1f3
 2848 0860 28       		.byte	0x28
 2849 0861 A7030000 		.4byte	0x3a7
 2850 0865 01       		.byte	0x1
 2851 0866 50       		.byte	0x50
 2852 0867 11       		.uleb128 0x11
 2853 0868 2D020000 		.4byte	.LASF81
 2854 086c 01       		.byte	0x1
 2855 086d F301     		.2byte	0x1f3
 2856 086f 39       		.byte	0x39
 2857 0870 9B000000 		.4byte	0x9b
 2858 0874 01       		.byte	0x1
 2859 0875 51       		.byte	0x51
 2860 0876 00       		.byte	0
 2861 0877 10       		.uleb128 0x10
 2862 0878 01       		.byte	0x1
 2863 0879 BA030000 		.4byte	.LASF82
 2864 087d 01       		.byte	0x1
 2865 087e DC01     		.2byte	0x1dc
 2866 0880 06       		.byte	0x6
 2867 0881 01       		.byte	0x1
 2868 0882 DA010000 		.4byte	.LFB37
 2869 0886 F0010000 		.4byte	.LFE37
 2870 088a 02       		.byte	0x2
 2871 088b 7D       		.byte	0x7d
 2872 088c 00       		.sleb128 0
 2873 088d 01       		.byte	0x1
 2874 088e B1080000 		.4byte	0x8b1
 2875 0892 11       		.uleb128 0x11
 2876 0893 95040000 		.4byte	.LASF51
 2877 0897 01       		.byte	0x1
 2878 0898 DC01     		.2byte	0x1dc
 2879 089a 26       		.byte	0x26
 2880 089b A7030000 		.4byte	0x3a7
 2881 089f 01       		.byte	0x1
 2882 08a0 50       		.byte	0x50
 2883 08a1 11       		.uleb128 0x11
 2884 08a2 D4040000 		.4byte	.LASF83
 2885 08a6 01       		.byte	0x1
 2886 08a7 DC01     		.2byte	0x1dc
 2887 08a9 36       		.byte	0x36
 2888 08aa 8F000000 		.4byte	0x8f
 2889 08ae 01       		.byte	0x1
ARM GAS  C:\Users\ADMINI~1\AppData\Local\Temp\cc5w2WuM.s 			page 72


 2890 08af 51       		.byte	0x51
 2891 08b0 00       		.byte	0
 2892 08b1 10       		.uleb128 0x10
 2893 08b2 01       		.byte	0x1
 2894 08b3 54020000 		.4byte	.LASF84
 2895 08b7 01       		.byte	0x1
 2896 08b8 C001     		.2byte	0x1c0
 2897 08ba 06       		.byte	0x6
 2898 08bb 01       		.byte	0x1
 2899 08bc C8010000 		.4byte	.LFB36
 2900 08c0 DA010000 		.4byte	.LFE36
 2901 08c4 02       		.byte	0x2
 2902 08c5 7D       		.byte	0x7d
 2903 08c6 00       		.sleb128 0
 2904 08c7 01       		.byte	0x1
 2905 08c8 00090000 		.4byte	0x900
 2906 08cc 11       		.uleb128 0x11
 2907 08cd 95040000 		.4byte	.LASF51
 2908 08d1 01       		.byte	0x1
 2909 08d2 C001     		.2byte	0x1c0
 2910 08d4 22       		.byte	0x22
 2911 08d5 A7030000 		.4byte	0x3a7
 2912 08d9 01       		.byte	0x1
 2913 08da 50       		.byte	0x50
 2914 08db 12       		.uleb128 0x12
 2915 08dc 88040000 		.4byte	.LASF85
 2916 08e0 01       		.byte	0x1
 2917 08e1 C001     		.2byte	0x1c0
 2918 08e3 33       		.byte	0x33
 2919 08e4 9B000000 		.4byte	0x9b
 2920 08e8 0A030000 		.4byte	.LLST20
 2921 08ec 02030000 		.4byte	.LVUS20
 2922 08f0 11       		.uleb128 0x11
 2923 08f1 4B020000 		.4byte	.LASF60
 2924 08f5 01       		.byte	0x1
 2925 08f6 C001     		.2byte	0x1c0
 2926 08f8 51       		.byte	0x51
 2927 08f9 17010000 		.4byte	0x117
 2928 08fd 01       		.byte	0x1
 2929 08fe 52       		.byte	0x52
 2930 08ff 00       		.byte	0
 2931 0900 17       		.uleb128 0x17
 2932 0901 01       		.byte	0x1
 2933 0902 67040000 		.4byte	.LASF86
 2934 0906 01       		.byte	0x1
 2935 0907 8401     		.2byte	0x184
 2936 0909 06       		.byte	0x6
 2937 090a 01       		.byte	0x1
 2938 090b 98010000 		.4byte	.LFB35
 2939 090f C8010000 		.4byte	.LFE35
 2940 0913 44030000 		.4byte	.LLST13
 2941 0917 01       		.byte	0x1
 2942 0918 AA090000 		.4byte	0x9aa
 2943 091c 12       		.uleb128 0x12
 2944 091d 95040000 		.4byte	.LASF51
 2945 0921 01       		.byte	0x1
 2946 0922 8401     		.2byte	0x184
ARM GAS  C:\Users\ADMINI~1\AppData\Local\Temp\cc5w2WuM.s 			page 73


 2947 0924 24       		.byte	0x24
 2948 0925 A7030000 		.4byte	0x3a7
 2949 0929 6C030000 		.4byte	.LLST14
 2950 092d 64030000 		.4byte	.LVUS14
 2951 0931 12       		.uleb128 0x12
 2952 0932 24020000 		.4byte	.LASF50
 2953 0936 01       		.byte	0x1
 2954 0937 8401     		.2byte	0x184
 2955 0939 35       		.byte	0x35
 2956 093a 9B000000 		.4byte	0x9b
 2957 093e AA030000 		.4byte	.LLST15
 2958 0942 A6030000 		.4byte	.LVUS15
 2959 0946 11       		.uleb128 0x11
 2960 0947 4B020000 		.4byte	.LASF60
 2961 094b 01       		.byte	0x1
 2962 094c 8401     		.2byte	0x184
 2963 094e 4F       		.byte	0x4f
 2964 094f 17010000 		.4byte	0x117
 2965 0953 01       		.byte	0x1
 2966 0954 52       		.byte	0x52
 2967 0955 13       		.uleb128 0x13
 2968 0956 DB060000 		.4byte	.LASF52
 2969 095a 01       		.byte	0x1
 2970 095b 8601     		.2byte	0x186
 2971 095d 0C       		.byte	0xc
 2972 095e AC000000 		.4byte	0xac
 2973 0962 CF030000 		.4byte	.LLST16
 2974 0966 CB030000 		.4byte	.LVUS16
 2975 096a 13       		.uleb128 0x13
 2976 096b A8000000 		.4byte	.LASF87
 2977 096f 01       		.byte	0x1
 2978 0970 8601     		.2byte	0x186
 2979 0972 1D       		.byte	0x1d
 2980 0973 AC000000 		.4byte	0xac
 2981 0977 F9030000 		.4byte	.LLST17
 2982 097b F3030000 		.4byte	.LVUS17
 2983 097f 13       		.uleb128 0x13
 2984 0980 B8060000 		.4byte	.LASF49
 2985 0984 01       		.byte	0x1
 2986 0985 8601     		.2byte	0x186
 2987 0987 2B       		.byte	0x2b
 2988 0988 AC000000 		.4byte	0xac
 2989 098c 3A040000 		.4byte	.LLST18
 2990 0990 34040000 		.4byte	.LVUS18
 2991 0994 13       		.uleb128 0x13
 2992 0995 9F030000 		.4byte	.LASF88
 2993 0999 01       		.byte	0x1
 2994 099a 8701     		.2byte	0x187
 2995 099c 0C       		.byte	0xc
 2996 099d AC000000 		.4byte	0xac
 2997 09a1 68040000 		.4byte	.LLST19
 2998 09a5 64040000 		.4byte	.LVUS19
 2999 09a9 00       		.byte	0
 3000 09aa 10       		.uleb128 0x10
 3001 09ab 01       		.byte	0x1
 3002 09ac 03020000 		.4byte	.LASF89
 3003 09b0 01       		.byte	0x1
ARM GAS  C:\Users\ADMINI~1\AppData\Local\Temp\cc5w2WuM.s 			page 74


 3004 09b1 5F01     		.2byte	0x15f
 3005 09b3 06       		.byte	0x6
 3006 09b4 01       		.byte	0x1
 3007 09b5 80010000 		.4byte	.LFB34
 3008 09b9 98010000 		.4byte	.LFE34
 3009 09bd 02       		.byte	0x2
 3010 09be 7D       		.byte	0x7d
 3011 09bf 00       		.sleb128 0
 3012 09c0 01       		.byte	0x1
 3013 09c1 E4090000 		.4byte	0x9e4
 3014 09c5 11       		.uleb128 0x11
 3015 09c6 95040000 		.4byte	.LASF51
 3016 09ca 01       		.byte	0x1
 3017 09cb 5F01     		.2byte	0x15f
 3018 09cd 1F       		.byte	0x1f
 3019 09ce A7030000 		.4byte	0x3a7
 3020 09d2 01       		.byte	0x1
 3021 09d3 50       		.byte	0x50
 3022 09d4 11       		.uleb128 0x11
 3023 09d5 4B020000 		.4byte	.LASF60
 3024 09d9 01       		.byte	0x1
 3025 09da 5F01     		.2byte	0x15f
 3026 09dc 37       		.byte	0x37
 3027 09dd 17010000 		.4byte	0x117
 3028 09e1 01       		.byte	0x1
 3029 09e2 51       		.byte	0x51
 3030 09e3 00       		.byte	0
 3031 09e4 10       		.uleb128 0x10
 3032 09e5 01       		.byte	0x1
 3033 09e6 7B030000 		.4byte	.LASF90
 3034 09ea 01       		.byte	0x1
 3035 09eb 4D01     		.2byte	0x14d
 3036 09ed 06       		.byte	0x6
 3037 09ee 01       		.byte	0x1
 3038 09ef 74010000 		.4byte	.LFB33
 3039 09f3 80010000 		.4byte	.LFE33
 3040 09f7 02       		.byte	0x2
 3041 09f8 7D       		.byte	0x7d
 3042 09f9 00       		.sleb128 0
 3043 09fa 01       		.byte	0x1
 3044 09fb 0F0A0000 		.4byte	0xa0f
 3045 09ff 11       		.uleb128 0x11
 3046 0a00 4C030000 		.4byte	.LASF91
 3047 0a04 01       		.byte	0x1
 3048 0a05 4D01     		.2byte	0x14d
 3049 0a07 34       		.byte	0x34
 3050 0a08 0F0A0000 		.4byte	0xa0f
 3051 0a0c 01       		.byte	0x1
 3052 0a0d 50       		.byte	0x50
 3053 0a0e 00       		.byte	0
 3054 0a0f 14       		.uleb128 0x14
 3055 0a10 04       		.byte	0x4
 3056 0a11 31030000 		.4byte	0x331
 3057 0a15 17       		.uleb128 0x17
 3058 0a16 01       		.byte	0x1
 3059 0a17 55060000 		.4byte	.LASF92
 3060 0a1b 01       		.byte	0x1
ARM GAS  C:\Users\ADMINI~1\AppData\Local\Temp\cc5w2WuM.s 			page 75


 3061 0a1c 2E01     		.2byte	0x12e
 3062 0a1e 06       		.byte	0x6
 3063 0a1f 01       		.byte	0x1
 3064 0a20 54010000 		.4byte	.LFB32
 3065 0a24 74010000 		.4byte	.LFE32
 3066 0a28 87040000 		.4byte	.LLST10
 3067 0a2c 01       		.byte	0x1
 3068 0a2d 6B0A0000 		.4byte	0xa6b
 3069 0a31 11       		.uleb128 0x11
 3070 0a32 95040000 		.4byte	.LASF51
 3071 0a36 01       		.byte	0x1
 3072 0a37 2E01     		.2byte	0x12e
 3073 0a39 25       		.byte	0x25
 3074 0a3a A7030000 		.4byte	0x3a7
 3075 0a3e 01       		.byte	0x1
 3076 0a3f 50       		.byte	0x50
 3077 0a40 12       		.uleb128 0x12
 3078 0a41 4C030000 		.4byte	.LASF91
 3079 0a45 01       		.byte	0x1
 3080 0a46 2E01     		.2byte	0x12e
 3081 0a48 45       		.byte	0x45
 3082 0a49 0F0A0000 		.4byte	0xa0f
 3083 0a4d AB040000 		.4byte	.LLST11
 3084 0a51 A7040000 		.4byte	.LVUS11
 3085 0a55 13       		.uleb128 0x13
 3086 0a56 67030000 		.4byte	.LASF93
 3087 0a5a 01       		.byte	0x1
 3088 0a5b 3001     		.2byte	0x130
 3089 0a5d 0C       		.byte	0xc
 3090 0a5e AC000000 		.4byte	0xac
 3091 0a62 D4040000 		.4byte	.LLST12
 3092 0a66 CC040000 		.4byte	.LVUS12
 3093 0a6a 00       		.byte	0
 3094 0a6b 10       		.uleb128 0x10
 3095 0a6c 01       		.byte	0x1
 3096 0a6d 8C060000 		.4byte	.LASF94
 3097 0a71 01       		.byte	0x1
 3098 0a72 1901     		.2byte	0x119
 3099 0a74 06       		.byte	0x6
 3100 0a75 01       		.byte	0x1
 3101 0a76 40010000 		.4byte	.LFB31
 3102 0a7a 54010000 		.4byte	.LFE31
 3103 0a7e 02       		.byte	0x2
 3104 0a7f 7D       		.byte	0x7d
 3105 0a80 00       		.sleb128 0
 3106 0a81 01       		.byte	0x1
 3107 0a82 960A0000 		.4byte	0xa96
 3108 0a86 11       		.uleb128 0x11
 3109 0a87 33060000 		.4byte	.LASF95
 3110 0a8b 01       		.byte	0x1
 3111 0a8c 1901     		.2byte	0x119
 3112 0a8e 2A       		.byte	0x2a
 3113 0a8f 960A0000 		.4byte	0xa96
 3114 0a93 01       		.byte	0x1
 3115 0a94 50       		.byte	0x50
 3116 0a95 00       		.byte	0
 3117 0a96 14       		.uleb128 0x14
ARM GAS  C:\Users\ADMINI~1\AppData\Local\Temp\cc5w2WuM.s 			page 76


 3118 0a97 04       		.byte	0x4
 3119 0a98 DF020000 		.4byte	0x2df
 3120 0a9c 18       		.uleb128 0x18
 3121 0a9d 01       		.byte	0x1
 3122 0a9e 29010000 		.4byte	.LASF96
 3123 0aa2 01       		.byte	0x1
 3124 0aa3 B0       		.byte	0xb0
 3125 0aa4 06       		.byte	0x6
 3126 0aa5 01       		.byte	0x1
 3127 0aa6 9C000000 		.4byte	.LFB30
 3128 0aaa 40010000 		.4byte	.LFE30
 3129 0aae 1F050000 		.4byte	.LLST2
 3130 0ab2 01       		.byte	0x1
 3131 0ab3 630B0000 		.4byte	0xb63
 3132 0ab7 19       		.uleb128 0x19
 3133 0ab8 95040000 		.4byte	.LASF51
 3134 0abc 01       		.byte	0x1
 3135 0abd B0       		.byte	0xb0
 3136 0abe 20       		.byte	0x20
 3137 0abf A7030000 		.4byte	0x3a7
 3138 0ac3 5D050000 		.4byte	.LLST3
 3139 0ac7 57050000 		.4byte	.LVUS3
 3140 0acb 19       		.uleb128 0x19
 3141 0acc 33060000 		.4byte	.LASF95
 3142 0ad0 01       		.byte	0x1
 3143 0ad1 B0       		.byte	0xb0
 3144 0ad2 3B       		.byte	0x3b
 3145 0ad3 960A0000 		.4byte	0xa96
 3146 0ad7 8F050000 		.4byte	.LLST4
 3147 0adb 89050000 		.4byte	.LVUS4
 3148 0adf 1A       		.uleb128 0x1a
 3149 0ae0 67030000 		.4byte	.LASF93
 3150 0ae4 01       		.byte	0x1
 3151 0ae5 B2       		.byte	0xb2
 3152 0ae6 0C       		.byte	0xc
 3153 0ae7 AC000000 		.4byte	0xac
 3154 0aeb D3050000 		.4byte	.LLST5
 3155 0aef BB050000 		.4byte	.LVUS5
 3156 0af3 1A       		.uleb128 0x1a
 3157 0af4 A1020000 		.4byte	.LASF97
 3158 0af8 01       		.byte	0x1
 3159 0af9 B2       		.byte	0xb2
 3160 0afa 1B       		.byte	0x1b
 3161 0afb AC000000 		.4byte	0xac
 3162 0aff AC060000 		.4byte	.LLST6
 3163 0b03 A4060000 		.4byte	.LVUS6
 3164 0b07 1A       		.uleb128 0x1a
 3165 0b08 00000000 		.4byte	.LASF98
 3166 0b0c 01       		.byte	0x1
 3167 0b0d B3       		.byte	0xb3
 3168 0b0e 0C       		.byte	0xc
 3169 0b0f AC000000 		.4byte	0xac
 3170 0b13 0E070000 		.4byte	.LLST7
 3171 0b17 08070000 		.4byte	.LVUS7
 3172 0b1b 1A       		.uleb128 0x1a
 3173 0b1c B9050000 		.4byte	.LASF99
 3174 0b20 01       		.byte	0x1
ARM GAS  C:\Users\ADMINI~1\AppData\Local\Temp\cc5w2WuM.s 			page 77


 3175 0b21 B4       		.byte	0xb4
 3176 0b22 0C       		.byte	0xc
 3177 0b23 AC000000 		.4byte	0xac
 3178 0b27 5A070000 		.4byte	.LLST8
 3179 0b2b 56070000 		.4byte	.LVUS8
 3180 0b2f 1A       		.uleb128 0x1a
 3181 0b30 9F030000 		.4byte	.LASF88
 3182 0b34 01       		.byte	0x1
 3183 0b35 B5       		.byte	0xb5
 3184 0b36 0C       		.byte	0xc
 3185 0b37 AC000000 		.4byte	0xac
 3186 0b3b 81070000 		.4byte	.LLST9
 3187 0b3f 79070000 		.4byte	.LVUS9
 3188 0b43 1B       		.uleb128 0x1b
 3189 0b44 44060000 		.4byte	.LASF107
 3190 0b48 01       		.byte	0x1
 3191 0b49 B6       		.byte	0xb6
 3192 0b4a 15       		.byte	0x15
 3193 0b4b 6F020000 		.4byte	0x26f
 3194 0b4f 02       		.byte	0x2
 3195 0b50 91       		.byte	0x91
 3196 0b51 5C       		.sleb128 -36
 3197 0b52 1C       		.uleb128 0x1c
 3198 0b53 E4000000 		.4byte	.LVL30
 3199 0b57 360C0000 		.4byte	0xc36
 3200 0b5b 1D       		.uleb128 0x1d
 3201 0b5c 01       		.byte	0x1
 3202 0b5d 50       		.byte	0x50
 3203 0b5e 02       		.byte	0x2
 3204 0b5f 91       		.byte	0x91
 3205 0b60 5C       		.sleb128 -36
 3206 0b61 00       		.byte	0
 3207 0b62 00       		.byte	0
 3208 0b63 18       		.uleb128 0x18
 3209 0b64 01       		.byte	0x1
 3210 0b65 3F030000 		.4byte	.LASF100
 3211 0b69 01       		.byte	0x1
 3212 0b6a 82       		.byte	0x82
 3213 0b6b 06       		.byte	0x6
 3214 0b6c 01       		.byte	0x1
 3215 0b6d 00000000 		.4byte	.LFB29
 3216 0b71 9C000000 		.4byte	.LFE29
 3217 0b75 B9070000 		.4byte	.LLST0
 3218 0b79 01       		.byte	0x1
 3219 0b7a 360C0000 		.4byte	0xc36
 3220 0b7e 19       		.uleb128 0x19
 3221 0b7f 95040000 		.4byte	.LASF51
 3222 0b83 01       		.byte	0x1
 3223 0b84 82       		.byte	0x82
 3224 0b85 22       		.byte	0x22
 3225 0b86 A7030000 		.4byte	0x3a7
 3226 0b8a 1F080000 		.4byte	.LLST1
 3227 0b8e 09080000 		.4byte	.LVUS1
 3228 0b92 1E       		.uleb128 0x1e
 3229 0b93 12000000 		.4byte	.LVL2
 3230 0b97 450C0000 		.4byte	0xc45
 3231 0b9b AC0B0000 		.4byte	0xbac
ARM GAS  C:\Users\ADMINI~1\AppData\Local\Temp\cc5w2WuM.s 			page 78


 3232 0b9f 1D       		.uleb128 0x1d
 3233 0ba0 01       		.byte	0x1
 3234 0ba1 50       		.byte	0x50
 3235 0ba2 03       		.byte	0x3
 3236 0ba3 0A       		.byte	0xa
 3237 0ba4 0040     		.2byte	0x4000
 3238 0ba6 1D       		.uleb128 0x1d
 3239 0ba7 01       		.byte	0x1
 3240 0ba8 51       		.byte	0x51
 3241 0ba9 01       		.byte	0x1
 3242 0baa 31       		.byte	0x31
 3243 0bab 00       		.byte	0
 3244 0bac 1F       		.uleb128 0x1f
 3245 0bad 20000000 		.4byte	.LVL3
 3246 0bb1 01       		.byte	0x1
 3247 0bb2 450C0000 		.4byte	0xc45
 3248 0bb6 C70B0000 		.4byte	0xbc7
 3249 0bba 1D       		.uleb128 0x1d
 3250 0bbb 01       		.byte	0x1
 3251 0bbc 50       		.byte	0x50
 3252 0bbd 03       		.byte	0x3
 3253 0bbe 0A       		.byte	0xa
 3254 0bbf 0040     		.2byte	0x4000
 3255 0bc1 1D       		.uleb128 0x1d
 3256 0bc2 01       		.byte	0x1
 3257 0bc3 51       		.byte	0x51
 3258 0bc4 01       		.byte	0x1
 3259 0bc5 30       		.byte	0x30
 3260 0bc6 00       		.byte	0
 3261 0bc7 1E       		.uleb128 0x1e
 3262 0bc8 30000000 		.4byte	.LVL5
 3263 0bcc 540C0000 		.4byte	0xc54
 3264 0bd0 E10B0000 		.4byte	0xbe1
 3265 0bd4 1D       		.uleb128 0x1d
 3266 0bd5 01       		.byte	0x1
 3267 0bd6 50       		.byte	0x50
 3268 0bd7 03       		.byte	0x3
 3269 0bd8 40       		.byte	0x40
 3270 0bd9 3D       		.byte	0x3d
 3271 0bda 24       		.byte	0x24
 3272 0bdb 1D       		.uleb128 0x1d
 3273 0bdc 01       		.byte	0x1
 3274 0bdd 51       		.byte	0x51
 3275 0bde 01       		.byte	0x1
 3276 0bdf 31       		.byte	0x31
 3277 0be0 00       		.byte	0
 3278 0be1 20       		.uleb128 0x20
 3279 0be2 3E000000 		.4byte	.LVL6
 3280 0be6 01       		.byte	0x1
 3281 0be7 540C0000 		.4byte	0xc54
 3282 0beb 1E       		.uleb128 0x1e
 3283 0bec 4E000000 		.4byte	.LVL8
 3284 0bf0 540C0000 		.4byte	0xc54
 3285 0bf4 050C0000 		.4byte	0xc05
 3286 0bf8 1D       		.uleb128 0x1d
 3287 0bf9 01       		.byte	0x1
 3288 0bfa 50       		.byte	0x50
ARM GAS  C:\Users\ADMINI~1\AppData\Local\Temp\cc5w2WuM.s 			page 79


 3289 0bfb 03       		.byte	0x3
 3290 0bfc 40       		.byte	0x40
 3291 0bfd 3E       		.byte	0x3e
 3292 0bfe 24       		.byte	0x24
 3293 0bff 1D       		.uleb128 0x1d
 3294 0c00 01       		.byte	0x1
 3295 0c01 51       		.byte	0x51
 3296 0c02 01       		.byte	0x1
 3297 0c03 31       		.byte	0x31
 3298 0c04 00       		.byte	0
 3299 0c05 1E       		.uleb128 0x1e
 3300 0c06 66000000 		.4byte	.LVL11
 3301 0c0a 540C0000 		.4byte	0xc54
 3302 0c0e 1F0C0000 		.4byte	0xc1f
 3303 0c12 1D       		.uleb128 0x1d
 3304 0c13 01       		.byte	0x1
 3305 0c14 50       		.byte	0x50
 3306 0c15 03       		.byte	0x3
 3307 0c16 40       		.byte	0x40
 3308 0c17 3F       		.byte	0x3f
 3309 0c18 24       		.byte	0x24
 3310 0c19 1D       		.uleb128 0x1d
 3311 0c1a 01       		.byte	0x1
 3312 0c1b 51       		.byte	0x51
 3313 0c1c 01       		.byte	0x1
 3314 0c1d 31       		.byte	0x31
 3315 0c1e 00       		.byte	0
 3316 0c1f 1C       		.uleb128 0x1c
 3317 0c20 7E000000 		.4byte	.LVL14
 3318 0c24 540C0000 		.4byte	0xc54
 3319 0c28 1D       		.uleb128 0x1d
 3320 0c29 01       		.byte	0x1
 3321 0c2a 50       		.byte	0x50
 3322 0c2b 03       		.byte	0x3
 3323 0c2c 40       		.byte	0x40
 3324 0c2d 40       		.byte	0x40
 3325 0c2e 24       		.byte	0x24
 3326 0c2f 1D       		.uleb128 0x1d
 3327 0c30 01       		.byte	0x1
 3328 0c31 51       		.byte	0x51
 3329 0c32 01       		.byte	0x1
 3330 0c33 31       		.byte	0x31
 3331 0c34 00       		.byte	0
 3332 0c35 00       		.byte	0
 3333 0c36 21       		.uleb128 0x21
 3334 0c37 01       		.byte	0x1
 3335 0c38 01       		.byte	0x1
 3336 0c39 21060000 		.4byte	.LASF101
 3337 0c3d 21060000 		.4byte	.LASF101
 3338 0c41 05       		.byte	0x5
 3339 0c42 B302     		.2byte	0x2b3
 3340 0c44 06       		.byte	0x6
 3341 0c45 21       		.uleb128 0x21
 3342 0c46 01       		.byte	0x1
 3343 0c47 01       		.byte	0x1
 3344 0c48 50040000 		.4byte	.LASF102
 3345 0c4c 50040000 		.4byte	.LASF102
ARM GAS  C:\Users\ADMINI~1\AppData\Local\Temp\cc5w2WuM.s 			page 80


 3346 0c50 05       		.byte	0x5
 3347 0c51 BC02     		.2byte	0x2bc
 3348 0c53 06       		.byte	0x6
 3349 0c54 21       		.uleb128 0x21
 3350 0c55 01       		.byte	0x1
 3351 0c56 01       		.byte	0x1
 3352 0c57 B8020000 		.4byte	.LASF103
 3353 0c5b B8020000 		.4byte	.LASF103
 3354 0c5f 05       		.byte	0x5
 3355 0c60 BD02     		.2byte	0x2bd
 3356 0c62 06       		.byte	0x6
 3357 0c63 00       		.byte	0
 3358              		.section	.debug_abbrev,"",%progbits
 3359              	.Ldebug_abbrev0:
 3360 0000 01       		.uleb128 0x1
 3361 0001 11       		.uleb128 0x11
 3362 0002 01       		.byte	0x1
 3363 0003 25       		.uleb128 0x25
 3364 0004 0E       		.uleb128 0xe
 3365 0005 13       		.uleb128 0x13
 3366 0006 0B       		.uleb128 0xb
 3367 0007 03       		.uleb128 0x3
 3368 0008 0E       		.uleb128 0xe
 3369 0009 1B       		.uleb128 0x1b
 3370 000a 0E       		.uleb128 0xe
 3371 000b 11       		.uleb128 0x11
 3372 000c 01       		.uleb128 0x1
 3373 000d 12       		.uleb128 0x12
 3374 000e 01       		.uleb128 0x1
 3375 000f 10       		.uleb128 0x10
 3376 0010 06       		.uleb128 0x6
 3377 0011 00       		.byte	0
 3378 0012 00       		.byte	0
 3379 0013 02       		.uleb128 0x2
 3380 0014 24       		.uleb128 0x24
 3381 0015 00       		.byte	0
 3382 0016 0B       		.uleb128 0xb
 3383 0017 0B       		.uleb128 0xb
 3384 0018 3E       		.uleb128 0x3e
 3385 0019 0B       		.uleb128 0xb
 3386 001a 03       		.uleb128 0x3
 3387 001b 0E       		.uleb128 0xe
 3388 001c 00       		.byte	0
 3389 001d 00       		.byte	0
 3390 001e 03       		.uleb128 0x3
 3391 001f 16       		.uleb128 0x16
 3392 0020 00       		.byte	0
 3393 0021 03       		.uleb128 0x3
 3394 0022 0E       		.uleb128 0xe
 3395 0023 3A       		.uleb128 0x3a
 3396 0024 0B       		.uleb128 0xb
 3397 0025 3B       		.uleb128 0x3b
 3398 0026 0B       		.uleb128 0xb
 3399 0027 39       		.uleb128 0x39
 3400 0028 0B       		.uleb128 0xb
 3401 0029 49       		.uleb128 0x49
 3402 002a 13       		.uleb128 0x13
ARM GAS  C:\Users\ADMINI~1\AppData\Local\Temp\cc5w2WuM.s 			page 81


 3403 002b 00       		.byte	0
 3404 002c 00       		.byte	0
 3405 002d 04       		.uleb128 0x4
 3406 002e 24       		.uleb128 0x24
 3407 002f 00       		.byte	0
 3408 0030 0B       		.uleb128 0xb
 3409 0031 0B       		.uleb128 0xb
 3410 0032 3E       		.uleb128 0x3e
 3411 0033 0B       		.uleb128 0xb
 3412 0034 03       		.uleb128 0x3
 3413 0035 08       		.uleb128 0x8
 3414 0036 00       		.byte	0
 3415 0037 00       		.byte	0
 3416 0038 05       		.uleb128 0x5
 3417 0039 35       		.uleb128 0x35
 3418 003a 00       		.byte	0
 3419 003b 49       		.uleb128 0x49
 3420 003c 13       		.uleb128 0x13
 3421 003d 00       		.byte	0
 3422 003e 00       		.byte	0
 3423 003f 06       		.uleb128 0x6
 3424 0040 16       		.uleb128 0x16
 3425 0041 00       		.byte	0
 3426 0042 03       		.uleb128 0x3
 3427 0043 08       		.uleb128 0x8
 3428 0044 3A       		.uleb128 0x3a
 3429 0045 0B       		.uleb128 0xb
 3430 0046 3B       		.uleb128 0x3b
 3431 0047 05       		.uleb128 0x5
 3432 0048 39       		.uleb128 0x39
 3433 0049 0B       		.uleb128 0xb
 3434 004a 49       		.uleb128 0x49
 3435 004b 13       		.uleb128 0x13
 3436 004c 00       		.byte	0
 3437 004d 00       		.byte	0
 3438 004e 07       		.uleb128 0x7
 3439 004f 04       		.uleb128 0x4
 3440 0050 01       		.byte	0x1
 3441 0051 3E       		.uleb128 0x3e
 3442 0052 0B       		.uleb128 0xb
 3443 0053 0B       		.uleb128 0xb
 3444 0054 0B       		.uleb128 0xb
 3445 0055 49       		.uleb128 0x49
 3446 0056 13       		.uleb128 0x13
 3447 0057 3A       		.uleb128 0x3a
 3448 0058 0B       		.uleb128 0xb
 3449 0059 3B       		.uleb128 0x3b
 3450 005a 05       		.uleb128 0x5
 3451 005b 39       		.uleb128 0x39
 3452 005c 0B       		.uleb128 0xb
 3453 005d 01       		.uleb128 0x1
 3454 005e 13       		.uleb128 0x13
 3455 005f 00       		.byte	0
 3456 0060 00       		.byte	0
 3457 0061 08       		.uleb128 0x8
 3458 0062 28       		.uleb128 0x28
 3459 0063 00       		.byte	0
ARM GAS  C:\Users\ADMINI~1\AppData\Local\Temp\cc5w2WuM.s 			page 82


 3460 0064 03       		.uleb128 0x3
 3461 0065 0E       		.uleb128 0xe
 3462 0066 1C       		.uleb128 0x1c
 3463 0067 0B       		.uleb128 0xb
 3464 0068 00       		.byte	0
 3465 0069 00       		.byte	0
 3466 006a 09       		.uleb128 0x9
 3467 006b 28       		.uleb128 0x28
 3468 006c 00       		.byte	0
 3469 006d 03       		.uleb128 0x3
 3470 006e 08       		.uleb128 0x8
 3471 006f 1C       		.uleb128 0x1c
 3472 0070 0B       		.uleb128 0xb
 3473 0071 00       		.byte	0
 3474 0072 00       		.byte	0
 3475 0073 0A       		.uleb128 0xa
 3476 0074 16       		.uleb128 0x16
 3477 0075 00       		.byte	0
 3478 0076 03       		.uleb128 0x3
 3479 0077 0E       		.uleb128 0xe
 3480 0078 3A       		.uleb128 0x3a
 3481 0079 0B       		.uleb128 0xb
 3482 007a 3B       		.uleb128 0x3b
 3483 007b 05       		.uleb128 0x5
 3484 007c 39       		.uleb128 0x39
 3485 007d 0B       		.uleb128 0xb
 3486 007e 49       		.uleb128 0x49
 3487 007f 13       		.uleb128 0x13
 3488 0080 00       		.byte	0
 3489 0081 00       		.byte	0
 3490 0082 0B       		.uleb128 0xb
 3491 0083 13       		.uleb128 0x13
 3492 0084 01       		.byte	0x1
 3493 0085 0B       		.uleb128 0xb
 3494 0086 0B       		.uleb128 0xb
 3495 0087 3A       		.uleb128 0x3a
 3496 0088 0B       		.uleb128 0xb
 3497 0089 3B       		.uleb128 0x3b
 3498 008a 05       		.uleb128 0x5
 3499 008b 39       		.uleb128 0x39
 3500 008c 0B       		.uleb128 0xb
 3501 008d 01       		.uleb128 0x1
 3502 008e 13       		.uleb128 0x13
 3503 008f 00       		.byte	0
 3504 0090 00       		.byte	0
 3505 0091 0C       		.uleb128 0xc
 3506 0092 0D       		.uleb128 0xd
 3507 0093 00       		.byte	0
 3508 0094 03       		.uleb128 0x3
 3509 0095 08       		.uleb128 0x8
 3510 0096 3A       		.uleb128 0x3a
 3511 0097 0B       		.uleb128 0xb
 3512 0098 3B       		.uleb128 0x3b
 3513 0099 05       		.uleb128 0x5
 3514 009a 39       		.uleb128 0x39
 3515 009b 0B       		.uleb128 0xb
 3516 009c 49       		.uleb128 0x49
ARM GAS  C:\Users\ADMINI~1\AppData\Local\Temp\cc5w2WuM.s 			page 83


 3517 009d 13       		.uleb128 0x13
 3518 009e 38       		.uleb128 0x38
 3519 009f 0A       		.uleb128 0xa
 3520 00a0 00       		.byte	0
 3521 00a1 00       		.byte	0
 3522 00a2 0D       		.uleb128 0xd
 3523 00a3 0D       		.uleb128 0xd
 3524 00a4 00       		.byte	0
 3525 00a5 03       		.uleb128 0x3
 3526 00a6 0E       		.uleb128 0xe
 3527 00a7 3A       		.uleb128 0x3a
 3528 00a8 0B       		.uleb128 0xb
 3529 00a9 3B       		.uleb128 0x3b
 3530 00aa 05       		.uleb128 0x5
 3531 00ab 39       		.uleb128 0x39
 3532 00ac 0B       		.uleb128 0xb
 3533 00ad 49       		.uleb128 0x49
 3534 00ae 13       		.uleb128 0x13
 3535 00af 38       		.uleb128 0x38
 3536 00b0 0A       		.uleb128 0xa
 3537 00b1 00       		.byte	0
 3538 00b2 00       		.byte	0
 3539 00b3 0E       		.uleb128 0xe
 3540 00b4 13       		.uleb128 0x13
 3541 00b5 01       		.byte	0x1
 3542 00b6 0B       		.uleb128 0xb
 3543 00b7 0B       		.uleb128 0xb
 3544 00b8 3A       		.uleb128 0x3a
 3545 00b9 0B       		.uleb128 0xb
 3546 00ba 3B       		.uleb128 0x3b
 3547 00bb 0B       		.uleb128 0xb
 3548 00bc 39       		.uleb128 0x39
 3549 00bd 0B       		.uleb128 0xb
 3550 00be 01       		.uleb128 0x1
 3551 00bf 13       		.uleb128 0x13
 3552 00c0 00       		.byte	0
 3553 00c1 00       		.byte	0
 3554 00c2 0F       		.uleb128 0xf
 3555 00c3 0D       		.uleb128 0xd
 3556 00c4 00       		.byte	0
 3557 00c5 03       		.uleb128 0x3
 3558 00c6 0E       		.uleb128 0xe
 3559 00c7 3A       		.uleb128 0x3a
 3560 00c8 0B       		.uleb128 0xb
 3561 00c9 3B       		.uleb128 0x3b
 3562 00ca 0B       		.uleb128 0xb
 3563 00cb 39       		.uleb128 0x39
 3564 00cc 0B       		.uleb128 0xb
 3565 00cd 49       		.uleb128 0x49
 3566 00ce 13       		.uleb128 0x13
 3567 00cf 38       		.uleb128 0x38
 3568 00d0 0A       		.uleb128 0xa
 3569 00d1 00       		.byte	0
 3570 00d2 00       		.byte	0
 3571 00d3 10       		.uleb128 0x10
 3572 00d4 2E       		.uleb128 0x2e
 3573 00d5 01       		.byte	0x1
ARM GAS  C:\Users\ADMINI~1\AppData\Local\Temp\cc5w2WuM.s 			page 84


 3574 00d6 3F       		.uleb128 0x3f
 3575 00d7 0C       		.uleb128 0xc
 3576 00d8 03       		.uleb128 0x3
 3577 00d9 0E       		.uleb128 0xe
 3578 00da 3A       		.uleb128 0x3a
 3579 00db 0B       		.uleb128 0xb
 3580 00dc 3B       		.uleb128 0x3b
 3581 00dd 05       		.uleb128 0x5
 3582 00de 39       		.uleb128 0x39
 3583 00df 0B       		.uleb128 0xb
 3584 00e0 27       		.uleb128 0x27
 3585 00e1 0C       		.uleb128 0xc
 3586 00e2 11       		.uleb128 0x11
 3587 00e3 01       		.uleb128 0x1
 3588 00e4 12       		.uleb128 0x12
 3589 00e5 01       		.uleb128 0x1
 3590 00e6 40       		.uleb128 0x40
 3591 00e7 0A       		.uleb128 0xa
 3592 00e8 9742     		.uleb128 0x2117
 3593 00ea 0C       		.uleb128 0xc
 3594 00eb 01       		.uleb128 0x1
 3595 00ec 13       		.uleb128 0x13
 3596 00ed 00       		.byte	0
 3597 00ee 00       		.byte	0
 3598 00ef 11       		.uleb128 0x11
 3599 00f0 05       		.uleb128 0x5
 3600 00f1 00       		.byte	0
 3601 00f2 03       		.uleb128 0x3
 3602 00f3 0E       		.uleb128 0xe
 3603 00f4 3A       		.uleb128 0x3a
 3604 00f5 0B       		.uleb128 0xb
 3605 00f6 3B       		.uleb128 0x3b
 3606 00f7 05       		.uleb128 0x5
 3607 00f8 39       		.uleb128 0x39
 3608 00f9 0B       		.uleb128 0xb
 3609 00fa 49       		.uleb128 0x49
 3610 00fb 13       		.uleb128 0x13
 3611 00fc 02       		.uleb128 0x2
 3612 00fd 0A       		.uleb128 0xa
 3613 00fe 00       		.byte	0
 3614 00ff 00       		.byte	0
 3615 0100 12       		.uleb128 0x12
 3616 0101 05       		.uleb128 0x5
 3617 0102 00       		.byte	0
 3618 0103 03       		.uleb128 0x3
 3619 0104 0E       		.uleb128 0xe
 3620 0105 3A       		.uleb128 0x3a
 3621 0106 0B       		.uleb128 0xb
 3622 0107 3B       		.uleb128 0x3b
 3623 0108 05       		.uleb128 0x5
 3624 0109 39       		.uleb128 0x39
 3625 010a 0B       		.uleb128 0xb
 3626 010b 49       		.uleb128 0x49
 3627 010c 13       		.uleb128 0x13
 3628 010d 02       		.uleb128 0x2
 3629 010e 06       		.uleb128 0x6
 3630 010f B742     		.uleb128 0x2137
ARM GAS  C:\Users\ADMINI~1\AppData\Local\Temp\cc5w2WuM.s 			page 85


 3631 0111 06       		.uleb128 0x6
 3632 0112 00       		.byte	0
 3633 0113 00       		.byte	0
 3634 0114 13       		.uleb128 0x13
 3635 0115 34       		.uleb128 0x34
 3636 0116 00       		.byte	0
 3637 0117 03       		.uleb128 0x3
 3638 0118 0E       		.uleb128 0xe
 3639 0119 3A       		.uleb128 0x3a
 3640 011a 0B       		.uleb128 0xb
 3641 011b 3B       		.uleb128 0x3b
 3642 011c 05       		.uleb128 0x5
 3643 011d 39       		.uleb128 0x39
 3644 011e 0B       		.uleb128 0xb
 3645 011f 49       		.uleb128 0x49
 3646 0120 13       		.uleb128 0x13
 3647 0121 02       		.uleb128 0x2
 3648 0122 06       		.uleb128 0x6
 3649 0123 B742     		.uleb128 0x2137
 3650 0125 06       		.uleb128 0x6
 3651 0126 00       		.byte	0
 3652 0127 00       		.byte	0
 3653 0128 14       		.uleb128 0x14
 3654 0129 0F       		.uleb128 0xf
 3655 012a 00       		.byte	0
 3656 012b 0B       		.uleb128 0xb
 3657 012c 0B       		.uleb128 0xb
 3658 012d 49       		.uleb128 0x49
 3659 012e 13       		.uleb128 0x13
 3660 012f 00       		.byte	0
 3661 0130 00       		.byte	0
 3662 0131 15       		.uleb128 0x15
 3663 0132 2E       		.uleb128 0x2e
 3664 0133 01       		.byte	0x1
 3665 0134 3F       		.uleb128 0x3f
 3666 0135 0C       		.uleb128 0xc
 3667 0136 03       		.uleb128 0x3
 3668 0137 0E       		.uleb128 0xe
 3669 0138 3A       		.uleb128 0x3a
 3670 0139 0B       		.uleb128 0xb
 3671 013a 3B       		.uleb128 0x3b
 3672 013b 05       		.uleb128 0x5
 3673 013c 39       		.uleb128 0x39
 3674 013d 0B       		.uleb128 0xb
 3675 013e 27       		.uleb128 0x27
 3676 013f 0C       		.uleb128 0xc
 3677 0140 49       		.uleb128 0x49
 3678 0141 13       		.uleb128 0x13
 3679 0142 11       		.uleb128 0x11
 3680 0143 01       		.uleb128 0x1
 3681 0144 12       		.uleb128 0x12
 3682 0145 01       		.uleb128 0x1
 3683 0146 40       		.uleb128 0x40
 3684 0147 06       		.uleb128 0x6
 3685 0148 9742     		.uleb128 0x2117
 3686 014a 0C       		.uleb128 0xc
 3687 014b 01       		.uleb128 0x1
ARM GAS  C:\Users\ADMINI~1\AppData\Local\Temp\cc5w2WuM.s 			page 86


 3688 014c 13       		.uleb128 0x13
 3689 014d 00       		.byte	0
 3690 014e 00       		.byte	0
 3691 014f 16       		.uleb128 0x16
 3692 0150 2E       		.uleb128 0x2e
 3693 0151 01       		.byte	0x1
 3694 0152 3F       		.uleb128 0x3f
 3695 0153 0C       		.uleb128 0xc
 3696 0154 03       		.uleb128 0x3
 3697 0155 0E       		.uleb128 0xe
 3698 0156 3A       		.uleb128 0x3a
 3699 0157 0B       		.uleb128 0xb
 3700 0158 3B       		.uleb128 0x3b
 3701 0159 05       		.uleb128 0x5
 3702 015a 39       		.uleb128 0x39
 3703 015b 0B       		.uleb128 0xb
 3704 015c 27       		.uleb128 0x27
 3705 015d 0C       		.uleb128 0xc
 3706 015e 49       		.uleb128 0x49
 3707 015f 13       		.uleb128 0x13
 3708 0160 11       		.uleb128 0x11
 3709 0161 01       		.uleb128 0x1
 3710 0162 12       		.uleb128 0x12
 3711 0163 01       		.uleb128 0x1
 3712 0164 40       		.uleb128 0x40
 3713 0165 0A       		.uleb128 0xa
 3714 0166 9742     		.uleb128 0x2117
 3715 0168 0C       		.uleb128 0xc
 3716 0169 01       		.uleb128 0x1
 3717 016a 13       		.uleb128 0x13
 3718 016b 00       		.byte	0
 3719 016c 00       		.byte	0
 3720 016d 17       		.uleb128 0x17
 3721 016e 2E       		.uleb128 0x2e
 3722 016f 01       		.byte	0x1
 3723 0170 3F       		.uleb128 0x3f
 3724 0171 0C       		.uleb128 0xc
 3725 0172 03       		.uleb128 0x3
 3726 0173 0E       		.uleb128 0xe
 3727 0174 3A       		.uleb128 0x3a
 3728 0175 0B       		.uleb128 0xb
 3729 0176 3B       		.uleb128 0x3b
 3730 0177 05       		.uleb128 0x5
 3731 0178 39       		.uleb128 0x39
 3732 0179 0B       		.uleb128 0xb
 3733 017a 27       		.uleb128 0x27
 3734 017b 0C       		.uleb128 0xc
 3735 017c 11       		.uleb128 0x11
 3736 017d 01       		.uleb128 0x1
 3737 017e 12       		.uleb128 0x12
 3738 017f 01       		.uleb128 0x1
 3739 0180 40       		.uleb128 0x40
 3740 0181 06       		.uleb128 0x6
 3741 0182 9742     		.uleb128 0x2117
 3742 0184 0C       		.uleb128 0xc
 3743 0185 01       		.uleb128 0x1
 3744 0186 13       		.uleb128 0x13
ARM GAS  C:\Users\ADMINI~1\AppData\Local\Temp\cc5w2WuM.s 			page 87


 3745 0187 00       		.byte	0
 3746 0188 00       		.byte	0
 3747 0189 18       		.uleb128 0x18
 3748 018a 2E       		.uleb128 0x2e
 3749 018b 01       		.byte	0x1
 3750 018c 3F       		.uleb128 0x3f
 3751 018d 0C       		.uleb128 0xc
 3752 018e 03       		.uleb128 0x3
 3753 018f 0E       		.uleb128 0xe
 3754 0190 3A       		.uleb128 0x3a
 3755 0191 0B       		.uleb128 0xb
 3756 0192 3B       		.uleb128 0x3b
 3757 0193 0B       		.uleb128 0xb
 3758 0194 39       		.uleb128 0x39
 3759 0195 0B       		.uleb128 0xb
 3760 0196 27       		.uleb128 0x27
 3761 0197 0C       		.uleb128 0xc
 3762 0198 11       		.uleb128 0x11
 3763 0199 01       		.uleb128 0x1
 3764 019a 12       		.uleb128 0x12
 3765 019b 01       		.uleb128 0x1
 3766 019c 40       		.uleb128 0x40
 3767 019d 06       		.uleb128 0x6
 3768 019e 9742     		.uleb128 0x2117
 3769 01a0 0C       		.uleb128 0xc
 3770 01a1 01       		.uleb128 0x1
 3771 01a2 13       		.uleb128 0x13
 3772 01a3 00       		.byte	0
 3773 01a4 00       		.byte	0
 3774 01a5 19       		.uleb128 0x19
 3775 01a6 05       		.uleb128 0x5
 3776 01a7 00       		.byte	0
 3777 01a8 03       		.uleb128 0x3
 3778 01a9 0E       		.uleb128 0xe
 3779 01aa 3A       		.uleb128 0x3a
 3780 01ab 0B       		.uleb128 0xb
 3781 01ac 3B       		.uleb128 0x3b
 3782 01ad 0B       		.uleb128 0xb
 3783 01ae 39       		.uleb128 0x39
 3784 01af 0B       		.uleb128 0xb
 3785 01b0 49       		.uleb128 0x49
 3786 01b1 13       		.uleb128 0x13
 3787 01b2 02       		.uleb128 0x2
 3788 01b3 06       		.uleb128 0x6
 3789 01b4 B742     		.uleb128 0x2137
 3790 01b6 06       		.uleb128 0x6
 3791 01b7 00       		.byte	0
 3792 01b8 00       		.byte	0
 3793 01b9 1A       		.uleb128 0x1a
 3794 01ba 34       		.uleb128 0x34
 3795 01bb 00       		.byte	0
 3796 01bc 03       		.uleb128 0x3
 3797 01bd 0E       		.uleb128 0xe
 3798 01be 3A       		.uleb128 0x3a
 3799 01bf 0B       		.uleb128 0xb
 3800 01c0 3B       		.uleb128 0x3b
 3801 01c1 0B       		.uleb128 0xb
ARM GAS  C:\Users\ADMINI~1\AppData\Local\Temp\cc5w2WuM.s 			page 88


 3802 01c2 39       		.uleb128 0x39
 3803 01c3 0B       		.uleb128 0xb
 3804 01c4 49       		.uleb128 0x49
 3805 01c5 13       		.uleb128 0x13
 3806 01c6 02       		.uleb128 0x2
 3807 01c7 06       		.uleb128 0x6
 3808 01c8 B742     		.uleb128 0x2137
 3809 01ca 06       		.uleb128 0x6
 3810 01cb 00       		.byte	0
 3811 01cc 00       		.byte	0
 3812 01cd 1B       		.uleb128 0x1b
 3813 01ce 34       		.uleb128 0x34
 3814 01cf 00       		.byte	0
 3815 01d0 03       		.uleb128 0x3
 3816 01d1 0E       		.uleb128 0xe
 3817 01d2 3A       		.uleb128 0x3a
 3818 01d3 0B       		.uleb128 0xb
 3819 01d4 3B       		.uleb128 0x3b
 3820 01d5 0B       		.uleb128 0xb
 3821 01d6 39       		.uleb128 0x39
 3822 01d7 0B       		.uleb128 0xb
 3823 01d8 49       		.uleb128 0x49
 3824 01d9 13       		.uleb128 0x13
 3825 01da 02       		.uleb128 0x2
 3826 01db 0A       		.uleb128 0xa
 3827 01dc 00       		.byte	0
 3828 01dd 00       		.byte	0
 3829 01de 1C       		.uleb128 0x1c
 3830 01df 898201   		.uleb128 0x4109
 3831 01e2 01       		.byte	0x1
 3832 01e3 11       		.uleb128 0x11
 3833 01e4 01       		.uleb128 0x1
 3834 01e5 31       		.uleb128 0x31
 3835 01e6 13       		.uleb128 0x13
 3836 01e7 00       		.byte	0
 3837 01e8 00       		.byte	0
 3838 01e9 1D       		.uleb128 0x1d
 3839 01ea 8A8201   		.uleb128 0x410a
 3840 01ed 00       		.byte	0
 3841 01ee 02       		.uleb128 0x2
 3842 01ef 0A       		.uleb128 0xa
 3843 01f0 9142     		.uleb128 0x2111
 3844 01f2 0A       		.uleb128 0xa
 3845 01f3 00       		.byte	0
 3846 01f4 00       		.byte	0
 3847 01f5 1E       		.uleb128 0x1e
 3848 01f6 898201   		.uleb128 0x4109
 3849 01f9 01       		.byte	0x1
 3850 01fa 11       		.uleb128 0x11
 3851 01fb 01       		.uleb128 0x1
 3852 01fc 31       		.uleb128 0x31
 3853 01fd 13       		.uleb128 0x13
 3854 01fe 01       		.uleb128 0x1
 3855 01ff 13       		.uleb128 0x13
 3856 0200 00       		.byte	0
 3857 0201 00       		.byte	0
 3858 0202 1F       		.uleb128 0x1f
ARM GAS  C:\Users\ADMINI~1\AppData\Local\Temp\cc5w2WuM.s 			page 89


 3859 0203 898201   		.uleb128 0x4109
 3860 0206 01       		.byte	0x1
 3861 0207 11       		.uleb128 0x11
 3862 0208 01       		.uleb128 0x1
 3863 0209 9542     		.uleb128 0x2115
 3864 020b 0C       		.uleb128 0xc
 3865 020c 31       		.uleb128 0x31
 3866 020d 13       		.uleb128 0x13
 3867 020e 01       		.uleb128 0x1
 3868 020f 13       		.uleb128 0x13
 3869 0210 00       		.byte	0
 3870 0211 00       		.byte	0
 3871 0212 20       		.uleb128 0x20
 3872 0213 898201   		.uleb128 0x4109
 3873 0216 00       		.byte	0
 3874 0217 11       		.uleb128 0x11
 3875 0218 01       		.uleb128 0x1
 3876 0219 9542     		.uleb128 0x2115
 3877 021b 0C       		.uleb128 0xc
 3878 021c 31       		.uleb128 0x31
 3879 021d 13       		.uleb128 0x13
 3880 021e 00       		.byte	0
 3881 021f 00       		.byte	0
 3882 0220 21       		.uleb128 0x21
 3883 0221 2E       		.uleb128 0x2e
 3884 0222 00       		.byte	0
 3885 0223 3F       		.uleb128 0x3f
 3886 0224 0C       		.uleb128 0xc
 3887 0225 3C       		.uleb128 0x3c
 3888 0226 0C       		.uleb128 0xc
 3889 0227 8740     		.uleb128 0x2007
 3890 0229 0E       		.uleb128 0xe
 3891 022a 03       		.uleb128 0x3
 3892 022b 0E       		.uleb128 0xe
 3893 022c 3A       		.uleb128 0x3a
 3894 022d 0B       		.uleb128 0xb
 3895 022e 3B       		.uleb128 0x3b
 3896 022f 05       		.uleb128 0x5
 3897 0230 39       		.uleb128 0x39
 3898 0231 0B       		.uleb128 0xb
 3899 0232 00       		.byte	0
 3900 0233 00       		.byte	0
 3901 0234 00       		.byte	0
 3902              		.section	.debug_loc,"",%progbits
 3903              	.Ldebug_loc0:
 3904              	.LVUS33:
 3905 0000 00       		.uleb128 0
 3906 0001 00       		.uleb128 .LVU459
 3907 0002 00       		.uleb128 .LVU459
 3908 0003 00       		.uleb128 0
 3909              	.LLST33:
 3910 0004 84030000 		.4byte	.LVL99-.Ltext0
 3911 0008 88030000 		.4byte	.LVL100-.Ltext0
 3912 000c 0100     		.2byte	0x1
 3913 000e 51       		.byte	0x51
 3914 000f 88030000 		.4byte	.LVL100-.Ltext0
 3915 0013 92030000 		.4byte	.LFE57-.Ltext0
ARM GAS  C:\Users\ADMINI~1\AppData\Local\Temp\cc5w2WuM.s 			page 90


 3916 0017 0400     		.2byte	0x4
 3917 0019 F3       		.byte	0xf3
 3918 001a 01       		.uleb128 0x1
 3919 001b 51       		.byte	0x51
 3920 001c 9F       		.byte	0x9f
 3921 001d 00000000 		.4byte	0
 3922 0021 00000000 		.4byte	0
 3923              	.LVUS34:
 3924 0025 02       		.uleb128 .LVU450
 3925 0026 07       		.uleb128 .LVU455
 3926 0027 07       		.uleb128 .LVU455
 3927 0028 00       		.uleb128 .LVU459
 3928 0029 00       		.uleb128 .LVU459
 3929 002a 00       		.uleb128 0
 3930              	.LLST34:
 3931 002b 84030000 		.4byte	.LVL99-.Ltext0
 3932 002f 84030000 		.4byte	.LVL99-.Ltext0
 3933 0033 0200     		.2byte	0x2
 3934 0035 30       		.byte	0x30
 3935 0036 9F       		.byte	0x9f
 3936 0037 84030000 		.4byte	.LVL99-.Ltext0
 3937 003b 88030000 		.4byte	.LVL100-.Ltext0
 3938 003f 0500     		.2byte	0x5
 3939 0041 71       		.byte	0x71
 3940 0042 00       		.sleb128 0
 3941 0043 38       		.byte	0x38
 3942 0044 25       		.byte	0x25
 3943 0045 9F       		.byte	0x9f
 3944 0046 88030000 		.4byte	.LVL100-.Ltext0
 3945 004a 92030000 		.4byte	.LFE57-.Ltext0
 3946 004e 0600     		.2byte	0x6
 3947 0050 F3       		.byte	0xf3
 3948 0051 01       		.uleb128 0x1
 3949 0052 51       		.byte	0x51
 3950 0053 38       		.byte	0x38
 3951 0054 25       		.byte	0x25
 3952 0055 9F       		.byte	0x9f
 3953 0056 00000000 		.4byte	0
 3954 005a 00000000 		.4byte	0
 3955              	.LVUS35:
 3956 005e 02       		.uleb128 .LVU450
 3957 005f 08       		.uleb128 .LVU456
 3958 0060 08       		.uleb128 .LVU456
 3959 0061 00       		.uleb128 .LVU459
 3960 0062 00       		.uleb128 .LVU459
 3961 0063 00       		.uleb128 0
 3962              	.LLST35:
 3963 0064 84030000 		.4byte	.LVL99-.Ltext0
 3964 0068 84030000 		.4byte	.LVL99-.Ltext0
 3965 006c 0200     		.2byte	0x2
 3966 006e 30       		.byte	0x30
 3967 006f 9F       		.byte	0x9f
 3968 0070 84030000 		.4byte	.LVL99-.Ltext0
 3969 0074 88030000 		.4byte	.LVL100-.Ltext0
 3970 0078 0700     		.2byte	0x7
 3971 007a 31       		.byte	0x31
 3972 007b 71       		.byte	0x71
ARM GAS  C:\Users\ADMINI~1\AppData\Local\Temp\cc5w2WuM.s 			page 91


 3973 007c 00       		.sleb128 0
 3974 007d 38       		.byte	0x38
 3975 007e 25       		.byte	0x25
 3976 007f 24       		.byte	0x24
 3977 0080 9F       		.byte	0x9f
 3978 0081 88030000 		.4byte	.LVL100-.Ltext0
 3979 0085 92030000 		.4byte	.LFE57-.Ltext0
 3980 0089 0800     		.2byte	0x8
 3981 008b 31       		.byte	0x31
 3982 008c F3       		.byte	0xf3
 3983 008d 01       		.uleb128 0x1
 3984 008e 51       		.byte	0x51
 3985 008f 38       		.byte	0x38
 3986 0090 25       		.byte	0x25
 3987 0091 24       		.byte	0x24
 3988 0092 9F       		.byte	0x9f
 3989 0093 00000000 		.4byte	0
 3990 0097 00000000 		.4byte	0
 3991              	.LLST26:
 3992 009b 46030000 		.4byte	.LFB56-.Ltext0
 3993 009f 4A030000 		.4byte	.LCFI10-.Ltext0
 3994 00a3 0200     		.2byte	0x2
 3995 00a5 7D       		.byte	0x7d
 3996 00a6 00       		.sleb128 0
 3997 00a7 4A030000 		.4byte	.LCFI10-.Ltext0
 3998 00ab 84030000 		.4byte	.LFE56-.Ltext0
 3999 00af 0200     		.2byte	0x2
 4000 00b1 7D       		.byte	0x7d
 4001 00b2 08       		.sleb128 8
 4002 00b3 00000000 		.4byte	0
 4003 00b7 00000000 		.4byte	0
 4004              	.LVUS27:
 4005 00bb 00       		.uleb128 0
 4006 00bc 00       		.uleb128 .LVU419
 4007 00bd 00       		.uleb128 .LVU419
 4008 00be 00       		.uleb128 .LVU426
 4009 00bf 00       		.uleb128 .LVU426
 4010 00c0 00       		.uleb128 .LVU442
 4011 00c1 00       		.uleb128 .LVU442
 4012 00c2 00       		.uleb128 0
 4013              	.LLST27:
 4014 00c3 46030000 		.4byte	.LVL88-.Ltext0
 4015 00c7 56030000 		.4byte	.LVL90-.Ltext0
 4016 00cb 0100     		.2byte	0x1
 4017 00cd 50       		.byte	0x50
 4018 00ce 56030000 		.4byte	.LVL90-.Ltext0
 4019 00d2 60030000 		.4byte	.LVL92-.Ltext0
 4020 00d6 0100     		.2byte	0x1
 4021 00d8 52       		.byte	0x52
 4022 00d9 60030000 		.4byte	.LVL92-.Ltext0
 4023 00dd 7A030000 		.4byte	.LVL98-.Ltext0
 4024 00e1 0400     		.2byte	0x4
 4025 00e3 F3       		.byte	0xf3
 4026 00e4 01       		.uleb128 0x1
 4027 00e5 50       		.byte	0x50
 4028 00e6 9F       		.byte	0x9f
 4029 00e7 7A030000 		.4byte	.LVL98-.Ltext0
ARM GAS  C:\Users\ADMINI~1\AppData\Local\Temp\cc5w2WuM.s 			page 92


 4030 00eb 84030000 		.4byte	.LFE56-.Ltext0
 4031 00ef 0100     		.2byte	0x1
 4032 00f1 52       		.byte	0x52
 4033 00f2 00000000 		.4byte	0
 4034 00f6 00000000 		.4byte	0
 4035              	.LVUS28:
 4036 00fa 00       		.uleb128 0
 4037 00fb 00       		.uleb128 .LVU436
 4038 00fc 00       		.uleb128 .LVU436
 4039 00fd 00       		.uleb128 .LVU442
 4040 00fe 00       		.uleb128 .LVU442
 4041 00ff 00       		.uleb128 0
 4042              	.LLST28:
 4043 0100 46030000 		.4byte	.LVL88-.Ltext0
 4044 0104 6C030000 		.4byte	.LVL95-.Ltext0
 4045 0108 0100     		.2byte	0x1
 4046 010a 51       		.byte	0x51
 4047 010b 6C030000 		.4byte	.LVL95-.Ltext0
 4048 010f 7A030000 		.4byte	.LVL98-.Ltext0
 4049 0113 0400     		.2byte	0x4
 4050 0115 F3       		.byte	0xf3
 4051 0116 01       		.uleb128 0x1
 4052 0117 51       		.byte	0x51
 4053 0118 9F       		.byte	0x9f
 4054 0119 7A030000 		.4byte	.LVL98-.Ltext0
 4055 011d 84030000 		.4byte	.LFE56-.Ltext0
 4056 0121 0100     		.2byte	0x1
 4057 0123 51       		.byte	0x51
 4058 0124 00000000 		.4byte	0
 4059 0128 00000000 		.4byte	0
 4060              	.LVUS29:
 4061 012c 02       		.uleb128 .LVU406
 4062 012d 01       		.uleb128 .LVU429
 4063 012e 01       		.uleb128 .LVU429
 4064 012f 02       		.uleb128 .LVU430
 4065 0130 02       		.uleb128 .LVU430
 4066 0131 00       		.uleb128 .LVU432
 4067 0132 00       		.uleb128 .LVU432
 4068 0133 00       		.uleb128 .LVU436
 4069 0134 00       		.uleb128 .LVU436
 4070 0135 00       		.uleb128 .LVU442
 4071 0136 00       		.uleb128 .LVU442
 4072 0137 00       		.uleb128 0
 4073              	.LLST29:
 4074 0138 46030000 		.4byte	.LVL88-.Ltext0
 4075 013c 64030000 		.4byte	.LVL93-.Ltext0
 4076 0140 0200     		.2byte	0x2
 4077 0142 30       		.byte	0x30
 4078 0143 9F       		.byte	0x9f
 4079 0144 64030000 		.4byte	.LVL93-.Ltext0
 4080 0148 64030000 		.4byte	.LVL93-.Ltext0
 4081 014c 0900     		.2byte	0x9
 4082 014e 71       		.byte	0x71
 4083 014f 00       		.sleb128 0
 4084 0150 38       		.byte	0x38
 4085 0151 25       		.byte	0x25
 4086 0152 0A       		.byte	0xa
ARM GAS  C:\Users\ADMINI~1\AppData\Local\Temp\cc5w2WuM.s 			page 93


 4087 0153 FFFF     		.2byte	0xffff
 4088 0155 1A       		.byte	0x1a
 4089 0156 9F       		.byte	0x9f
 4090 0157 64030000 		.4byte	.LVL93-.Ltext0
 4091 015b 66030000 		.4byte	.LVL94-.Ltext0
 4092 015f 0B00     		.2byte	0xb
 4093 0161 31       		.byte	0x31
 4094 0162 71       		.byte	0x71
 4095 0163 00       		.sleb128 0
 4096 0164 38       		.byte	0x38
 4097 0165 25       		.byte	0x25
 4098 0166 0A       		.byte	0xa
 4099 0167 FFFF     		.2byte	0xffff
 4100 0169 1A       		.byte	0x1a
 4101 016a 24       		.byte	0x24
 4102 016b 9F       		.byte	0x9f
 4103 016c 66030000 		.4byte	.LVL94-.Ltext0
 4104 0170 6C030000 		.4byte	.LVL95-.Ltext0
 4105 0174 1200     		.2byte	0x12
 4106 0176 31       		.byte	0x31
 4107 0177 71       		.byte	0x71
 4108 0178 00       		.sleb128 0
 4109 0179 38       		.byte	0x38
 4110 017a 25       		.byte	0x25
 4111 017b 0A       		.byte	0xa
 4112 017c FFFF     		.2byte	0xffff
 4113 017e 1A       		.byte	0x1a
 4114 017f 24       		.byte	0x24
 4115 0180 72       		.byte	0x72
 4116 0181 00       		.sleb128 0
 4117 0182 0A       		.byte	0xa
 4118 0183 FFFF     		.2byte	0xffff
 4119 0185 1A       		.byte	0x1a
 4120 0186 1A       		.byte	0x1a
 4121 0187 9F       		.byte	0x9f
 4122 0188 6C030000 		.4byte	.LVL95-.Ltext0
 4123 018c 7A030000 		.4byte	.LVL98-.Ltext0
 4124 0190 1300     		.2byte	0x13
 4125 0192 31       		.byte	0x31
 4126 0193 F3       		.byte	0xf3
 4127 0194 01       		.uleb128 0x1
 4128 0195 51       		.byte	0x51
 4129 0196 38       		.byte	0x38
 4130 0197 25       		.byte	0x25
 4131 0198 0A       		.byte	0xa
 4132 0199 FFFF     		.2byte	0xffff
 4133 019b 1A       		.byte	0x1a
 4134 019c 24       		.byte	0x24
 4135 019d 72       		.byte	0x72
 4136 019e 00       		.sleb128 0
 4137 019f 0A       		.byte	0xa
 4138 01a0 FFFF     		.2byte	0xffff
 4139 01a2 1A       		.byte	0x1a
 4140 01a3 1A       		.byte	0x1a
 4141 01a4 9F       		.byte	0x9f
 4142 01a5 7A030000 		.4byte	.LVL98-.Ltext0
 4143 01a9 84030000 		.4byte	.LFE56-.Ltext0
ARM GAS  C:\Users\ADMINI~1\AppData\Local\Temp\cc5w2WuM.s 			page 94


 4144 01ad 0200     		.2byte	0x2
 4145 01af 30       		.byte	0x30
 4146 01b0 9F       		.byte	0x9f
 4147 01b1 00000000 		.4byte	0
 4148 01b5 00000000 		.4byte	0
 4149              	.LVUS30:
 4150 01b9 02       		.uleb128 .LVU406
 4151 01ba 00       		.uleb128 .LVU419
 4152 01bb 00       		.uleb128 .LVU419
 4153 01bc 00       		.uleb128 .LVU439
 4154 01bd 00       		.uleb128 .LVU442
 4155 01be 00       		.uleb128 0
 4156              	.LLST30:
 4157 01bf 46030000 		.4byte	.LVL88-.Ltext0
 4158 01c3 56030000 		.4byte	.LVL90-.Ltext0
 4159 01c7 0200     		.2byte	0x2
 4160 01c9 30       		.byte	0x30
 4161 01ca 9F       		.byte	0x9f
 4162 01cb 56030000 		.4byte	.LVL90-.Ltext0
 4163 01cf 76030000 		.4byte	.LVL96-.Ltext0
 4164 01d3 0100     		.2byte	0x1
 4165 01d5 50       		.byte	0x50
 4166 01d6 7A030000 		.4byte	.LVL98-.Ltext0
 4167 01da 84030000 		.4byte	.LFE56-.Ltext0
 4168 01de 0100     		.2byte	0x1
 4169 01e0 50       		.byte	0x50
 4170 01e1 00000000 		.4byte	0
 4171 01e5 00000000 		.4byte	0
 4172              	.LVUS31:
 4173 01e9 02       		.uleb128 .LVU406
 4174 01ea 00       		.uleb128 .LVU415
 4175 01eb 00       		.uleb128 .LVU415
 4176 01ec 00       		.uleb128 0
 4177              	.LLST31:
 4178 01ed 46030000 		.4byte	.LVL88-.Ltext0
 4179 01f1 4E030000 		.4byte	.LVL89-.Ltext0
 4180 01f5 0200     		.2byte	0x2
 4181 01f7 30       		.byte	0x30
 4182 01f8 9F       		.byte	0x9f
 4183 01f9 4E030000 		.4byte	.LVL89-.Ltext0
 4184 01fd 84030000 		.4byte	.LFE56-.Ltext0
 4185 0201 0600     		.2byte	0x6
 4186 0203 74       		.byte	0x74
 4187 0204 00       		.sleb128 0
 4188 0205 08       		.byte	0x8
 4189 0206 FF       		.byte	0xff
 4190 0207 1A       		.byte	0x1a
 4191 0208 9F       		.byte	0x9f
 4192 0209 00000000 		.4byte	0
 4193 020d 00000000 		.4byte	0
 4194              	.LVUS32:
 4195 0211 03       		.uleb128 .LVU407
 4196 0212 00       		.uleb128 .LVU440
 4197 0213 00       		.uleb128 .LVU440
 4198 0214 00       		.uleb128 .LVU442
 4199 0215 00       		.uleb128 .LVU442
 4200 0216 00       		.uleb128 0
ARM GAS  C:\Users\ADMINI~1\AppData\Local\Temp\cc5w2WuM.s 			page 95


 4201              	.LLST32:
 4202 0217 46030000 		.4byte	.LVL88-.Ltext0
 4203 021b 78030000 		.4byte	.LVL97-.Ltext0
 4204 021f 0200     		.2byte	0x2
 4205 0221 30       		.byte	0x30
 4206 0222 9F       		.byte	0x9f
 4207 0223 78030000 		.4byte	.LVL97-.Ltext0
 4208 0227 7A030000 		.4byte	.LVL98-.Ltext0
 4209 022b 0100     		.2byte	0x1
 4210 022d 50       		.byte	0x50
 4211 022e 7A030000 		.4byte	.LVL98-.Ltext0
 4212 0232 84030000 		.4byte	.LFE56-.Ltext0
 4213 0236 0200     		.2byte	0x2
 4214 0238 30       		.byte	0x30
 4215 0239 9F       		.byte	0x9f
 4216 023a 00000000 		.4byte	0
 4217 023e 00000000 		.4byte	0
 4218              	.LVUS25:
 4219 0242 00       		.uleb128 0
 4220 0243 00       		.uleb128 .LVU401
 4221 0244 00       		.uleb128 .LVU401
 4222 0245 00       		.uleb128 0
 4223              	.LLST25:
 4224 0246 3E030000 		.4byte	.LVL86-.Ltext0
 4225 024a 40030000 		.4byte	.LVL87-.Ltext0
 4226 024e 0100     		.2byte	0x1
 4227 0250 51       		.byte	0x51
 4228 0251 40030000 		.4byte	.LVL87-.Ltext0
 4229 0255 46030000 		.4byte	.LFE55-.Ltext0
 4230 0259 0400     		.2byte	0x4
 4231 025b F3       		.byte	0xf3
 4232 025c 01       		.uleb128 0x1
 4233 025d 51       		.byte	0x51
 4234 025e 9F       		.byte	0x9f
 4235 025f 00000000 		.4byte	0
 4236 0263 00000000 		.4byte	0
 4237              	.LVUS23:
 4238 0267 00       		.uleb128 0
 4239 0268 00       		.uleb128 .LVU393
 4240 0269 00       		.uleb128 .LVU393
 4241 026a 00       		.uleb128 0
 4242              	.LLST23:
 4243 026b 32030000 		.4byte	.LVL83-.Ltext0
 4244 026f 3A030000 		.4byte	.LVL85-.Ltext0
 4245 0273 0100     		.2byte	0x1
 4246 0275 50       		.byte	0x50
 4247 0276 3A030000 		.4byte	.LVL85-.Ltext0
 4248 027a 3E030000 		.4byte	.LFE54-.Ltext0
 4249 027e 0400     		.2byte	0x4
 4250 0280 F3       		.byte	0xf3
 4251 0281 01       		.uleb128 0x1
 4252 0282 50       		.byte	0x50
 4253 0283 9F       		.byte	0x9f
 4254 0284 00000000 		.4byte	0
 4255 0288 00000000 		.4byte	0
 4256              	.LVUS24:
 4257 028c 02       		.uleb128 .LVU384
ARM GAS  C:\Users\ADMINI~1\AppData\Local\Temp\cc5w2WuM.s 			page 96


 4258 028d 00       		.uleb128 .LVU390
 4259 028e 00       		.uleb128 .LVU390
 4260 028f 00       		.uleb128 0
 4261              	.LLST24:
 4262 0290 32030000 		.4byte	.LVL83-.Ltext0
 4263 0294 34030000 		.4byte	.LVL84-.Ltext0
 4264 0298 0200     		.2byte	0x2
 4265 029a 30       		.byte	0x30
 4266 029b 9F       		.byte	0x9f
 4267 029c 34030000 		.4byte	.LVL84-.Ltext0
 4268 02a0 3E030000 		.4byte	.LFE54-.Ltext0
 4269 02a4 0A00     		.2byte	0xa
 4270 02a6 73       		.byte	0x73
 4271 02a7 00       		.sleb128 0
 4272 02a8 71       		.byte	0x71
 4273 02a9 00       		.sleb128 0
 4274 02aa 1A       		.byte	0x1a
 4275 02ab 40       		.byte	0x40
 4276 02ac 24       		.byte	0x24
 4277 02ad 30       		.byte	0x30
 4278 02ae 2E       		.byte	0x2e
 4279 02af 9F       		.byte	0x9f
 4280 02b0 00000000 		.4byte	0
 4281 02b4 00000000 		.4byte	0
 4282              	.LVUS22:
 4283 02b8 00       		.uleb128 0
 4284 02b9 00       		.uleb128 .LVU282
 4285 02ba 00       		.uleb128 .LVU282
 4286 02bb 00       		.uleb128 0
 4287              	.LLST22:
 4288 02bc 54020000 		.4byte	.LVL71-.Ltext0
 4289 02c0 56020000 		.4byte	.LVL72-.Ltext0
 4290 02c4 0100     		.2byte	0x1
 4291 02c6 50       		.byte	0x50
 4292 02c7 56020000 		.4byte	.LVL72-.Ltext0
 4293 02cb 5C020000 		.4byte	.LFE43-.Ltext0
 4294 02cf 0400     		.2byte	0x4
 4295 02d1 F3       		.byte	0xf3
 4296 02d2 01       		.uleb128 0x1
 4297 02d3 50       		.byte	0x50
 4298 02d4 9F       		.byte	0x9f
 4299 02d5 00000000 		.4byte	0
 4300 02d9 00000000 		.4byte	0
 4301              	.LVUS21:
 4302 02dd 00       		.uleb128 0
 4303 02de 00       		.uleb128 .LVU276
 4304 02df 00       		.uleb128 .LVU276
 4305 02e0 00       		.uleb128 0
 4306              	.LLST21:
 4307 02e1 4C020000 		.4byte	.LVL69-.Ltext0
 4308 02e5 50020000 		.4byte	.LVL70-.Ltext0
 4309 02e9 0100     		.2byte	0x1
 4310 02eb 51       		.byte	0x51
 4311 02ec 50020000 		.4byte	.LVL70-.Ltext0
 4312 02f0 54020000 		.4byte	.LFE42-.Ltext0
 4313 02f4 0400     		.2byte	0x4
 4314 02f6 F3       		.byte	0xf3
ARM GAS  C:\Users\ADMINI~1\AppData\Local\Temp\cc5w2WuM.s 			page 97


 4315 02f7 01       		.uleb128 0x1
 4316 02f8 51       		.byte	0x51
 4317 02f9 9F       		.byte	0x9f
 4318 02fa 00000000 		.4byte	0
 4319 02fe 00000000 		.4byte	0
 4320              	.LVUS20:
 4321 0302 00       		.uleb128 0
 4322 0303 00       		.uleb128 .LVU218
 4323 0304 00       		.uleb128 .LVU218
 4324 0305 00       		.uleb128 .LVU220
 4325 0306 00       		.uleb128 .LVU220
 4326 0307 00       		.uleb128 .LVU222
 4327 0308 00       		.uleb128 .LVU222
 4328 0309 00       		.uleb128 0
 4329              	.LLST20:
 4330 030a C8010000 		.4byte	.LVL60-.Ltext0
 4331 030e D0010000 		.4byte	.LVL61-.Ltext0
 4332 0312 0100     		.2byte	0x1
 4333 0314 51       		.byte	0x51
 4334 0315 D0010000 		.4byte	.LVL61-.Ltext0
 4335 0319 D4010000 		.4byte	.LVL62-.Ltext0
 4336 031d 0400     		.2byte	0x4
 4337 031f F3       		.byte	0xf3
 4338 0320 01       		.uleb128 0x1
 4339 0321 51       		.byte	0x51
 4340 0322 9F       		.byte	0x9f
 4341 0323 D4010000 		.4byte	.LVL62-.Ltext0
 4342 0327 D8010000 		.4byte	.LVL63-.Ltext0
 4343 032b 0100     		.2byte	0x1
 4344 032d 51       		.byte	0x51
 4345 032e D8010000 		.4byte	.LVL63-.Ltext0
 4346 0332 DA010000 		.4byte	.LFE36-.Ltext0
 4347 0336 0400     		.2byte	0x4
 4348 0338 F3       		.byte	0xf3
 4349 0339 01       		.uleb128 0x1
 4350 033a 51       		.byte	0x51
 4351 033b 9F       		.byte	0x9f
 4352 033c 00000000 		.4byte	0
 4353 0340 00000000 		.4byte	0
 4354              	.LLST13:
 4355 0344 98010000 		.4byte	.LFB35-.Ltext0
 4356 0348 9C010000 		.4byte	.LCFI9-.Ltext0
 4357 034c 0200     		.2byte	0x2
 4358 034e 7D       		.byte	0x7d
 4359 034f 00       		.sleb128 0
 4360 0350 9C010000 		.4byte	.LCFI9-.Ltext0
 4361 0354 C8010000 		.4byte	.LFE35-.Ltext0
 4362 0358 0200     		.2byte	0x2
 4363 035a 7D       		.byte	0x7d
 4364 035b 08       		.sleb128 8
 4365 035c 00000000 		.4byte	0
 4366 0360 00000000 		.4byte	0
 4367              	.LVUS14:
 4368 0364 00       		.uleb128 0
 4369 0365 00       		.uleb128 .LVU192
 4370 0366 00       		.uleb128 .LVU192
 4371 0367 00       		.uleb128 .LVU199
ARM GAS  C:\Users\ADMINI~1\AppData\Local\Temp\cc5w2WuM.s 			page 98


 4372 0368 00       		.uleb128 .LVU199
 4373 0369 00       		.uleb128 .LVU203
 4374 036a 00       		.uleb128 .LVU203
 4375 036b 00       		.uleb128 0
 4376              	.LLST14:
 4377 036c 98010000 		.4byte	.LVL50-.Ltext0
 4378 0370 AE010000 		.4byte	.LVL54-.Ltext0
 4379 0374 0100     		.2byte	0x1
 4380 0376 50       		.byte	0x50
 4381 0377 AE010000 		.4byte	.LVL54-.Ltext0
 4382 037b B8010000 		.4byte	.LVL56-.Ltext0
 4383 037f 0400     		.2byte	0x4
 4384 0381 F3       		.byte	0xf3
 4385 0382 01       		.uleb128 0x1
 4386 0383 50       		.byte	0x50
 4387 0384 9F       		.byte	0x9f
 4388 0385 B8010000 		.4byte	.LVL56-.Ltext0
 4389 0389 BE010000 		.4byte	.LVL57-.Ltext0
 4390 038d 0100     		.2byte	0x1
 4391 038f 50       		.byte	0x50
 4392 0390 BE010000 		.4byte	.LVL57-.Ltext0
 4393 0394 C8010000 		.4byte	.LFE35-.Ltext0
 4394 0398 0400     		.2byte	0x4
 4395 039a F3       		.byte	0xf3
 4396 039b 01       		.uleb128 0x1
 4397 039c 50       		.byte	0x50
 4398 039d 9F       		.byte	0x9f
 4399 039e 00000000 		.4byte	0
 4400 03a2 00000000 		.4byte	0
 4401              	.LVUS15:
 4402 03a6 00       		.uleb128 0
 4403 03a7 00       		.uleb128 .LVU187
 4404 03a8 00       		.uleb128 .LVU187
 4405 03a9 00       		.uleb128 0
 4406              	.LLST15:
 4407 03aa 98010000 		.4byte	.LVL50-.Ltext0
 4408 03ae A6010000 		.4byte	.LVL52-.Ltext0
 4409 03b2 0100     		.2byte	0x1
 4410 03b4 51       		.byte	0x51
 4411 03b5 A6010000 		.4byte	.LVL52-.Ltext0
 4412 03b9 C8010000 		.4byte	.LFE35-.Ltext0
 4413 03bd 0400     		.2byte	0x4
 4414 03bf F3       		.byte	0xf3
 4415 03c0 01       		.uleb128 0x1
 4416 03c1 51       		.byte	0x51
 4417 03c2 9F       		.byte	0x9f
 4418 03c3 00000000 		.4byte	0
 4419 03c7 00000000 		.4byte	0
 4420              	.LVUS16:
 4421 03cb 02       		.uleb128 .LVU172
 4422 03cc 00       		.uleb128 .LVU183
 4423 03cd 00       		.uleb128 .LVU183
 4424 03ce 00       		.uleb128 0
 4425              	.LLST16:
 4426 03cf 98010000 		.4byte	.LVL50-.Ltext0
 4427 03d3 A0010000 		.4byte	.LVL51-.Ltext0
 4428 03d7 0200     		.2byte	0x2
ARM GAS  C:\Users\ADMINI~1\AppData\Local\Temp\cc5w2WuM.s 			page 99


 4429 03d9 30       		.byte	0x30
 4430 03da 9F       		.byte	0x9f
 4431 03db A0010000 		.4byte	.LVL51-.Ltext0
 4432 03df C8010000 		.4byte	.LFE35-.Ltext0
 4433 03e3 0600     		.2byte	0x6
 4434 03e5 74       		.byte	0x74
 4435 03e6 00       		.sleb128 0
 4436 03e7 08       		.byte	0x8
 4437 03e8 FF       		.byte	0xff
 4438 03e9 1A       		.byte	0x1a
 4439 03ea 9F       		.byte	0x9f
 4440 03eb 00000000 		.4byte	0
 4441 03ef 00000000 		.4byte	0
 4442              	.LVUS17:
 4443 03f3 02       		.uleb128 .LVU172
 4444 03f4 01       		.uleb128 .LVU184
 4445 03f5 01       		.uleb128 .LVU184
 4446 03f6 00       		.uleb128 .LVU187
 4447 03f7 00       		.uleb128 .LVU187
 4448 03f8 00       		.uleb128 0
 4449              	.LLST17:
 4450 03f9 98010000 		.4byte	.LVL50-.Ltext0
 4451 03fd A0010000 		.4byte	.LVL51-.Ltext0
 4452 0401 0200     		.2byte	0x2
 4453 0403 30       		.byte	0x30
 4454 0404 9F       		.byte	0x9f
 4455 0405 A0010000 		.4byte	.LVL51-.Ltext0
 4456 0409 A6010000 		.4byte	.LVL52-.Ltext0
 4457 040d 0900     		.2byte	0x9
 4458 040f 71       		.byte	0x71
 4459 0410 00       		.sleb128 0
 4460 0411 4F       		.byte	0x4f
 4461 0412 1A       		.byte	0x1a
 4462 0413 0A       		.byte	0xa
 4463 0414 FFFF     		.2byte	0xffff
 4464 0416 1A       		.byte	0x1a
 4465 0417 9F       		.byte	0x9f
 4466 0418 A6010000 		.4byte	.LVL52-.Ltext0
 4467 041c C8010000 		.4byte	.LFE35-.Ltext0
 4468 0420 0A00     		.2byte	0xa
 4469 0422 F3       		.byte	0xf3
 4470 0423 01       		.uleb128 0x1
 4471 0424 51       		.byte	0x51
 4472 0425 4F       		.byte	0x4f
 4473 0426 1A       		.byte	0x1a
 4474 0427 0A       		.byte	0xa
 4475 0428 FFFF     		.2byte	0xffff
 4476 042a 1A       		.byte	0x1a
 4477 042b 9F       		.byte	0x9f
 4478 042c 00000000 		.4byte	0
 4479 0430 00000000 		.4byte	0
 4480              	.LVUS18:
 4481 0434 02       		.uleb128 .LVU172
 4482 0435 00       		.uleb128 .LVU188
 4483 0436 00       		.uleb128 .LVU188
 4484 0437 00       		.uleb128 .LVU197
 4485 0438 00       		.uleb128 .LVU199
ARM GAS  C:\Users\ADMINI~1\AppData\Local\Temp\cc5w2WuM.s 			page 100


 4486 0439 00       		.uleb128 .LVU208
 4487              	.LLST18:
 4488 043a 98010000 		.4byte	.LVL50-.Ltext0
 4489 043e AA010000 		.4byte	.LVL53-.Ltext0
 4490 0442 0200     		.2byte	0x2
 4491 0444 30       		.byte	0x30
 4492 0445 9F       		.byte	0x9f
 4493 0446 AA010000 		.4byte	.LVL53-.Ltext0
 4494 044a B4010000 		.4byte	.LVL55-.Ltext0
 4495 044e 0100     		.2byte	0x1
 4496 0450 51       		.byte	0x51
 4497 0451 B8010000 		.4byte	.LVL56-.Ltext0
 4498 0455 C6010000 		.4byte	.LVL59-.Ltext0
 4499 0459 0100     		.2byte	0x1
 4500 045b 51       		.byte	0x51
 4501 045c 00000000 		.4byte	0
 4502 0460 00000000 		.4byte	0
 4503              	.LVUS19:
 4504 0464 03       		.uleb128 .LVU173
 4505 0465 09       		.uleb128 .LVU179
 4506 0466 09       		.uleb128 .LVU179
 4507 0467 00       		.uleb128 0
 4508              	.LLST19:
 4509 0468 98010000 		.4byte	.LVL50-.Ltext0
 4510 046c 98010000 		.4byte	.LVL50-.Ltext0
 4511 0470 0200     		.2byte	0x2
 4512 0472 30       		.byte	0x30
 4513 0473 9F       		.byte	0x9f
 4514 0474 98010000 		.4byte	.LVL50-.Ltext0
 4515 0478 C8010000 		.4byte	.LFE35-.Ltext0
 4516 047c 0100     		.2byte	0x1
 4517 047e 50       		.byte	0x50
 4518 047f 00000000 		.4byte	0
 4519 0483 00000000 		.4byte	0
 4520              	.LLST10:
 4521 0487 54010000 		.4byte	.LFB32-.Ltext0
 4522 048b 58010000 		.4byte	.LCFI8-.Ltext0
 4523 048f 0200     		.2byte	0x2
 4524 0491 7D       		.byte	0x7d
 4525 0492 00       		.sleb128 0
 4526 0493 58010000 		.4byte	.LCFI8-.Ltext0
 4527 0497 74010000 		.4byte	.LFE32-.Ltext0
 4528 049b 0200     		.2byte	0x2
 4529 049d 7D       		.byte	0x7d
 4530 049e 08       		.sleb128 8
 4531 049f 00000000 		.4byte	0
 4532 04a3 00000000 		.4byte	0
 4533              	.LVUS11:
 4534 04a7 00       		.uleb128 0
 4535 04a8 00       		.uleb128 .LVU140
 4536 04a9 00       		.uleb128 .LVU140
 4537 04aa 00       		.uleb128 0
 4538              	.LLST11:
 4539 04ab 54010000 		.4byte	.LVL43-.Ltext0
 4540 04af 62010000 		.4byte	.LVL44-.Ltext0
 4541 04b3 0100     		.2byte	0x1
 4542 04b5 51       		.byte	0x51
ARM GAS  C:\Users\ADMINI~1\AppData\Local\Temp\cc5w2WuM.s 			page 101


 4543 04b6 62010000 		.4byte	.LVL44-.Ltext0
 4544 04ba 74010000 		.4byte	.LFE32-.Ltext0
 4545 04be 0400     		.2byte	0x4
 4546 04c0 F3       		.byte	0xf3
 4547 04c1 01       		.uleb128 0x1
 4548 04c2 51       		.byte	0x51
 4549 04c3 9F       		.byte	0x9f
 4550 04c4 00000000 		.4byte	0
 4551 04c8 00000000 		.4byte	0
 4552              	.LVUS12:
 4553 04cc 02       		.uleb128 .LVU129
 4554 04cd 00       		.uleb128 .LVU141
 4555 04ce 00       		.uleb128 .LVU141
 4556 04cf 01       		.uleb128 .LVU142
 4557 04d0 01       		.uleb128 .LVU142
 4558 04d1 00       		.uleb128 .LVU144
 4559 04d2 00       		.uleb128 .LVU145
 4560 04d3 00       		.uleb128 0
 4561              	.LLST12:
 4562 04d4 54010000 		.4byte	.LVL43-.Ltext0
 4563 04d8 64010000 		.4byte	.LVL45-.Ltext0
 4564 04dc 0200     		.2byte	0x2
 4565 04de 30       		.byte	0x30
 4566 04df 9F       		.byte	0x9f
 4567 04e0 64010000 		.4byte	.LVL45-.Ltext0
 4568 04e4 64010000 		.4byte	.LVL45-.Ltext0
 4569 04e8 0700     		.2byte	0x7
 4570 04ea 72       		.byte	0x72
 4571 04eb 00       		.sleb128 0
 4572 04ec 0A       		.byte	0xa
 4573 04ed FFFF     		.2byte	0xffff
 4574 04ef 1A       		.byte	0x1a
 4575 04f0 9F       		.byte	0x9f
 4576 04f1 64010000 		.4byte	.LVL45-.Ltext0
 4577 04f5 6C010000 		.4byte	.LVL46-.Ltext0
 4578 04f9 0B00     		.2byte	0xb
 4579 04fb 72       		.byte	0x72
 4580 04fc 00       		.sleb128 0
 4581 04fd 0B       		.byte	0xb
 4582 04fe FFF0     		.2byte	0xf0ff
 4583 0500 1A       		.byte	0x1a
 4584 0501 0A       		.byte	0xa
 4585 0502 FFFF     		.2byte	0xffff
 4586 0504 1A       		.byte	0x1a
 4587 0505 9F       		.byte	0x9f
 4588 0506 70010000 		.4byte	.LVL47-.Ltext0
 4589 050a 74010000 		.4byte	.LFE32-.Ltext0
 4590 050e 0700     		.2byte	0x7
 4591 0510 73       		.byte	0x73
 4592 0511 00       		.sleb128 0
 4593 0512 0A       		.byte	0xa
 4594 0513 FFFF     		.2byte	0xffff
 4595 0515 1A       		.byte	0x1a
 4596 0516 9F       		.byte	0x9f
 4597 0517 00000000 		.4byte	0
 4598 051b 00000000 		.4byte	0
 4599              	.LLST2:
ARM GAS  C:\Users\ADMINI~1\AppData\Local\Temp\cc5w2WuM.s 			page 102


 4600 051f 9C000000 		.4byte	.LFB30-.Ltext0
 4601 0523 9E000000 		.4byte	.LCFI5-.Ltext0
 4602 0527 0200     		.2byte	0x2
 4603 0529 7D       		.byte	0x7d
 4604 052a 00       		.sleb128 0
 4605 052b 9E000000 		.4byte	.LCFI5-.Ltext0
 4606 052f C8000000 		.4byte	.LCFI6-.Ltext0
 4607 0533 0200     		.2byte	0x2
 4608 0535 7D       		.byte	0x7d
 4609 0536 0C       		.sleb128 12
 4610 0537 C8000000 		.4byte	.LCFI6-.Ltext0
 4611 053b 38010000 		.4byte	.LCFI7-.Ltext0
 4612 053f 0200     		.2byte	0x2
 4613 0541 7D       		.byte	0x7d
 4614 0542 28       		.sleb128 40
 4615 0543 38010000 		.4byte	.LCFI7-.Ltext0
 4616 0547 40010000 		.4byte	.LFE30-.Ltext0
 4617 054b 0200     		.2byte	0x2
 4618 054d 7D       		.byte	0x7d
 4619 054e 0C       		.sleb128 12
 4620 054f 00000000 		.4byte	0
 4621 0553 00000000 		.4byte	0
 4622              	.LVUS3:
 4623 0557 00       		.uleb128 0
 4624 0558 00       		.uleb128 .LVU77
 4625 0559 00       		.uleb128 .LVU77
 4626 055a 00       		.uleb128 .LVU114
 4627 055b 00       		.uleb128 .LVU114
 4628 055c 00       		.uleb128 0
 4629              	.LLST3:
 4630 055d 9C000000 		.4byte	.LVL16-.Ltext0
 4631 0561 E0000000 		.4byte	.LVL29-.Ltext0
 4632 0565 0100     		.2byte	0x1
 4633 0567 50       		.byte	0x50
 4634 0568 E0000000 		.4byte	.LVL29-.Ltext0
 4635 056c 3A010000 		.4byte	.LVL41-.Ltext0
 4636 0570 0100     		.2byte	0x1
 4637 0572 54       		.byte	0x54
 4638 0573 3A010000 		.4byte	.LVL41-.Ltext0
 4639 0577 40010000 		.4byte	.LFE30-.Ltext0
 4640 057b 0400     		.2byte	0x4
 4641 057d F3       		.byte	0xf3
 4642 057e 01       		.uleb128 0x1
 4643 057f 50       		.byte	0x50
 4644 0580 9F       		.byte	0x9f
 4645 0581 00000000 		.4byte	0
 4646 0585 00000000 		.4byte	0
 4647              	.LVUS4:
 4648 0589 00       		.uleb128 0
 4649 058a 00       		.uleb128 .LVU56
 4650 058b 00       		.uleb128 .LVU56
 4651 058c 00       		.uleb128 .LVU86
 4652 058d 00       		.uleb128 .LVU86
 4653 058e 00       		.uleb128 0
 4654              	.LLST4:
 4655 058f 9C000000 		.4byte	.LVL16-.Ltext0
 4656 0593 AA000000 		.4byte	.LVL19-.Ltext0
ARM GAS  C:\Users\ADMINI~1\AppData\Local\Temp\cc5w2WuM.s 			page 103


 4657 0597 0100     		.2byte	0x1
 4658 0599 51       		.byte	0x51
 4659 059a AA000000 		.4byte	.LVL19-.Ltext0
 4660 059e FA000000 		.4byte	.LVL33-.Ltext0
 4661 05a2 0100     		.2byte	0x1
 4662 05a4 55       		.byte	0x55
 4663 05a5 FA000000 		.4byte	.LVL33-.Ltext0
 4664 05a9 40010000 		.4byte	.LFE30-.Ltext0
 4665 05ad 0400     		.2byte	0x4
 4666 05af F3       		.byte	0xf3
 4667 05b0 01       		.uleb128 0x1
 4668 05b1 51       		.byte	0x51
 4669 05b2 9F       		.byte	0x9f
 4670 05b3 00000000 		.4byte	0
 4671 05b7 00000000 		.4byte	0
 4672              	.LVUS5:
 4673 05bb 02       		.uleb128 .LVU35
 4674 05bc 00       		.uleb128 .LVU54
 4675 05bd 00       		.uleb128 .LVU54
 4676 05be 01       		.uleb128 .LVU55
 4677 05bf 01       		.uleb128 .LVU55
 4678 05c0 00       		.uleb128 .LVU57
 4679 05c1 00       		.uleb128 .LVU58
 4680 05c2 01       		.uleb128 .LVU63
 4681 05c3 01       		.uleb128 .LVU63
 4682 05c4 00       		.uleb128 .LVU64
 4683 05c5 00       		.uleb128 .LVU66
 4684 05c6 00       		.uleb128 .LVU70
 4685 05c7 00       		.uleb128 .LVU70
 4686 05c8 00       		.uleb128 .LVU71
 4687 05c9 00       		.uleb128 .LVU71
 4688 05ca 01       		.uleb128 .LVU72
 4689 05cb 01       		.uleb128 .LVU72
 4690 05cc 00       		.uleb128 .LVU73
 4691 05cd 00       		.uleb128 .LVU74
 4692 05ce 00       		.uleb128 .LVU78
 4693 05cf 00       		.uleb128 .LVU95
 4694 05d0 00       		.uleb128 .LVU110
 4695 05d1 00       		.uleb128 .LVU110
 4696 05d2 00       		.uleb128 .LVU112
 4697              	.LLST5:
 4698 05d3 9C000000 		.4byte	.LVL16-.Ltext0
 4699 05d7 A8000000 		.4byte	.LVL18-.Ltext0
 4700 05db 0200     		.2byte	0x2
 4701 05dd 30       		.byte	0x30
 4702 05de 9F       		.byte	0x9f
 4703 05df A8000000 		.4byte	.LVL18-.Ltext0
 4704 05e3 A8000000 		.4byte	.LVL18-.Ltext0
 4705 05e7 0700     		.2byte	0x7
 4706 05e9 73       		.byte	0x73
 4707 05ea 00       		.sleb128 0
 4708 05eb 0A       		.byte	0xa
 4709 05ec FFFF     		.2byte	0xffff
 4710 05ee 1A       		.byte	0x1a
 4711 05ef 9F       		.byte	0x9f
 4712 05f0 A8000000 		.4byte	.LVL18-.Ltext0
 4713 05f4 AE000000 		.4byte	.LVL20-.Ltext0
ARM GAS  C:\Users\ADMINI~1\AppData\Local\Temp\cc5w2WuM.s 			page 104


 4714 05f8 0B00     		.2byte	0xb
 4715 05fa 73       		.byte	0x73
 4716 05fb 00       		.sleb128 0
 4717 05fc 0B       		.byte	0xb
 4718 05fd FFCF     		.2byte	0xcfff
 4719 05ff 1A       		.byte	0x1a
 4720 0600 0A       		.byte	0xa
 4721 0601 FFFF     		.2byte	0xffff
 4722 0603 1A       		.byte	0x1a
 4723 0604 9F       		.byte	0x9f
 4724 0605 B0000000 		.4byte	.LVL21-.Ltext0
 4725 0609 B4000000 		.4byte	.LVL22-.Ltext0
 4726 060d 0700     		.2byte	0x7
 4727 060f 73       		.byte	0x73
 4728 0610 00       		.sleb128 0
 4729 0611 0A       		.byte	0xa
 4730 0612 FFFF     		.2byte	0xffff
 4731 0614 1A       		.byte	0x1a
 4732 0615 9F       		.byte	0x9f
 4733 0616 B4000000 		.4byte	.LVL22-.Ltext0
 4734 061a BA000000 		.4byte	.LVL23-.Ltext0
 4735 061e 0B00     		.2byte	0xb
 4736 0620 73       		.byte	0x73
 4737 0621 00       		.sleb128 0
 4738 0622 0B       		.byte	0xb
 4739 0623 F3E9     		.2byte	0xe9f3
 4740 0625 1A       		.byte	0x1a
 4741 0626 0A       		.byte	0xa
 4742 0627 FFFF     		.2byte	0xffff
 4743 0629 1A       		.byte	0x1a
 4744 062a 9F       		.byte	0x9f
 4745 062b D0000000 		.4byte	.LVL24-.Ltext0
 4746 062f D4000000 		.4byte	.LVL25-.Ltext0
 4747 0633 0700     		.2byte	0x7
 4748 0635 73       		.byte	0x73
 4749 0636 00       		.sleb128 0
 4750 0637 0A       		.byte	0xa
 4751 0638 FFFF     		.2byte	0xffff
 4752 063a 1A       		.byte	0x1a
 4753 063b 9F       		.byte	0x9f
 4754 063c D4000000 		.4byte	.LVL25-.Ltext0
 4755 0640 D6000000 		.4byte	.LVL26-.Ltext0
 4756 0644 0900     		.2byte	0x9
 4757 0646 70       		.byte	0x70
 4758 0647 0C       		.sleb128 12
 4759 0648 94       		.byte	0x94
 4760 0649 02       		.byte	0x2
 4761 064a 0A       		.byte	0xa
 4762 064b FFFF     		.2byte	0xffff
 4763 064d 1A       		.byte	0x1a
 4764 064e 9F       		.byte	0x9f
 4765 064f D6000000 		.4byte	.LVL26-.Ltext0
 4766 0653 D6000000 		.4byte	.LVL26-.Ltext0
 4767 0657 0700     		.2byte	0x7
 4768 0659 73       		.byte	0x73
 4769 065a 00       		.sleb128 0
 4770 065b 0A       		.byte	0xa
ARM GAS  C:\Users\ADMINI~1\AppData\Local\Temp\cc5w2WuM.s 			page 105


 4771 065c FFFF     		.2byte	0xffff
 4772 065e 1A       		.byte	0x1a
 4773 065f 9F       		.byte	0x9f
 4774 0660 D6000000 		.4byte	.LVL26-.Ltext0
 4775 0664 DA000000 		.4byte	.LVL27-.Ltext0
 4776 0668 0B00     		.2byte	0xb
 4777 066a 73       		.byte	0x73
 4778 066b 00       		.sleb128 0
 4779 066c 0B       		.byte	0xb
 4780 066d FFFC     		.2byte	0xfcff
 4781 066f 1A       		.byte	0x1a
 4782 0670 0A       		.byte	0xa
 4783 0671 FFFF     		.2byte	0xffff
 4784 0673 1A       		.byte	0x1a
 4785 0674 9F       		.byte	0x9f
 4786 0675 DC000000 		.4byte	.LVL28-.Ltext0
 4787 0679 E3000000 		.4byte	.LVL30-1-.Ltext0
 4788 067d 0700     		.2byte	0x7
 4789 067f 73       		.byte	0x73
 4790 0680 00       		.sleb128 0
 4791 0681 0A       		.byte	0xa
 4792 0682 FFFF     		.2byte	0xffff
 4793 0684 1A       		.byte	0x1a
 4794 0685 9F       		.byte	0x9f
 4795 0686 10010000 		.4byte	.LVL36-.Ltext0
 4796 068a 32010000 		.4byte	.LVL39-.Ltext0
 4797 068e 0100     		.2byte	0x1
 4798 0690 52       		.byte	0x52
 4799 0691 32010000 		.4byte	.LVL39-.Ltext0
 4800 0695 34010000 		.4byte	.LVL40-.Ltext0
 4801 0699 0100     		.2byte	0x1
 4802 069b 53       		.byte	0x53
 4803 069c 00000000 		.4byte	0
 4804 06a0 00000000 		.4byte	0
 4805              	.LVUS6:
 4806 06a4 02       		.uleb128 .LVU35
 4807 06a5 00       		.uleb128 .LVU80
 4808 06a6 00       		.uleb128 .LVU80
 4809 06a7 00       		.uleb128 .LVU84
 4810 06a8 00       		.uleb128 .LVU84
 4811 06a9 00       		.uleb128 .LVU114
 4812 06aa 00       		.uleb128 .LVU114
 4813 06ab 00       		.uleb128 0
 4814              	.LLST6:
 4815 06ac 9C000000 		.4byte	.LVL16-.Ltext0
 4816 06b0 F0000000 		.4byte	.LVL31-.Ltext0
 4817 06b4 0200     		.2byte	0x2
 4818 06b6 30       		.byte	0x30
 4819 06b7 9F       		.byte	0x9f
 4820 06b8 F0000000 		.4byte	.LVL31-.Ltext0
 4821 06bc F6000000 		.4byte	.LVL32-.Ltext0
 4822 06c0 0100     		.2byte	0x1
 4823 06c2 53       		.byte	0x53
 4824 06c3 F6000000 		.4byte	.LVL32-.Ltext0
 4825 06c7 3A010000 		.4byte	.LVL41-.Ltext0
 4826 06cb 1400     		.2byte	0x14
 4827 06cd 91       		.byte	0x91
ARM GAS  C:\Users\ADMINI~1\AppData\Local\Temp\cc5w2WuM.s 			page 106


 4828 06ce 64       		.sleb128 -28
 4829 06cf 06       		.byte	0x6
 4830 06d0 91       		.byte	0x91
 4831 06d1 68       		.sleb128 -24
 4832 06d2 06       		.byte	0x6
 4833 06d3 74       		.byte	0x74
 4834 06d4 00       		.sleb128 0
 4835 06d5 0C       		.byte	0xc
 4836 06d6 00380140 		.4byte	0x40013800
 4837 06da 2E       		.byte	0x2e
 4838 06db 28       		.byte	0x28
 4839 06dc 0100     		.2byte	0x1
 4840 06de 16       		.byte	0x16
 4841 06df 13       		.byte	0x13
 4842 06e0 9F       		.byte	0x9f
 4843 06e1 3A010000 		.4byte	.LVL41-.Ltext0
 4844 06e5 40010000 		.4byte	.LFE30-.Ltext0
 4845 06e9 1500     		.2byte	0x15
 4846 06eb 7D       		.byte	0x7d
 4847 06ec 64       		.sleb128 -28
 4848 06ed 06       		.byte	0x6
 4849 06ee 7D       		.byte	0x7d
 4850 06ef 68       		.sleb128 -24
 4851 06f0 06       		.byte	0x6
 4852 06f1 F3       		.byte	0xf3
 4853 06f2 01       		.uleb128 0x1
 4854 06f3 50       		.byte	0x50
 4855 06f4 0C       		.byte	0xc
 4856 06f5 00380140 		.4byte	0x40013800
 4857 06f9 2E       		.byte	0x2e
 4858 06fa 28       		.byte	0x28
 4859 06fb 0100     		.2byte	0x1
 4860 06fd 16       		.byte	0x16
 4861 06fe 13       		.byte	0x13
 4862 06ff 9F       		.byte	0x9f
 4863 0700 00000000 		.4byte	0
 4864 0704 00000000 		.4byte	0
 4865              	.LVUS7:
 4866 0708 03       		.uleb128 .LVU36
 4867 0709 00       		.uleb128 .LVU92
 4868 070a 00       		.uleb128 .LVU92
 4869 070b 00       		.uleb128 .LVU94
 4870 070c 00       		.uleb128 .LVU94
 4871 070d 00       		.uleb128 .LVU95
 4872              	.LLST7:
 4873 070e 9C000000 		.4byte	.LVL16-.Ltext0
 4874 0712 06010000 		.4byte	.LVL34-.Ltext0
 4875 0716 0200     		.2byte	0x2
 4876 0718 30       		.byte	0x30
 4877 0719 9F       		.byte	0x9f
 4878 071a 06010000 		.4byte	.LVL34-.Ltext0
 4879 071e 0E010000 		.4byte	.LVL35-.Ltext0
 4880 0722 0100     		.2byte	0x1
 4881 0724 53       		.byte	0x53
 4882 0725 0E010000 		.4byte	.LVL35-.Ltext0
 4883 0729 10010000 		.4byte	.LVL36-.Ltext0
 4884 072d 1F00     		.2byte	0x1f
ARM GAS  C:\Users\ADMINI~1\AppData\Local\Temp\cc5w2WuM.s 			page 107


 4885 072f 91       		.byte	0x91
 4886 0730 64       		.sleb128 -28
 4887 0731 06       		.byte	0x6
 4888 0732 91       		.byte	0x91
 4889 0733 68       		.sleb128 -24
 4890 0734 06       		.byte	0x6
 4891 0735 74       		.byte	0x74
 4892 0736 00       		.sleb128 0
 4893 0737 0C       		.byte	0xc
 4894 0738 00380140 		.4byte	0x40013800
 4895 073c 2E       		.byte	0x2e
 4896 073d 28       		.byte	0x28
 4897 073e 0100     		.2byte	0x1
 4898 0740 16       		.byte	0x16
 4899 0741 13       		.byte	0x13
 4900 0742 49       		.byte	0x49
 4901 0743 1E       		.byte	0x1e
 4902 0744 F7       		.byte	0xf7
 4903 0745 25       		.uleb128 0x25
 4904 0746 72       		.byte	0x72
 4905 0747 00       		.sleb128 0
 4906 0748 F7       		.byte	0xf7
 4907 0749 25       		.uleb128 0x25
 4908 074a 1B       		.byte	0x1b
 4909 074b F7       		.byte	0xf7
 4910 074c 00       		.uleb128 0
 4911 074d 9F       		.byte	0x9f
 4912 074e 00000000 		.4byte	0
 4913 0752 00000000 		.4byte	0
 4914              	.LVUS8:
 4915 0756 04       		.uleb128 .LVU37
 4916 0757 01       		.uleb128 .LVU96
 4917 0758 01       		.uleb128 .LVU96
 4918 0759 00       		.uleb128 .LVU101
 4919              	.LLST8:
 4920 075a 9C000000 		.4byte	.LVL16-.Ltext0
 4921 075e 10010000 		.4byte	.LVL36-.Ltext0
 4922 0762 0200     		.2byte	0x2
 4923 0764 30       		.byte	0x30
 4924 0765 9F       		.byte	0x9f
 4925 0766 10010000 		.4byte	.LVL36-.Ltext0
 4926 076a 18010000 		.4byte	.LVL38-.Ltext0
 4927 076e 0100     		.2byte	0x1
 4928 0770 53       		.byte	0x53
 4929 0771 00000000 		.4byte	0
 4930 0775 00000000 		.4byte	0
 4931              	.LVUS9:
 4932 0779 05       		.uleb128 .LVU38
 4933 077a 02       		.uleb128 .LVU52
 4934 077b 02       		.uleb128 .LVU52
 4935 077c 00       		.uleb128 .LVU77
 4936 077d 00       		.uleb128 .LVU77
 4937 077e 00       		.uleb128 .LVU114
 4938 077f 00       		.uleb128 .LVU114
 4939 0780 00       		.uleb128 0
 4940              	.LLST9:
 4941 0781 9C000000 		.4byte	.LVL16-.Ltext0
ARM GAS  C:\Users\ADMINI~1\AppData\Local\Temp\cc5w2WuM.s 			page 108


 4942 0785 A6000000 		.4byte	.LVL17-.Ltext0
 4943 0789 0200     		.2byte	0x2
 4944 078b 30       		.byte	0x30
 4945 078c 9F       		.byte	0x9f
 4946 078d A6000000 		.4byte	.LVL17-.Ltext0
 4947 0791 E0000000 		.4byte	.LVL29-.Ltext0
 4948 0795 0100     		.2byte	0x1
 4949 0797 50       		.byte	0x50
 4950 0798 E0000000 		.4byte	.LVL29-.Ltext0
 4951 079c 3A010000 		.4byte	.LVL41-.Ltext0
 4952 07a0 0100     		.2byte	0x1
 4953 07a2 54       		.byte	0x54
 4954 07a3 3A010000 		.4byte	.LVL41-.Ltext0
 4955 07a7 40010000 		.4byte	.LFE30-.Ltext0
 4956 07ab 0400     		.2byte	0x4
 4957 07ad F3       		.byte	0xf3
 4958 07ae 01       		.uleb128 0x1
 4959 07af 50       		.byte	0x50
 4960 07b0 9F       		.byte	0x9f
 4961 07b1 00000000 		.4byte	0
 4962 07b5 00000000 		.4byte	0
 4963              	.LLST0:
 4964 07b9 00000000 		.4byte	.LFB29-.Ltext0
 4965 07bd 02000000 		.4byte	.LCFI0-.Ltext0
 4966 07c1 0200     		.2byte	0x2
 4967 07c3 7D       		.byte	0x7d
 4968 07c4 00       		.sleb128 0
 4969 07c5 02000000 		.4byte	.LCFI0-.Ltext0
 4970 07c9 16000000 		.4byte	.LCFI1-.Ltext0
 4971 07cd 0200     		.2byte	0x2
 4972 07cf 7D       		.byte	0x7d
 4973 07d0 08       		.sleb128 8
 4974 07d1 16000000 		.4byte	.LCFI1-.Ltext0
 4975 07d5 20000000 		.4byte	.LCFI2-.Ltext0
 4976 07d9 0200     		.2byte	0x2
 4977 07db 7D       		.byte	0x7d
 4978 07dc 00       		.sleb128 0
 4979 07dd 20000000 		.4byte	.LCFI2-.Ltext0
 4980 07e1 3A000000 		.4byte	.LCFI3-.Ltext0
 4981 07e5 0200     		.2byte	0x2
 4982 07e7 7D       		.byte	0x7d
 4983 07e8 08       		.sleb128 8
 4984 07e9 3A000000 		.4byte	.LCFI3-.Ltext0
 4985 07ed 3E000000 		.4byte	.LCFI4-.Ltext0
 4986 07f1 0200     		.2byte	0x2
 4987 07f3 7D       		.byte	0x7d
 4988 07f4 00       		.sleb128 0
 4989 07f5 3E000000 		.4byte	.LCFI4-.Ltext0
 4990 07f9 9C000000 		.4byte	.LFE29-.Ltext0
 4991 07fd 0200     		.2byte	0x2
 4992 07ff 7D       		.byte	0x7d
 4993 0800 08       		.sleb128 8
 4994 0801 00000000 		.4byte	0
 4995 0805 00000000 		.4byte	0
 4996              	.LVUS1:
 4997 0809 00       		.uleb128 0
 4998 080a 00       		.uleb128 .LVU6
ARM GAS  C:\Users\ADMINI~1\AppData\Local\Temp\cc5w2WuM.s 			page 109


 4999 080b 00       		.uleb128 .LVU6
 5000 080c 00       		.uleb128 .LVU10
 5001 080d 00       		.uleb128 .LVU10
 5002 080e 00       		.uleb128 .LVU13
 5003 080f 00       		.uleb128 .LVU13
 5004 0810 00       		.uleb128 .LVU17
 5005 0811 00       		.uleb128 .LVU17
 5006 0812 00       		.uleb128 .LVU20
 5007 0813 00       		.uleb128 .LVU20
 5008 0814 00       		.uleb128 .LVU22
 5009 0815 00       		.uleb128 .LVU22
 5010 0816 00       		.uleb128 .LVU25
 5011 0817 00       		.uleb128 .LVU25
 5012 0818 00       		.uleb128 .LVU27
 5013 0819 00       		.uleb128 .LVU27
 5014 081a 00       		.uleb128 .LVU30
 5015 081b 00       		.uleb128 .LVU30
 5016 081c 00       		.uleb128 .LVU32
 5017 081d 00       		.uleb128 .LVU32
 5018 081e 00       		.uleb128 0
 5019              	.LLST1:
 5020 081f 00000000 		.4byte	.LVL0-.Ltext0
 5021 0823 0E000000 		.4byte	.LVL1-.Ltext0
 5022 0827 0100     		.2byte	0x1
 5023 0829 50       		.byte	0x50
 5024 082a 0E000000 		.4byte	.LVL1-.Ltext0
 5025 082e 20000000 		.4byte	.LVL3-.Ltext0
 5026 0832 0400     		.2byte	0x4
 5027 0834 F3       		.byte	0xf3
 5028 0835 01       		.uleb128 0x1
 5029 0836 50       		.byte	0x50
 5030 0837 9F       		.byte	0x9f
 5031 0838 20000000 		.4byte	.LVL3-.Ltext0
 5032 083c 2C000000 		.4byte	.LVL4-.Ltext0
 5033 0840 0100     		.2byte	0x1
 5034 0842 50       		.byte	0x50
 5035 0843 2C000000 		.4byte	.LVL4-.Ltext0
 5036 0847 3E000000 		.4byte	.LVL6-.Ltext0
 5037 084b 0400     		.2byte	0x4
 5038 084d F3       		.byte	0xf3
 5039 084e 01       		.uleb128 0x1
 5040 084f 50       		.byte	0x50
 5041 0850 9F       		.byte	0x9f
 5042 0851 3E000000 		.4byte	.LVL6-.Ltext0
 5043 0855 4A000000 		.4byte	.LVL7-.Ltext0
 5044 0859 0100     		.2byte	0x1
 5045 085b 50       		.byte	0x50
 5046 085c 4A000000 		.4byte	.LVL7-.Ltext0
 5047 0860 56000000 		.4byte	.LVL9-.Ltext0
 5048 0864 0400     		.2byte	0x4
 5049 0866 F3       		.byte	0xf3
 5050 0867 01       		.uleb128 0x1
 5051 0868 50       		.byte	0x50
 5052 0869 9F       		.byte	0x9f
 5053 086a 56000000 		.4byte	.LVL9-.Ltext0
 5054 086e 62000000 		.4byte	.LVL10-.Ltext0
 5055 0872 0100     		.2byte	0x1
ARM GAS  C:\Users\ADMINI~1\AppData\Local\Temp\cc5w2WuM.s 			page 110


 5056 0874 50       		.byte	0x50
 5057 0875 62000000 		.4byte	.LVL10-.Ltext0
 5058 0879 6E000000 		.4byte	.LVL12-.Ltext0
 5059 087d 0400     		.2byte	0x4
 5060 087f F3       		.byte	0xf3
 5061 0880 01       		.uleb128 0x1
 5062 0881 50       		.byte	0x50
 5063 0882 9F       		.byte	0x9f
 5064 0883 6E000000 		.4byte	.LVL12-.Ltext0
 5065 0887 7A000000 		.4byte	.LVL13-.Ltext0
 5066 088b 0100     		.2byte	0x1
 5067 088d 50       		.byte	0x50
 5068 088e 7A000000 		.4byte	.LVL13-.Ltext0
 5069 0892 86000000 		.4byte	.LVL15-.Ltext0
 5070 0896 0400     		.2byte	0x4
 5071 0898 F3       		.byte	0xf3
 5072 0899 01       		.uleb128 0x1
 5073 089a 50       		.byte	0x50
 5074 089b 9F       		.byte	0x9f
 5075 089c 86000000 		.4byte	.LVL15-.Ltext0
 5076 08a0 9C000000 		.4byte	.LFE29-.Ltext0
 5077 08a4 0100     		.2byte	0x1
 5078 08a6 50       		.byte	0x50
 5079 08a7 00000000 		.4byte	0
 5080 08ab 00000000 		.4byte	0
 5081              		.section	.debug_aranges,"",%progbits
 5082 0000 1C000000 		.4byte	0x1c
 5083 0004 0200     		.2byte	0x2
 5084 0006 00000000 		.4byte	.Ldebug_info0
 5085 000a 04       		.byte	0x4
 5086 000b 00       		.byte	0
 5087 000c 0000     		.2byte	0
 5088 000e 0000     		.2byte	0
 5089 0010 00000000 		.4byte	.Ltext0
 5090 0014 92030000 		.4byte	.Letext0-.Ltext0
 5091 0018 00000000 		.4byte	0
 5092 001c 00000000 		.4byte	0
 5093              		.section	.debug_line,"",%progbits
 5094              	.Ldebug_line0:
 5095 0000 4A080000 		.section	.debug_str,"MS",%progbits,1
 5095      0300C301 
 5095      00000201 
 5095      FB0E0D00 
 5095      01010101 
 5096              	.LASF98:
 5097 0000 696E7465 		.ascii	"integerdivider\000"
 5097      67657264 
 5097      69766964 
 5097      657200
 5098              	.LASF14:
 5099 000f 75696E74 		.ascii	"uint32_t\000"
 5099      33325F74 
 5099      00
 5100              	.LASF45:
 5101 0018 55534152 		.ascii	"USART_CPHA\000"
 5101      545F4350 
 5101      484100
ARM GAS  C:\Users\ADMINI~1\AppData\Local\Temp\cc5w2WuM.s 			page 111


 5102              	.LASF27:
 5103 0023 47545052 		.ascii	"GTPR\000"
 5103      00
 5104              	.LASF104:
 5105 0028 474E5520 		.ascii	"GNU C17 10.3.1 20210824 (release) -mcpu=cortex-m3 -"
 5105      43313720 
 5105      31302E33 
 5105      2E312032 
 5105      30323130 
 5106 005b 6D746875 		.ascii	"mthumb -mfloat-abi=soft -march=armv7-m -g -gdwarf-2"
 5106      6D62202D 
 5106      6D666C6F 
 5106      61742D61 
 5106      62693D73 
 5107 008e 202D4F73 		.ascii	" -Os -fomit-frame-pointer\000"
 5107      202D666F 
 5107      6D69742D 
 5107      6672616D 
 5107      652D706F 
 5108              	.LASF87:
 5109 00a8 6974706F 		.ascii	"itpos\000"
 5109      7300
 5110              	.LASF79:
 5111 00ae 55534152 		.ascii	"USART_ReceiverWakeUpCmd\000"
 5111      545F5265 
 5111      63656976 
 5111      65725761 
 5111      6B655570 
 5112              	.LASF30:
 5113 00c6 53595343 		.ascii	"SYSCLK_Frequency\000"
 5113      4C4B5F46 
 5113      72657175 
 5113      656E6379 
 5113      00
 5114              	.LASF68:
 5115 00d7 55534152 		.ascii	"USART_SetPrescaler\000"
 5115      545F5365 
 5115      74507265 
 5115      7363616C 
 5115      657200
 5116              	.LASF105:
 5117 00ea 73746D33 		.ascii	"stm32f10x_lib/STM32F10x_StdPeriph_Driver/src/stm32f"
 5117      32663130 
 5117      785F6C69 
 5117      622F5354 
 5117      4D333246 
 5118 011d 3130785F 		.ascii	"10x_usart.c\000"
 5118      75736172 
 5118      742E6300 
 5119              	.LASF96:
 5120 0129 55534152 		.ascii	"USART_Init\000"
 5120      545F496E 
 5120      697400
 5121              	.LASF31:
 5122 0134 48434C4B 		.ascii	"HCLK_Frequency\000"
 5122      5F467265 
 5122      7175656E 
ARM GAS  C:\Users\ADMINI~1\AppData\Local\Temp\cc5w2WuM.s 			page 112


 5122      637900
 5123              	.LASF78:
 5124 0143 55534152 		.ascii	"USART_LINBreakDetectLength\000"
 5124      545F4C49 
 5124      4E427265 
 5124      616B4465 
 5124      74656374 
 5125              	.LASF63:
 5126 015e 55534152 		.ascii	"USART_OneBitMethodCmd\000"
 5126      545F4F6E 
 5126      65426974 
 5126      4D657468 
 5126      6F64436D 
 5127              	.LASF16:
 5128 0174 466C6167 		.ascii	"FlagStatus\000"
 5128      53746174 
 5128      757300
 5129              	.LASF5:
 5130 017f 5F5F7569 		.ascii	"__uint16_t\000"
 5130      6E743136 
 5130      5F7400
 5131              	.LASF29:
 5132 018a 55534152 		.ascii	"USART_TypeDef\000"
 5132      545F5479 
 5132      70654465 
 5132      6600
 5133              	.LASF38:
 5134 0198 55534152 		.ascii	"USART_StopBits\000"
 5134      545F5374 
 5134      6F704269 
 5134      747300
 5135              	.LASF3:
 5136 01a7 73686F72 		.ascii	"short int\000"
 5136      7420696E 
 5136      7400
 5137              	.LASF106:
 5138 01b1 443A5C6C 		.ascii	"D:\\liwei_gcc_stm32\\save\\stm32f10x_makefile_freer"
 5138      69776569 
 5138      5F676363 
 5138      5F73746D 
 5138      33325C73 
 5139 01e1 746F732D 		.ascii	"tos-master\000"
 5139      6D617374 
 5139      657200
 5140              	.LASF47:
 5141 01ec 55534152 		.ascii	"USART_ClockInitTypeDef\000"
 5141      545F436C 
 5141      6F636B49 
 5141      6E697454 
 5141      79706544 
 5142              	.LASF89:
 5143 0203 55534152 		.ascii	"USART_Cmd\000"
 5143      545F436D 
 5143      6400
 5144              	.LASF74:
 5145 020d 55534152 		.ascii	"USART_SendData\000"
 5145      545F5365 
ARM GAS  C:\Users\ADMINI~1\AppData\Local\Temp\cc5w2WuM.s 			page 113


 5145      6E644461 
 5145      746100
 5146              	.LASF12:
 5147 021c 75696E74 		.ascii	"uint8_t\000"
 5147      385F7400 
 5148              	.LASF50:
 5149 0224 55534152 		.ascii	"USART_IT\000"
 5149      545F4954 
 5149      00
 5150              	.LASF81:
 5151 022d 55534152 		.ascii	"USART_WakeUp\000"
 5151      545F5761 
 5151      6B655570 
 5151      00
 5152              	.LASF37:
 5153 023a 55534152 		.ascii	"USART_WordLength\000"
 5153      545F576F 
 5153      72644C65 
 5153      6E677468 
 5153      00
 5154              	.LASF60:
 5155 024b 4E657753 		.ascii	"NewState\000"
 5155      74617465 
 5155      00
 5156              	.LASF84:
 5157 0254 55534152 		.ascii	"USART_DMACmd\000"
 5157      545F444D 
 5157      41436D64 
 5157      00
 5158              	.LASF18:
 5159 0261 44495341 		.ascii	"DISABLE\000"
 5159      424C4500 
 5160              	.LASF1:
 5161 0269 7369676E 		.ascii	"signed char\000"
 5161      65642063 
 5161      68617200 
 5162              	.LASF46:
 5163 0275 55534152 		.ascii	"USART_LastBit\000"
 5163      545F4C61 
 5163      73744269 
 5163      7400
 5164              	.LASF36:
 5165 0283 55534152 		.ascii	"USART_BaudRate\000"
 5165      545F4261 
 5165      75645261 
 5165      746500
 5166              	.LASF62:
 5167 0292 55534152 		.ascii	"USART_IrDAMode\000"
 5167      545F4972 
 5167      44414D6F 
 5167      646500
 5168              	.LASF97:
 5169 02a1 61706263 		.ascii	"apbclock\000"
 5169      6C6F636B 
 5169      00
 5170              	.LASF10:
 5171 02aa 6C6F6E67 		.ascii	"long long int\000"
ARM GAS  C:\Users\ADMINI~1\AppData\Local\Temp\cc5w2WuM.s 			page 114


 5171      206C6F6E 
 5171      6720696E 
 5171      7400
 5172              	.LASF103:
 5173 02b8 5243435F 		.ascii	"RCC_APB1PeriphResetCmd\000"
 5173      41504231 
 5173      50657269 
 5173      70685265 
 5173      73657443 
 5174              	.LASF17:
 5175 02cf 49545374 		.ascii	"ITStatus\000"
 5175      61747573 
 5175      00
 5176              	.LASF7:
 5177 02d8 6C6F6E67 		.ascii	"long int\000"
 5177      20696E74 
 5177      00
 5178              	.LASF54:
 5179 02e1 55534152 		.ascii	"USART_ClearITPendingBit\000"
 5179      545F436C 
 5179      65617249 
 5179      5450656E 
 5179      64696E67 
 5180              	.LASF71:
 5181 02f9 55534152 		.ascii	"USART_GuardTime\000"
 5181      545F4775 
 5181      61726454 
 5181      696D6500 
 5182              	.LASF77:
 5183 0309 55534152 		.ascii	"USART_LINBreakDetectLengthConfig\000"
 5183      545F4C49 
 5183      4E427265 
 5183      616B4465 
 5183      74656374 
 5184              	.LASF4:
 5185 032a 5F5F7569 		.ascii	"__uint8_t\000"
 5185      6E74385F 
 5185      7400
 5186              	.LASF56:
 5187 0334 55534152 		.ascii	"USART_FLAG\000"
 5187      545F464C 
 5187      414700
 5188              	.LASF100:
 5189 033f 55534152 		.ascii	"USART_DeInit\000"
 5189      545F4465 
 5189      496E6974 
 5189      00
 5190              	.LASF91:
 5191 034c 55534152 		.ascii	"USART_ClockInitStruct\000"
 5191      545F436C 
 5191      6F636B49 
 5191      6E697453 
 5191      74727563 
 5192              	.LASF75:
 5193 0362 44617461 		.ascii	"Data\000"
 5193      00
 5194              	.LASF93:
ARM GAS  C:\Users\ADMINI~1\AppData\Local\Temp\cc5w2WuM.s 			page 115


 5195 0367 746D7072 		.ascii	"tmpreg\000"
 5195      656700
 5196              	.LASF39:
 5197 036e 55534152 		.ascii	"USART_Parity\000"
 5197      545F5061 
 5197      72697479 
 5197      00
 5198              	.LASF90:
 5199 037b 55534152 		.ascii	"USART_ClockStructInit\000"
 5199      545F436C 
 5199      6F636B53 
 5199      74727563 
 5199      74496E69 
 5200              	.LASF2:
 5201 0391 756E7369 		.ascii	"unsigned char\000"
 5201      676E6564 
 5201      20636861 
 5201      7200
 5202              	.LASF88:
 5203 039f 75736172 		.ascii	"usartxbase\000"
 5203      74786261 
 5203      736500
 5204              	.LASF55:
 5205 03aa 55534152 		.ascii	"USART_ClearFlag\000"
 5205      545F436C 
 5205      65617246 
 5205      6C616700 
 5206              	.LASF82:
 5207 03ba 55534152 		.ascii	"USART_SetAddress\000"
 5207      545F5365 
 5207      74416464 
 5207      72657373 
 5207      00
 5208              	.LASF11:
 5209 03cb 6C6F6E67 		.ascii	"long long unsigned int\000"
 5209      206C6F6E 
 5209      6720756E 
 5209      7369676E 
 5209      65642069 
 5210              	.LASF34:
 5211 03e2 41444343 		.ascii	"ADCCLK_Frequency\000"
 5211      4C4B5F46 
 5211      72657175 
 5211      656E6379 
 5211      00
 5212              	.LASF70:
 5213 03f3 55534152 		.ascii	"USART_SetGuardTime\000"
 5213      545F5365 
 5213      74477561 
 5213      72645469 
 5213      6D6500
 5214              	.LASF0:
 5215 0406 756E7369 		.ascii	"unsigned int\000"
 5215      676E6564 
 5215      20696E74 
 5215      00
 5216              	.LASF13:
ARM GAS  C:\Users\ADMINI~1\AppData\Local\Temp\cc5w2WuM.s 			page 116


 5217 0413 75696E74 		.ascii	"uint16_t\000"
 5217      31365F74 
 5217      00
 5218              	.LASF9:
 5219 041c 6C6F6E67 		.ascii	"long unsigned int\000"
 5219      20756E73 
 5219      69676E65 
 5219      6420696E 
 5219      7400
 5220              	.LASF72:
 5221 042e 55534152 		.ascii	"USART_SendBreak\000"
 5221      545F5365 
 5221      6E644272 
 5221      65616B00 
 5222              	.LASF42:
 5223 043e 55534152 		.ascii	"USART_InitTypeDef\000"
 5223      545F496E 
 5223      69745479 
 5223      70654465 
 5223      6600
 5224              	.LASF102:
 5225 0450 5243435F 		.ascii	"RCC_APB2PeriphResetCmd\000"
 5225      41504232 
 5225      50657269 
 5225      70685265 
 5225      73657443 
 5226              	.LASF86:
 5227 0467 55534152 		.ascii	"USART_ITConfig\000"
 5227      545F4954 
 5227      436F6E66 
 5227      696700
 5228              	.LASF35:
 5229 0476 5243435F 		.ascii	"RCC_ClocksTypeDef\000"
 5229      436C6F63 
 5229      6B735479 
 5229      70654465 
 5229      6600
 5230              	.LASF85:
 5231 0488 55534152 		.ascii	"USART_DMAReq\000"
 5231      545F444D 
 5231      41526571 
 5231      00
 5232              	.LASF51:
 5233 0495 55534152 		.ascii	"USARTx\000"
 5233      547800
 5234              	.LASF41:
 5235 049c 55534152 		.ascii	"USART_HardwareFlowControl\000"
 5235      545F4861 
 5235      72647761 
 5235      7265466C 
 5235      6F77436F 
 5236              	.LASF67:
 5237 04b6 55534152 		.ascii	"USART_SmartCardCmd\000"
 5237      545F536D 
 5237      61727443 
 5237      61726443 
 5237      6D6400
ARM GAS  C:\Users\ADMINI~1\AppData\Local\Temp\cc5w2WuM.s 			page 117


 5238              	.LASF40:
 5239 04c9 55534152 		.ascii	"USART_Mode\000"
 5239      545F4D6F 
 5239      646500
 5240              	.LASF83:
 5241 04d4 55534152 		.ascii	"USART_Address\000"
 5241      545F4164 
 5241      64726573 
 5241      7300
 5242              	.LASF48:
 5243 04e2 62697470 		.ascii	"bitpos\000"
 5243      6F7300
 5244              	.LASF64:
 5245 04e9 55534152 		.ascii	"USART_OverSampling8Cmd\000"
 5245      545F4F76 
 5245      65725361 
 5245      6D706C69 
 5245      6E673843 
 5246              	.LASF6:
 5247 0500 73686F72 		.ascii	"short unsigned int\000"
 5247      7420756E 
 5247      7369676E 
 5247      65642069 
 5247      6E7400
 5248              	.LASF57:
 5249 0513 55534152 		.ascii	"USART_GetITStatus\000"
 5249      545F4765 
 5249      74495453 
 5249      74617475 
 5249      7300
 5250              	.LASF76:
 5251 0525 55534152 		.ascii	"USART_LINCmd\000"
 5251      545F4C49 
 5251      4E436D64 
 5251      00
 5252              	.LASF61:
 5253 0532 55534152 		.ascii	"USART_IrDAConfig\000"
 5253      545F4972 
 5253      4441436F 
 5253      6E666967 
 5253      00
 5254              	.LASF15:
 5255 0543 52455345 		.ascii	"RESET\000"
 5255      5400
 5256              	.LASF33:
 5257 0549 50434C4B 		.ascii	"PCLK2_Frequency\000"
 5257      325F4672 
 5257      65717565 
 5257      6E637900 
 5258              	.LASF43:
 5259 0559 55534152 		.ascii	"USART_Clock\000"
 5259      545F436C 
 5259      6F636B00 
 5260              	.LASF21:
 5261 0565 52455345 		.ascii	"RESERVED0\000"
 5261      52564544 
 5261      3000
ARM GAS  C:\Users\ADMINI~1\AppData\Local\Temp\cc5w2WuM.s 			page 118


 5262              	.LASF22:
 5263 056f 52455345 		.ascii	"RESERVED1\000"
 5263      52564544 
 5263      3100
 5264              	.LASF23:
 5265 0579 52455345 		.ascii	"RESERVED2\000"
 5265      52564544 
 5265      3200
 5266              	.LASF24:
 5267 0583 52455345 		.ascii	"RESERVED3\000"
 5267      52564544 
 5267      3300
 5268              	.LASF25:
 5269 058d 52455345 		.ascii	"RESERVED4\000"
 5269      52564544 
 5269      3400
 5270              	.LASF26:
 5271 0597 52455345 		.ascii	"RESERVED5\000"
 5271      52564544 
 5271      3500
 5272              	.LASF28:
 5273 05a1 52455345 		.ascii	"RESERVED6\000"
 5273      52564544 
 5273      3600
 5274              	.LASF59:
 5275 05ab 55534152 		.ascii	"USART_IrDACmd\000"
 5275      545F4972 
 5275      4441436D 
 5275      6400
 5276              	.LASF99:
 5277 05b9 66726163 		.ascii	"fractionaldivider\000"
 5277      74696F6E 
 5277      616C6469 
 5277      76696465 
 5277      7200
 5278              	.LASF20:
 5279 05cb 46756E63 		.ascii	"FunctionalState\000"
 5279      74696F6E 
 5279      616C5374 
 5279      61746500 
 5280              	.LASF66:
 5281 05db 55534152 		.ascii	"USART_SmartCardNACKCmd\000"
 5281      545F536D 
 5281      61727443 
 5281      6172644E 
 5281      41434B43 
 5282              	.LASF8:
 5283 05f2 5F5F7569 		.ascii	"__uint32_t\000"
 5283      6E743332 
 5283      5F7400
 5284              	.LASF32:
 5285 05fd 50434C4B 		.ascii	"PCLK1_Frequency\000"
 5285      315F4672 
 5285      65717565 
 5285      6E637900 
 5286              	.LASF58:
 5287 060d 55534152 		.ascii	"USART_GetFlagStatus\000"
ARM GAS  C:\Users\ADMINI~1\AppData\Local\Temp\cc5w2WuM.s 			page 119


 5287      545F4765 
 5287      74466C61 
 5287      67537461 
 5287      74757300 
 5288              	.LASF101:
 5289 0621 5243435F 		.ascii	"RCC_GetClocksFreq\000"
 5289      47657443 
 5289      6C6F636B 
 5289      73467265 
 5289      7100
 5290              	.LASF95:
 5291 0633 55534152 		.ascii	"USART_InitStruct\000"
 5291      545F496E 
 5291      69745374 
 5291      72756374 
 5291      00
 5292              	.LASF107:
 5293 0644 5243435F 		.ascii	"RCC_ClocksStatus\000"
 5293      436C6F63 
 5293      6B735374 
 5293      61747573 
 5293      00
 5294              	.LASF92:
 5295 0655 55534152 		.ascii	"USART_ClockInit\000"
 5295      545F436C 
 5295      6F636B49 
 5295      6E697400 
 5296              	.LASF80:
 5297 0665 55534152 		.ascii	"USART_WakeUpConfig\000"
 5297      545F5761 
 5297      6B655570 
 5297      436F6E66 
 5297      696700
 5298              	.LASF65:
 5299 0678 55534152 		.ascii	"USART_HalfDuplexCmd\000"
 5299      545F4861 
 5299      6C664475 
 5299      706C6578 
 5299      436D6400 
 5300              	.LASF94:
 5301 068c 55534152 		.ascii	"USART_StructInit\000"
 5301      545F5374 
 5301      72756374 
 5301      496E6974 
 5301      00
 5302              	.LASF69:
 5303 069d 55534152 		.ascii	"USART_Prescaler\000"
 5303      545F5072 
 5303      65736361 
 5303      6C657200 
 5304              	.LASF44:
 5305 06ad 55534152 		.ascii	"USART_CPOL\000"
 5305      545F4350 
 5305      4F4C00
 5306              	.LASF49:
 5307 06b8 69746D61 		.ascii	"itmask\000"
 5307      736B00
ARM GAS  C:\Users\ADMINI~1\AppData\Local\Temp\cc5w2WuM.s 			page 120


 5308              	.LASF53:
 5309 06bf 62697473 		.ascii	"bitstatus\000"
 5309      74617475 
 5309      7300
 5310              	.LASF73:
 5311 06c9 55534152 		.ascii	"USART_ReceiveData\000"
 5311      545F5265 
 5311      63656976 
 5311      65446174 
 5311      6100
 5312              	.LASF52:
 5313 06db 75736172 		.ascii	"usartreg\000"
 5313      74726567 
 5313      00
 5314              	.LASF19:
 5315 06e4 454E4142 		.ascii	"ENABLE\000"
 5315      4C4500
 5316              		.ident	"GCC: (GNU Arm Embedded Toolchain 10.3-2021.10) 10.3.1 20210824 (release)"
ARM GAS  C:\Users\ADMINI~1\AppData\Local\Temp\cc5w2WuM.s 			page 121


DEFINED SYMBOLS
                            *ABS*:00000000 stm32f10x_usart.c
C:\Users\ADMINI~1\AppData\Local\Temp\cc5w2WuM.s:78     .text:00000000 $t
C:\Users\ADMINI~1\AppData\Local\Temp\cc5w2WuM.s:84     .text:00000000 USART_DeInit
C:\Users\ADMINI~1\AppData\Local\Temp\cc5w2WuM.s:226    .text:00000088 $d
C:\Users\ADMINI~1\AppData\Local\Temp\cc5w2WuM.s:234    .text:0000009c $t
C:\Users\ADMINI~1\AppData\Local\Temp\cc5w2WuM.s:240    .text:0000009c USART_Init
C:\Users\ADMINI~1\AppData\Local\Temp\cc5w2WuM.s:468    .text:0000013c $d
C:\Users\ADMINI~1\AppData\Local\Temp\cc5w2WuM.s:472    .text:00000140 $t
C:\Users\ADMINI~1\AppData\Local\Temp\cc5w2WuM.s:478    .text:00000140 USART_StructInit
C:\Users\ADMINI~1\AppData\Local\Temp\cc5w2WuM.s:518    .text:00000154 USART_ClockInit
C:\Users\ADMINI~1\AppData\Local\Temp\cc5w2WuM.s:586    .text:00000174 USART_ClockStructInit
C:\Users\ADMINI~1\AppData\Local\Temp\cc5w2WuM.s:623    .text:00000180 USART_Cmd
C:\Users\ADMINI~1\AppData\Local\Temp\cc5w2WuM.s:669    .text:00000198 USART_ITConfig
C:\Users\ADMINI~1\AppData\Local\Temp\cc5w2WuM.s:777    .text:000001c8 USART_DMACmd
C:\Users\ADMINI~1\AppData\Local\Temp\cc5w2WuM.s:826    .text:000001da USART_SetAddress
C:\Users\ADMINI~1\AppData\Local\Temp\cc5w2WuM.s:863    .text:000001f0 USART_WakeUpConfig
C:\Users\ADMINI~1\AppData\Local\Temp\cc5w2WuM.s:900    .text:00000206 USART_ReceiverWakeUpCmd
C:\Users\ADMINI~1\AppData\Local\Temp\cc5w2WuM.s:946    .text:0000021e USART_LINBreakDetectLengthConfig
C:\Users\ADMINI~1\AppData\Local\Temp\cc5w2WuM.s:983    .text:00000234 USART_LINCmd
C:\Users\ADMINI~1\AppData\Local\Temp\cc5w2WuM.s:1029   .text:0000024c USART_SendData
C:\Users\ADMINI~1\AppData\Local\Temp\cc5w2WuM.s:1059   .text:00000254 USART_ReceiveData
C:\Users\ADMINI~1\AppData\Local\Temp\cc5w2WuM.s:1086   .text:0000025c USART_SendBreak
C:\Users\ADMINI~1\AppData\Local\Temp\cc5w2WuM.s:1114   .text:00000268 USART_SetGuardTime
C:\Users\ADMINI~1\AppData\Local\Temp\cc5w2WuM.s:1148   .text:0000027a USART_SetPrescaler
C:\Users\ADMINI~1\AppData\Local\Temp\cc5w2WuM.s:1182   .text:0000028c USART_SmartCardCmd
C:\Users\ADMINI~1\AppData\Local\Temp\cc5w2WuM.s:1228   .text:000002a4 USART_SmartCardNACKCmd
C:\Users\ADMINI~1\AppData\Local\Temp\cc5w2WuM.s:1274   .text:000002bc USART_HalfDuplexCmd
C:\Users\ADMINI~1\AppData\Local\Temp\cc5w2WuM.s:1320   .text:000002d4 USART_OverSampling8Cmd
C:\Users\ADMINI~1\AppData\Local\Temp\cc5w2WuM.s:1365   .text:000002ec USART_OneBitMethodCmd
C:\Users\ADMINI~1\AppData\Local\Temp\cc5w2WuM.s:1411   .text:00000304 USART_IrDAConfig
C:\Users\ADMINI~1\AppData\Local\Temp\cc5w2WuM.s:1448   .text:0000031a USART_IrDACmd
C:\Users\ADMINI~1\AppData\Local\Temp\cc5w2WuM.s:1494   .text:00000332 USART_GetFlagStatus
C:\Users\ADMINI~1\AppData\Local\Temp\cc5w2WuM.s:1533   .text:0000033e USART_ClearFlag
C:\Users\ADMINI~1\AppData\Local\Temp\cc5w2WuM.s:1567   .text:00000346 USART_GetITStatus
C:\Users\ADMINI~1\AppData\Local\Temp\cc5w2WuM.s:1693   .text:00000384 USART_ClearITPendingBit

UNDEFINED SYMBOLS
RCC_APB2PeriphResetCmd
RCC_APB1PeriphResetCmd
RCC_GetClocksFreq
