ARM GAS  C:\Users\ADMINI~1\AppData\Local\Temp\cc5w2WuM.s 			page 1


   1              		.cpu cortex-m3
   2              		.arch armv7-m
   3              		.fpu softvfp
   4              		.eabi_attribute 20, 1	@ Tag_ABI_FP_denormal
   5              		.eabi_attribute 21, 1	@ Tag_ABI_FP_exceptions
   6              		.eabi_attribute 23, 3	@ Tag_ABI_FP_number_model
   7              		.eabi_attribute 24, 1	@ Tag_ABI_align8_needed
   8              		.eabi_attribute 25, 1	@ Tag_ABI_align8_preserved
   9              		.eabi_attribute 26, 1	@ Tag_ABI_enum_size
  10              		.eabi_attribute 30, 4	@ Tag_ABI_optimization_goals
  11              		.eabi_attribute 34, 1	@ Tag_CPU_unaligned_access
  12              		.eabi_attribute 18, 4	@ Tag_ABI_PCS_wchar_t
  13              		.file	"stm32f10x_usart.c"
  14              	@ GNU C17 (GNU Arm Embedded Toolchain 10.3-2021.10) version 10.3.1 20210824 (release) (arm-none-eab
  15              	@	compiled by GNU C version 7.3-win32 20180312, GMP version 6.1.0, MPFR version 3.1.4, MPC version 
  16              	
  17              	@ GGC heuristics: --param ggc-min-expand=100 --param ggc-min-heapsize=131072
  18              	@ options passed:  -I . -I ./user -I ./stm32f10x_lib/CMSIS/CM3/CoreSupport
  19              	@ -I ./stm32f10x_lib/CMSIS/CM3/DeviceSupport/ST/STM32F10x
  20              	@ -I ./stm32f10x_lib/STM32F10x_StdPeriph_Driver/inc
  21              	@ -I ./stm32f10x_lib/STM32F10x_StdPeriph_Driver -I ./freertos/include
  22              	@ -I ./freertos/portable/GCC/ARM_CM3 -imultilib thumb/v7-m/nofp
  23              	@ -iprefix c:\program files (x86)\gnu arm embedded toolchain\10 2021.10\bin\../lib/gcc/arm-none-eab
  24              	@ -isysroot c:\program files (x86)\gnu arm embedded toolchain\10 2021.10\bin\../arm-none-eabi
  25              	@ -D__USES_INITFINI__ -D STM32F10X_MD -D USE_STDPERIPH_DRIVER
  26              	@ -D HSE_VALUE=8000000 -D RUN_FROM_FLASH=1
  27              	@ stm32f10x_lib/STM32F10x_StdPeriph_Driver/src/stm32f10x_usart.c
  28              	@ -mcpu=cortex-m3 -mthumb -mfloat-abi=soft -mlibarch=armv7-m -march=armv7-m
  29              	@ -auxbase-strip stm32f10x_lib/STM32F10x_StdPeriph_Driver/src/stm32f10x_usart.o
  30              	@ -g -gdwarf-2 -Os -Wall -fomit-frame-pointer -fverbose-asm
  31              	@ options enabled:  -faggressive-loop-optimizations -fallocation-dce
  32              	@ -fauto-inc-dec -fbranch-count-reg -fcaller-saves -fcode-hoisting
  33              	@ -fcombine-stack-adjustments -fcompare-elim -fcprop-registers
  34              	@ -fcrossjumping -fcse-follow-jumps -fdefer-pop
  35              	@ -fdelete-null-pointer-checks -fdevirtualize -fdevirtualize-speculatively
  36              	@ -fdwarf2-cfi-asm -fearly-inlining -feliminate-unused-debug-symbols
  37              	@ -feliminate-unused-debug-types -fexpensive-optimizations
  38              	@ -fforward-propagate -ffp-int-builtin-inexact -ffunction-cse -fgcse
  39              	@ -fgcse-lm -fgnu-unique -fguess-branch-probability -fhoist-adjacent-loads
  40              	@ -fident -fif-conversion -fif-conversion2 -findirect-inlining -finline
  41              	@ -finline-atomics -finline-functions -finline-functions-called-once
  42              	@ -finline-small-functions -fipa-bit-cp -fipa-cp -fipa-icf
  43              	@ -fipa-icf-functions -fipa-icf-variables -fipa-profile -fipa-pure-const
  44              	@ -fipa-ra -fipa-reference -fipa-reference-addressable -fipa-sra
  45              	@ -fipa-stack-alignment -fipa-vrp -fira-hoist-pressure
  46              	@ -fira-share-save-slots -fira-share-spill-slots
  47              	@ -fisolate-erroneous-paths-dereference -fivopts -fkeep-static-consts
  48              	@ -fleading-underscore -flifetime-dse -flra-remat -fmath-errno
  49              	@ -fmerge-constants -fmerge-debug-strings -fmove-loop-invariants
  50              	@ -fomit-frame-pointer -foptimize-sibling-calls -fpartial-inlining
  51              	@ -fpeephole -fpeephole2 -fplt -fprefetch-loop-arrays -freg-struct-return
  52              	@ -freorder-blocks -freorder-functions -frerun-cse-after-loop
  53              	@ -fsched-critical-path-heuristic -fsched-dep-count-heuristic
  54              	@ -fsched-group-heuristic -fsched-interblock -fsched-last-insn-heuristic
  55              	@ -fsched-pressure -fsched-rank-heuristic -fsched-spec
  56              	@ -fsched-spec-insn-heuristic -fsched-stalled-insns-dep -fschedule-insns2
  57              	@ -fsection-anchors -fsemantic-interposition -fshow-column
ARM GAS  C:\Users\ADMINI~1\AppData\Local\Temp\cc5w2WuM.s 			page 2


  58              	@ -fshrink-wrap-separate -fsigned-zeros -fsplit-ivs-in-unroller
  59              	@ -fsplit-wide-types -fssa-backprop -fssa-phiopt -fstdarg-opt
  60              	@ -fstore-merging -fstrict-aliasing -fstrict-volatile-bitfields
  61              	@ -fsync-libcalls -fthread-jumps -ftoplevel-reorder -ftrapping-math
  62              	@ -ftree-bit-ccp -ftree-builtin-call-dce -ftree-ccp -ftree-ch
  63              	@ -ftree-coalesce-vars -ftree-copy-prop -ftree-cselim -ftree-dce
  64              	@ -ftree-dominator-opts -ftree-dse -ftree-forwprop -ftree-fre
  65              	@ -ftree-loop-distribute-patterns -ftree-loop-if-convert -ftree-loop-im
  66              	@ -ftree-loop-ivcanon -ftree-loop-optimize -ftree-parallelize-loops=
  67              	@ -ftree-phiprop -ftree-pre -ftree-pta -ftree-reassoc -ftree-scev-cprop
  68              	@ -ftree-sink -ftree-slsr -ftree-sra -ftree-switch-conversion
  69              	@ -ftree-tail-merge -ftree-ter -ftree-vrp -funit-at-a-time -fvar-tracking
  70              	@ -fvar-tracking-assignments -fverbose-asm -fzero-initialized-in-bss
  71              	@ -masm-syntax-unified -mbe32 -mfix-cortex-m3-ldrd -mlittle-endian
  72              	@ -mpic-data-is-text-relative -msched-prolog -mthumb -munaligned-access
  73              	@ -mvectorize-with-neon-quad
  74              	
  75              		.text
  76              	.Ltext0:
  77              		.cfi_sections	.debug_frame
  78              		.align	1
  79              		.global	USART_DeInit
  80              		.syntax unified
  81              		.thumb
  82              		.thumb_func
  83              		.type	USART_DeInit, %function
  84              	USART_DeInit:
  85              	.LVL0:
  86              	.LFB29:
  87              		.file 1 "stm32f10x_lib/STM32F10x_StdPeriph_Driver/src/stm32f10x_usart.c"
   1:stm32f10x_lib/STM32F10x_StdPeriph_Driver/src/stm32f10x_usart.c **** /**
   2:stm32f10x_lib/STM32F10x_StdPeriph_Driver/src/stm32f10x_usart.c ****   ******************************************************************************
   3:stm32f10x_lib/STM32F10x_StdPeriph_Driver/src/stm32f10x_usart.c ****   * @file    stm32f10x_usart.c
   4:stm32f10x_lib/STM32F10x_StdPeriph_Driver/src/stm32f10x_usart.c ****   * @author  MCD Application Team
   5:stm32f10x_lib/STM32F10x_StdPeriph_Driver/src/stm32f10x_usart.c ****   * @version V3.5.0
   6:stm32f10x_lib/STM32F10x_StdPeriph_Driver/src/stm32f10x_usart.c ****   * @date    11-March-2011
   7:stm32f10x_lib/STM32F10x_StdPeriph_Driver/src/stm32f10x_usart.c ****   * @brief   This file provides all the USART firmware functions.
   8:stm32f10x_lib/STM32F10x_StdPeriph_Driver/src/stm32f10x_usart.c ****   ******************************************************************************
   9:stm32f10x_lib/STM32F10x_StdPeriph_Driver/src/stm32f10x_usart.c ****   * @attention
  10:stm32f10x_lib/STM32F10x_StdPeriph_Driver/src/stm32f10x_usart.c ****   *
  11:stm32f10x_lib/STM32F10x_StdPeriph_Driver/src/stm32f10x_usart.c ****   * THE PRESENT FIRMWARE WHICH IS FOR GUIDANCE ONLY AIMS AT PROVIDING CUSTOMERS
  12:stm32f10x_lib/STM32F10x_StdPeriph_Driver/src/stm32f10x_usart.c ****   * WITH CODING INFORMATION REGARDING THEIR PRODUCTS IN ORDER FOR THEM TO SAVE
  13:stm32f10x_lib/STM32F10x_StdPeriph_Driver/src/stm32f10x_usart.c ****   * TIME. AS A RESULT, STMICROELECTRONICS SHALL NOT BE HELD LIABLE FOR ANY
  14:stm32f10x_lib/STM32F10x_StdPeriph_Driver/src/stm32f10x_usart.c ****   * DIRECT, INDIRECT OR CONSEQUENTIAL DAMAGES WITH RESPECT TO ANY CLAIMS ARISING
  15:stm32f10x_lib/STM32F10x_StdPeriph_Driver/src/stm32f10x_usart.c ****   * FROM THE CONTENT OF SUCH FIRMWARE AND/OR THE USE MADE BY CUSTOMERS OF THE
  16:stm32f10x_lib/STM32F10x_StdPeriph_Driver/src/stm32f10x_usart.c ****   * CODING INFORMATION CONTAINED HEREIN IN CONNECTION WITH THEIR PRODUCTS.
  17:stm32f10x_lib/STM32F10x_StdPeriph_Driver/src/stm32f10x_usart.c ****   *
  18:stm32f10x_lib/STM32F10x_StdPeriph_Driver/src/stm32f10x_usart.c ****   * <h2><center>&copy; COPYRIGHT 2011 STMicroelectronics</center></h2>
  19:stm32f10x_lib/STM32F10x_StdPeriph_Driver/src/stm32f10x_usart.c ****   ******************************************************************************
  20:stm32f10x_lib/STM32F10x_StdPeriph_Driver/src/stm32f10x_usart.c ****   */
  21:stm32f10x_lib/STM32F10x_StdPeriph_Driver/src/stm32f10x_usart.c **** 
  22:stm32f10x_lib/STM32F10x_StdPeriph_Driver/src/stm32f10x_usart.c **** /* Includes ------------------------------------------------------------------*/
  23:stm32f10x_lib/STM32F10x_StdPeriph_Driver/src/stm32f10x_usart.c **** #include "stm32f10x_usart.h"
  24:stm32f10x_lib/STM32F10x_StdPeriph_Driver/src/stm32f10x_usart.c **** #include "stm32f10x_rcc.h"
  25:stm32f10x_lib/STM32F10x_StdPeriph_Driver/src/stm32f10x_usart.c **** 
  26:stm32f10x_lib/STM32F10x_StdPeriph_Driver/src/stm32f10x_usart.c **** /** @addtogroup STM32F10x_StdPeriph_Driver
  27:stm32f10x_lib/STM32F10x_StdPeriph_Driver/src/stm32f10x_usart.c ****   * @{
ARM GAS  C:\Users\ADMINI~1\AppData\Local\Temp\cc5w2WuM.s 			page 3


  28:stm32f10x_lib/STM32F10x_StdPeriph_Driver/src/stm32f10x_usart.c ****   */
  29:stm32f10x_lib/STM32F10x_StdPeriph_Driver/src/stm32f10x_usart.c **** 
  30:stm32f10x_lib/STM32F10x_StdPeriph_Driver/src/stm32f10x_usart.c **** /** @defgroup USART 
  31:stm32f10x_lib/STM32F10x_StdPeriph_Driver/src/stm32f10x_usart.c ****   * @brief USART driver modules
  32:stm32f10x_lib/STM32F10x_StdPeriph_Driver/src/stm32f10x_usart.c ****   * @{
  33:stm32f10x_lib/STM32F10x_StdPeriph_Driver/src/stm32f10x_usart.c ****   */
  34:stm32f10x_lib/STM32F10x_StdPeriph_Driver/src/stm32f10x_usart.c **** 
  35:stm32f10x_lib/STM32F10x_StdPeriph_Driver/src/stm32f10x_usart.c **** /** @defgroup USART_Private_TypesDefinitions
  36:stm32f10x_lib/STM32F10x_StdPeriph_Driver/src/stm32f10x_usart.c ****   * @{
  37:stm32f10x_lib/STM32F10x_StdPeriph_Driver/src/stm32f10x_usart.c ****   */
  38:stm32f10x_lib/STM32F10x_StdPeriph_Driver/src/stm32f10x_usart.c **** 
  39:stm32f10x_lib/STM32F10x_StdPeriph_Driver/src/stm32f10x_usart.c **** /**
  40:stm32f10x_lib/STM32F10x_StdPeriph_Driver/src/stm32f10x_usart.c ****   * @}
  41:stm32f10x_lib/STM32F10x_StdPeriph_Driver/src/stm32f10x_usart.c ****   */
  42:stm32f10x_lib/STM32F10x_StdPeriph_Driver/src/stm32f10x_usart.c **** 
  43:stm32f10x_lib/STM32F10x_StdPeriph_Driver/src/stm32f10x_usart.c **** /** @defgroup USART_Private_Defines
  44:stm32f10x_lib/STM32F10x_StdPeriph_Driver/src/stm32f10x_usart.c ****   * @{
  45:stm32f10x_lib/STM32F10x_StdPeriph_Driver/src/stm32f10x_usart.c ****   */
  46:stm32f10x_lib/STM32F10x_StdPeriph_Driver/src/stm32f10x_usart.c **** 
  47:stm32f10x_lib/STM32F10x_StdPeriph_Driver/src/stm32f10x_usart.c **** #define CR1_UE_Set                ((uint16_t)0x2000)  /*!< USART Enable Mask */
  48:stm32f10x_lib/STM32F10x_StdPeriph_Driver/src/stm32f10x_usart.c **** #define CR1_UE_Reset              ((uint16_t)0xDFFF)  /*!< USART Disable Mask */
  49:stm32f10x_lib/STM32F10x_StdPeriph_Driver/src/stm32f10x_usart.c **** 
  50:stm32f10x_lib/STM32F10x_StdPeriph_Driver/src/stm32f10x_usart.c **** #define CR1_WAKE_Mask             ((uint16_t)0xF7FF)  /*!< USART WakeUp Method Mask */
  51:stm32f10x_lib/STM32F10x_StdPeriph_Driver/src/stm32f10x_usart.c **** 
  52:stm32f10x_lib/STM32F10x_StdPeriph_Driver/src/stm32f10x_usart.c **** #define CR1_RWU_Set               ((uint16_t)0x0002)  /*!< USART mute mode Enable Mask */
  53:stm32f10x_lib/STM32F10x_StdPeriph_Driver/src/stm32f10x_usart.c **** #define CR1_RWU_Reset             ((uint16_t)0xFFFD)  /*!< USART mute mode Enable Mask */
  54:stm32f10x_lib/STM32F10x_StdPeriph_Driver/src/stm32f10x_usart.c **** #define CR1_SBK_Set               ((uint16_t)0x0001)  /*!< USART Break Character send Mask */
  55:stm32f10x_lib/STM32F10x_StdPeriph_Driver/src/stm32f10x_usart.c **** #define CR1_CLEAR_Mask            ((uint16_t)0xE9F3)  /*!< USART CR1 Mask */
  56:stm32f10x_lib/STM32F10x_StdPeriph_Driver/src/stm32f10x_usart.c **** #define CR2_Address_Mask          ((uint16_t)0xFFF0)  /*!< USART address Mask */
  57:stm32f10x_lib/STM32F10x_StdPeriph_Driver/src/stm32f10x_usart.c **** 
  58:stm32f10x_lib/STM32F10x_StdPeriph_Driver/src/stm32f10x_usart.c **** #define CR2_LINEN_Set              ((uint16_t)0x4000)  /*!< USART LIN Enable Mask */
  59:stm32f10x_lib/STM32F10x_StdPeriph_Driver/src/stm32f10x_usart.c **** #define CR2_LINEN_Reset            ((uint16_t)0xBFFF)  /*!< USART LIN Disable Mask */
  60:stm32f10x_lib/STM32F10x_StdPeriph_Driver/src/stm32f10x_usart.c **** 
  61:stm32f10x_lib/STM32F10x_StdPeriph_Driver/src/stm32f10x_usart.c **** #define CR2_LBDL_Mask             ((uint16_t)0xFFDF)  /*!< USART LIN Break detection Mask */
  62:stm32f10x_lib/STM32F10x_StdPeriph_Driver/src/stm32f10x_usart.c **** #define CR2_STOP_CLEAR_Mask       ((uint16_t)0xCFFF)  /*!< USART CR2 STOP Bits Mask */
  63:stm32f10x_lib/STM32F10x_StdPeriph_Driver/src/stm32f10x_usart.c **** #define CR2_CLOCK_CLEAR_Mask      ((uint16_t)0xF0FF)  /*!< USART CR2 Clock Mask */
  64:stm32f10x_lib/STM32F10x_StdPeriph_Driver/src/stm32f10x_usart.c **** 
  65:stm32f10x_lib/STM32F10x_StdPeriph_Driver/src/stm32f10x_usart.c **** #define CR3_SCEN_Set              ((uint16_t)0x0020)  /*!< USART SC Enable Mask */
  66:stm32f10x_lib/STM32F10x_StdPeriph_Driver/src/stm32f10x_usart.c **** #define CR3_SCEN_Reset            ((uint16_t)0xFFDF)  /*!< USART SC Disable Mask */
  67:stm32f10x_lib/STM32F10x_StdPeriph_Driver/src/stm32f10x_usart.c **** 
  68:stm32f10x_lib/STM32F10x_StdPeriph_Driver/src/stm32f10x_usart.c **** #define CR3_NACK_Set              ((uint16_t)0x0010)  /*!< USART SC NACK Enable Mask */
  69:stm32f10x_lib/STM32F10x_StdPeriph_Driver/src/stm32f10x_usart.c **** #define CR3_NACK_Reset            ((uint16_t)0xFFEF)  /*!< USART SC NACK Disable Mask */
  70:stm32f10x_lib/STM32F10x_StdPeriph_Driver/src/stm32f10x_usart.c **** 
  71:stm32f10x_lib/STM32F10x_StdPeriph_Driver/src/stm32f10x_usart.c **** #define CR3_HDSEL_Set             ((uint16_t)0x0008)  /*!< USART Half-Duplex Enable Mask */
  72:stm32f10x_lib/STM32F10x_StdPeriph_Driver/src/stm32f10x_usart.c **** #define CR3_HDSEL_Reset           ((uint16_t)0xFFF7)  /*!< USART Half-Duplex Disable Mask */
  73:stm32f10x_lib/STM32F10x_StdPeriph_Driver/src/stm32f10x_usart.c **** 
  74:stm32f10x_lib/STM32F10x_StdPeriph_Driver/src/stm32f10x_usart.c **** #define CR3_IRLP_Mask             ((uint16_t)0xFFFB)  /*!< USART IrDA LowPower mode Mask */
  75:stm32f10x_lib/STM32F10x_StdPeriph_Driver/src/stm32f10x_usart.c **** #define CR3_CLEAR_Mask            ((uint16_t)0xFCFF)  /*!< USART CR3 Mask */
  76:stm32f10x_lib/STM32F10x_StdPeriph_Driver/src/stm32f10x_usart.c **** 
  77:stm32f10x_lib/STM32F10x_StdPeriph_Driver/src/stm32f10x_usart.c **** #define CR3_IREN_Set              ((uint16_t)0x0002)  /*!< USART IrDA Enable Mask */
  78:stm32f10x_lib/STM32F10x_StdPeriph_Driver/src/stm32f10x_usart.c **** #define CR3_IREN_Reset            ((uint16_t)0xFFFD)  /*!< USART IrDA Disable Mask */
  79:stm32f10x_lib/STM32F10x_StdPeriph_Driver/src/stm32f10x_usart.c **** #define GTPR_LSB_Mask             ((uint16_t)0x00FF)  /*!< Guard Time Register LSB Mask */
  80:stm32f10x_lib/STM32F10x_StdPeriph_Driver/src/stm32f10x_usart.c **** #define GTPR_MSB_Mask             ((uint16_t)0xFF00)  /*!< Guard Time Register MSB Mask */
  81:stm32f10x_lib/STM32F10x_StdPeriph_Driver/src/stm32f10x_usart.c **** #define IT_Mask                   ((uint16_t)0x001F)  /*!< USART Interrupt Mask */
  82:stm32f10x_lib/STM32F10x_StdPeriph_Driver/src/stm32f10x_usart.c **** 
  83:stm32f10x_lib/STM32F10x_StdPeriph_Driver/src/stm32f10x_usart.c **** /* USART OverSampling-8 Mask */
  84:stm32f10x_lib/STM32F10x_StdPeriph_Driver/src/stm32f10x_usart.c **** #define CR1_OVER8_Set             ((u16)0x8000)  /* USART OVER8 mode Enable Mask */
ARM GAS  C:\Users\ADMINI~1\AppData\Local\Temp\cc5w2WuM.s 			page 4


  85:stm32f10x_lib/STM32F10x_StdPeriph_Driver/src/stm32f10x_usart.c **** #define CR1_OVER8_Reset           ((u16)0x7FFF)  /* USART OVER8 mode Disable Mask */
  86:stm32f10x_lib/STM32F10x_StdPeriph_Driver/src/stm32f10x_usart.c **** 
  87:stm32f10x_lib/STM32F10x_StdPeriph_Driver/src/stm32f10x_usart.c **** /* USART One Bit Sampling Mask */
  88:stm32f10x_lib/STM32F10x_StdPeriph_Driver/src/stm32f10x_usart.c **** #define CR3_ONEBITE_Set           ((u16)0x0800)  /* USART ONEBITE mode Enable Mask */
  89:stm32f10x_lib/STM32F10x_StdPeriph_Driver/src/stm32f10x_usart.c **** #define CR3_ONEBITE_Reset         ((u16)0xF7FF)  /* USART ONEBITE mode Disable Mask */
  90:stm32f10x_lib/STM32F10x_StdPeriph_Driver/src/stm32f10x_usart.c **** 
  91:stm32f10x_lib/STM32F10x_StdPeriph_Driver/src/stm32f10x_usart.c **** /**
  92:stm32f10x_lib/STM32F10x_StdPeriph_Driver/src/stm32f10x_usart.c ****   * @}
  93:stm32f10x_lib/STM32F10x_StdPeriph_Driver/src/stm32f10x_usart.c ****   */
  94:stm32f10x_lib/STM32F10x_StdPeriph_Driver/src/stm32f10x_usart.c **** 
  95:stm32f10x_lib/STM32F10x_StdPeriph_Driver/src/stm32f10x_usart.c **** /** @defgroup USART_Private_Macros
  96:stm32f10x_lib/STM32F10x_StdPeriph_Driver/src/stm32f10x_usart.c ****   * @{
  97:stm32f10x_lib/STM32F10x_StdPeriph_Driver/src/stm32f10x_usart.c ****   */
  98:stm32f10x_lib/STM32F10x_StdPeriph_Driver/src/stm32f10x_usart.c **** 
  99:stm32f10x_lib/STM32F10x_StdPeriph_Driver/src/stm32f10x_usart.c **** /**
 100:stm32f10x_lib/STM32F10x_StdPeriph_Driver/src/stm32f10x_usart.c ****   * @}
 101:stm32f10x_lib/STM32F10x_StdPeriph_Driver/src/stm32f10x_usart.c ****   */
 102:stm32f10x_lib/STM32F10x_StdPeriph_Driver/src/stm32f10x_usart.c **** 
 103:stm32f10x_lib/STM32F10x_StdPeriph_Driver/src/stm32f10x_usart.c **** /** @defgroup USART_Private_Variables
 104:stm32f10x_lib/STM32F10x_StdPeriph_Driver/src/stm32f10x_usart.c ****   * @{
 105:stm32f10x_lib/STM32F10x_StdPeriph_Driver/src/stm32f10x_usart.c ****   */
 106:stm32f10x_lib/STM32F10x_StdPeriph_Driver/src/stm32f10x_usart.c **** 
 107:stm32f10x_lib/STM32F10x_StdPeriph_Driver/src/stm32f10x_usart.c **** /**
 108:stm32f10x_lib/STM32F10x_StdPeriph_Driver/src/stm32f10x_usart.c ****   * @}
 109:stm32f10x_lib/STM32F10x_StdPeriph_Driver/src/stm32f10x_usart.c ****   */
 110:stm32f10x_lib/STM32F10x_StdPeriph_Driver/src/stm32f10x_usart.c **** 
 111:stm32f10x_lib/STM32F10x_StdPeriph_Driver/src/stm32f10x_usart.c **** /** @defgroup USART_Private_FunctionPrototypes
 112:stm32f10x_lib/STM32F10x_StdPeriph_Driver/src/stm32f10x_usart.c ****   * @{
 113:stm32f10x_lib/STM32F10x_StdPeriph_Driver/src/stm32f10x_usart.c ****   */
 114:stm32f10x_lib/STM32F10x_StdPeriph_Driver/src/stm32f10x_usart.c **** 
 115:stm32f10x_lib/STM32F10x_StdPeriph_Driver/src/stm32f10x_usart.c **** /**
 116:stm32f10x_lib/STM32F10x_StdPeriph_Driver/src/stm32f10x_usart.c ****   * @}
 117:stm32f10x_lib/STM32F10x_StdPeriph_Driver/src/stm32f10x_usart.c ****   */
 118:stm32f10x_lib/STM32F10x_StdPeriph_Driver/src/stm32f10x_usart.c **** 
 119:stm32f10x_lib/STM32F10x_StdPeriph_Driver/src/stm32f10x_usart.c **** /** @defgroup USART_Private_Functions
 120:stm32f10x_lib/STM32F10x_StdPeriph_Driver/src/stm32f10x_usart.c ****   * @{
 121:stm32f10x_lib/STM32F10x_StdPeriph_Driver/src/stm32f10x_usart.c ****   */
 122:stm32f10x_lib/STM32F10x_StdPeriph_Driver/src/stm32f10x_usart.c **** 
 123:stm32f10x_lib/STM32F10x_StdPeriph_Driver/src/stm32f10x_usart.c **** /**
 124:stm32f10x_lib/STM32F10x_StdPeriph_Driver/src/stm32f10x_usart.c ****   * @brief  Deinitializes the USARTx peripheral registers to their default reset values.
 125:stm32f10x_lib/STM32F10x_StdPeriph_Driver/src/stm32f10x_usart.c ****   * @param  USARTx: Select the USART or the UART peripheral. 
 126:stm32f10x_lib/STM32F10x_StdPeriph_Driver/src/stm32f10x_usart.c ****   *   This parameter can be one of the following values: 
 127:stm32f10x_lib/STM32F10x_StdPeriph_Driver/src/stm32f10x_usart.c ****   *      USART1, USART2, USART3, UART4 or UART5.
 128:stm32f10x_lib/STM32F10x_StdPeriph_Driver/src/stm32f10x_usart.c ****   * @retval None
 129:stm32f10x_lib/STM32F10x_StdPeriph_Driver/src/stm32f10x_usart.c ****   */
 130:stm32f10x_lib/STM32F10x_StdPeriph_Driver/src/stm32f10x_usart.c **** void USART_DeInit(USART_TypeDef* USARTx)
 131:stm32f10x_lib/STM32F10x_StdPeriph_Driver/src/stm32f10x_usart.c **** {
  88              		.loc 1 131 1 view -0
  89              		.cfi_startproc
  90              		@ args = 0, pretend = 0, frame = 0
  91              		@ frame_needed = 0, uses_anonymous_args = 0
 132:stm32f10x_lib/STM32F10x_StdPeriph_Driver/src/stm32f10x_usart.c ****   /* Check the parameters */
 133:stm32f10x_lib/STM32F10x_StdPeriph_Driver/src/stm32f10x_usart.c ****   assert_param(IS_USART_ALL_PERIPH(USARTx));
  92              		.loc 1 133 3 view .LVU1
 134:stm32f10x_lib/STM32F10x_StdPeriph_Driver/src/stm32f10x_usart.c **** 
 135:stm32f10x_lib/STM32F10x_StdPeriph_Driver/src/stm32f10x_usart.c ****   if (USARTx == USART1)
  93              		.loc 1 135 3 view .LVU2
ARM GAS  C:\Users\ADMINI~1\AppData\Local\Temp\cc5w2WuM.s 			page 5


  94              	@ stm32f10x_lib/STM32F10x_StdPeriph_Driver/src/stm32f10x_usart.c:131: {
 131:stm32f10x_lib/STM32F10x_StdPeriph_Driver/src/stm32f10x_usart.c ****   /* Check the parameters */
  95              		.loc 1 131 1 is_stmt 0 view .LVU3
  96 0000 08B5     		push	{r3, lr}	@
  97              	.LCFI0:
  98              		.cfi_def_cfa_offset 8
  99              		.cfi_offset 3, -8
 100              		.cfi_offset 14, -4
 101              	@ stm32f10x_lib/STM32F10x_StdPeriph_Driver/src/stm32f10x_usart.c:135:   if (USARTx == USART1)
 102              		.loc 1 135 6 view .LVU4
 103 0002 214B     		ldr	r3, .L8	@ tmp114,
 104 0004 9842     		cmp	r0, r3	@ USARTx, tmp114
 105 0006 0BD1     		bne	.L2		@,
 136:stm32f10x_lib/STM32F10x_StdPeriph_Driver/src/stm32f10x_usart.c ****   {
 137:stm32f10x_lib/STM32F10x_StdPeriph_Driver/src/stm32f10x_usart.c ****     RCC_APB2PeriphResetCmd(RCC_APB2Periph_USART1, ENABLE);
 106              		.loc 1 137 5 is_stmt 1 view .LVU5
 107 0008 0121     		movs	r1, #1	@,
 108 000a 4FF48040 		mov	r0, #16384	@,
 109              	.LVL1:
 110              		.loc 1 137 5 is_stmt 0 view .LVU6
 111 000e FFF7FEFF 		bl	RCC_APB2PeriphResetCmd		@
 112              	.LVL2:
 138:stm32f10x_lib/STM32F10x_StdPeriph_Driver/src/stm32f10x_usart.c ****     RCC_APB2PeriphResetCmd(RCC_APB2Periph_USART1, DISABLE);
 113              		.loc 1 138 5 is_stmt 1 view .LVU7
 114              	@ stm32f10x_lib/STM32F10x_StdPeriph_Driver/src/stm32f10x_usart.c:163: }
 139:stm32f10x_lib/STM32F10x_StdPeriph_Driver/src/stm32f10x_usart.c ****   }
 140:stm32f10x_lib/STM32F10x_StdPeriph_Driver/src/stm32f10x_usart.c ****   else if (USARTx == USART2)
 141:stm32f10x_lib/STM32F10x_StdPeriph_Driver/src/stm32f10x_usart.c ****   {
 142:stm32f10x_lib/STM32F10x_StdPeriph_Driver/src/stm32f10x_usart.c ****     RCC_APB1PeriphResetCmd(RCC_APB1Periph_USART2, ENABLE);
 143:stm32f10x_lib/STM32F10x_StdPeriph_Driver/src/stm32f10x_usart.c ****     RCC_APB1PeriphResetCmd(RCC_APB1Periph_USART2, DISABLE);
 144:stm32f10x_lib/STM32F10x_StdPeriph_Driver/src/stm32f10x_usart.c ****   }
 145:stm32f10x_lib/STM32F10x_StdPeriph_Driver/src/stm32f10x_usart.c ****   else if (USARTx == USART3)
 146:stm32f10x_lib/STM32F10x_StdPeriph_Driver/src/stm32f10x_usart.c ****   {
 147:stm32f10x_lib/STM32F10x_StdPeriph_Driver/src/stm32f10x_usart.c ****     RCC_APB1PeriphResetCmd(RCC_APB1Periph_USART3, ENABLE);
 148:stm32f10x_lib/STM32F10x_StdPeriph_Driver/src/stm32f10x_usart.c ****     RCC_APB1PeriphResetCmd(RCC_APB1Periph_USART3, DISABLE);
 149:stm32f10x_lib/STM32F10x_StdPeriph_Driver/src/stm32f10x_usart.c ****   }    
 150:stm32f10x_lib/STM32F10x_StdPeriph_Driver/src/stm32f10x_usart.c ****   else if (USARTx == UART4)
 151:stm32f10x_lib/STM32F10x_StdPeriph_Driver/src/stm32f10x_usart.c ****   {
 152:stm32f10x_lib/STM32F10x_StdPeriph_Driver/src/stm32f10x_usart.c ****     RCC_APB1PeriphResetCmd(RCC_APB1Periph_UART4, ENABLE);
 153:stm32f10x_lib/STM32F10x_StdPeriph_Driver/src/stm32f10x_usart.c ****     RCC_APB1PeriphResetCmd(RCC_APB1Periph_UART4, DISABLE);
 154:stm32f10x_lib/STM32F10x_StdPeriph_Driver/src/stm32f10x_usart.c ****   }    
 155:stm32f10x_lib/STM32F10x_StdPeriph_Driver/src/stm32f10x_usart.c ****   else
 156:stm32f10x_lib/STM32F10x_StdPeriph_Driver/src/stm32f10x_usart.c ****   {
 157:stm32f10x_lib/STM32F10x_StdPeriph_Driver/src/stm32f10x_usart.c ****     if (USARTx == UART5)
 158:stm32f10x_lib/STM32F10x_StdPeriph_Driver/src/stm32f10x_usart.c ****     { 
 159:stm32f10x_lib/STM32F10x_StdPeriph_Driver/src/stm32f10x_usart.c ****       RCC_APB1PeriphResetCmd(RCC_APB1Periph_UART5, ENABLE);
 160:stm32f10x_lib/STM32F10x_StdPeriph_Driver/src/stm32f10x_usart.c ****       RCC_APB1PeriphResetCmd(RCC_APB1Periph_UART5, DISABLE);
 161:stm32f10x_lib/STM32F10x_StdPeriph_Driver/src/stm32f10x_usart.c ****     }
 162:stm32f10x_lib/STM32F10x_StdPeriph_Driver/src/stm32f10x_usart.c ****   }
 163:stm32f10x_lib/STM32F10x_StdPeriph_Driver/src/stm32f10x_usart.c **** }
 115              		.loc 1 163 1 is_stmt 0 view .LVU8
 116 0012 BDE80840 		pop	{r3, lr}	@
 117              	.LCFI1:
 118              		.cfi_remember_state
 119              		.cfi_restore 14
 120              		.cfi_restore 3
 121              		.cfi_def_cfa_offset 0
ARM GAS  C:\Users\ADMINI~1\AppData\Local\Temp\cc5w2WuM.s 			page 6


 122              	@ stm32f10x_lib/STM32F10x_StdPeriph_Driver/src/stm32f10x_usart.c:138:     RCC_APB2PeriphResetCmd(RC
 138:stm32f10x_lib/STM32F10x_StdPeriph_Driver/src/stm32f10x_usart.c ****     RCC_APB2PeriphResetCmd(RCC_APB2Periph_USART1, DISABLE);
 123              		.loc 1 138 5 view .LVU9
 124 0016 0021     		movs	r1, #0	@,
 125 0018 4FF48040 		mov	r0, #16384	@,
 126 001c FFF7FEBF 		b	RCC_APB2PeriphResetCmd		@
 127              	.LVL3:
 128              	.L2:
 129              	.LCFI2:
 130              		.cfi_restore_state
 140:stm32f10x_lib/STM32F10x_StdPeriph_Driver/src/stm32f10x_usart.c ****   {
 131              		.loc 1 140 8 is_stmt 1 view .LVU10
 132              	@ stm32f10x_lib/STM32F10x_StdPeriph_Driver/src/stm32f10x_usart.c:140:   else if (USARTx == USART2)
 140:stm32f10x_lib/STM32F10x_StdPeriph_Driver/src/stm32f10x_usart.c ****   {
 133              		.loc 1 140 11 is_stmt 0 view .LVU11
 134 0020 1A4B     		ldr	r3, .L8+4	@ tmp115,
 135 0022 9842     		cmp	r0, r3	@ USARTx, tmp115
 136 0024 0BD1     		bne	.L3		@,
 142:stm32f10x_lib/STM32F10x_StdPeriph_Driver/src/stm32f10x_usart.c ****     RCC_APB1PeriphResetCmd(RCC_APB1Periph_USART2, DISABLE);
 137              		.loc 1 142 5 is_stmt 1 view .LVU12
 138 0026 0121     		movs	r1, #1	@,
 139 0028 4FF40030 		mov	r0, #131072	@,
 140              	.LVL4:
 142:stm32f10x_lib/STM32F10x_StdPeriph_Driver/src/stm32f10x_usart.c ****     RCC_APB1PeriphResetCmd(RCC_APB1Periph_USART2, DISABLE);
 141              		.loc 1 142 5 is_stmt 0 view .LVU13
 142 002c FFF7FEFF 		bl	RCC_APB1PeriphResetCmd		@
 143              	.LVL5:
 143:stm32f10x_lib/STM32F10x_StdPeriph_Driver/src/stm32f10x_usart.c ****   }
 144              		.loc 1 143 5 is_stmt 1 view .LVU14
 145 0030 0021     		movs	r1, #0	@,
 146 0032 4FF40030 		mov	r0, #131072	@,
 147              	.L7:
 148              	@ stm32f10x_lib/STM32F10x_StdPeriph_Driver/src/stm32f10x_usart.c:163: }
 149              		.loc 1 163 1 is_stmt 0 view .LVU15
 150 0036 BDE80840 		pop	{r3, lr}	@
 151              	.LCFI3:
 152              		.cfi_remember_state
 153              		.cfi_restore 14
 154              		.cfi_restore 3
 155              		.cfi_def_cfa_offset 0
 156              	@ stm32f10x_lib/STM32F10x_StdPeriph_Driver/src/stm32f10x_usart.c:160:       RCC_APB1PeriphResetCmd(
 160:stm32f10x_lib/STM32F10x_StdPeriph_Driver/src/stm32f10x_usart.c ****     }
 157              		.loc 1 160 7 view .LVU16
 158 003a FFF7FEBF 		b	RCC_APB1PeriphResetCmd		@
 159              	.LVL6:
 160              	.L3:
 161              	.LCFI4:
 162              		.cfi_restore_state
 145:stm32f10x_lib/STM32F10x_StdPeriph_Driver/src/stm32f10x_usart.c ****   {
 163              		.loc 1 145 8 is_stmt 1 view .LVU17
 164              	@ stm32f10x_lib/STM32F10x_StdPeriph_Driver/src/stm32f10x_usart.c:145:   else if (USARTx == USART3)
 145:stm32f10x_lib/STM32F10x_StdPeriph_Driver/src/stm32f10x_usart.c ****   {
 165              		.loc 1 145 11 is_stmt 0 view .LVU18
 166 003e 144B     		ldr	r3, .L8+8	@ tmp116,
 167 0040 9842     		cmp	r0, r3	@ USARTx, tmp116
 168 0042 08D1     		bne	.L4		@,
 147:stm32f10x_lib/STM32F10x_StdPeriph_Driver/src/stm32f10x_usart.c ****     RCC_APB1PeriphResetCmd(RCC_APB1Periph_USART3, DISABLE);
ARM GAS  C:\Users\ADMINI~1\AppData\Local\Temp\cc5w2WuM.s 			page 7


 169              		.loc 1 147 5 is_stmt 1 view .LVU19
 170 0044 0121     		movs	r1, #1	@,
 171 0046 4FF48020 		mov	r0, #262144	@,
 172              	.LVL7:
 147:stm32f10x_lib/STM32F10x_StdPeriph_Driver/src/stm32f10x_usart.c ****     RCC_APB1PeriphResetCmd(RCC_APB1Periph_USART3, DISABLE);
 173              		.loc 1 147 5 is_stmt 0 view .LVU20
 174 004a FFF7FEFF 		bl	RCC_APB1PeriphResetCmd		@
 175              	.LVL8:
 148:stm32f10x_lib/STM32F10x_StdPeriph_Driver/src/stm32f10x_usart.c ****   }    
 176              		.loc 1 148 5 is_stmt 1 view .LVU21
 177 004e 0021     		movs	r1, #0	@,
 178 0050 4FF48020 		mov	r0, #262144	@,
 179 0054 EFE7     		b	.L7		@
 180              	.LVL9:
 181              	.L4:
 150:stm32f10x_lib/STM32F10x_StdPeriph_Driver/src/stm32f10x_usart.c ****   {
 182              		.loc 1 150 8 view .LVU22
 183              	@ stm32f10x_lib/STM32F10x_StdPeriph_Driver/src/stm32f10x_usart.c:150:   else if (USARTx == UART4)
 150:stm32f10x_lib/STM32F10x_StdPeriph_Driver/src/stm32f10x_usart.c ****   {
 184              		.loc 1 150 11 is_stmt 0 view .LVU23
 185 0056 0F4B     		ldr	r3, .L8+12	@ tmp117,
 186 0058 9842     		cmp	r0, r3	@ USARTx, tmp117
 187 005a 08D1     		bne	.L5		@,
 152:stm32f10x_lib/STM32F10x_StdPeriph_Driver/src/stm32f10x_usart.c ****     RCC_APB1PeriphResetCmd(RCC_APB1Periph_UART4, DISABLE);
 188              		.loc 1 152 5 is_stmt 1 view .LVU24
 189 005c 0121     		movs	r1, #1	@,
 190 005e 4FF40020 		mov	r0, #524288	@,
 191              	.LVL10:
 152:stm32f10x_lib/STM32F10x_StdPeriph_Driver/src/stm32f10x_usart.c ****     RCC_APB1PeriphResetCmd(RCC_APB1Periph_UART4, DISABLE);
 192              		.loc 1 152 5 is_stmt 0 view .LVU25
 193 0062 FFF7FEFF 		bl	RCC_APB1PeriphResetCmd		@
 194              	.LVL11:
 153:stm32f10x_lib/STM32F10x_StdPeriph_Driver/src/stm32f10x_usart.c ****   }    
 195              		.loc 1 153 5 is_stmt 1 view .LVU26
 196 0066 0021     		movs	r1, #0	@,
 197 0068 4FF40020 		mov	r0, #524288	@,
 198 006c E3E7     		b	.L7		@
 199              	.LVL12:
 200              	.L5:
 157:stm32f10x_lib/STM32F10x_StdPeriph_Driver/src/stm32f10x_usart.c ****     { 
 201              		.loc 1 157 5 view .LVU27
 202              	@ stm32f10x_lib/STM32F10x_StdPeriph_Driver/src/stm32f10x_usart.c:157:     if (USARTx == UART5)
 157:stm32f10x_lib/STM32F10x_StdPeriph_Driver/src/stm32f10x_usart.c ****     { 
 203              		.loc 1 157 8 is_stmt 0 view .LVU28
 204 006e 0A4B     		ldr	r3, .L8+16	@ tmp118,
 205 0070 9842     		cmp	r0, r3	@ USARTx, tmp118
 206 0072 08D1     		bne	.L1		@,
 159:stm32f10x_lib/STM32F10x_StdPeriph_Driver/src/stm32f10x_usart.c ****       RCC_APB1PeriphResetCmd(RCC_APB1Periph_UART5, DISABLE);
 207              		.loc 1 159 7 is_stmt 1 view .LVU29
 208 0074 0121     		movs	r1, #1	@,
 209 0076 4FF48010 		mov	r0, #1048576	@,
 210              	.LVL13:
 159:stm32f10x_lib/STM32F10x_StdPeriph_Driver/src/stm32f10x_usart.c ****       RCC_APB1PeriphResetCmd(RCC_APB1Periph_UART5, DISABLE);
 211              		.loc 1 159 7 is_stmt 0 view .LVU30
 212 007a FFF7FEFF 		bl	RCC_APB1PeriphResetCmd		@
 213              	.LVL14:
 160:stm32f10x_lib/STM32F10x_StdPeriph_Driver/src/stm32f10x_usart.c ****     }
ARM GAS  C:\Users\ADMINI~1\AppData\Local\Temp\cc5w2WuM.s 			page 8


 214              		.loc 1 160 7 is_stmt 1 view .LVU31
 215 007e 0021     		movs	r1, #0	@,
 216 0080 4FF48010 		mov	r0, #1048576	@,
 217 0084 D7E7     		b	.L7		@
 218              	.LVL15:
 219              	.L1:
 220              	@ stm32f10x_lib/STM32F10x_StdPeriph_Driver/src/stm32f10x_usart.c:163: }
 221              		.loc 1 163 1 is_stmt 0 view .LVU32
 222 0086 08BD     		pop	{r3, pc}	@
 223              	.L9:
 224              		.align	2
 225              	.L8:
 226 0088 00380140 		.word	1073821696
 227 008c 00440040 		.word	1073759232
 228 0090 00480040 		.word	1073760256
 229 0094 004C0040 		.word	1073761280
 230 0098 00500040 		.word	1073762304
 231              		.cfi_endproc
 232              	.LFE29:
 233              		.size	USART_DeInit, .-USART_DeInit
 234              		.align	1
 235              		.global	USART_Init
 236              		.syntax unified
 237              		.thumb
 238              		.thumb_func
 239              		.type	USART_Init, %function
 240              	USART_Init:
 241              	.LVL16:
 242              	.LFB30:
 164:stm32f10x_lib/STM32F10x_StdPeriph_Driver/src/stm32f10x_usart.c **** 
 165:stm32f10x_lib/STM32F10x_StdPeriph_Driver/src/stm32f10x_usart.c **** /**
 166:stm32f10x_lib/STM32F10x_StdPeriph_Driver/src/stm32f10x_usart.c ****   * @brief  Initializes the USARTx peripheral according to the specified
 167:stm32f10x_lib/STM32F10x_StdPeriph_Driver/src/stm32f10x_usart.c ****   *         parameters in the USART_InitStruct .
 168:stm32f10x_lib/STM32F10x_StdPeriph_Driver/src/stm32f10x_usart.c ****   * @param  USARTx: Select the USART or the UART peripheral. 
 169:stm32f10x_lib/STM32F10x_StdPeriph_Driver/src/stm32f10x_usart.c ****   *   This parameter can be one of the following values:
 170:stm32f10x_lib/STM32F10x_StdPeriph_Driver/src/stm32f10x_usart.c ****   *   USART1, USART2, USART3, UART4 or UART5.
 171:stm32f10x_lib/STM32F10x_StdPeriph_Driver/src/stm32f10x_usart.c ****   * @param  USART_InitStruct: pointer to a USART_InitTypeDef structure
 172:stm32f10x_lib/STM32F10x_StdPeriph_Driver/src/stm32f10x_usart.c ****   *         that contains the configuration information for the specified USART 
 173:stm32f10x_lib/STM32F10x_StdPeriph_Driver/src/stm32f10x_usart.c ****   *         peripheral.
 174:stm32f10x_lib/STM32F10x_StdPeriph_Driver/src/stm32f10x_usart.c ****   * @retval None
 175:stm32f10x_lib/STM32F10x_StdPeriph_Driver/src/stm32f10x_usart.c ****   */
 176:stm32f10x_lib/STM32F10x_StdPeriph_Driver/src/stm32f10x_usart.c **** void USART_Init(USART_TypeDef* USARTx, USART_InitTypeDef* USART_InitStruct)
 177:stm32f10x_lib/STM32F10x_StdPeriph_Driver/src/stm32f10x_usart.c **** {
 243              		.loc 1 177 1 is_stmt 1 view -0
 244              		.cfi_startproc
 245              		@ args = 0, pretend = 0, frame = 24
 246              		@ frame_needed = 0, uses_anonymous_args = 0
 178:stm32f10x_lib/STM32F10x_StdPeriph_Driver/src/stm32f10x_usart.c ****   uint32_t tmpreg = 0x00, apbclock = 0x00;
 247              		.loc 1 178 3 view .LVU34
 179:stm32f10x_lib/STM32F10x_StdPeriph_Driver/src/stm32f10x_usart.c ****   uint32_t integerdivider = 0x00;
 248              		.loc 1 179 3 view .LVU35
 180:stm32f10x_lib/STM32F10x_StdPeriph_Driver/src/stm32f10x_usart.c ****   uint32_t fractionaldivider = 0x00;
 249              		.loc 1 180 3 view .LVU36
 181:stm32f10x_lib/STM32F10x_StdPeriph_Driver/src/stm32f10x_usart.c ****   uint32_t usartxbase = 0;
 250              		.loc 1 181 3 view .LVU37
 182:stm32f10x_lib/STM32F10x_StdPeriph_Driver/src/stm32f10x_usart.c ****   RCC_ClocksTypeDef RCC_ClocksStatus;
 251              		.loc 1 182 3 view .LVU38
ARM GAS  C:\Users\ADMINI~1\AppData\Local\Temp\cc5w2WuM.s 			page 9


 183:stm32f10x_lib/STM32F10x_StdPeriph_Driver/src/stm32f10x_usart.c ****   /* Check the parameters */
 184:stm32f10x_lib/STM32F10x_StdPeriph_Driver/src/stm32f10x_usart.c ****   assert_param(IS_USART_ALL_PERIPH(USARTx));
 252              		.loc 1 184 3 view .LVU39
 185:stm32f10x_lib/STM32F10x_StdPeriph_Driver/src/stm32f10x_usart.c ****   assert_param(IS_USART_BAUDRATE(USART_InitStruct->USART_BaudRate));  
 253              		.loc 1 185 3 view .LVU40
 186:stm32f10x_lib/STM32F10x_StdPeriph_Driver/src/stm32f10x_usart.c ****   assert_param(IS_USART_WORD_LENGTH(USART_InitStruct->USART_WordLength));
 254              		.loc 1 186 3 view .LVU41
 187:stm32f10x_lib/STM32F10x_StdPeriph_Driver/src/stm32f10x_usart.c ****   assert_param(IS_USART_STOPBITS(USART_InitStruct->USART_StopBits));
 255              		.loc 1 187 3 view .LVU42
 188:stm32f10x_lib/STM32F10x_StdPeriph_Driver/src/stm32f10x_usart.c ****   assert_param(IS_USART_PARITY(USART_InitStruct->USART_Parity));
 256              		.loc 1 188 3 view .LVU43
 189:stm32f10x_lib/STM32F10x_StdPeriph_Driver/src/stm32f10x_usart.c ****   assert_param(IS_USART_MODE(USART_InitStruct->USART_Mode));
 257              		.loc 1 189 3 view .LVU44
 190:stm32f10x_lib/STM32F10x_StdPeriph_Driver/src/stm32f10x_usart.c ****   assert_param(IS_USART_HARDWARE_FLOW_CONTROL(USART_InitStruct->USART_HardwareFlowControl));
 258              		.loc 1 190 3 view .LVU45
 191:stm32f10x_lib/STM32F10x_StdPeriph_Driver/src/stm32f10x_usart.c ****   /* The hardware flow control is available only for USART1, USART2 and USART3 */
 192:stm32f10x_lib/STM32F10x_StdPeriph_Driver/src/stm32f10x_usart.c ****   if (USART_InitStruct->USART_HardwareFlowControl != USART_HardwareFlowControl_None)
 259              		.loc 1 192 3 view .LVU46
 260              	@ stm32f10x_lib/STM32F10x_StdPeriph_Driver/src/stm32f10x_usart.c:177: {
 177:stm32f10x_lib/STM32F10x_StdPeriph_Driver/src/stm32f10x_usart.c ****   uint32_t tmpreg = 0x00, apbclock = 0x00;
 261              		.loc 1 177 1 is_stmt 0 view .LVU47
 262 009c 30B5     		push	{r4, r5, lr}	@
 263              	.LCFI5:
 264              		.cfi_def_cfa_offset 12
 265              		.cfi_offset 4, -12
 266              		.cfi_offset 5, -8
 267              		.cfi_offset 14, -4
 268 009e 0D46     		mov	r5, r1	@ USART_InitStruct, tmp226
 269 00a0 0446     		mov	r4, r0	@ USARTx, tmp225
 270              	@ stm32f10x_lib/STM32F10x_StdPeriph_Driver/src/stm32f10x_usart.c:200:   tmpreg = USARTx->CR2;
 193:stm32f10x_lib/STM32F10x_StdPeriph_Driver/src/stm32f10x_usart.c ****   {
 194:stm32f10x_lib/STM32F10x_StdPeriph_Driver/src/stm32f10x_usart.c ****     assert_param(IS_USART_123_PERIPH(USARTx));
 195:stm32f10x_lib/STM32F10x_StdPeriph_Driver/src/stm32f10x_usart.c ****   }
 196:stm32f10x_lib/STM32F10x_StdPeriph_Driver/src/stm32f10x_usart.c **** 
 197:stm32f10x_lib/STM32F10x_StdPeriph_Driver/src/stm32f10x_usart.c ****   usartxbase = (uint32_t)USARTx;
 198:stm32f10x_lib/STM32F10x_StdPeriph_Driver/src/stm32f10x_usart.c **** 
 199:stm32f10x_lib/STM32F10x_StdPeriph_Driver/src/stm32f10x_usart.c **** /*---------------------------- USART CR2 Configuration -----------------------*/
 200:stm32f10x_lib/STM32F10x_StdPeriph_Driver/src/stm32f10x_usart.c ****   tmpreg = USARTx->CR2;
 271              		.loc 1 200 18 view .LVU48
 272 00a2 038A     		ldrh	r3, [r0, #16]	@, USARTx_43(D)->CR2
 273              	@ stm32f10x_lib/STM32F10x_StdPeriph_Driver/src/stm32f10x_usart.c:192:   if (USART_InitStruct->USART
 192:stm32f10x_lib/STM32F10x_StdPeriph_Driver/src/stm32f10x_usart.c ****   {
 274              		.loc 1 192 23 view .LVU49
 275 00a4 8A89     		ldrh	r2, [r1, #12]	@ _1, USART_InitStruct_42(D)->USART_HardwareFlowControl
 194:stm32f10x_lib/STM32F10x_StdPeriph_Driver/src/stm32f10x_usart.c ****   }
 276              		.loc 1 194 5 is_stmt 1 view .LVU50
 197:stm32f10x_lib/STM32F10x_StdPeriph_Driver/src/stm32f10x_usart.c **** 
 277              		.loc 1 197 3 view .LVU51
 278              	.LVL17:
 279              		.loc 1 200 3 view .LVU52
 280              	@ stm32f10x_lib/STM32F10x_StdPeriph_Driver/src/stm32f10x_usart.c:200:   tmpreg = USARTx->CR2;
 281              		.loc 1 200 18 is_stmt 0 view .LVU53
 282 00a6 9BB2     		uxth	r3, r3	@ _2, USARTx_43(D)->CR2
 283              	.LVL18:
 201:stm32f10x_lib/STM32F10x_StdPeriph_Driver/src/stm32f10x_usart.c ****   /* Clear STOP[13:12] bits */
 202:stm32f10x_lib/STM32F10x_StdPeriph_Driver/src/stm32f10x_usart.c ****   tmpreg &= CR2_STOP_CLEAR_Mask;
 284              		.loc 1 202 3 is_stmt 1 view .LVU54
ARM GAS  C:\Users\ADMINI~1\AppData\Local\Temp\cc5w2WuM.s 			page 10


 203:stm32f10x_lib/STM32F10x_StdPeriph_Driver/src/stm32f10x_usart.c ****   /* Configure the USART Stop Bits, Clock, CPOL, CPHA and LastBit ------------*/
 204:stm32f10x_lib/STM32F10x_StdPeriph_Driver/src/stm32f10x_usart.c ****   /* Set STOP[13:12] bits according to USART_StopBits value */
 205:stm32f10x_lib/STM32F10x_StdPeriph_Driver/src/stm32f10x_usart.c ****   tmpreg |= (uint32_t)USART_InitStruct->USART_StopBits;
 285              		.loc 1 205 3 view .LVU55
 286 00a8 C988     		ldrh	r1, [r1, #6]	@ tmp160, USART_InitStruct_42(D)->USART_StopBits
 287              	.LVL19:
 288              		.loc 1 205 3 is_stmt 0 view .LVU56
 289 00aa 23F44053 		bic	r3, r3, #12288	@ tmp157, _2,
 290              	.LVL20:
 291              		.loc 1 205 3 view .LVU57
 292 00ae 0B43     		orrs	r3, r3, r1	@, _37, tmp157, tmp160
 293              	.LVL21:
 206:stm32f10x_lib/STM32F10x_StdPeriph_Driver/src/stm32f10x_usart.c ****   
 207:stm32f10x_lib/STM32F10x_StdPeriph_Driver/src/stm32f10x_usart.c ****   /* Write to USART CR2 */
 208:stm32f10x_lib/STM32F10x_StdPeriph_Driver/src/stm32f10x_usart.c ****   USARTx->CR2 = (uint16_t)tmpreg;
 294              		.loc 1 208 3 is_stmt 1 view .LVU58
 295              	@ stm32f10x_lib/STM32F10x_StdPeriph_Driver/src/stm32f10x_usart.c:208:   USARTx->CR2 = (uint16_t)tmp
 296              		.loc 1 208 15 is_stmt 0 view .LVU59
 297 00b0 0382     		strh	r3, [r0, #16]	@ movhi	@ _37, USARTx_43(D)->CR2
 209:stm32f10x_lib/STM32F10x_StdPeriph_Driver/src/stm32f10x_usart.c **** 
 210:stm32f10x_lib/STM32F10x_StdPeriph_Driver/src/stm32f10x_usart.c **** /*---------------------------- USART CR1 Configuration -----------------------*/
 211:stm32f10x_lib/STM32F10x_StdPeriph_Driver/src/stm32f10x_usart.c ****   tmpreg = USARTx->CR1;
 298              		.loc 1 211 3 is_stmt 1 view .LVU60
 299              	@ stm32f10x_lib/STM32F10x_StdPeriph_Driver/src/stm32f10x_usart.c:211:   tmpreg = USARTx->CR1;
 300              		.loc 1 211 18 is_stmt 0 view .LVU61
 301 00b2 8389     		ldrh	r3, [r0, #12]	@, USARTx_43(D)->CR1
 302              	.LVL22:
 212:stm32f10x_lib/STM32F10x_StdPeriph_Driver/src/stm32f10x_usart.c ****   /* Clear M, PCE, PS, TE and RE bits */
 213:stm32f10x_lib/STM32F10x_StdPeriph_Driver/src/stm32f10x_usart.c ****   tmpreg &= CR1_CLEAR_Mask;
 303              		.loc 1 213 3 is_stmt 1 view .LVU62
 214:stm32f10x_lib/STM32F10x_StdPeriph_Driver/src/stm32f10x_usart.c ****   /* Configure the USART Word Length, Parity and mode ----------------------- */
 215:stm32f10x_lib/STM32F10x_StdPeriph_Driver/src/stm32f10x_usart.c ****   /* Set the M bits according to USART_WordLength value */
 216:stm32f10x_lib/STM32F10x_StdPeriph_Driver/src/stm32f10x_usart.c ****   /* Set PCE and PS bits according to USART_Parity value */
 217:stm32f10x_lib/STM32F10x_StdPeriph_Driver/src/stm32f10x_usart.c ****   /* Set TE and RE bits according to USART_Mode value */
 218:stm32f10x_lib/STM32F10x_StdPeriph_Driver/src/stm32f10x_usart.c ****   tmpreg |= (uint32_t)USART_InitStruct->USART_WordLength | USART_InitStruct->USART_Parity |
 304              		.loc 1 218 3 view .LVU63
 305 00b4 A988     		ldrh	r1, [r5, #4]	@, USART_InitStruct_42(D)->USART_WordLength
 306 00b6 23F4B053 		bic	r3, r3, #5632	@ tmp164, USARTx_43(D)->CR1,
 307              	.LVL23:
 308              		.loc 1 218 3 is_stmt 0 view .LVU64
 309 00ba 23F00C03 		bic	r3, r3, #12	@ tmp164, tmp164,
 310 00be 1B04     		lsls	r3, r3, #16	@ tmp164, tmp164,
 311 00c0 1B0C     		lsrs	r3, r3, #16	@ tmp164, tmp164,
 312 00c2 0B43     		orrs	r3, r3, r1	@, tmp168, tmp164, USART_InitStruct_42(D)->USART_WordLength
 313 00c4 2989     		ldrh	r1, [r5, #8]	@, USART_InitStruct_42(D)->USART_Parity
 314              	@ stm32f10x_lib/STM32F10x_StdPeriph_Driver/src/stm32f10x_usart.c:177: {
 177:stm32f10x_lib/STM32F10x_StdPeriph_Driver/src/stm32f10x_usart.c ****   uint32_t tmpreg = 0x00, apbclock = 0x00;
 315              		.loc 1 177 1 view .LVU65
 316 00c6 87B0     		sub	sp, sp, #28	@,,
 317              	.LCFI6:
 318              		.cfi_def_cfa_offset 40
 319 00c8 0B43     		orrs	r3, r3, r1	@, tmp171, tmp168, USART_InitStruct_42(D)->USART_Parity
 320 00ca 6989     		ldrh	r1, [r5, #10]	@, USART_InitStruct_42(D)->USART_Mode
 321 00cc 0B43     		orrs	r3, r3, r1	@, tmp174, tmp171, USART_InitStruct_42(D)->USART_Mode
 322 00ce 9BB2     		uxth	r3, r3	@ _39, tmp174
 323              	.LVL24:
 219:stm32f10x_lib/STM32F10x_StdPeriph_Driver/src/stm32f10x_usart.c ****             USART_InitStruct->USART_Mode;
ARM GAS  C:\Users\ADMINI~1\AppData\Local\Temp\cc5w2WuM.s 			page 11


 220:stm32f10x_lib/STM32F10x_StdPeriph_Driver/src/stm32f10x_usart.c ****   /* Write to USART CR1 */
 221:stm32f10x_lib/STM32F10x_StdPeriph_Driver/src/stm32f10x_usart.c ****   USARTx->CR1 = (uint16_t)tmpreg;
 324              		.loc 1 221 3 is_stmt 1 view .LVU66
 325              	@ stm32f10x_lib/STM32F10x_StdPeriph_Driver/src/stm32f10x_usart.c:221:   USARTx->CR1 = (uint16_t)tmp
 326              		.loc 1 221 15 is_stmt 0 view .LVU67
 327 00d0 8381     		strh	r3, [r0, #12]	@ movhi	@ _39, USARTx_43(D)->CR1
 222:stm32f10x_lib/STM32F10x_StdPeriph_Driver/src/stm32f10x_usart.c **** 
 223:stm32f10x_lib/STM32F10x_StdPeriph_Driver/src/stm32f10x_usart.c **** /*---------------------------- USART CR3 Configuration -----------------------*/  
 224:stm32f10x_lib/STM32F10x_StdPeriph_Driver/src/stm32f10x_usart.c ****   tmpreg = USARTx->CR3;
 328              		.loc 1 224 3 is_stmt 1 view .LVU68
 329              	@ stm32f10x_lib/STM32F10x_StdPeriph_Driver/src/stm32f10x_usart.c:224:   tmpreg = USARTx->CR3;
 330              		.loc 1 224 18 is_stmt 0 view .LVU69
 331 00d2 838A     		ldrh	r3, [r0, #20]	@, USARTx_43(D)->CR3
 332              	.LVL25:
 333              		.loc 1 224 18 view .LVU70
 334 00d4 9BB2     		uxth	r3, r3	@ _10, USARTx_43(D)->CR3
 335              	.LVL26:
 225:stm32f10x_lib/STM32F10x_StdPeriph_Driver/src/stm32f10x_usart.c ****   /* Clear CTSE and RTSE bits */
 226:stm32f10x_lib/STM32F10x_StdPeriph_Driver/src/stm32f10x_usart.c ****   tmpreg &= CR3_CLEAR_Mask;
 336              		.loc 1 226 3 is_stmt 1 view .LVU71
 227:stm32f10x_lib/STM32F10x_StdPeriph_Driver/src/stm32f10x_usart.c ****   /* Configure the USART HFC -------------------------------------------------*/
 228:stm32f10x_lib/STM32F10x_StdPeriph_Driver/src/stm32f10x_usart.c ****   /* Set CTSE and RTSE bits according to USART_HardwareFlowControl value */
 229:stm32f10x_lib/STM32F10x_StdPeriph_Driver/src/stm32f10x_usart.c ****   tmpreg |= USART_InitStruct->USART_HardwareFlowControl;
 337              		.loc 1 229 3 view .LVU72
 338 00d6 23F44073 		bic	r3, r3, #768	@ tmp178, _10,
 339              	.LVL27:
 340              		.loc 1 229 3 is_stmt 0 view .LVU73
 341 00da 1343     		orrs	r3, r3, r2	@, _58, tmp178, _1
 342              	.LVL28:
 230:stm32f10x_lib/STM32F10x_StdPeriph_Driver/src/stm32f10x_usart.c ****   /* Write to USART CR3 */
 231:stm32f10x_lib/STM32F10x_StdPeriph_Driver/src/stm32f10x_usart.c ****   USARTx->CR3 = (uint16_t)tmpreg;
 343              		.loc 1 231 3 is_stmt 1 view .LVU74
 344              	@ stm32f10x_lib/STM32F10x_StdPeriph_Driver/src/stm32f10x_usart.c:231:   USARTx->CR3 = (uint16_t)tmp
 345              		.loc 1 231 15 is_stmt 0 view .LVU75
 346 00dc 8382     		strh	r3, [r0, #20]	@ movhi	@ _58, USARTx_43(D)->CR3
 232:stm32f10x_lib/STM32F10x_StdPeriph_Driver/src/stm32f10x_usart.c **** 
 233:stm32f10x_lib/STM32F10x_StdPeriph_Driver/src/stm32f10x_usart.c **** /*---------------------------- USART BRR Configuration -----------------------*/
 234:stm32f10x_lib/STM32F10x_StdPeriph_Driver/src/stm32f10x_usart.c ****   /* Configure the USART Baud Rate -------------------------------------------*/
 235:stm32f10x_lib/STM32F10x_StdPeriph_Driver/src/stm32f10x_usart.c ****   RCC_GetClocksFreq(&RCC_ClocksStatus);
 347              		.loc 1 235 3 is_stmt 1 view .LVU76
 348 00de 01A8     		add	r0, sp, #4	@,,
 349              	.LVL29:
 350              		.loc 1 235 3 is_stmt 0 view .LVU77
 351 00e0 FFF7FEFF 		bl	RCC_GetClocksFreq		@
 352              	.LVL30:
 236:stm32f10x_lib/STM32F10x_StdPeriph_Driver/src/stm32f10x_usart.c ****   if (usartxbase == USART1_BASE)
 353              		.loc 1 236 3 is_stmt 1 view .LVU78
 354              	@ stm32f10x_lib/STM32F10x_StdPeriph_Driver/src/stm32f10x_usart.c:238:     apbclock = RCC_ClocksStat
 237:stm32f10x_lib/STM32F10x_StdPeriph_Driver/src/stm32f10x_usart.c ****   {
 238:stm32f10x_lib/STM32F10x_StdPeriph_Driver/src/stm32f10x_usart.c ****     apbclock = RCC_ClocksStatus.PCLK2_Frequency;
 355              		.loc 1 238 14 is_stmt 0 view .LVU79
 356 00e4 DDE90332 		ldrd	r3, r2, [sp, #12]	@ apbclock, apbclock,,
 357 00e8 1449     		ldr	r1, .L18	@ tmp183,
 358 00ea 8C42     		cmp	r4, r1	@ USARTx, tmp183
 359 00ec 08BF     		it	eq		@
 360 00ee 1346     		moveq	r3, r2	@, apbclock, apbclock
 361              	.LVL31:
ARM GAS  C:\Users\ADMINI~1\AppData\Local\Temp\cc5w2WuM.s 			page 12


 239:stm32f10x_lib/STM32F10x_StdPeriph_Driver/src/stm32f10x_usart.c ****   }
 240:stm32f10x_lib/STM32F10x_StdPeriph_Driver/src/stm32f10x_usart.c ****   else
 241:stm32f10x_lib/STM32F10x_StdPeriph_Driver/src/stm32f10x_usart.c ****   {
 242:stm32f10x_lib/STM32F10x_StdPeriph_Driver/src/stm32f10x_usart.c ****     apbclock = RCC_ClocksStatus.PCLK1_Frequency;
 243:stm32f10x_lib/STM32F10x_StdPeriph_Driver/src/stm32f10x_usart.c ****   }
 244:stm32f10x_lib/STM32F10x_StdPeriph_Driver/src/stm32f10x_usart.c ****   
 245:stm32f10x_lib/STM32F10x_StdPeriph_Driver/src/stm32f10x_usart.c ****   /* Determine the integer part */
 246:stm32f10x_lib/STM32F10x_StdPeriph_Driver/src/stm32f10x_usart.c ****   if ((USARTx->CR1 & CR1_OVER8_Set) != 0)
 362              		.loc 1 246 3 is_stmt 1 view .LVU80
 363              	@ stm32f10x_lib/STM32F10x_StdPeriph_Driver/src/stm32f10x_usart.c:249:     integerdivider = ((25 * a
 247:stm32f10x_lib/STM32F10x_StdPeriph_Driver/src/stm32f10x_usart.c ****   {
 248:stm32f10x_lib/STM32F10x_StdPeriph_Driver/src/stm32f10x_usart.c ****     /* Integer part computing in case Oversampling mode is 8 Samples */
 249:stm32f10x_lib/STM32F10x_StdPeriph_Driver/src/stm32f10x_usart.c ****     integerdivider = ((25 * apbclock) / (2 * (USART_InitStruct->USART_BaudRate)));    
 364              		.loc 1 249 27 is_stmt 0 view .LVU81
 365 00f0 1922     		movs	r2, #25	@ tmp186,
 366              	@ stm32f10x_lib/STM32F10x_StdPeriph_Driver/src/stm32f10x_usart.c:246:   if ((USARTx->CR1 & CR1_OVER
 246:stm32f10x_lib/STM32F10x_StdPeriph_Driver/src/stm32f10x_usart.c ****   {
 367              		.loc 1 246 14 view .LVU82
 368 00f2 A189     		ldrh	r1, [r4, #12]	@, USARTx_43(D)->CR1
 369              	@ stm32f10x_lib/STM32F10x_StdPeriph_Driver/src/stm32f10x_usart.c:249:     integerdivider = ((25 * a
 370              		.loc 1 249 27 view .LVU83
 371 00f4 5343     		muls	r3, r2, r3	@ _53, tmp186
 372              	.LVL32:
 373              	@ stm32f10x_lib/STM32F10x_StdPeriph_Driver/src/stm32f10x_usart.c:249:     integerdivider = ((25 * a
 374              		.loc 1 249 63 view .LVU84
 375 00f6 2A68     		ldr	r2, [r5]	@ pretmp_61, USART_InitStruct_42(D)->USART_BaudRate
 376              	@ stm32f10x_lib/STM32F10x_StdPeriph_Driver/src/stm32f10x_usart.c:246:   if ((USARTx->CR1 & CR1_OVER
 246:stm32f10x_lib/STM32F10x_StdPeriph_Driver/src/stm32f10x_usart.c ****   {
 377              		.loc 1 246 6 view .LVU85
 378 00f8 0D04     		lsls	r5, r1, #16	@, USARTx_43(D)->CR1,
 379              	.LVL33:
 380              		.loc 1 249 5 is_stmt 1 view .LVU86
 381              	@ stm32f10x_lib/STM32F10x_StdPeriph_Driver/src/stm32f10x_usart.c:249:     integerdivider = ((25 * a
 382              		.loc 1 249 44 is_stmt 0 view .LVU87
 383 00fa 4CBF     		ite	mi
 384 00fc 5200     		lslmi	r2, r2, #1	@ tmp190, pretmp_61,
 250:stm32f10x_lib/STM32F10x_StdPeriph_Driver/src/stm32f10x_usart.c ****   }
 251:stm32f10x_lib/STM32F10x_StdPeriph_Driver/src/stm32f10x_usart.c ****   else /* if ((USARTx->CR1 & CR1_OVER8_Set) == 0) */
 252:stm32f10x_lib/STM32F10x_StdPeriph_Driver/src/stm32f10x_usart.c ****   {
 253:stm32f10x_lib/STM32F10x_StdPeriph_Driver/src/stm32f10x_usart.c ****     /* Integer part computing in case Oversampling mode is 16 Samples */
 254:stm32f10x_lib/STM32F10x_StdPeriph_Driver/src/stm32f10x_usart.c ****     integerdivider = ((25 * apbclock) / (4 * (USART_InitStruct->USART_BaudRate)));    
 385              		.loc 1 254 5 is_stmt 1 view .LVU88
 386              	@ stm32f10x_lib/STM32F10x_StdPeriph_Driver/src/stm32f10x_usart.c:254:     integerdivider = ((25 * a
 387              		.loc 1 254 44 is_stmt 0 view .LVU89
 388 00fe 9200     		lslpl	r2, r2, #2	@ tmp191, pretmp_61,
 389              	@ stm32f10x_lib/STM32F10x_StdPeriph_Driver/src/stm32f10x_usart.c:256:   tmpreg = (integerdivider / 
 255:stm32f10x_lib/STM32F10x_StdPeriph_Driver/src/stm32f10x_usart.c ****   }
 256:stm32f10x_lib/STM32F10x_StdPeriph_Driver/src/stm32f10x_usart.c ****   tmpreg = (integerdivider / 100) << 4;
 390              		.loc 1 256 28 view .LVU90
 391 0100 6421     		movs	r1, #100	@ tmp194,
 392              	@ stm32f10x_lib/STM32F10x_StdPeriph_Driver/src/stm32f10x_usart.c:254:     integerdivider = ((25 * a
 254:stm32f10x_lib/STM32F10x_StdPeriph_Driver/src/stm32f10x_usart.c ****   }
 393              		.loc 1 254 20 view .LVU91
 394 0102 B3FBF2F3 		udiv	r3, r3, r2	@ integerdivider, _53, tmp191
 395              	.LVL34:
 396              		.loc 1 256 3 is_stmt 1 view .LVU92
 397              	@ stm32f10x_lib/STM32F10x_StdPeriph_Driver/src/stm32f10x_usart.c:256:   tmpreg = (integerdivider / 
ARM GAS  C:\Users\ADMINI~1\AppData\Local\Temp\cc5w2WuM.s 			page 13


 398              		.loc 1 256 28 is_stmt 0 view .LVU93
 399 0106 B3FBF1F0 		udiv	r0, r3, r1	@ tmp193, integerdivider, tmp194
 400 010a 01FB1033 		mls	r3, r1, r0, r3	@ _59, tmp194, tmp193, integerdivider
 401              	.LVL35:
 402              	@ stm32f10x_lib/STM32F10x_StdPeriph_Driver/src/stm32f10x_usart.c:256:   tmpreg = (integerdivider / 
 403              		.loc 1 256 10 view .LVU94
 404 010e 0201     		lsls	r2, r0, #4	@ tmpreg, tmp193,
 405              	.LVL36:
 257:stm32f10x_lib/STM32F10x_StdPeriph_Driver/src/stm32f10x_usart.c **** 
 258:stm32f10x_lib/STM32F10x_StdPeriph_Driver/src/stm32f10x_usart.c ****   /* Determine the fractional part */
 259:stm32f10x_lib/STM32F10x_StdPeriph_Driver/src/stm32f10x_usart.c ****   fractionaldivider = integerdivider - (100 * (tmpreg >> 4));
 406              		.loc 1 259 3 is_stmt 1 view .LVU95
 260:stm32f10x_lib/STM32F10x_StdPeriph_Driver/src/stm32f10x_usart.c **** 
 261:stm32f10x_lib/STM32F10x_StdPeriph_Driver/src/stm32f10x_usart.c ****   /* Implement the fractional part in the register */
 262:stm32f10x_lib/STM32F10x_StdPeriph_Driver/src/stm32f10x_usart.c ****   if ((USARTx->CR1 & CR1_OVER8_Set) != 0)
 407              		.loc 1 262 3 view .LVU96
 408              	@ stm32f10x_lib/STM32F10x_StdPeriph_Driver/src/stm32f10x_usart.c:262:   if ((USARTx->CR1 & CR1_OVER
 409              		.loc 1 262 14 is_stmt 0 view .LVU97
 410 0110 A089     		ldrh	r0, [r4, #12]	@, USARTx_43(D)->CR1
 411              	@ stm32f10x_lib/STM32F10x_StdPeriph_Driver/src/stm32f10x_usart.c:262:   if ((USARTx->CR1 & CR1_OVER
 412              		.loc 1 262 6 view .LVU98
 413 0112 0004     		lsls	r0, r0, #16	@, USARTx_43(D)->CR1,
 414              	.LVL37:
 263:stm32f10x_lib/STM32F10x_StdPeriph_Driver/src/stm32f10x_usart.c ****   {
 264:stm32f10x_lib/STM32F10x_StdPeriph_Driver/src/stm32f10x_usart.c ****     tmpreg |= ((((fractionaldivider * 8) + 50) / 100)) & ((uint8_t)0x07);
 415              		.loc 1 264 5 is_stmt 1 view .LVU99
 416              	@ stm32f10x_lib/STM32F10x_StdPeriph_Driver/src/stm32f10x_usart.c:264:     tmpreg |= ((((fractionald
 417              		.loc 1 264 37 is_stmt 0 view .LVU100
 418 0114 4BBF     		itete	mi
 419 0116 DB00     		lslmi	r3, r3, #3	@ tmp206, _59,
 420              	.LVL38:
 421              	@ stm32f10x_lib/STM32F10x_StdPeriph_Driver/src/stm32f10x_usart.c:268:     tmpreg |= ((((fractionald
 265:stm32f10x_lib/STM32F10x_StdPeriph_Driver/src/stm32f10x_usart.c ****   }
 266:stm32f10x_lib/STM32F10x_StdPeriph_Driver/src/stm32f10x_usart.c ****   else /* if ((USARTx->CR1 & CR1_OVER8_Set) == 0) */
 267:stm32f10x_lib/STM32F10x_StdPeriph_Driver/src/stm32f10x_usart.c ****   {
 268:stm32f10x_lib/STM32F10x_StdPeriph_Driver/src/stm32f10x_usart.c ****     tmpreg |= ((((fractionaldivider * 16) + 50) / 100)) & ((uint8_t)0x0F);
 422              		.loc 1 268 37 view .LVU101
 423 0118 1B01     		lslpl	r3, r3, #4	@ tmp215, _59,
 424              	@ stm32f10x_lib/STM32F10x_StdPeriph_Driver/src/stm32f10x_usart.c:264:     tmpreg |= ((((fractionald
 264:stm32f10x_lib/STM32F10x_StdPeriph_Driver/src/stm32f10x_usart.c ****   }
 425              		.loc 1 264 42 view .LVU102
 426 011a 3233     		addmi	r3, r3, #50	@ tmp207, tmp206,
 427              	@ stm32f10x_lib/STM32F10x_StdPeriph_Driver/src/stm32f10x_usart.c:268:     tmpreg |= ((((fractionald
 428              		.loc 1 268 43 view .LVU103
 429 011c 3233     		addpl	r3, r3, #50	@ tmp216, tmp215,
 430              	@ stm32f10x_lib/STM32F10x_StdPeriph_Driver/src/stm32f10x_usart.c:264:     tmpreg |= ((((fractionald
 264:stm32f10x_lib/STM32F10x_StdPeriph_Driver/src/stm32f10x_usart.c ****   }
 431              		.loc 1 264 48 view .LVU104
 432 011e 4BBF     		itete	mi
 433 0120 B3FBF1F3 		udivmi	r3, r3, r1	@ tmp209, tmp207, tmp194
 434              	@ stm32f10x_lib/STM32F10x_StdPeriph_Driver/src/stm32f10x_usart.c:268:     tmpreg |= ((((fractionald
 435              		.loc 1 268 49 view .LVU105
 436 0124 B3FBF1F3 		udivpl	r3, r3, r1	@ tmp218, tmp216, tmp194
 437              	@ stm32f10x_lib/STM32F10x_StdPeriph_Driver/src/stm32f10x_usart.c:264:     tmpreg |= ((((fractionald
 264:stm32f10x_lib/STM32F10x_StdPeriph_Driver/src/stm32f10x_usart.c ****   }
 438              		.loc 1 264 56 view .LVU106
 439 0128 03F00703 		andmi	r3, r3, #7	@ tmp214, tmp209,
ARM GAS  C:\Users\ADMINI~1\AppData\Local\Temp\cc5w2WuM.s 			page 14


 440              		.loc 1 268 5 is_stmt 1 view .LVU107
 441              	@ stm32f10x_lib/STM32F10x_StdPeriph_Driver/src/stm32f10x_usart.c:268:     tmpreg |= ((((fractionald
 442              		.loc 1 268 57 is_stmt 0 view .LVU108
 443 012c 03F00F03 		andpl	r3, r3, #15	@ tmp223, tmp218,
 444              	@ stm32f10x_lib/STM32F10x_StdPeriph_Driver/src/stm32f10x_usart.c:268:     tmpreg |= ((((fractionald
 445              		.loc 1 268 12 view .LVU109
 446 0130 1343     		orrs	r3, r3, r2	@, tmpreg, tmp223, tmpreg
 447              	.LVL39:
 269:stm32f10x_lib/STM32F10x_StdPeriph_Driver/src/stm32f10x_usart.c ****   }
 270:stm32f10x_lib/STM32F10x_StdPeriph_Driver/src/stm32f10x_usart.c ****   
 271:stm32f10x_lib/STM32F10x_StdPeriph_Driver/src/stm32f10x_usart.c ****   /* Write to USART BRR */
 272:stm32f10x_lib/STM32F10x_StdPeriph_Driver/src/stm32f10x_usart.c ****   USARTx->BRR = (uint16_t)tmpreg;
 448              		.loc 1 272 3 is_stmt 1 view .LVU110
 449              	@ stm32f10x_lib/STM32F10x_StdPeriph_Driver/src/stm32f10x_usart.c:272:   USARTx->BRR = (uint16_t)tmp
 450              		.loc 1 272 17 is_stmt 0 view .LVU111
 451 0132 9BB2     		uxth	r3, r3	@ _32, tmpreg
 452              	.LVL40:
 453              	@ stm32f10x_lib/STM32F10x_StdPeriph_Driver/src/stm32f10x_usart.c:272:   USARTx->BRR = (uint16_t)tmp
 454              		.loc 1 272 15 view .LVU112
 455 0134 2381     		strh	r3, [r4, #8]	@ movhi	@ _32, USARTx_43(D)->BRR
 456              	@ stm32f10x_lib/STM32F10x_StdPeriph_Driver/src/stm32f10x_usart.c:273: }
 273:stm32f10x_lib/STM32F10x_StdPeriph_Driver/src/stm32f10x_usart.c **** }
 457              		.loc 1 273 1 view .LVU113
 458 0136 07B0     		add	sp, sp, #28	@,,
 459              	.LCFI7:
 460              		.cfi_def_cfa_offset 12
 461              		@ sp needed	@
 462 0138 30BD     		pop	{r4, r5, pc}	@
 463              	.LVL41:
 464              	.L19:
 465              		.loc 1 273 1 view .LVU114
 466 013a 00BF     		.align	2
 467              	.L18:
 468 013c 00380140 		.word	1073821696
 469              		.cfi_endproc
 470              	.LFE30:
 471              		.size	USART_Init, .-USART_Init
 472              		.align	1
 473              		.global	USART_StructInit
 474              		.syntax unified
 475              		.thumb
 476              		.thumb_func
 477              		.type	USART_StructInit, %function
 478              	USART_StructInit:
 479              	.LVL42:
 480              	.LFB31:
 274:stm32f10x_lib/STM32F10x_StdPeriph_Driver/src/stm32f10x_usart.c **** 
 275:stm32f10x_lib/STM32F10x_StdPeriph_Driver/src/stm32f10x_usart.c **** /**
 276:stm32f10x_lib/STM32F10x_StdPeriph_Driver/src/stm32f10x_usart.c ****   * @brief  Fills each USART_InitStruct member with its default value.
 277:stm32f10x_lib/STM32F10x_StdPeriph_Driver/src/stm32f10x_usart.c ****   * @param  USART_InitStruct: pointer to a USART_InitTypeDef structure
 278:stm32f10x_lib/STM32F10x_StdPeriph_Driver/src/stm32f10x_usart.c ****   *         which will be initialized.
 279:stm32f10x_lib/STM32F10x_StdPeriph_Driver/src/stm32f10x_usart.c ****   * @retval None
 280:stm32f10x_lib/STM32F10x_StdPeriph_Driver/src/stm32f10x_usart.c ****   */
 281:stm32f10x_lib/STM32F10x_StdPeriph_Driver/src/stm32f10x_usart.c **** void USART_StructInit(USART_InitTypeDef* USART_InitStruct)
 282:stm32f10x_lib/STM32F10x_StdPeriph_Driver/src/stm32f10x_usart.c **** {
 481              		.loc 1 282 1 is_stmt 1 view -0
 482              		.cfi_startproc
ARM GAS  C:\Users\ADMINI~1\AppData\Local\Temp\cc5w2WuM.s 			page 15


 483              		@ args = 0, pretend = 0, frame = 0
 484              		@ frame_needed = 0, uses_anonymous_args = 0
 485              		@ link register save eliminated.
 283:stm32f10x_lib/STM32F10x_StdPeriph_Driver/src/stm32f10x_usart.c ****   /* USART_InitStruct members default value */
 284:stm32f10x_lib/STM32F10x_StdPeriph_Driver/src/stm32f10x_usart.c ****   USART_InitStruct->USART_BaudRate = 9600;
 486              		.loc 1 284 3 view .LVU116
 285:stm32f10x_lib/STM32F10x_StdPeriph_Driver/src/stm32f10x_usart.c ****   USART_InitStruct->USART_WordLength = USART_WordLength_8b;
 487              		.loc 1 285 3 view .LVU117
 286:stm32f10x_lib/STM32F10x_StdPeriph_Driver/src/stm32f10x_usart.c ****   USART_InitStruct->USART_StopBits = USART_StopBits_1;
 488              		.loc 1 286 3 view .LVU118
 287:stm32f10x_lib/STM32F10x_StdPeriph_Driver/src/stm32f10x_usart.c ****   USART_InitStruct->USART_Parity = USART_Parity_No ;
 489              		.loc 1 287 3 view .LVU119
 288:stm32f10x_lib/STM32F10x_StdPeriph_Driver/src/stm32f10x_usart.c ****   USART_InitStruct->USART_Mode = USART_Mode_Rx | USART_Mode_Tx;
 490              		.loc 1 288 3 view .LVU120
 289:stm32f10x_lib/STM32F10x_StdPeriph_Driver/src/stm32f10x_usart.c ****   USART_InitStruct->USART_HardwareFlowControl = USART_HardwareFlowControl_None;  
 491              		.loc 1 289 3 view .LVU121
 492              	@ stm32f10x_lib/STM32F10x_StdPeriph_Driver/src/stm32f10x_usart.c:285:   USART_InitStruct->USART_Wor
 285:stm32f10x_lib/STM32F10x_StdPeriph_Driver/src/stm32f10x_usart.c ****   USART_InitStruct->USART_StopBits = USART_StopBits_1;
 493              		.loc 1 285 38 is_stmt 0 view .LVU122
 494 0140 4FF41652 		mov	r2, #9600	@,
 495 0144 0023     		movs	r3, #0	@ tmp115,
 496 0146 C0E90023 		strd	r2, r3, [r0]	@, tmp115, USART_InitStruct
 497              	@ stm32f10x_lib/STM32F10x_StdPeriph_Driver/src/stm32f10x_usart.c:287:   USART_InitStruct->USART_Par
 287:stm32f10x_lib/STM32F10x_StdPeriph_Driver/src/stm32f10x_usart.c ****   USART_InitStruct->USART_Mode = USART_Mode_Rx | USART_Mode_Tx;
 498              		.loc 1 287 34 view .LVU123
 499 014a 4FF44022 		mov	r2, #786432	@ tmp116,
 500              	@ stm32f10x_lib/STM32F10x_StdPeriph_Driver/src/stm32f10x_usart.c:289:   USART_InitStruct->USART_Har
 501              		.loc 1 289 47 view .LVU124
 502 014e 8381     		strh	r3, [r0, #12]	@ movhi	@ tmp115, USART_InitStruct_2(D)->USART_HardwareFlowControl
 503              	@ stm32f10x_lib/STM32F10x_StdPeriph_Driver/src/stm32f10x_usart.c:287:   USART_InitStruct->USART_Par
 287:stm32f10x_lib/STM32F10x_StdPeriph_Driver/src/stm32f10x_usart.c ****   USART_InitStruct->USART_Mode = USART_Mode_Rx | USART_Mode_Tx;
 504              		.loc 1 287 34 view .LVU125
 505 0150 8260     		str	r2, [r0, #8]	@ tmp116, MEM <unsigned int> [(short unsigned int *)USART_InitStruct_2(D) + 8B]
 506              	@ stm32f10x_lib/STM32F10x_StdPeriph_Driver/src/stm32f10x_usart.c:290: }
 290:stm32f10x_lib/STM32F10x_StdPeriph_Driver/src/stm32f10x_usart.c **** }
 507              		.loc 1 290 1 view .LVU126
 508 0152 7047     		bx	lr	@
 509              		.cfi_endproc
 510              	.LFE31:
 511              		.size	USART_StructInit, .-USART_StructInit
 512              		.align	1
 513              		.global	USART_ClockInit
 514              		.syntax unified
 515              		.thumb
 516              		.thumb_func
 517              		.type	USART_ClockInit, %function
 518              	USART_ClockInit:
 519              	.LVL43:
 520              	.LFB32:
 291:stm32f10x_lib/STM32F10x_StdPeriph_Driver/src/stm32f10x_usart.c **** 
 292:stm32f10x_lib/STM32F10x_StdPeriph_Driver/src/stm32f10x_usart.c **** /**
 293:stm32f10x_lib/STM32F10x_StdPeriph_Driver/src/stm32f10x_usart.c ****   * @brief  Initializes the USARTx peripheral Clock according to the 
 294:stm32f10x_lib/STM32F10x_StdPeriph_Driver/src/stm32f10x_usart.c ****   *          specified parameters in the USART_ClockInitStruct .
 295:stm32f10x_lib/STM32F10x_StdPeriph_Driver/src/stm32f10x_usart.c ****   * @param  USARTx: where x can be 1, 2, 3 to select the USART peripheral.
 296:stm32f10x_lib/STM32F10x_StdPeriph_Driver/src/stm32f10x_usart.c ****   * @param  USART_ClockInitStruct: pointer to a USART_ClockInitTypeDef
 297:stm32f10x_lib/STM32F10x_StdPeriph_Driver/src/stm32f10x_usart.c ****   *         structure that contains the configuration information for the specified 
 298:stm32f10x_lib/STM32F10x_StdPeriph_Driver/src/stm32f10x_usart.c ****   *         USART peripheral.  
ARM GAS  C:\Users\ADMINI~1\AppData\Local\Temp\cc5w2WuM.s 			page 16


 299:stm32f10x_lib/STM32F10x_StdPeriph_Driver/src/stm32f10x_usart.c ****   * @note The Smart Card and Synchronous modes are not available for UART4 and UART5.
 300:stm32f10x_lib/STM32F10x_StdPeriph_Driver/src/stm32f10x_usart.c ****   * @retval None
 301:stm32f10x_lib/STM32F10x_StdPeriph_Driver/src/stm32f10x_usart.c ****   */
 302:stm32f10x_lib/STM32F10x_StdPeriph_Driver/src/stm32f10x_usart.c **** void USART_ClockInit(USART_TypeDef* USARTx, USART_ClockInitTypeDef* USART_ClockInitStruct)
 303:stm32f10x_lib/STM32F10x_StdPeriph_Driver/src/stm32f10x_usart.c **** {
 521              		.loc 1 303 1 is_stmt 1 view -0
 522              		.cfi_startproc
 523              		@ args = 0, pretend = 0, frame = 0
 524              		@ frame_needed = 0, uses_anonymous_args = 0
 304:stm32f10x_lib/STM32F10x_StdPeriph_Driver/src/stm32f10x_usart.c ****   uint32_t tmpreg = 0x00;
 525              		.loc 1 304 3 view .LVU128
 305:stm32f10x_lib/STM32F10x_StdPeriph_Driver/src/stm32f10x_usart.c ****   /* Check the parameters */
 306:stm32f10x_lib/STM32F10x_StdPeriph_Driver/src/stm32f10x_usart.c ****   assert_param(IS_USART_123_PERIPH(USARTx));
 526              		.loc 1 306 3 view .LVU129
 307:stm32f10x_lib/STM32F10x_StdPeriph_Driver/src/stm32f10x_usart.c ****   assert_param(IS_USART_CLOCK(USART_ClockInitStruct->USART_Clock));
 527              		.loc 1 307 3 view .LVU130
 308:stm32f10x_lib/STM32F10x_StdPeriph_Driver/src/stm32f10x_usart.c ****   assert_param(IS_USART_CPOL(USART_ClockInitStruct->USART_CPOL));
 528              		.loc 1 308 3 view .LVU131
 309:stm32f10x_lib/STM32F10x_StdPeriph_Driver/src/stm32f10x_usart.c ****   assert_param(IS_USART_CPHA(USART_ClockInitStruct->USART_CPHA));
 529              		.loc 1 309 3 view .LVU132
 310:stm32f10x_lib/STM32F10x_StdPeriph_Driver/src/stm32f10x_usart.c ****   assert_param(IS_USART_LASTBIT(USART_ClockInitStruct->USART_LastBit));
 530              		.loc 1 310 3 view .LVU133
 311:stm32f10x_lib/STM32F10x_StdPeriph_Driver/src/stm32f10x_usart.c ****   
 312:stm32f10x_lib/STM32F10x_StdPeriph_Driver/src/stm32f10x_usart.c **** /*---------------------------- USART CR2 Configuration -----------------------*/
 313:stm32f10x_lib/STM32F10x_StdPeriph_Driver/src/stm32f10x_usart.c ****   tmpreg = USARTx->CR2;
 531              		.loc 1 313 3 view .LVU134
 532              	@ stm32f10x_lib/STM32F10x_StdPeriph_Driver/src/stm32f10x_usart.c:322:                  USART_ClockI
 314:stm32f10x_lib/STM32F10x_StdPeriph_Driver/src/stm32f10x_usart.c ****   /* Clear CLKEN, CPOL, CPHA and LBCL bits */
 315:stm32f10x_lib/STM32F10x_StdPeriph_Driver/src/stm32f10x_usart.c ****   tmpreg &= CR2_CLOCK_CLEAR_Mask;
 316:stm32f10x_lib/STM32F10x_StdPeriph_Driver/src/stm32f10x_usart.c ****   /* Configure the USART Clock, CPOL, CPHA and LastBit ------------*/
 317:stm32f10x_lib/STM32F10x_StdPeriph_Driver/src/stm32f10x_usart.c ****   /* Set CLKEN bit according to USART_Clock value */
 318:stm32f10x_lib/STM32F10x_StdPeriph_Driver/src/stm32f10x_usart.c ****   /* Set CPOL bit according to USART_CPOL value */
 319:stm32f10x_lib/STM32F10x_StdPeriph_Driver/src/stm32f10x_usart.c ****   /* Set CPHA bit according to USART_CPHA value */
 320:stm32f10x_lib/STM32F10x_StdPeriph_Driver/src/stm32f10x_usart.c ****   /* Set LBCL bit according to USART_LastBit value */
 321:stm32f10x_lib/STM32F10x_StdPeriph_Driver/src/stm32f10x_usart.c ****   tmpreg |= (uint32_t)USART_ClockInitStruct->USART_Clock | USART_ClockInitStruct->USART_CPOL | 
 322:stm32f10x_lib/STM32F10x_StdPeriph_Driver/src/stm32f10x_usart.c ****                  USART_ClockInitStruct->USART_CPHA | USART_ClockInitStruct->USART_LastBit;
 533              		.loc 1 322 52 is_stmt 0 view .LVU135
 534 0154 0B88     		ldrh	r3, [r1]	@, USART_ClockInitStruct_12(D)->USART_Clock
 535              	@ stm32f10x_lib/STM32F10x_StdPeriph_Driver/src/stm32f10x_usart.c:303: {
 303:stm32f10x_lib/STM32F10x_StdPeriph_Driver/src/stm32f10x_usart.c ****   uint32_t tmpreg = 0x00;
 536              		.loc 1 303 1 view .LVU136
 537 0156 10B5     		push	{r4, lr}	@
 538              	.LCFI8:
 539              		.cfi_def_cfa_offset 8
 540              		.cfi_offset 4, -8
 541              		.cfi_offset 14, -4
 542              	@ stm32f10x_lib/STM32F10x_StdPeriph_Driver/src/stm32f10x_usart.c:322:                  USART_ClockI
 543              		.loc 1 322 52 view .LVU137
 544 0158 4C88     		ldrh	r4, [r1, #2]	@, USART_ClockInitStruct_12(D)->USART_CPOL
 545              	@ stm32f10x_lib/STM32F10x_StdPeriph_Driver/src/stm32f10x_usart.c:313:   tmpreg = USARTx->CR2;
 313:stm32f10x_lib/STM32F10x_StdPeriph_Driver/src/stm32f10x_usart.c ****   /* Clear CLKEN, CPOL, CPHA and LBCL bits */
 546              		.loc 1 313 18 view .LVU138
 547 015a 028A     		ldrh	r2, [r0, #16]	@, USARTx_11(D)->CR2
 548              	@ stm32f10x_lib/STM32F10x_StdPeriph_Driver/src/stm32f10x_usart.c:322:                  USART_ClockI
 549              		.loc 1 322 52 view .LVU139
 550 015c 2343     		orrs	r3, r3, r4	@, tmp129, USART_ClockInitStruct_12(D)->USART_Clock, USART_ClockInitStruct_12(D)->
 551 015e 8C88     		ldrh	r4, [r1, #4]	@, USART_ClockInitStruct_12(D)->USART_CPHA
ARM GAS  C:\Users\ADMINI~1\AppData\Local\Temp\cc5w2WuM.s 			page 17


 552 0160 C988     		ldrh	r1, [r1, #6]	@, USART_ClockInitStruct_12(D)->USART_LastBit
 553              	.LVL44:
 554              	@ stm32f10x_lib/STM32F10x_StdPeriph_Driver/src/stm32f10x_usart.c:313:   tmpreg = USARTx->CR2;
 313:stm32f10x_lib/STM32F10x_StdPeriph_Driver/src/stm32f10x_usart.c ****   /* Clear CLKEN, CPOL, CPHA and LBCL bits */
 555              		.loc 1 313 18 view .LVU140
 556 0162 92B2     		uxth	r2, r2	@ _1, USARTx_11(D)->CR2
 557              	.LVL45:
 315:stm32f10x_lib/STM32F10x_StdPeriph_Driver/src/stm32f10x_usart.c ****   /* Configure the USART Clock, CPOL, CPHA and LastBit ------------*/
 558              		.loc 1 315 3 is_stmt 1 view .LVU141
 321:stm32f10x_lib/STM32F10x_StdPeriph_Driver/src/stm32f10x_usart.c ****                  USART_ClockInitStruct->USART_CPHA | USART_ClockInitStruct->USART_LastBit;
 559              		.loc 1 321 3 view .LVU142
 560              	@ stm32f10x_lib/STM32F10x_StdPeriph_Driver/src/stm32f10x_usart.c:322:                  USART_ClockI
 561              		.loc 1 322 52 is_stmt 0 view .LVU143
 562 0164 2343     		orrs	r3, r3, r4	@, tmp132, tmp129, USART_ClockInitStruct_12(D)->USART_CPHA
 563 0166 0B43     		orrs	r3, r3, r1	@, tmp135, tmp132, USART_ClockInitStruct_12(D)->USART_LastBit
 564 0168 22F47062 		bic	r2, r2, #3840	@ tmp136, _1,
 565              	.LVL46:
 566              		.loc 1 322 52 view .LVU144
 567 016c 1343     		orrs	r3, r3, r2	@, tmp139, tmp135, tmp136
 568 016e 9BB2     		uxth	r3, r3	@ _14, tmp139
 569              	.LVL47:
 323:stm32f10x_lib/STM32F10x_StdPeriph_Driver/src/stm32f10x_usart.c ****   /* Write to USART CR2 */
 324:stm32f10x_lib/STM32F10x_StdPeriph_Driver/src/stm32f10x_usart.c ****   USARTx->CR2 = (uint16_t)tmpreg;
 570              		.loc 1 324 3 is_stmt 1 view .LVU145
 571              	@ stm32f10x_lib/STM32F10x_StdPeriph_Driver/src/stm32f10x_usart.c:324:   USARTx->CR2 = (uint16_t)tmp
 572              		.loc 1 324 15 is_stmt 0 view .LVU146
 573 0170 0382     		strh	r3, [r0, #16]	@ movhi	@ _14, USARTx_11(D)->CR2
 574              	@ stm32f10x_lib/STM32F10x_StdPeriph_Driver/src/stm32f10x_usart.c:325: }
 325:stm32f10x_lib/STM32F10x_StdPeriph_Driver/src/stm32f10x_usart.c **** }
 575              		.loc 1 325 1 view .LVU147
 576 0172 10BD     		pop	{r4, pc}	@
 577              		.cfi_endproc
 578              	.LFE32:
 579              		.size	USART_ClockInit, .-USART_ClockInit
 580              		.align	1
 581              		.global	USART_ClockStructInit
 582              		.syntax unified
 583              		.thumb
 584              		.thumb_func
 585              		.type	USART_ClockStructInit, %function
 586              	USART_ClockStructInit:
 587              	.LVL48:
 588              	.LFB33:
 326:stm32f10x_lib/STM32F10x_StdPeriph_Driver/src/stm32f10x_usart.c **** 
 327:stm32f10x_lib/STM32F10x_StdPeriph_Driver/src/stm32f10x_usart.c **** /**
 328:stm32f10x_lib/STM32F10x_StdPeriph_Driver/src/stm32f10x_usart.c ****   * @brief  Fills each USART_ClockInitStruct member with its default value.
 329:stm32f10x_lib/STM32F10x_StdPeriph_Driver/src/stm32f10x_usart.c ****   * @param  USART_ClockInitStruct: pointer to a USART_ClockInitTypeDef
 330:stm32f10x_lib/STM32F10x_StdPeriph_Driver/src/stm32f10x_usart.c ****   *         structure which will be initialized.
 331:stm32f10x_lib/STM32F10x_StdPeriph_Driver/src/stm32f10x_usart.c ****   * @retval None
 332:stm32f10x_lib/STM32F10x_StdPeriph_Driver/src/stm32f10x_usart.c ****   */
 333:stm32f10x_lib/STM32F10x_StdPeriph_Driver/src/stm32f10x_usart.c **** void USART_ClockStructInit(USART_ClockInitTypeDef* USART_ClockInitStruct)
 334:stm32f10x_lib/STM32F10x_StdPeriph_Driver/src/stm32f10x_usart.c **** {
 589              		.loc 1 334 1 is_stmt 1 view -0
 590              		.cfi_startproc
 591              		@ args = 0, pretend = 0, frame = 0
 592              		@ frame_needed = 0, uses_anonymous_args = 0
 593              		@ link register save eliminated.
ARM GAS  C:\Users\ADMINI~1\AppData\Local\Temp\cc5w2WuM.s 			page 18


 335:stm32f10x_lib/STM32F10x_StdPeriph_Driver/src/stm32f10x_usart.c ****   /* USART_ClockInitStruct members default value */
 336:stm32f10x_lib/STM32F10x_StdPeriph_Driver/src/stm32f10x_usart.c ****   USART_ClockInitStruct->USART_Clock = USART_Clock_Disable;
 594              		.loc 1 336 3 view .LVU149
 595              	@ stm32f10x_lib/STM32F10x_StdPeriph_Driver/src/stm32f10x_usart.c:336:   USART_ClockInitStruct->USAR
 596              		.loc 1 336 38 is_stmt 0 view .LVU150
 597 0174 0023     		movs	r3, #0	@ tmp115,
 598 0176 0380     		strh	r3, [r0]	@ movhi	@ tmp115, USART_ClockInitStruct_2(D)->USART_Clock
 337:stm32f10x_lib/STM32F10x_StdPeriph_Driver/src/stm32f10x_usart.c ****   USART_ClockInitStruct->USART_CPOL = USART_CPOL_Low;
 599              		.loc 1 337 3 is_stmt 1 view .LVU151
 600              	@ stm32f10x_lib/STM32F10x_StdPeriph_Driver/src/stm32f10x_usart.c:337:   USART_ClockInitStruct->USAR
 601              		.loc 1 337 37 is_stmt 0 view .LVU152
 602 0178 4380     		strh	r3, [r0, #2]	@ movhi	@ tmp115, USART_ClockInitStruct_2(D)->USART_CPOL
 338:stm32f10x_lib/STM32F10x_StdPeriph_Driver/src/stm32f10x_usart.c ****   USART_ClockInitStruct->USART_CPHA = USART_CPHA_1Edge;
 603              		.loc 1 338 3 is_stmt 1 view .LVU153
 604              	@ stm32f10x_lib/STM32F10x_StdPeriph_Driver/src/stm32f10x_usart.c:338:   USART_ClockInitStruct->USAR
 605              		.loc 1 338 37 is_stmt 0 view .LVU154
 606 017a 8380     		strh	r3, [r0, #4]	@ movhi	@ tmp115, USART_ClockInitStruct_2(D)->USART_CPHA
 339:stm32f10x_lib/STM32F10x_StdPeriph_Driver/src/stm32f10x_usart.c ****   USART_ClockInitStruct->USART_LastBit = USART_LastBit_Disable;
 607              		.loc 1 339 3 is_stmt 1 view .LVU155
 608              	@ stm32f10x_lib/STM32F10x_StdPeriph_Driver/src/stm32f10x_usart.c:339:   USART_ClockInitStruct->USAR
 609              		.loc 1 339 40 is_stmt 0 view .LVU156
 610 017c C380     		strh	r3, [r0, #6]	@ movhi	@ tmp115, USART_ClockInitStruct_2(D)->USART_LastBit
 611              	@ stm32f10x_lib/STM32F10x_StdPeriph_Driver/src/stm32f10x_usart.c:340: }
 340:stm32f10x_lib/STM32F10x_StdPeriph_Driver/src/stm32f10x_usart.c **** }
 612              		.loc 1 340 1 view .LVU157
 613 017e 7047     		bx	lr	@
 614              		.cfi_endproc
 615              	.LFE33:
 616              		.size	USART_ClockStructInit, .-USART_ClockStructInit
 617              		.align	1
 618              		.global	USART_Cmd
 619              		.syntax unified
 620              		.thumb
 621              		.thumb_func
 622              		.type	USART_Cmd, %function
 623              	USART_Cmd:
 624              	.LVL49:
 625              	.LFB34:
 341:stm32f10x_lib/STM32F10x_StdPeriph_Driver/src/stm32f10x_usart.c **** 
 342:stm32f10x_lib/STM32F10x_StdPeriph_Driver/src/stm32f10x_usart.c **** /**
 343:stm32f10x_lib/STM32F10x_StdPeriph_Driver/src/stm32f10x_usart.c ****   * @brief  Enables or disables the specified USART peripheral.
 344:stm32f10x_lib/STM32F10x_StdPeriph_Driver/src/stm32f10x_usart.c ****   * @param  USARTx: Select the USART or the UART peripheral. 
 345:stm32f10x_lib/STM32F10x_StdPeriph_Driver/src/stm32f10x_usart.c ****   *         This parameter can be one of the following values:
 346:stm32f10x_lib/STM32F10x_StdPeriph_Driver/src/stm32f10x_usart.c ****   *           USART1, USART2, USART3, UART4 or UART5.
 347:stm32f10x_lib/STM32F10x_StdPeriph_Driver/src/stm32f10x_usart.c ****   * @param  NewState: new state of the USARTx peripheral.
 348:stm32f10x_lib/STM32F10x_StdPeriph_Driver/src/stm32f10x_usart.c ****   *         This parameter can be: ENABLE or DISABLE.
 349:stm32f10x_lib/STM32F10x_StdPeriph_Driver/src/stm32f10x_usart.c ****   * @retval None
 350:stm32f10x_lib/STM32F10x_StdPeriph_Driver/src/stm32f10x_usart.c ****   */
 351:stm32f10x_lib/STM32F10x_StdPeriph_Driver/src/stm32f10x_usart.c **** void USART_Cmd(USART_TypeDef* USARTx, FunctionalState NewState)
 352:stm32f10x_lib/STM32F10x_StdPeriph_Driver/src/stm32f10x_usart.c **** {
 626              		.loc 1 352 1 is_stmt 1 view -0
 627              		.cfi_startproc
 628              		@ args = 0, pretend = 0, frame = 0
 629              		@ frame_needed = 0, uses_anonymous_args = 0
 630              		@ link register save eliminated.
 353:stm32f10x_lib/STM32F10x_StdPeriph_Driver/src/stm32f10x_usart.c ****   /* Check the parameters */
 354:stm32f10x_lib/STM32F10x_StdPeriph_Driver/src/stm32f10x_usart.c ****   assert_param(IS_USART_ALL_PERIPH(USARTx));
ARM GAS  C:\Users\ADMINI~1\AppData\Local\Temp\cc5w2WuM.s 			page 19


 631              		.loc 1 354 3 view .LVU159
 355:stm32f10x_lib/STM32F10x_StdPeriph_Driver/src/stm32f10x_usart.c ****   assert_param(IS_FUNCTIONAL_STATE(NewState));
 632              		.loc 1 355 3 view .LVU160
 356:stm32f10x_lib/STM32F10x_StdPeriph_Driver/src/stm32f10x_usart.c ****   
 357:stm32f10x_lib/STM32F10x_StdPeriph_Driver/src/stm32f10x_usart.c ****   if (NewState != DISABLE)
 633              		.loc 1 357 3 view .LVU161
 634              	@ stm32f10x_lib/STM32F10x_StdPeriph_Driver/src/stm32f10x_usart.c:360:     USARTx->CR1 |= CR1_UE_Set
 358:stm32f10x_lib/STM32F10x_StdPeriph_Driver/src/stm32f10x_usart.c ****   {
 359:stm32f10x_lib/STM32F10x_StdPeriph_Driver/src/stm32f10x_usart.c ****     /* Enable the selected USART by setting the UE bit in the CR1 register */
 360:stm32f10x_lib/STM32F10x_StdPeriph_Driver/src/stm32f10x_usart.c ****     USARTx->CR1 |= CR1_UE_Set;
 635              		.loc 1 360 17 is_stmt 0 view .LVU162
 636 0180 8389     		ldrh	r3, [r0, #12]	@,
 637              	@ stm32f10x_lib/STM32F10x_StdPeriph_Driver/src/stm32f10x_usart.c:357:   if (NewState != DISABLE)
 357:stm32f10x_lib/STM32F10x_StdPeriph_Driver/src/stm32f10x_usart.c ****   {
 638              		.loc 1 357 6 view .LVU163
 639 0182 21B1     		cbz	r1, .L24	@ tmp128,
 640              		.loc 1 360 5 is_stmt 1 view .LVU164
 641              	@ stm32f10x_lib/STM32F10x_StdPeriph_Driver/src/stm32f10x_usart.c:360:     USARTx->CR1 |= CR1_UE_Set
 642              		.loc 1 360 17 is_stmt 0 view .LVU165
 643 0184 9BB2     		uxth	r3, r3	@ _1, USARTx_8(D)->CR1
 644 0186 43F40053 		orr	r3, r3, #8192	@ _2, _1,
 645              	.L26:
 646              	@ stm32f10x_lib/STM32F10x_StdPeriph_Driver/src/stm32f10x_usart.c:365:     USARTx->CR1 &= CR1_UE_Res
 361:stm32f10x_lib/STM32F10x_StdPeriph_Driver/src/stm32f10x_usart.c ****   }
 362:stm32f10x_lib/STM32F10x_StdPeriph_Driver/src/stm32f10x_usart.c ****   else
 363:stm32f10x_lib/STM32F10x_StdPeriph_Driver/src/stm32f10x_usart.c ****   {
 364:stm32f10x_lib/STM32F10x_StdPeriph_Driver/src/stm32f10x_usart.c ****     /* Disable the selected USART by clearing the UE bit in the CR1 register */
 365:stm32f10x_lib/STM32F10x_StdPeriph_Driver/src/stm32f10x_usart.c ****     USARTx->CR1 &= CR1_UE_Reset;
 647              		.loc 1 365 17 view .LVU166
 648 018a 8381     		strh	r3, [r0, #12]	@ movhi	@ _4,
 649              	@ stm32f10x_lib/STM32F10x_StdPeriph_Driver/src/stm32f10x_usart.c:367: }
 366:stm32f10x_lib/STM32F10x_StdPeriph_Driver/src/stm32f10x_usart.c ****   }
 367:stm32f10x_lib/STM32F10x_StdPeriph_Driver/src/stm32f10x_usart.c **** }
 650              		.loc 1 367 1 view .LVU167
 651 018c 7047     		bx	lr	@
 652              	.L24:
 365:stm32f10x_lib/STM32F10x_StdPeriph_Driver/src/stm32f10x_usart.c ****   }
 653              		.loc 1 365 5 is_stmt 1 view .LVU168
 654              	@ stm32f10x_lib/STM32F10x_StdPeriph_Driver/src/stm32f10x_usart.c:365:     USARTx->CR1 &= CR1_UE_Res
 365:stm32f10x_lib/STM32F10x_StdPeriph_Driver/src/stm32f10x_usart.c ****   }
 655              		.loc 1 365 17 is_stmt 0 view .LVU169
 656 018e 23F40053 		bic	r3, r3, #8192	@ _4, USARTx_8(D)->CR1,
 657 0192 1B04     		lsls	r3, r3, #16	@ _4, _4,
 658 0194 1B0C     		lsrs	r3, r3, #16	@ _4, _4,
 659 0196 F8E7     		b	.L26		@
 660              		.cfi_endproc
 661              	.LFE34:
 662              		.size	USART_Cmd, .-USART_Cmd
 663              		.align	1
 664              		.global	USART_ITConfig
 665              		.syntax unified
 666              		.thumb
 667              		.thumb_func
 668              		.type	USART_ITConfig, %function
 669              	USART_ITConfig:
 670              	.LVL50:
 671              	.LFB35:
ARM GAS  C:\Users\ADMINI~1\AppData\Local\Temp\cc5w2WuM.s 			page 20


 368:stm32f10x_lib/STM32F10x_StdPeriph_Driver/src/stm32f10x_usart.c **** 
 369:stm32f10x_lib/STM32F10x_StdPeriph_Driver/src/stm32f10x_usart.c **** /**
 370:stm32f10x_lib/STM32F10x_StdPeriph_Driver/src/stm32f10x_usart.c ****   * @brief  Enables or disables the specified USART interrupts.
 371:stm32f10x_lib/STM32F10x_StdPeriph_Driver/src/stm32f10x_usart.c ****   * @param  USARTx: Select the USART or the UART peripheral. 
 372:stm32f10x_lib/STM32F10x_StdPeriph_Driver/src/stm32f10x_usart.c ****   *   This parameter can be one of the following values:
 373:stm32f10x_lib/STM32F10x_StdPeriph_Driver/src/stm32f10x_usart.c ****   *   USART1, USART2, USART3, UART4 or UART5.
 374:stm32f10x_lib/STM32F10x_StdPeriph_Driver/src/stm32f10x_usart.c ****   * @param  USART_IT: specifies the USART interrupt sources to be enabled or disabled.
 375:stm32f10x_lib/STM32F10x_StdPeriph_Driver/src/stm32f10x_usart.c ****   *   This parameter can be one of the following values:
 376:stm32f10x_lib/STM32F10x_StdPeriph_Driver/src/stm32f10x_usart.c ****   *     @arg USART_IT_CTS:  CTS change interrupt (not available for UART4 and UART5)
 377:stm32f10x_lib/STM32F10x_StdPeriph_Driver/src/stm32f10x_usart.c ****   *     @arg USART_IT_LBD:  LIN Break detection interrupt
 378:stm32f10x_lib/STM32F10x_StdPeriph_Driver/src/stm32f10x_usart.c ****   *     @arg USART_IT_TXE:  Transmit Data Register empty interrupt
 379:stm32f10x_lib/STM32F10x_StdPeriph_Driver/src/stm32f10x_usart.c ****   *     @arg USART_IT_TC:   Transmission complete interrupt
 380:stm32f10x_lib/STM32F10x_StdPeriph_Driver/src/stm32f10x_usart.c ****   *     @arg USART_IT_RXNE: Receive Data register not empty interrupt
 381:stm32f10x_lib/STM32F10x_StdPeriph_Driver/src/stm32f10x_usart.c ****   *     @arg USART_IT_IDLE: Idle line detection interrupt
 382:stm32f10x_lib/STM32F10x_StdPeriph_Driver/src/stm32f10x_usart.c ****   *     @arg USART_IT_PE:   Parity Error interrupt
 383:stm32f10x_lib/STM32F10x_StdPeriph_Driver/src/stm32f10x_usart.c ****   *     @arg USART_IT_ERR:  Error interrupt(Frame error, noise error, overrun error)
 384:stm32f10x_lib/STM32F10x_StdPeriph_Driver/src/stm32f10x_usart.c ****   * @param  NewState: new state of the specified USARTx interrupts.
 385:stm32f10x_lib/STM32F10x_StdPeriph_Driver/src/stm32f10x_usart.c ****   *   This parameter can be: ENABLE or DISABLE.
 386:stm32f10x_lib/STM32F10x_StdPeriph_Driver/src/stm32f10x_usart.c ****   * @retval None
 387:stm32f10x_lib/STM32F10x_StdPeriph_Driver/src/stm32f10x_usart.c ****   */
 388:stm32f10x_lib/STM32F10x_StdPeriph_Driver/src/stm32f10x_usart.c **** void USART_ITConfig(USART_TypeDef* USARTx, uint16_t USART_IT, FunctionalState NewState)
 389:stm32f10x_lib/STM32F10x_StdPeriph_Driver/src/stm32f10x_usart.c **** {
 672              		.loc 1 389 1 is_stmt 1 view -0
 673              		.cfi_startproc
 674              		@ args = 0, pretend = 0, frame = 0
 675              		@ frame_needed = 0, uses_anonymous_args = 0
 390:stm32f10x_lib/STM32F10x_StdPeriph_Driver/src/stm32f10x_usart.c ****   uint32_t usartreg = 0x00, itpos = 0x00, itmask = 0x00;
 676              		.loc 1 390 3 view .LVU171
 391:stm32f10x_lib/STM32F10x_StdPeriph_Driver/src/stm32f10x_usart.c ****   uint32_t usartxbase = 0x00;
 677              		.loc 1 391 3 view .LVU172
 392:stm32f10x_lib/STM32F10x_StdPeriph_Driver/src/stm32f10x_usart.c ****   /* Check the parameters */
 393:stm32f10x_lib/STM32F10x_StdPeriph_Driver/src/stm32f10x_usart.c ****   assert_param(IS_USART_ALL_PERIPH(USARTx));
 678              		.loc 1 393 3 view .LVU173
 394:stm32f10x_lib/STM32F10x_StdPeriph_Driver/src/stm32f10x_usart.c ****   assert_param(IS_USART_CONFIG_IT(USART_IT));
 679              		.loc 1 394 3 view .LVU174
 395:stm32f10x_lib/STM32F10x_StdPeriph_Driver/src/stm32f10x_usart.c ****   assert_param(IS_FUNCTIONAL_STATE(NewState));
 680              		.loc 1 395 3 view .LVU175
 396:stm32f10x_lib/STM32F10x_StdPeriph_Driver/src/stm32f10x_usart.c ****   /* The CTS interrupt is not available for UART4 and UART5 */
 397:stm32f10x_lib/STM32F10x_StdPeriph_Driver/src/stm32f10x_usart.c ****   if (USART_IT == USART_IT_CTS)
 681              		.loc 1 397 3 view .LVU176
 398:stm32f10x_lib/STM32F10x_StdPeriph_Driver/src/stm32f10x_usart.c ****   {
 399:stm32f10x_lib/STM32F10x_StdPeriph_Driver/src/stm32f10x_usart.c ****     assert_param(IS_USART_123_PERIPH(USARTx));
 682              		.loc 1 399 5 view .LVU177
 400:stm32f10x_lib/STM32F10x_StdPeriph_Driver/src/stm32f10x_usart.c ****   }   
 401:stm32f10x_lib/STM32F10x_StdPeriph_Driver/src/stm32f10x_usart.c ****   
 402:stm32f10x_lib/STM32F10x_StdPeriph_Driver/src/stm32f10x_usart.c ****   usartxbase = (uint32_t)USARTx;
 683              		.loc 1 402 3 view .LVU178
 403:stm32f10x_lib/STM32F10x_StdPeriph_Driver/src/stm32f10x_usart.c **** 
 404:stm32f10x_lib/STM32F10x_StdPeriph_Driver/src/stm32f10x_usart.c ****   /* Get the USART register index */
 405:stm32f10x_lib/STM32F10x_StdPeriph_Driver/src/stm32f10x_usart.c ****   usartreg = (((uint8_t)USART_IT) >> 0x05);
 684              		.loc 1 405 3 view .LVU179
 685              	@ stm32f10x_lib/STM32F10x_StdPeriph_Driver/src/stm32f10x_usart.c:409:   itmask = (((uint32_t)0x01) 
 406:stm32f10x_lib/STM32F10x_StdPeriph_Driver/src/stm32f10x_usart.c **** 
 407:stm32f10x_lib/STM32F10x_StdPeriph_Driver/src/stm32f10x_usart.c ****   /* Get the interrupt position */
 408:stm32f10x_lib/STM32F10x_StdPeriph_Driver/src/stm32f10x_usart.c ****   itpos = USART_IT & IT_Mask;
 409:stm32f10x_lib/STM32F10x_StdPeriph_Driver/src/stm32f10x_usart.c ****   itmask = (((uint32_t)0x01) << itpos);
 686              		.loc 1 409 10 is_stmt 0 view .LVU180
ARM GAS  C:\Users\ADMINI~1\AppData\Local\Temp\cc5w2WuM.s 			page 21


 687 0198 0123     		movs	r3, #1	@ tmp133,
 688              	@ stm32f10x_lib/STM32F10x_StdPeriph_Driver/src/stm32f10x_usart.c:389: {
 389:stm32f10x_lib/STM32F10x_StdPeriph_Driver/src/stm32f10x_usart.c ****   uint32_t usartreg = 0x00, itpos = 0x00, itmask = 0x00;
 689              		.loc 1 389 1 view .LVU181
 690 019a 10B5     		push	{r4, lr}	@
 691              	.LCFI9:
 692              		.cfi_def_cfa_offset 8
 693              		.cfi_offset 4, -8
 694              		.cfi_offset 14, -4
 695              	@ stm32f10x_lib/STM32F10x_StdPeriph_Driver/src/stm32f10x_usart.c:405:   usartreg = (((uint8_t)USART
 405:stm32f10x_lib/STM32F10x_StdPeriph_Driver/src/stm32f10x_usart.c **** 
 696              		.loc 1 405 35 view .LVU182
 697 019c C1F34214 		ubfx	r4, r1, #5, #3	@ _2, USART_IT,,
 698              	.LVL51:
 408:stm32f10x_lib/STM32F10x_StdPeriph_Driver/src/stm32f10x_usart.c ****   itmask = (((uint32_t)0x01) << itpos);
 699              		.loc 1 408 3 is_stmt 1 view .LVU183
 700              		.loc 1 409 3 view .LVU184
 701              	@ stm32f10x_lib/STM32F10x_StdPeriph_Driver/src/stm32f10x_usart.c:411:   if (usartreg == 0x01) /* Th
 410:stm32f10x_lib/STM32F10x_StdPeriph_Driver/src/stm32f10x_usart.c ****     
 411:stm32f10x_lib/STM32F10x_StdPeriph_Driver/src/stm32f10x_usart.c ****   if (usartreg == 0x01) /* The IT is in CR1 register */
 702              		.loc 1 411 6 is_stmt 0 view .LVU185
 703 01a0 9C42     		cmp	r4, r3	@ _2,
 704              	@ stm32f10x_lib/STM32F10x_StdPeriph_Driver/src/stm32f10x_usart.c:408:   itpos = USART_IT & IT_Mask;
 408:stm32f10x_lib/STM32F10x_StdPeriph_Driver/src/stm32f10x_usart.c ****   itmask = (((uint32_t)0x01) << itpos);
 705              		.loc 1 408 9 view .LVU186
 706 01a2 01F01F01 		and	r1, r1, #31	@ itpos, USART_IT,
 707              	.LVL52:
 708              	@ stm32f10x_lib/STM32F10x_StdPeriph_Driver/src/stm32f10x_usart.c:409:   itmask = (((uint32_t)0x01) 
 409:stm32f10x_lib/STM32F10x_StdPeriph_Driver/src/stm32f10x_usart.c ****     
 709              		.loc 1 409 10 view .LVU187
 710 01a6 03FA01F1 		lsl	r1, r3, r1	@ itmask, tmp133, itpos
 711              	.LVL53:
 712              		.loc 1 411 3 is_stmt 1 view .LVU188
 713              	@ stm32f10x_lib/STM32F10x_StdPeriph_Driver/src/stm32f10x_usart.c:411:   if (usartreg == 0x01) /* Th
 714              		.loc 1 411 6 is_stmt 0 view .LVU189
 715 01aa 05D1     		bne	.L28		@,
 412:stm32f10x_lib/STM32F10x_StdPeriph_Driver/src/stm32f10x_usart.c ****   {
 413:stm32f10x_lib/STM32F10x_StdPeriph_Driver/src/stm32f10x_usart.c ****     usartxbase += 0x0C;
 716              		.loc 1 413 5 is_stmt 1 view .LVU190
 717              	@ stm32f10x_lib/STM32F10x_StdPeriph_Driver/src/stm32f10x_usart.c:413:     usartxbase += 0x0C;
 718              		.loc 1 413 16 is_stmt 0 view .LVU191
 719 01ac 0C30     		adds	r0, r0, #12	@ usartxbase, USARTx,
 720              	.LVL54:
 721              	.L29:
 414:stm32f10x_lib/STM32F10x_StdPeriph_Driver/src/stm32f10x_usart.c ****   }
 415:stm32f10x_lib/STM32F10x_StdPeriph_Driver/src/stm32f10x_usart.c ****   else if (usartreg == 0x02) /* The IT is in CR2 register */
 416:stm32f10x_lib/STM32F10x_StdPeriph_Driver/src/stm32f10x_usart.c ****   {
 417:stm32f10x_lib/STM32F10x_StdPeriph_Driver/src/stm32f10x_usart.c ****     usartxbase += 0x10;
 418:stm32f10x_lib/STM32F10x_StdPeriph_Driver/src/stm32f10x_usart.c ****   }
 419:stm32f10x_lib/STM32F10x_StdPeriph_Driver/src/stm32f10x_usart.c ****   else /* The IT is in CR3 register */
 420:stm32f10x_lib/STM32F10x_StdPeriph_Driver/src/stm32f10x_usart.c ****   {
 421:stm32f10x_lib/STM32F10x_StdPeriph_Driver/src/stm32f10x_usart.c ****     usartxbase += 0x14; 
 422:stm32f10x_lib/STM32F10x_StdPeriph_Driver/src/stm32f10x_usart.c ****   }
 423:stm32f10x_lib/STM32F10x_StdPeriph_Driver/src/stm32f10x_usart.c ****   if (NewState != DISABLE)
 722              		.loc 1 423 3 is_stmt 1 view .LVU192
 723              	@ stm32f10x_lib/STM32F10x_StdPeriph_Driver/src/stm32f10x_usart.c:425:     *(__IO uint32_t*)usartxba
 424:stm32f10x_lib/STM32F10x_StdPeriph_Driver/src/stm32f10x_usart.c ****   {
ARM GAS  C:\Users\ADMINI~1\AppData\Local\Temp\cc5w2WuM.s 			page 22


 425:stm32f10x_lib/STM32F10x_StdPeriph_Driver/src/stm32f10x_usart.c ****     *(__IO uint32_t*)usartxbase  |= itmask;
 724              		.loc 1 425 34 is_stmt 0 view .LVU193
 725 01ae 0368     		ldr	r3, [r0]	@ _4,* usartxbase
 726              	@ stm32f10x_lib/STM32F10x_StdPeriph_Driver/src/stm32f10x_usart.c:423:   if (NewState != DISABLE)
 423:stm32f10x_lib/STM32F10x_StdPeriph_Driver/src/stm32f10x_usart.c ****   {
 727              		.loc 1 423 6 view .LVU194
 728 01b0 3AB1     		cbz	r2, .L31	@ NewState,
 729              		.loc 1 425 5 is_stmt 1 view .LVU195
 730              	@ stm32f10x_lib/STM32F10x_StdPeriph_Driver/src/stm32f10x_usart.c:425:     *(__IO uint32_t*)usartxba
 731              		.loc 1 425 34 is_stmt 0 view .LVU196
 732 01b2 1943     		orrs	r1, r1, r3	@, _5, itmask, _4
 733              	.LVL55:
 734              	.L33:
 735              	@ stm32f10x_lib/STM32F10x_StdPeriph_Driver/src/stm32f10x_usart.c:429:     *(__IO uint32_t*)usartxba
 426:stm32f10x_lib/STM32F10x_StdPeriph_Driver/src/stm32f10x_usart.c ****   }
 427:stm32f10x_lib/STM32F10x_StdPeriph_Driver/src/stm32f10x_usart.c ****   else
 428:stm32f10x_lib/STM32F10x_StdPeriph_Driver/src/stm32f10x_usart.c ****   {
 429:stm32f10x_lib/STM32F10x_StdPeriph_Driver/src/stm32f10x_usart.c ****     *(__IO uint32_t*)usartxbase &= ~itmask;
 736              		.loc 1 429 33 view .LVU197
 737 01b4 0160     		str	r1, [r0]	@ _9,* usartxbase
 738              	@ stm32f10x_lib/STM32F10x_StdPeriph_Driver/src/stm32f10x_usart.c:431: }
 430:stm32f10x_lib/STM32F10x_StdPeriph_Driver/src/stm32f10x_usart.c ****   }
 431:stm32f10x_lib/STM32F10x_StdPeriph_Driver/src/stm32f10x_usart.c **** }
 739              		.loc 1 431 1 view .LVU198
 740 01b6 10BD     		pop	{r4, pc}	@
 741              	.LVL56:
 742              	.L28:
 415:stm32f10x_lib/STM32F10x_StdPeriph_Driver/src/stm32f10x_usart.c ****   {
 743              		.loc 1 415 8 is_stmt 1 view .LVU199
 744              	@ stm32f10x_lib/STM32F10x_StdPeriph_Driver/src/stm32f10x_usart.c:415:   else if (usartreg == 0x02) 
 415:stm32f10x_lib/STM32F10x_StdPeriph_Driver/src/stm32f10x_usart.c ****   {
 745              		.loc 1 415 11 is_stmt 0 view .LVU200
 746 01b8 022C     		cmp	r4, #2	@ _2,
 417:stm32f10x_lib/STM32F10x_StdPeriph_Driver/src/stm32f10x_usart.c ****   }
 747              		.loc 1 417 5 is_stmt 1 view .LVU201
 748              	@ stm32f10x_lib/STM32F10x_StdPeriph_Driver/src/stm32f10x_usart.c:417:     usartxbase += 0x10;
 417:stm32f10x_lib/STM32F10x_StdPeriph_Driver/src/stm32f10x_usart.c ****   }
 749              		.loc 1 417 16 is_stmt 0 view .LVU202
 750 01ba 0CBF     		ite	eq
 751 01bc 1030     		addeq	r0, r0, #16	@ usartxbase, USARTx,
 752              	.LVL57:
 421:stm32f10x_lib/STM32F10x_StdPeriph_Driver/src/stm32f10x_usart.c ****   }
 753              		.loc 1 421 5 is_stmt 1 view .LVU203
 754              	@ stm32f10x_lib/STM32F10x_StdPeriph_Driver/src/stm32f10x_usart.c:421:     usartxbase += 0x14; 
 421:stm32f10x_lib/STM32F10x_StdPeriph_Driver/src/stm32f10x_usart.c ****   }
 755              		.loc 1 421 16 is_stmt 0 view .LVU204
 756 01be 1430     		addne	r0, r0, #20	@ usartxbase, USARTx,
 757              	.LVL58:
 421:stm32f10x_lib/STM32F10x_StdPeriph_Driver/src/stm32f10x_usart.c ****   }
 758              		.loc 1 421 16 view .LVU205
 759 01c0 F5E7     		b	.L29		@
 760              	.L31:
 429:stm32f10x_lib/STM32F10x_StdPeriph_Driver/src/stm32f10x_usart.c ****   }
 761              		.loc 1 429 5 is_stmt 1 view .LVU206
 762              	@ stm32f10x_lib/STM32F10x_StdPeriph_Driver/src/stm32f10x_usart.c:429:     *(__IO uint32_t*)usartxba
 429:stm32f10x_lib/STM32F10x_StdPeriph_Driver/src/stm32f10x_usart.c ****   }
 763              		.loc 1 429 33 is_stmt 0 view .LVU207
ARM GAS  C:\Users\ADMINI~1\AppData\Local\Temp\cc5w2WuM.s 			page 23


 764 01c2 23EA0101 		bic	r1, r3, r1	@ _9, _7, itmask
 765              	.LVL59:
 429:stm32f10x_lib/STM32F10x_StdPeriph_Driver/src/stm32f10x_usart.c ****   }
 766              		.loc 1 429 33 view .LVU208
 767 01c6 F5E7     		b	.L33		@
 768              		.cfi_endproc
 769              	.LFE35:
 770              		.size	USART_ITConfig, .-USART_ITConfig
 771              		.align	1
 772              		.global	USART_DMACmd
 773              		.syntax unified
 774              		.thumb
 775              		.thumb_func
 776              		.type	USART_DMACmd, %function
 777              	USART_DMACmd:
 778              	.LVL60:
 779              	.LFB36:
 432:stm32f10x_lib/STM32F10x_StdPeriph_Driver/src/stm32f10x_usart.c **** 
 433:stm32f10x_lib/STM32F10x_StdPeriph_Driver/src/stm32f10x_usart.c **** /**
 434:stm32f10x_lib/STM32F10x_StdPeriph_Driver/src/stm32f10x_usart.c ****   * @brief  Enables or disables the USARTs DMA interface.
 435:stm32f10x_lib/STM32F10x_StdPeriph_Driver/src/stm32f10x_usart.c ****   * @param  USARTx: Select the USART or the UART peripheral. 
 436:stm32f10x_lib/STM32F10x_StdPeriph_Driver/src/stm32f10x_usart.c ****   *   This parameter can be one of the following values:
 437:stm32f10x_lib/STM32F10x_StdPeriph_Driver/src/stm32f10x_usart.c ****   *   USART1, USART2, USART3, UART4 or UART5.
 438:stm32f10x_lib/STM32F10x_StdPeriph_Driver/src/stm32f10x_usart.c ****   * @param  USART_DMAReq: specifies the DMA request.
 439:stm32f10x_lib/STM32F10x_StdPeriph_Driver/src/stm32f10x_usart.c ****   *   This parameter can be any combination of the following values:
 440:stm32f10x_lib/STM32F10x_StdPeriph_Driver/src/stm32f10x_usart.c ****   *     @arg USART_DMAReq_Tx: USART DMA transmit request
 441:stm32f10x_lib/STM32F10x_StdPeriph_Driver/src/stm32f10x_usart.c ****   *     @arg USART_DMAReq_Rx: USART DMA receive request
 442:stm32f10x_lib/STM32F10x_StdPeriph_Driver/src/stm32f10x_usart.c ****   * @param  NewState: new state of the DMA Request sources.
 443:stm32f10x_lib/STM32F10x_StdPeriph_Driver/src/stm32f10x_usart.c ****   *   This parameter can be: ENABLE or DISABLE.
 444:stm32f10x_lib/STM32F10x_StdPeriph_Driver/src/stm32f10x_usart.c ****   * @note The DMA mode is not available for UART5 except in the STM32
 445:stm32f10x_lib/STM32F10x_StdPeriph_Driver/src/stm32f10x_usart.c ****   *       High density value line devices(STM32F10X_HD_VL).  
 446:stm32f10x_lib/STM32F10x_StdPeriph_Driver/src/stm32f10x_usart.c ****   * @retval None
 447:stm32f10x_lib/STM32F10x_StdPeriph_Driver/src/stm32f10x_usart.c ****   */
 448:stm32f10x_lib/STM32F10x_StdPeriph_Driver/src/stm32f10x_usart.c **** void USART_DMACmd(USART_TypeDef* USARTx, uint16_t USART_DMAReq, FunctionalState NewState)
 449:stm32f10x_lib/STM32F10x_StdPeriph_Driver/src/stm32f10x_usart.c **** {
 780              		.loc 1 449 1 is_stmt 1 view -0
 781              		.cfi_startproc
 782              		@ args = 0, pretend = 0, frame = 0
 783              		@ frame_needed = 0, uses_anonymous_args = 0
 784              		@ link register save eliminated.
 450:stm32f10x_lib/STM32F10x_StdPeriph_Driver/src/stm32f10x_usart.c ****   /* Check the parameters */
 451:stm32f10x_lib/STM32F10x_StdPeriph_Driver/src/stm32f10x_usart.c ****   assert_param(IS_USART_ALL_PERIPH(USARTx));
 785              		.loc 1 451 3 view .LVU210
 452:stm32f10x_lib/STM32F10x_StdPeriph_Driver/src/stm32f10x_usart.c ****   assert_param(IS_USART_DMAREQ(USART_DMAReq));  
 786              		.loc 1 452 3 view .LVU211
 453:stm32f10x_lib/STM32F10x_StdPeriph_Driver/src/stm32f10x_usart.c ****   assert_param(IS_FUNCTIONAL_STATE(NewState)); 
 787              		.loc 1 453 3 view .LVU212
 454:stm32f10x_lib/STM32F10x_StdPeriph_Driver/src/stm32f10x_usart.c ****   if (NewState != DISABLE)
 788              		.loc 1 454 3 view .LVU213
 789              	@ stm32f10x_lib/STM32F10x_StdPeriph_Driver/src/stm32f10x_usart.c:458:     USARTx->CR3 |= USART_DMAR
 455:stm32f10x_lib/STM32F10x_StdPeriph_Driver/src/stm32f10x_usart.c ****   {
 456:stm32f10x_lib/STM32F10x_StdPeriph_Driver/src/stm32f10x_usart.c ****     /* Enable the DMA transfer for selected requests by setting the DMAT and/or
 457:stm32f10x_lib/STM32F10x_StdPeriph_Driver/src/stm32f10x_usart.c ****        DMAR bits in the USART CR3 register */
 458:stm32f10x_lib/STM32F10x_StdPeriph_Driver/src/stm32f10x_usart.c ****     USARTx->CR3 |= USART_DMAReq;
 790              		.loc 1 458 17 is_stmt 0 view .LVU214
 791 01c8 838A     		ldrh	r3, [r0, #20]	@,
 792 01ca 9BB2     		uxth	r3, r3	@ _1, USARTx_9(D)->CR3
ARM GAS  C:\Users\ADMINI~1\AppData\Local\Temp\cc5w2WuM.s 			page 24


 793              	@ stm32f10x_lib/STM32F10x_StdPeriph_Driver/src/stm32f10x_usart.c:454:   if (NewState != DISABLE)
 454:stm32f10x_lib/STM32F10x_StdPeriph_Driver/src/stm32f10x_usart.c ****   if (NewState != DISABLE)
 794              		.loc 1 454 6 view .LVU215
 795 01cc 12B1     		cbz	r2, .L35	@ tmp133,
 796              		.loc 1 458 5 is_stmt 1 view .LVU216
 797              	@ stm32f10x_lib/STM32F10x_StdPeriph_Driver/src/stm32f10x_usart.c:458:     USARTx->CR3 |= USART_DMAR
 798              		.loc 1 458 17 is_stmt 0 view .LVU217
 799 01ce 1943     		orrs	r1, r1, r3	@, _2, USART_DMAReq, _1
 800              	.LVL61:
 801              	.L37:
 802              	@ stm32f10x_lib/STM32F10x_StdPeriph_Driver/src/stm32f10x_usart.c:464:     USARTx->CR3 &= (uint16_t)
 459:stm32f10x_lib/STM32F10x_StdPeriph_Driver/src/stm32f10x_usart.c ****   }
 460:stm32f10x_lib/STM32F10x_StdPeriph_Driver/src/stm32f10x_usart.c ****   else
 461:stm32f10x_lib/STM32F10x_StdPeriph_Driver/src/stm32f10x_usart.c ****   {
 462:stm32f10x_lib/STM32F10x_StdPeriph_Driver/src/stm32f10x_usart.c ****     /* Disable the DMA transfer for selected requests by clearing the DMAT and/or
 463:stm32f10x_lib/STM32F10x_StdPeriph_Driver/src/stm32f10x_usart.c ****        DMAR bits in the USART CR3 register */
 464:stm32f10x_lib/STM32F10x_StdPeriph_Driver/src/stm32f10x_usart.c ****     USARTx->CR3 &= (uint16_t)~USART_DMAReq;
 803              		.loc 1 464 17 view .LVU218
 804 01d0 8182     		strh	r1, [r0, #20]	@ movhi	@ _5,
 805              	@ stm32f10x_lib/STM32F10x_StdPeriph_Driver/src/stm32f10x_usart.c:466: }
 465:stm32f10x_lib/STM32F10x_StdPeriph_Driver/src/stm32f10x_usart.c ****   }
 466:stm32f10x_lib/STM32F10x_StdPeriph_Driver/src/stm32f10x_usart.c **** }
 806              		.loc 1 466 1 view .LVU219
 807 01d2 7047     		bx	lr	@
 808              	.LVL62:
 809              	.L35:
 464:stm32f10x_lib/STM32F10x_StdPeriph_Driver/src/stm32f10x_usart.c ****   }
 810              		.loc 1 464 5 is_stmt 1 view .LVU220
 811              	@ stm32f10x_lib/STM32F10x_StdPeriph_Driver/src/stm32f10x_usart.c:464:     USARTx->CR3 &= (uint16_t)
 464:stm32f10x_lib/STM32F10x_StdPeriph_Driver/src/stm32f10x_usart.c ****   }
 812              		.loc 1 464 17 is_stmt 0 view .LVU221
 813 01d4 23EA0101 		bic	r1, r3, r1	@ _5, _3, USART_DMAReq
 814              	.LVL63:
 464:stm32f10x_lib/STM32F10x_StdPeriph_Driver/src/stm32f10x_usart.c ****   }
 815              		.loc 1 464 17 view .LVU222
 816 01d8 FAE7     		b	.L37		@
 817              		.cfi_endproc
 818              	.LFE36:
 819              		.size	USART_DMACmd, .-USART_DMACmd
 820              		.align	1
 821              		.global	USART_SetAddress
 822              		.syntax unified
 823              		.thumb
 824              		.thumb_func
 825              		.type	USART_SetAddress, %function
 826              	USART_SetAddress:
 827              	.LVL64:
 828              	.LFB37:
 467:stm32f10x_lib/STM32F10x_StdPeriph_Driver/src/stm32f10x_usart.c **** 
 468:stm32f10x_lib/STM32F10x_StdPeriph_Driver/src/stm32f10x_usart.c **** /**
 469:stm32f10x_lib/STM32F10x_StdPeriph_Driver/src/stm32f10x_usart.c ****   * @brief  Sets the address of the USART node.
 470:stm32f10x_lib/STM32F10x_StdPeriph_Driver/src/stm32f10x_usart.c ****   * @param  USARTx: Select the USART or the UART peripheral. 
 471:stm32f10x_lib/STM32F10x_StdPeriph_Driver/src/stm32f10x_usart.c ****   *   This parameter can be one of the following values:
 472:stm32f10x_lib/STM32F10x_StdPeriph_Driver/src/stm32f10x_usart.c ****   *   USART1, USART2, USART3, UART4 or UART5.
 473:stm32f10x_lib/STM32F10x_StdPeriph_Driver/src/stm32f10x_usart.c ****   * @param  USART_Address: Indicates the address of the USART node.
 474:stm32f10x_lib/STM32F10x_StdPeriph_Driver/src/stm32f10x_usart.c ****   * @retval None
 475:stm32f10x_lib/STM32F10x_StdPeriph_Driver/src/stm32f10x_usart.c ****   */
ARM GAS  C:\Users\ADMINI~1\AppData\Local\Temp\cc5w2WuM.s 			page 25


 476:stm32f10x_lib/STM32F10x_StdPeriph_Driver/src/stm32f10x_usart.c **** void USART_SetAddress(USART_TypeDef* USARTx, uint8_t USART_Address)
 477:stm32f10x_lib/STM32F10x_StdPeriph_Driver/src/stm32f10x_usart.c **** {
 829              		.loc 1 477 1 is_stmt 1 view -0
 830              		.cfi_startproc
 831              		@ args = 0, pretend = 0, frame = 0
 832              		@ frame_needed = 0, uses_anonymous_args = 0
 833              		@ link register save eliminated.
 478:stm32f10x_lib/STM32F10x_StdPeriph_Driver/src/stm32f10x_usart.c ****   /* Check the parameters */
 479:stm32f10x_lib/STM32F10x_StdPeriph_Driver/src/stm32f10x_usart.c ****   assert_param(IS_USART_ALL_PERIPH(USARTx));
 834              		.loc 1 479 3 view .LVU224
 480:stm32f10x_lib/STM32F10x_StdPeriph_Driver/src/stm32f10x_usart.c ****   assert_param(IS_USART_ADDRESS(USART_Address)); 
 835              		.loc 1 480 3 view .LVU225
 481:stm32f10x_lib/STM32F10x_StdPeriph_Driver/src/stm32f10x_usart.c ****     
 482:stm32f10x_lib/STM32F10x_StdPeriph_Driver/src/stm32f10x_usart.c ****   /* Clear the USART address */
 483:stm32f10x_lib/STM32F10x_StdPeriph_Driver/src/stm32f10x_usart.c ****   USARTx->CR2 &= CR2_Address_Mask;
 836              		.loc 1 483 3 view .LVU226
 837              	@ stm32f10x_lib/STM32F10x_StdPeriph_Driver/src/stm32f10x_usart.c:483:   USARTx->CR2 &= CR2_Address_
 838              		.loc 1 483 15 is_stmt 0 view .LVU227
 839 01da 038A     		ldrh	r3, [r0, #16]	@, USARTx_7(D)->CR2
 840 01dc 23F00F03 		bic	r3, r3, #15	@ _2, USARTx_7(D)->CR2,
 841 01e0 1B04     		lsls	r3, r3, #16	@ _2, _2,
 842 01e2 1B0C     		lsrs	r3, r3, #16	@ _2, _2,
 843 01e4 0382     		strh	r3, [r0, #16]	@ movhi	@ _2, USARTx_7(D)->CR2
 484:stm32f10x_lib/STM32F10x_StdPeriph_Driver/src/stm32f10x_usart.c ****   /* Set the USART address node */
 485:stm32f10x_lib/STM32F10x_StdPeriph_Driver/src/stm32f10x_usart.c ****   USARTx->CR2 |= USART_Address;
 844              		.loc 1 485 3 is_stmt 1 view .LVU228
 845              	@ stm32f10x_lib/STM32F10x_StdPeriph_Driver/src/stm32f10x_usart.c:485:   USARTx->CR2 |= USART_Addres
 846              		.loc 1 485 15 is_stmt 0 view .LVU229
 847 01e6 038A     		ldrh	r3, [r0, #16]	@, USARTx_7(D)->CR2
 848 01e8 9BB2     		uxth	r3, r3	@ _3, USARTx_7(D)->CR2
 849 01ea 0B43     		orrs	r3, r3, r1	@, _5, _3, tmp130
 850 01ec 0382     		strh	r3, [r0, #16]	@ movhi	@ _5, USARTx_7(D)->CR2
 851              	@ stm32f10x_lib/STM32F10x_StdPeriph_Driver/src/stm32f10x_usart.c:486: }
 486:stm32f10x_lib/STM32F10x_StdPeriph_Driver/src/stm32f10x_usart.c **** }
 852              		.loc 1 486 1 view .LVU230
 853 01ee 7047     		bx	lr	@
 854              		.cfi_endproc
 855              	.LFE37:
 856              		.size	USART_SetAddress, .-USART_SetAddress
 857              		.align	1
 858              		.global	USART_WakeUpConfig
 859              		.syntax unified
 860              		.thumb
 861              		.thumb_func
 862              		.type	USART_WakeUpConfig, %function
 863              	USART_WakeUpConfig:
 864              	.LVL65:
 865              	.LFB38:
 487:stm32f10x_lib/STM32F10x_StdPeriph_Driver/src/stm32f10x_usart.c **** 
 488:stm32f10x_lib/STM32F10x_StdPeriph_Driver/src/stm32f10x_usart.c **** /**
 489:stm32f10x_lib/STM32F10x_StdPeriph_Driver/src/stm32f10x_usart.c ****   * @brief  Selects the USART WakeUp method.
 490:stm32f10x_lib/STM32F10x_StdPeriph_Driver/src/stm32f10x_usart.c ****   * @param  USARTx: Select the USART or the UART peripheral. 
 491:stm32f10x_lib/STM32F10x_StdPeriph_Driver/src/stm32f10x_usart.c ****   *   This parameter can be one of the following values:
 492:stm32f10x_lib/STM32F10x_StdPeriph_Driver/src/stm32f10x_usart.c ****   *   USART1, USART2, USART3, UART4 or UART5.
 493:stm32f10x_lib/STM32F10x_StdPeriph_Driver/src/stm32f10x_usart.c ****   * @param  USART_WakeUp: specifies the USART wakeup method.
 494:stm32f10x_lib/STM32F10x_StdPeriph_Driver/src/stm32f10x_usart.c ****   *   This parameter can be one of the following values:
 495:stm32f10x_lib/STM32F10x_StdPeriph_Driver/src/stm32f10x_usart.c ****   *     @arg USART_WakeUp_IdleLine: WakeUp by an idle line detection
ARM GAS  C:\Users\ADMINI~1\AppData\Local\Temp\cc5w2WuM.s 			page 26


 496:stm32f10x_lib/STM32F10x_StdPeriph_Driver/src/stm32f10x_usart.c ****   *     @arg USART_WakeUp_AddressMark: WakeUp by an address mark
 497:stm32f10x_lib/STM32F10x_StdPeriph_Driver/src/stm32f10x_usart.c ****   * @retval None
 498:stm32f10x_lib/STM32F10x_StdPeriph_Driver/src/stm32f10x_usart.c ****   */
 499:stm32f10x_lib/STM32F10x_StdPeriph_Driver/src/stm32f10x_usart.c **** void USART_WakeUpConfig(USART_TypeDef* USARTx, uint16_t USART_WakeUp)
 500:stm32f10x_lib/STM32F10x_StdPeriph_Driver/src/stm32f10x_usart.c **** {
 866              		.loc 1 500 1 is_stmt 1 view -0
 867              		.cfi_startproc
 868              		@ args = 0, pretend = 0, frame = 0
 869              		@ frame_needed = 0, uses_anonymous_args = 0
 870              		@ link register save eliminated.
 501:stm32f10x_lib/STM32F10x_StdPeriph_Driver/src/stm32f10x_usart.c ****   /* Check the parameters */
 502:stm32f10x_lib/STM32F10x_StdPeriph_Driver/src/stm32f10x_usart.c ****   assert_param(IS_USART_ALL_PERIPH(USARTx));
 871              		.loc 1 502 3 view .LVU232
 503:stm32f10x_lib/STM32F10x_StdPeriph_Driver/src/stm32f10x_usart.c ****   assert_param(IS_USART_WAKEUP(USART_WakeUp));
 872              		.loc 1 503 3 view .LVU233
 504:stm32f10x_lib/STM32F10x_StdPeriph_Driver/src/stm32f10x_usart.c ****   
 505:stm32f10x_lib/STM32F10x_StdPeriph_Driver/src/stm32f10x_usart.c ****   USARTx->CR1 &= CR1_WAKE_Mask;
 873              		.loc 1 505 3 view .LVU234
 874              	@ stm32f10x_lib/STM32F10x_StdPeriph_Driver/src/stm32f10x_usart.c:505:   USARTx->CR1 &= CR1_WAKE_Mas
 875              		.loc 1 505 15 is_stmt 0 view .LVU235
 876 01f0 8389     		ldrh	r3, [r0, #12]	@, USARTx_6(D)->CR1
 877 01f2 23F40063 		bic	r3, r3, #2048	@ _2, USARTx_6(D)->CR1,
 878 01f6 1B04     		lsls	r3, r3, #16	@ _2, _2,
 879 01f8 1B0C     		lsrs	r3, r3, #16	@ _2, _2,
 880 01fa 8381     		strh	r3, [r0, #12]	@ movhi	@ _2, USARTx_6(D)->CR1
 506:stm32f10x_lib/STM32F10x_StdPeriph_Driver/src/stm32f10x_usart.c ****   USARTx->CR1 |= USART_WakeUp;
 881              		.loc 1 506 3 is_stmt 1 view .LVU236
 882              	@ stm32f10x_lib/STM32F10x_StdPeriph_Driver/src/stm32f10x_usart.c:506:   USARTx->CR1 |= USART_WakeUp
 883              		.loc 1 506 15 is_stmt 0 view .LVU237
 884 01fc 8389     		ldrh	r3, [r0, #12]	@, USARTx_6(D)->CR1
 885 01fe 9BB2     		uxth	r3, r3	@ _3, USARTx_6(D)->CR1
 886 0200 0B43     		orrs	r3, r3, r1	@, _4, _3, tmp128
 887 0202 8381     		strh	r3, [r0, #12]	@ movhi	@ _4, USARTx_6(D)->CR1
 888              	@ stm32f10x_lib/STM32F10x_StdPeriph_Driver/src/stm32f10x_usart.c:507: }
 507:stm32f10x_lib/STM32F10x_StdPeriph_Driver/src/stm32f10x_usart.c **** }
 889              		.loc 1 507 1 view .LVU238
 890 0204 7047     		bx	lr	@
 891              		.cfi_endproc
 892              	.LFE38:
 893              		.size	USART_WakeUpConfig, .-USART_WakeUpConfig
 894              		.align	1
 895              		.global	USART_ReceiverWakeUpCmd
 896              		.syntax unified
 897              		.thumb
 898              		.thumb_func
 899              		.type	USART_ReceiverWakeUpCmd, %function
 900              	USART_ReceiverWakeUpCmd:
 901              	.LVL66:
 902              	.LFB39:
 508:stm32f10x_lib/STM32F10x_StdPeriph_Driver/src/stm32f10x_usart.c **** 
 509:stm32f10x_lib/STM32F10x_StdPeriph_Driver/src/stm32f10x_usart.c **** /**
 510:stm32f10x_lib/STM32F10x_StdPeriph_Driver/src/stm32f10x_usart.c ****   * @brief  Determines if the USART is in mute mode or not.
 511:stm32f10x_lib/STM32F10x_StdPeriph_Driver/src/stm32f10x_usart.c ****   * @param  USARTx: Select the USART or the UART peripheral. 
 512:stm32f10x_lib/STM32F10x_StdPeriph_Driver/src/stm32f10x_usart.c ****   *   This parameter can be one of the following values:
 513:stm32f10x_lib/STM32F10x_StdPeriph_Driver/src/stm32f10x_usart.c ****   *   USART1, USART2, USART3, UART4 or UART5.
 514:stm32f10x_lib/STM32F10x_StdPeriph_Driver/src/stm32f10x_usart.c ****   * @param  NewState: new state of the USART mute mode.
 515:stm32f10x_lib/STM32F10x_StdPeriph_Driver/src/stm32f10x_usart.c ****   *   This parameter can be: ENABLE or DISABLE.
ARM GAS  C:\Users\ADMINI~1\AppData\Local\Temp\cc5w2WuM.s 			page 27


 516:stm32f10x_lib/STM32F10x_StdPeriph_Driver/src/stm32f10x_usart.c ****   * @retval None
 517:stm32f10x_lib/STM32F10x_StdPeriph_Driver/src/stm32f10x_usart.c ****   */
 518:stm32f10x_lib/STM32F10x_StdPeriph_Driver/src/stm32f10x_usart.c **** void USART_ReceiverWakeUpCmd(USART_TypeDef* USARTx, FunctionalState NewState)
 519:stm32f10x_lib/STM32F10x_StdPeriph_Driver/src/stm32f10x_usart.c **** {
 903              		.loc 1 519 1 is_stmt 1 view -0
 904              		.cfi_startproc
 905              		@ args = 0, pretend = 0, frame = 0
 906              		@ frame_needed = 0, uses_anonymous_args = 0
 907              		@ link register save eliminated.
 520:stm32f10x_lib/STM32F10x_StdPeriph_Driver/src/stm32f10x_usart.c ****   /* Check the parameters */
 521:stm32f10x_lib/STM32F10x_StdPeriph_Driver/src/stm32f10x_usart.c ****   assert_param(IS_USART_ALL_PERIPH(USARTx));
 908              		.loc 1 521 3 view .LVU240
 522:stm32f10x_lib/STM32F10x_StdPeriph_Driver/src/stm32f10x_usart.c ****   assert_param(IS_FUNCTIONAL_STATE(NewState)); 
 909              		.loc 1 522 3 view .LVU241
 523:stm32f10x_lib/STM32F10x_StdPeriph_Driver/src/stm32f10x_usart.c ****   
 524:stm32f10x_lib/STM32F10x_StdPeriph_Driver/src/stm32f10x_usart.c ****   if (NewState != DISABLE)
 910              		.loc 1 524 3 view .LVU242
 911              	@ stm32f10x_lib/STM32F10x_StdPeriph_Driver/src/stm32f10x_usart.c:527:     USARTx->CR1 |= CR1_RWU_Se
 525:stm32f10x_lib/STM32F10x_StdPeriph_Driver/src/stm32f10x_usart.c ****   {
 526:stm32f10x_lib/STM32F10x_StdPeriph_Driver/src/stm32f10x_usart.c ****     /* Enable the USART mute mode  by setting the RWU bit in the CR1 register */
 527:stm32f10x_lib/STM32F10x_StdPeriph_Driver/src/stm32f10x_usart.c ****     USARTx->CR1 |= CR1_RWU_Set;
 912              		.loc 1 527 17 is_stmt 0 view .LVU243
 913 0206 8389     		ldrh	r3, [r0, #12]	@,
 914              	@ stm32f10x_lib/STM32F10x_StdPeriph_Driver/src/stm32f10x_usart.c:524:   if (NewState != DISABLE)
 524:stm32f10x_lib/STM32F10x_StdPeriph_Driver/src/stm32f10x_usart.c ****   {
 915              		.loc 1 524 6 view .LVU244
 916 0208 21B1     		cbz	r1, .L41	@ tmp128,
 917              		.loc 1 527 5 is_stmt 1 view .LVU245
 918              	@ stm32f10x_lib/STM32F10x_StdPeriph_Driver/src/stm32f10x_usart.c:527:     USARTx->CR1 |= CR1_RWU_Se
 919              		.loc 1 527 17 is_stmt 0 view .LVU246
 920 020a 9BB2     		uxth	r3, r3	@ _1, USARTx_8(D)->CR1
 921 020c 43F00203 		orr	r3, r3, #2	@ _2, _1,
 922              	.L43:
 923              	@ stm32f10x_lib/STM32F10x_StdPeriph_Driver/src/stm32f10x_usart.c:532:     USARTx->CR1 &= CR1_RWU_Re
 528:stm32f10x_lib/STM32F10x_StdPeriph_Driver/src/stm32f10x_usart.c ****   }
 529:stm32f10x_lib/STM32F10x_StdPeriph_Driver/src/stm32f10x_usart.c ****   else
 530:stm32f10x_lib/STM32F10x_StdPeriph_Driver/src/stm32f10x_usart.c ****   {
 531:stm32f10x_lib/STM32F10x_StdPeriph_Driver/src/stm32f10x_usart.c ****     /* Disable the USART mute mode by clearing the RWU bit in the CR1 register */
 532:stm32f10x_lib/STM32F10x_StdPeriph_Driver/src/stm32f10x_usart.c ****     USARTx->CR1 &= CR1_RWU_Reset;
 924              		.loc 1 532 17 view .LVU247
 925 0210 8381     		strh	r3, [r0, #12]	@ movhi	@ _4,
 926              	@ stm32f10x_lib/STM32F10x_StdPeriph_Driver/src/stm32f10x_usart.c:534: }
 533:stm32f10x_lib/STM32F10x_StdPeriph_Driver/src/stm32f10x_usart.c ****   }
 534:stm32f10x_lib/STM32F10x_StdPeriph_Driver/src/stm32f10x_usart.c **** }
 927              		.loc 1 534 1 view .LVU248
 928 0212 7047     		bx	lr	@
 929              	.L41:
 532:stm32f10x_lib/STM32F10x_StdPeriph_Driver/src/stm32f10x_usart.c ****   }
 930              		.loc 1 532 5 is_stmt 1 view .LVU249
 931              	@ stm32f10x_lib/STM32F10x_StdPeriph_Driver/src/stm32f10x_usart.c:532:     USARTx->CR1 &= CR1_RWU_Re
 532:stm32f10x_lib/STM32F10x_StdPeriph_Driver/src/stm32f10x_usart.c ****   }
 932              		.loc 1 532 17 is_stmt 0 view .LVU250
 933 0214 23F00203 		bic	r3, r3, #2	@ _4, USARTx_8(D)->CR1,
 934 0218 1B04     		lsls	r3, r3, #16	@ _4, _4,
 935 021a 1B0C     		lsrs	r3, r3, #16	@ _4, _4,
 936 021c F8E7     		b	.L43		@
 937              		.cfi_endproc
ARM GAS  C:\Users\ADMINI~1\AppData\Local\Temp\cc5w2WuM.s 			page 28


 938              	.LFE39:
 939              		.size	USART_ReceiverWakeUpCmd, .-USART_ReceiverWakeUpCmd
 940              		.align	1
 941              		.global	USART_LINBreakDetectLengthConfig
 942              		.syntax unified
 943              		.thumb
 944              		.thumb_func
 945              		.type	USART_LINBreakDetectLengthConfig, %function
 946              	USART_LINBreakDetectLengthConfig:
 947              	.LVL67:
 948              	.LFB40:
 535:stm32f10x_lib/STM32F10x_StdPeriph_Driver/src/stm32f10x_usart.c **** 
 536:stm32f10x_lib/STM32F10x_StdPeriph_Driver/src/stm32f10x_usart.c **** /**
 537:stm32f10x_lib/STM32F10x_StdPeriph_Driver/src/stm32f10x_usart.c ****   * @brief  Sets the USART LIN Break detection length.
 538:stm32f10x_lib/STM32F10x_StdPeriph_Driver/src/stm32f10x_usart.c ****   * @param  USARTx: Select the USART or the UART peripheral. 
 539:stm32f10x_lib/STM32F10x_StdPeriph_Driver/src/stm32f10x_usart.c ****   *   This parameter can be one of the following values:
 540:stm32f10x_lib/STM32F10x_StdPeriph_Driver/src/stm32f10x_usart.c ****   *   USART1, USART2, USART3, UART4 or UART5.
 541:stm32f10x_lib/STM32F10x_StdPeriph_Driver/src/stm32f10x_usart.c ****   * @param  USART_LINBreakDetectLength: specifies the LIN break detection length.
 542:stm32f10x_lib/STM32F10x_StdPeriph_Driver/src/stm32f10x_usart.c ****   *   This parameter can be one of the following values:
 543:stm32f10x_lib/STM32F10x_StdPeriph_Driver/src/stm32f10x_usart.c ****   *     @arg USART_LINBreakDetectLength_10b: 10-bit break detection
 544:stm32f10x_lib/STM32F10x_StdPeriph_Driver/src/stm32f10x_usart.c ****   *     @arg USART_LINBreakDetectLength_11b: 11-bit break detection
 545:stm32f10x_lib/STM32F10x_StdPeriph_Driver/src/stm32f10x_usart.c ****   * @retval None
 546:stm32f10x_lib/STM32F10x_StdPeriph_Driver/src/stm32f10x_usart.c ****   */
 547:stm32f10x_lib/STM32F10x_StdPeriph_Driver/src/stm32f10x_usart.c **** void USART_LINBreakDetectLengthConfig(USART_TypeDef* USARTx, uint16_t USART_LINBreakDetectLength)
 548:stm32f10x_lib/STM32F10x_StdPeriph_Driver/src/stm32f10x_usart.c **** {
 949              		.loc 1 548 1 is_stmt 1 view -0
 950              		.cfi_startproc
 951              		@ args = 0, pretend = 0, frame = 0
 952              		@ frame_needed = 0, uses_anonymous_args = 0
 953              		@ link register save eliminated.
 549:stm32f10x_lib/STM32F10x_StdPeriph_Driver/src/stm32f10x_usart.c ****   /* Check the parameters */
 550:stm32f10x_lib/STM32F10x_StdPeriph_Driver/src/stm32f10x_usart.c ****   assert_param(IS_USART_ALL_PERIPH(USARTx));
 954              		.loc 1 550 3 view .LVU252
 551:stm32f10x_lib/STM32F10x_StdPeriph_Driver/src/stm32f10x_usart.c ****   assert_param(IS_USART_LIN_BREAK_DETECT_LENGTH(USART_LINBreakDetectLength));
 955              		.loc 1 551 3 view .LVU253
 552:stm32f10x_lib/STM32F10x_StdPeriph_Driver/src/stm32f10x_usart.c ****   
 553:stm32f10x_lib/STM32F10x_StdPeriph_Driver/src/stm32f10x_usart.c ****   USARTx->CR2 &= CR2_LBDL_Mask;
 956              		.loc 1 553 3 view .LVU254
 957              	@ stm32f10x_lib/STM32F10x_StdPeriph_Driver/src/stm32f10x_usart.c:553:   USARTx->CR2 &= CR2_LBDL_Mas
 958              		.loc 1 553 15 is_stmt 0 view .LVU255
 959 021e 038A     		ldrh	r3, [r0, #16]	@, USARTx_6(D)->CR2
 960 0220 23F02003 		bic	r3, r3, #32	@ _2, USARTx_6(D)->CR2,
 961 0224 1B04     		lsls	r3, r3, #16	@ _2, _2,
 962 0226 1B0C     		lsrs	r3, r3, #16	@ _2, _2,
 963 0228 0382     		strh	r3, [r0, #16]	@ movhi	@ _2, USARTx_6(D)->CR2
 554:stm32f10x_lib/STM32F10x_StdPeriph_Driver/src/stm32f10x_usart.c ****   USARTx->CR2 |= USART_LINBreakDetectLength;  
 964              		.loc 1 554 3 is_stmt 1 view .LVU256
 965              	@ stm32f10x_lib/STM32F10x_StdPeriph_Driver/src/stm32f10x_usart.c:554:   USARTx->CR2 |= USART_LINBre
 966              		.loc 1 554 15 is_stmt 0 view .LVU257
 967 022a 038A     		ldrh	r3, [r0, #16]	@, USARTx_6(D)->CR2
 968 022c 9BB2     		uxth	r3, r3	@ _3, USARTx_6(D)->CR2
 969 022e 0B43     		orrs	r3, r3, r1	@, _4, _3, tmp128
 970 0230 0382     		strh	r3, [r0, #16]	@ movhi	@ _4, USARTx_6(D)->CR2
 971              	@ stm32f10x_lib/STM32F10x_StdPeriph_Driver/src/stm32f10x_usart.c:555: }
 555:stm32f10x_lib/STM32F10x_StdPeriph_Driver/src/stm32f10x_usart.c **** }
 972              		.loc 1 555 1 view .LVU258
 973 0232 7047     		bx	lr	@
ARM GAS  C:\Users\ADMINI~1\AppData\Local\Temp\cc5w2WuM.s 			page 29


 974              		.cfi_endproc
 975              	.LFE40:
 976              		.size	USART_LINBreakDetectLengthConfig, .-USART_LINBreakDetectLengthConfig
 977              		.align	1
 978              		.global	USART_LINCmd
 979              		.syntax unified
 980              		.thumb
 981              		.thumb_func
 982              		.type	USART_LINCmd, %function
 983              	USART_LINCmd:
 984              	.LVL68:
 985              	.LFB41:
 556:stm32f10x_lib/STM32F10x_StdPeriph_Driver/src/stm32f10x_usart.c **** 
 557:stm32f10x_lib/STM32F10x_StdPeriph_Driver/src/stm32f10x_usart.c **** /**
 558:stm32f10x_lib/STM32F10x_StdPeriph_Driver/src/stm32f10x_usart.c ****   * @brief  Enables or disables the USARTs LIN mode.
 559:stm32f10x_lib/STM32F10x_StdPeriph_Driver/src/stm32f10x_usart.c ****   * @param  USARTx: Select the USART or the UART peripheral. 
 560:stm32f10x_lib/STM32F10x_StdPeriph_Driver/src/stm32f10x_usart.c ****   *   This parameter can be one of the following values:
 561:stm32f10x_lib/STM32F10x_StdPeriph_Driver/src/stm32f10x_usart.c ****   *   USART1, USART2, USART3, UART4 or UART5.
 562:stm32f10x_lib/STM32F10x_StdPeriph_Driver/src/stm32f10x_usart.c ****   * @param  NewState: new state of the USART LIN mode.
 563:stm32f10x_lib/STM32F10x_StdPeriph_Driver/src/stm32f10x_usart.c ****   *   This parameter can be: ENABLE or DISABLE.
 564:stm32f10x_lib/STM32F10x_StdPeriph_Driver/src/stm32f10x_usart.c ****   * @retval None
 565:stm32f10x_lib/STM32F10x_StdPeriph_Driver/src/stm32f10x_usart.c ****   */
 566:stm32f10x_lib/STM32F10x_StdPeriph_Driver/src/stm32f10x_usart.c **** void USART_LINCmd(USART_TypeDef* USARTx, FunctionalState NewState)
 567:stm32f10x_lib/STM32F10x_StdPeriph_Driver/src/stm32f10x_usart.c **** {
 986              		.loc 1 567 1 is_stmt 1 view -0
 987              		.cfi_startproc
 988              		@ args = 0, pretend = 0, frame = 0
 989              		@ frame_needed = 0, uses_anonymous_args = 0
 990              		@ link register save eliminated.
 568:stm32f10x_lib/STM32F10x_StdPeriph_Driver/src/stm32f10x_usart.c ****   /* Check the parameters */
 569:stm32f10x_lib/STM32F10x_StdPeriph_Driver/src/stm32f10x_usart.c ****   assert_param(IS_USART_ALL_PERIPH(USARTx));
 991              		.loc 1 569 3 view .LVU260
 570:stm32f10x_lib/STM32F10x_StdPeriph_Driver/src/stm32f10x_usart.c ****   assert_param(IS_FUNCTIONAL_STATE(NewState));
 992              		.loc 1 570 3 view .LVU261
 571:stm32f10x_lib/STM32F10x_StdPeriph_Driver/src/stm32f10x_usart.c ****   
 572:stm32f10x_lib/STM32F10x_StdPeriph_Driver/src/stm32f10x_usart.c ****   if (NewState != DISABLE)
 993              		.loc 1 572 3 view .LVU262
 994              	@ stm32f10x_lib/STM32F10x_StdPeriph_Driver/src/stm32f10x_usart.c:575:     USARTx->CR2 |= CR2_LINEN_
 573:stm32f10x_lib/STM32F10x_StdPeriph_Driver/src/stm32f10x_usart.c ****   {
 574:stm32f10x_lib/STM32F10x_StdPeriph_Driver/src/stm32f10x_usart.c ****     /* Enable the LIN mode by setting the LINEN bit in the CR2 register */
 575:stm32f10x_lib/STM32F10x_StdPeriph_Driver/src/stm32f10x_usart.c ****     USARTx->CR2 |= CR2_LINEN_Set;
 995              		.loc 1 575 17 is_stmt 0 view .LVU263
 996 0234 038A     		ldrh	r3, [r0, #16]	@,
 997              	@ stm32f10x_lib/STM32F10x_StdPeriph_Driver/src/stm32f10x_usart.c:572:   if (NewState != DISABLE)
 572:stm32f10x_lib/STM32F10x_StdPeriph_Driver/src/stm32f10x_usart.c ****   {
 998              		.loc 1 572 6 view .LVU264
 999 0236 21B1     		cbz	r1, .L46	@ tmp128,
 1000              		.loc 1 575 5 is_stmt 1 view .LVU265
 1001              	@ stm32f10x_lib/STM32F10x_StdPeriph_Driver/src/stm32f10x_usart.c:575:     USARTx->CR2 |= CR2_LINEN_
 1002              		.loc 1 575 17 is_stmt 0 view .LVU266
 1003 0238 9BB2     		uxth	r3, r3	@ _1, USARTx_8(D)->CR2
 1004 023a 43F48043 		orr	r3, r3, #16384	@ _2, _1,
 1005              	.L48:
 1006              	@ stm32f10x_lib/STM32F10x_StdPeriph_Driver/src/stm32f10x_usart.c:580:     USARTx->CR2 &= CR2_LINEN_
 576:stm32f10x_lib/STM32F10x_StdPeriph_Driver/src/stm32f10x_usart.c ****   }
 577:stm32f10x_lib/STM32F10x_StdPeriph_Driver/src/stm32f10x_usart.c ****   else
 578:stm32f10x_lib/STM32F10x_StdPeriph_Driver/src/stm32f10x_usart.c ****   {
ARM GAS  C:\Users\ADMINI~1\AppData\Local\Temp\cc5w2WuM.s 			page 30


 579:stm32f10x_lib/STM32F10x_StdPeriph_Driver/src/stm32f10x_usart.c ****     /* Disable the LIN mode by clearing the LINEN bit in the CR2 register */
 580:stm32f10x_lib/STM32F10x_StdPeriph_Driver/src/stm32f10x_usart.c ****     USARTx->CR2 &= CR2_LINEN_Reset;
 1007              		.loc 1 580 17 view .LVU267
 1008 023e 0382     		strh	r3, [r0, #16]	@ movhi	@ _4,
 1009              	@ stm32f10x_lib/STM32F10x_StdPeriph_Driver/src/stm32f10x_usart.c:582: }
 581:stm32f10x_lib/STM32F10x_StdPeriph_Driver/src/stm32f10x_usart.c ****   }
 582:stm32f10x_lib/STM32F10x_StdPeriph_Driver/src/stm32f10x_usart.c **** }
 1010              		.loc 1 582 1 view .LVU268
 1011 0240 7047     		bx	lr	@
 1012              	.L46:
 580:stm32f10x_lib/STM32F10x_StdPeriph_Driver/src/stm32f10x_usart.c ****   }
 1013              		.loc 1 580 5 is_stmt 1 view .LVU269
 1014              	@ stm32f10x_lib/STM32F10x_StdPeriph_Driver/src/stm32f10x_usart.c:580:     USARTx->CR2 &= CR2_LINEN_
 580:stm32f10x_lib/STM32F10x_StdPeriph_Driver/src/stm32f10x_usart.c ****   }
 1015              		.loc 1 580 17 is_stmt 0 view .LVU270
 1016 0242 23F48043 		bic	r3, r3, #16384	@ _4, USARTx_8(D)->CR2,
 1017 0246 1B04     		lsls	r3, r3, #16	@ _4, _4,
 1018 0248 1B0C     		lsrs	r3, r3, #16	@ _4, _4,
 1019 024a F8E7     		b	.L48		@
 1020              		.cfi_endproc
 1021              	.LFE41:
 1022              		.size	USART_LINCmd, .-USART_LINCmd
 1023              		.align	1
 1024              		.global	USART_SendData
 1025              		.syntax unified
 1026              		.thumb
 1027              		.thumb_func
 1028              		.type	USART_SendData, %function
 1029              	USART_SendData:
 1030              	.LVL69:
 1031              	.LFB42:
 583:stm32f10x_lib/STM32F10x_StdPeriph_Driver/src/stm32f10x_usart.c **** 
 584:stm32f10x_lib/STM32F10x_StdPeriph_Driver/src/stm32f10x_usart.c **** /**
 585:stm32f10x_lib/STM32F10x_StdPeriph_Driver/src/stm32f10x_usart.c ****   * @brief  Transmits single data through the USARTx peripheral.
 586:stm32f10x_lib/STM32F10x_StdPeriph_Driver/src/stm32f10x_usart.c ****   * @param  USARTx: Select the USART or the UART peripheral. 
 587:stm32f10x_lib/STM32F10x_StdPeriph_Driver/src/stm32f10x_usart.c ****   *   This parameter can be one of the following values:
 588:stm32f10x_lib/STM32F10x_StdPeriph_Driver/src/stm32f10x_usart.c ****   *   USART1, USART2, USART3, UART4 or UART5.
 589:stm32f10x_lib/STM32F10x_StdPeriph_Driver/src/stm32f10x_usart.c ****   * @param  Data: the data to transmit.
 590:stm32f10x_lib/STM32F10x_StdPeriph_Driver/src/stm32f10x_usart.c ****   * @retval None
 591:stm32f10x_lib/STM32F10x_StdPeriph_Driver/src/stm32f10x_usart.c ****   */
 592:stm32f10x_lib/STM32F10x_StdPeriph_Driver/src/stm32f10x_usart.c **** void USART_SendData(USART_TypeDef* USARTx, uint16_t Data)
 593:stm32f10x_lib/STM32F10x_StdPeriph_Driver/src/stm32f10x_usart.c **** {
 1032              		.loc 1 593 1 is_stmt 1 view -0
 1033              		.cfi_startproc
 1034              		@ args = 0, pretend = 0, frame = 0
 1035              		@ frame_needed = 0, uses_anonymous_args = 0
 1036              		@ link register save eliminated.
 594:stm32f10x_lib/STM32F10x_StdPeriph_Driver/src/stm32f10x_usart.c ****   /* Check the parameters */
 595:stm32f10x_lib/STM32F10x_StdPeriph_Driver/src/stm32f10x_usart.c ****   assert_param(IS_USART_ALL_PERIPH(USARTx));
 1037              		.loc 1 595 3 view .LVU272
 596:stm32f10x_lib/STM32F10x_StdPeriph_Driver/src/stm32f10x_usart.c ****   assert_param(IS_USART_DATA(Data)); 
 1038              		.loc 1 596 3 view .LVU273
 597:stm32f10x_lib/STM32F10x_StdPeriph_Driver/src/stm32f10x_usart.c ****     
 598:stm32f10x_lib/STM32F10x_StdPeriph_Driver/src/stm32f10x_usart.c ****   /* Transmit Data */
 599:stm32f10x_lib/STM32F10x_StdPeriph_Driver/src/stm32f10x_usart.c ****   USARTx->DR = (Data & (uint16_t)0x01FF);
 1039              		.loc 1 599 3 view .LVU274
 1040              	@ stm32f10x_lib/STM32F10x_StdPeriph_Driver/src/stm32f10x_usart.c:599:   USARTx->DR = (Data & (uint1
ARM GAS  C:\Users\ADMINI~1\AppData\Local\Temp\cc5w2WuM.s 			page 31


 1041              		.loc 1 599 22 is_stmt 0 view .LVU275
 1042 024c C1F30801 		ubfx	r1, r1, #0, #9	@ _1, tmp120,,
 1043              	.LVL70:
 1044              	@ stm32f10x_lib/STM32F10x_StdPeriph_Driver/src/stm32f10x_usart.c:599:   USARTx->DR = (Data & (uint1
 1045              		.loc 1 599 14 view .LVU276
 1046 0250 8180     		strh	r1, [r0, #4]	@ movhi	@ _1, USARTx_4(D)->DR
 1047              	@ stm32f10x_lib/STM32F10x_StdPeriph_Driver/src/stm32f10x_usart.c:600: }
 600:stm32f10x_lib/STM32F10x_StdPeriph_Driver/src/stm32f10x_usart.c **** }
 1048              		.loc 1 600 1 view .LVU277
 1049 0252 7047     		bx	lr	@
 1050              		.cfi_endproc
 1051              	.LFE42:
 1052              		.size	USART_SendData, .-USART_SendData
 1053              		.align	1
 1054              		.global	USART_ReceiveData
 1055              		.syntax unified
 1056              		.thumb
 1057              		.thumb_func
 1058              		.type	USART_ReceiveData, %function
 1059              	USART_ReceiveData:
 1060              	.LVL71:
 1061              	.LFB43:
 601:stm32f10x_lib/STM32F10x_StdPeriph_Driver/src/stm32f10x_usart.c **** 
 602:stm32f10x_lib/STM32F10x_StdPeriph_Driver/src/stm32f10x_usart.c **** /**
 603:stm32f10x_lib/STM32F10x_StdPeriph_Driver/src/stm32f10x_usart.c ****   * @brief  Returns the most recent received data by the USARTx peripheral.
 604:stm32f10x_lib/STM32F10x_StdPeriph_Driver/src/stm32f10x_usart.c ****   * @param  USARTx: Select the USART or the UART peripheral. 
 605:stm32f10x_lib/STM32F10x_StdPeriph_Driver/src/stm32f10x_usart.c ****   *   This parameter can be one of the following values:
 606:stm32f10x_lib/STM32F10x_StdPeriph_Driver/src/stm32f10x_usart.c ****   *   USART1, USART2, USART3, UART4 or UART5.
 607:stm32f10x_lib/STM32F10x_StdPeriph_Driver/src/stm32f10x_usart.c ****   * @retval The received data.
 608:stm32f10x_lib/STM32F10x_StdPeriph_Driver/src/stm32f10x_usart.c ****   */
 609:stm32f10x_lib/STM32F10x_StdPeriph_Driver/src/stm32f10x_usart.c **** uint16_t USART_ReceiveData(USART_TypeDef* USARTx)
 610:stm32f10x_lib/STM32F10x_StdPeriph_Driver/src/stm32f10x_usart.c **** {
 1062              		.loc 1 610 1 is_stmt 1 view -0
 1063              		.cfi_startproc
 1064              		@ args = 0, pretend = 0, frame = 0
 1065              		@ frame_needed = 0, uses_anonymous_args = 0
 1066              		@ link register save eliminated.
 611:stm32f10x_lib/STM32F10x_StdPeriph_Driver/src/stm32f10x_usart.c ****   /* Check the parameters */
 612:stm32f10x_lib/STM32F10x_StdPeriph_Driver/src/stm32f10x_usart.c ****   assert_param(IS_USART_ALL_PERIPH(USARTx));
 1067              		.loc 1 612 3 view .LVU279
 613:stm32f10x_lib/STM32F10x_StdPeriph_Driver/src/stm32f10x_usart.c ****   
 614:stm32f10x_lib/STM32F10x_StdPeriph_Driver/src/stm32f10x_usart.c ****   /* Receive Data */
 615:stm32f10x_lib/STM32F10x_StdPeriph_Driver/src/stm32f10x_usart.c ****   return (uint16_t)(USARTx->DR & (uint16_t)0x01FF);
 1068              		.loc 1 615 3 view .LVU280
 1069              	@ stm32f10x_lib/STM32F10x_StdPeriph_Driver/src/stm32f10x_usart.c:615:   return (uint16_t)(USARTx->D
 1070              		.loc 1 615 27 is_stmt 0 view .LVU281
 1071 0254 8088     		ldrh	r0, [r0, #4]	@, USARTx_3(D)->DR
 1072              	.LVL72:
 1073              	@ stm32f10x_lib/STM32F10x_StdPeriph_Driver/src/stm32f10x_usart.c:616: }
 616:stm32f10x_lib/STM32F10x_StdPeriph_Driver/src/stm32f10x_usart.c **** }
 1074              		.loc 1 616 1 view .LVU282
 1075 0256 C0F30800 		ubfx	r0, r0, #0, #9	@, USARTx_3(D)->DR,,
 1076 025a 7047     		bx	lr	@
 1077              		.cfi_endproc
 1078              	.LFE43:
 1079              		.size	USART_ReceiveData, .-USART_ReceiveData
 1080              		.align	1
ARM GAS  C:\Users\ADMINI~1\AppData\Local\Temp\cc5w2WuM.s 			page 32


 1081              		.global	USART_SendBreak
 1082              		.syntax unified
 1083              		.thumb
 1084              		.thumb_func
 1085              		.type	USART_SendBreak, %function
 1086              	USART_SendBreak:
 1087              	.LVL73:
 1088              	.LFB44:
 617:stm32f10x_lib/STM32F10x_StdPeriph_Driver/src/stm32f10x_usart.c **** 
 618:stm32f10x_lib/STM32F10x_StdPeriph_Driver/src/stm32f10x_usart.c **** /**
 619:stm32f10x_lib/STM32F10x_StdPeriph_Driver/src/stm32f10x_usart.c ****   * @brief  Transmits break characters.
 620:stm32f10x_lib/STM32F10x_StdPeriph_Driver/src/stm32f10x_usart.c ****   * @param  USARTx: Select the USART or the UART peripheral. 
 621:stm32f10x_lib/STM32F10x_StdPeriph_Driver/src/stm32f10x_usart.c ****   *   This parameter can be one of the following values:
 622:stm32f10x_lib/STM32F10x_StdPeriph_Driver/src/stm32f10x_usart.c ****   *   USART1, USART2, USART3, UART4 or UART5.
 623:stm32f10x_lib/STM32F10x_StdPeriph_Driver/src/stm32f10x_usart.c ****   * @retval None
 624:stm32f10x_lib/STM32F10x_StdPeriph_Driver/src/stm32f10x_usart.c ****   */
 625:stm32f10x_lib/STM32F10x_StdPeriph_Driver/src/stm32f10x_usart.c **** void USART_SendBreak(USART_TypeDef* USARTx)
 626:stm32f10x_lib/STM32F10x_StdPeriph_Driver/src/stm32f10x_usart.c **** {
 1089              		.loc 1 626 1 is_stmt 1 view -0
 1090              		.cfi_startproc
 1091              		@ args = 0, pretend = 0, frame = 0
 1092              		@ frame_needed = 0, uses_anonymous_args = 0
 1093              		@ link register save eliminated.
 627:stm32f10x_lib/STM32F10x_StdPeriph_Driver/src/stm32f10x_usart.c ****   /* Check the parameters */
 628:stm32f10x_lib/STM32F10x_StdPeriph_Driver/src/stm32f10x_usart.c ****   assert_param(IS_USART_ALL_PERIPH(USARTx));
 1094              		.loc 1 628 3 view .LVU284
 629:stm32f10x_lib/STM32F10x_StdPeriph_Driver/src/stm32f10x_usart.c ****   
 630:stm32f10x_lib/STM32F10x_StdPeriph_Driver/src/stm32f10x_usart.c ****   /* Send break characters */
 631:stm32f10x_lib/STM32F10x_StdPeriph_Driver/src/stm32f10x_usart.c ****   USARTx->CR1 |= CR1_SBK_Set;
 1095              		.loc 1 631 3 view .LVU285
 1096              	@ stm32f10x_lib/STM32F10x_StdPeriph_Driver/src/stm32f10x_usart.c:631:   USARTx->CR1 |= CR1_SBK_Set;
 1097              		.loc 1 631 15 is_stmt 0 view .LVU286
 1098 025c 8389     		ldrh	r3, [r0, #12]	@, USARTx_4(D)->CR1
 1099 025e 9BB2     		uxth	r3, r3	@ _1, USARTx_4(D)->CR1
 1100 0260 43F00103 		orr	r3, r3, #1	@ _2, _1,
 1101 0264 8381     		strh	r3, [r0, #12]	@ movhi	@ _2, USARTx_4(D)->CR1
 1102              	@ stm32f10x_lib/STM32F10x_StdPeriph_Driver/src/stm32f10x_usart.c:632: }
 632:stm32f10x_lib/STM32F10x_StdPeriph_Driver/src/stm32f10x_usart.c **** }
 1103              		.loc 1 632 1 view .LVU287
 1104 0266 7047     		bx	lr	@
 1105              		.cfi_endproc
 1106              	.LFE44:
 1107              		.size	USART_SendBreak, .-USART_SendBreak
 1108              		.align	1
 1109              		.global	USART_SetGuardTime
 1110              		.syntax unified
 1111              		.thumb
 1112              		.thumb_func
 1113              		.type	USART_SetGuardTime, %function
 1114              	USART_SetGuardTime:
 1115              	.LVL74:
 1116              	.LFB45:
 633:stm32f10x_lib/STM32F10x_StdPeriph_Driver/src/stm32f10x_usart.c **** 
 634:stm32f10x_lib/STM32F10x_StdPeriph_Driver/src/stm32f10x_usart.c **** /**
 635:stm32f10x_lib/STM32F10x_StdPeriph_Driver/src/stm32f10x_usart.c ****   * @brief  Sets the specified USART guard time.
 636:stm32f10x_lib/STM32F10x_StdPeriph_Driver/src/stm32f10x_usart.c ****   * @param  USARTx: where x can be 1, 2 or 3 to select the USART peripheral.
 637:stm32f10x_lib/STM32F10x_StdPeriph_Driver/src/stm32f10x_usart.c ****   * @param  USART_GuardTime: specifies the guard time.
ARM GAS  C:\Users\ADMINI~1\AppData\Local\Temp\cc5w2WuM.s 			page 33


 638:stm32f10x_lib/STM32F10x_StdPeriph_Driver/src/stm32f10x_usart.c ****   * @note The guard time bits are not available for UART4 and UART5.   
 639:stm32f10x_lib/STM32F10x_StdPeriph_Driver/src/stm32f10x_usart.c ****   * @retval None
 640:stm32f10x_lib/STM32F10x_StdPeriph_Driver/src/stm32f10x_usart.c ****   */
 641:stm32f10x_lib/STM32F10x_StdPeriph_Driver/src/stm32f10x_usart.c **** void USART_SetGuardTime(USART_TypeDef* USARTx, uint8_t USART_GuardTime)
 642:stm32f10x_lib/STM32F10x_StdPeriph_Driver/src/stm32f10x_usart.c **** {    
 1117              		.loc 1 642 1 is_stmt 1 view -0
 1118              		.cfi_startproc
 1119              		@ args = 0, pretend = 0, frame = 0
 1120              		@ frame_needed = 0, uses_anonymous_args = 0
 1121              		@ link register save eliminated.
 643:stm32f10x_lib/STM32F10x_StdPeriph_Driver/src/stm32f10x_usart.c ****   /* Check the parameters */
 644:stm32f10x_lib/STM32F10x_StdPeriph_Driver/src/stm32f10x_usart.c ****   assert_param(IS_USART_123_PERIPH(USARTx));
 1122              		.loc 1 644 3 view .LVU289
 645:stm32f10x_lib/STM32F10x_StdPeriph_Driver/src/stm32f10x_usart.c ****   
 646:stm32f10x_lib/STM32F10x_StdPeriph_Driver/src/stm32f10x_usart.c ****   /* Clear the USART Guard time */
 647:stm32f10x_lib/STM32F10x_StdPeriph_Driver/src/stm32f10x_usart.c ****   USARTx->GTPR &= GTPR_LSB_Mask;
 1123              		.loc 1 647 3 view .LVU290
 1124              	@ stm32f10x_lib/STM32F10x_StdPeriph_Driver/src/stm32f10x_usart.c:647:   USARTx->GTPR &= GTPR_LSB_Ma
 1125              		.loc 1 647 16 is_stmt 0 view .LVU291
 1126 0268 028B     		ldrh	r2, [r0, #24]	@, USARTx_8(D)->GTPR
 1127 026a D2B2     		uxtb	r2, r2	@ _2, USARTx_8(D)->GTPR
 1128 026c 0283     		strh	r2, [r0, #24]	@ movhi	@ _2, USARTx_8(D)->GTPR
 648:stm32f10x_lib/STM32F10x_StdPeriph_Driver/src/stm32f10x_usart.c ****   /* Set the USART guard time */
 649:stm32f10x_lib/STM32F10x_StdPeriph_Driver/src/stm32f10x_usart.c ****   USARTx->GTPR |= (uint16_t)((uint16_t)USART_GuardTime << 0x08);
 1129              		.loc 1 649 3 is_stmt 1 view .LVU292
 1130              	@ stm32f10x_lib/STM32F10x_StdPeriph_Driver/src/stm32f10x_usart.c:649:   USARTx->GTPR |= (uint16_t)(
 1131              		.loc 1 649 16 is_stmt 0 view .LVU293
 1132 026e 038B     		ldrh	r3, [r0, #24]	@, USARTx_8(D)->GTPR
 1133 0270 9BB2     		uxth	r3, r3	@ _3, USARTx_8(D)->GTPR
 1134 0272 43EA0123 		orr	r3, r3, r1, lsl #8	@ _6, _3, tmp133,
 1135 0276 0383     		strh	r3, [r0, #24]	@ movhi	@ _6, USARTx_8(D)->GTPR
 1136              	@ stm32f10x_lib/STM32F10x_StdPeriph_Driver/src/stm32f10x_usart.c:650: }
 650:stm32f10x_lib/STM32F10x_StdPeriph_Driver/src/stm32f10x_usart.c **** }
 1137              		.loc 1 650 1 view .LVU294
 1138 0278 7047     		bx	lr	@
 1139              		.cfi_endproc
 1140              	.LFE45:
 1141              		.size	USART_SetGuardTime, .-USART_SetGuardTime
 1142              		.align	1
 1143              		.global	USART_SetPrescaler
 1144              		.syntax unified
 1145              		.thumb
 1146              		.thumb_func
 1147              		.type	USART_SetPrescaler, %function
 1148              	USART_SetPrescaler:
 1149              	.LVL75:
 1150              	.LFB46:
 651:stm32f10x_lib/STM32F10x_StdPeriph_Driver/src/stm32f10x_usart.c **** 
 652:stm32f10x_lib/STM32F10x_StdPeriph_Driver/src/stm32f10x_usart.c **** /**
 653:stm32f10x_lib/STM32F10x_StdPeriph_Driver/src/stm32f10x_usart.c ****   * @brief  Sets the system clock prescaler.
 654:stm32f10x_lib/STM32F10x_StdPeriph_Driver/src/stm32f10x_usart.c ****   * @param  USARTx: Select the USART or the UART peripheral. 
 655:stm32f10x_lib/STM32F10x_StdPeriph_Driver/src/stm32f10x_usart.c ****   *   This parameter can be one of the following values:
 656:stm32f10x_lib/STM32F10x_StdPeriph_Driver/src/stm32f10x_usart.c ****   *   USART1, USART2, USART3, UART4 or UART5.
 657:stm32f10x_lib/STM32F10x_StdPeriph_Driver/src/stm32f10x_usart.c ****   * @param  USART_Prescaler: specifies the prescaler clock.  
 658:stm32f10x_lib/STM32F10x_StdPeriph_Driver/src/stm32f10x_usart.c ****   * @note   The function is used for IrDA mode with UART4 and UART5.
 659:stm32f10x_lib/STM32F10x_StdPeriph_Driver/src/stm32f10x_usart.c ****   * @retval None
 660:stm32f10x_lib/STM32F10x_StdPeriph_Driver/src/stm32f10x_usart.c ****   */
ARM GAS  C:\Users\ADMINI~1\AppData\Local\Temp\cc5w2WuM.s 			page 34


 661:stm32f10x_lib/STM32F10x_StdPeriph_Driver/src/stm32f10x_usart.c **** void USART_SetPrescaler(USART_TypeDef* USARTx, uint8_t USART_Prescaler)
 662:stm32f10x_lib/STM32F10x_StdPeriph_Driver/src/stm32f10x_usart.c **** { 
 1151              		.loc 1 662 1 is_stmt 1 view -0
 1152              		.cfi_startproc
 1153              		@ args = 0, pretend = 0, frame = 0
 1154              		@ frame_needed = 0, uses_anonymous_args = 0
 1155              		@ link register save eliminated.
 663:stm32f10x_lib/STM32F10x_StdPeriph_Driver/src/stm32f10x_usart.c ****   /* Check the parameters */
 664:stm32f10x_lib/STM32F10x_StdPeriph_Driver/src/stm32f10x_usart.c ****   assert_param(IS_USART_ALL_PERIPH(USARTx));
 1156              		.loc 1 664 3 view .LVU296
 665:stm32f10x_lib/STM32F10x_StdPeriph_Driver/src/stm32f10x_usart.c ****   
 666:stm32f10x_lib/STM32F10x_StdPeriph_Driver/src/stm32f10x_usart.c ****   /* Clear the USART prescaler */
 667:stm32f10x_lib/STM32F10x_StdPeriph_Driver/src/stm32f10x_usart.c ****   USARTx->GTPR &= GTPR_MSB_Mask;
 1157              		.loc 1 667 3 view .LVU297
 1158              	@ stm32f10x_lib/STM32F10x_StdPeriph_Driver/src/stm32f10x_usart.c:667:   USARTx->GTPR &= GTPR_MSB_Ma
 1159              		.loc 1 667 16 is_stmt 0 view .LVU298
 1160 027a 028B     		ldrh	r2, [r0, #24]	@, USARTx_7(D)->GTPR
 1161 027c 02F47F42 		and	r2, r2, #65280	@ _2, USARTx_7(D)->GTPR,
 1162 0280 0283     		strh	r2, [r0, #24]	@ movhi	@ _2, USARTx_7(D)->GTPR
 668:stm32f10x_lib/STM32F10x_StdPeriph_Driver/src/stm32f10x_usart.c ****   /* Set the USART prescaler */
 669:stm32f10x_lib/STM32F10x_StdPeriph_Driver/src/stm32f10x_usart.c ****   USARTx->GTPR |= USART_Prescaler;
 1163              		.loc 1 669 3 is_stmt 1 view .LVU299
 1164              	@ stm32f10x_lib/STM32F10x_StdPeriph_Driver/src/stm32f10x_usart.c:669:   USARTx->GTPR |= USART_Presc
 1165              		.loc 1 669 16 is_stmt 0 view .LVU300
 1166 0282 038B     		ldrh	r3, [r0, #24]	@, USARTx_7(D)->GTPR
 1167 0284 9BB2     		uxth	r3, r3	@ _3, USARTx_7(D)->GTPR
 1168 0286 0B43     		orrs	r3, r3, r1	@, _5, _3, tmp130
 1169 0288 0383     		strh	r3, [r0, #24]	@ movhi	@ _5, USARTx_7(D)->GTPR
 1170              	@ stm32f10x_lib/STM32F10x_StdPeriph_Driver/src/stm32f10x_usart.c:670: }
 670:stm32f10x_lib/STM32F10x_StdPeriph_Driver/src/stm32f10x_usart.c **** }
 1171              		.loc 1 670 1 view .LVU301
 1172 028a 7047     		bx	lr	@
 1173              		.cfi_endproc
 1174              	.LFE46:
 1175              		.size	USART_SetPrescaler, .-USART_SetPrescaler
 1176              		.align	1
 1177              		.global	USART_SmartCardCmd
 1178              		.syntax unified
 1179              		.thumb
 1180              		.thumb_func
 1181              		.type	USART_SmartCardCmd, %function
 1182              	USART_SmartCardCmd:
 1183              	.LVL76:
 1184              	.LFB47:
 671:stm32f10x_lib/STM32F10x_StdPeriph_Driver/src/stm32f10x_usart.c **** 
 672:stm32f10x_lib/STM32F10x_StdPeriph_Driver/src/stm32f10x_usart.c **** /**
 673:stm32f10x_lib/STM32F10x_StdPeriph_Driver/src/stm32f10x_usart.c ****   * @brief  Enables or disables the USARTs Smart Card mode.
 674:stm32f10x_lib/STM32F10x_StdPeriph_Driver/src/stm32f10x_usart.c ****   * @param  USARTx: where x can be 1, 2 or 3 to select the USART peripheral.
 675:stm32f10x_lib/STM32F10x_StdPeriph_Driver/src/stm32f10x_usart.c ****   * @param  NewState: new state of the Smart Card mode.
 676:stm32f10x_lib/STM32F10x_StdPeriph_Driver/src/stm32f10x_usart.c ****   *   This parameter can be: ENABLE or DISABLE.     
 677:stm32f10x_lib/STM32F10x_StdPeriph_Driver/src/stm32f10x_usart.c ****   * @note The Smart Card mode is not available for UART4 and UART5. 
 678:stm32f10x_lib/STM32F10x_StdPeriph_Driver/src/stm32f10x_usart.c ****   * @retval None
 679:stm32f10x_lib/STM32F10x_StdPeriph_Driver/src/stm32f10x_usart.c ****   */
 680:stm32f10x_lib/STM32F10x_StdPeriph_Driver/src/stm32f10x_usart.c **** void USART_SmartCardCmd(USART_TypeDef* USARTx, FunctionalState NewState)
 681:stm32f10x_lib/STM32F10x_StdPeriph_Driver/src/stm32f10x_usart.c **** {
 1185              		.loc 1 681 1 is_stmt 1 view -0
 1186              		.cfi_startproc
ARM GAS  C:\Users\ADMINI~1\AppData\Local\Temp\cc5w2WuM.s 			page 35


 1187              		@ args = 0, pretend = 0, frame = 0
 1188              		@ frame_needed = 0, uses_anonymous_args = 0
 1189              		@ link register save eliminated.
 682:stm32f10x_lib/STM32F10x_StdPeriph_Driver/src/stm32f10x_usart.c ****   /* Check the parameters */
 683:stm32f10x_lib/STM32F10x_StdPeriph_Driver/src/stm32f10x_usart.c ****   assert_param(IS_USART_123_PERIPH(USARTx));
 1190              		.loc 1 683 3 view .LVU303
 684:stm32f10x_lib/STM32F10x_StdPeriph_Driver/src/stm32f10x_usart.c ****   assert_param(IS_FUNCTIONAL_STATE(NewState));
 1191              		.loc 1 684 3 view .LVU304
 685:stm32f10x_lib/STM32F10x_StdPeriph_Driver/src/stm32f10x_usart.c ****   if (NewState != DISABLE)
 1192              		.loc 1 685 3 view .LVU305
 1193              	@ stm32f10x_lib/STM32F10x_StdPeriph_Driver/src/stm32f10x_usart.c:688:     USARTx->CR3 |= CR3_SCEN_S
 686:stm32f10x_lib/STM32F10x_StdPeriph_Driver/src/stm32f10x_usart.c ****   {
 687:stm32f10x_lib/STM32F10x_StdPeriph_Driver/src/stm32f10x_usart.c ****     /* Enable the SC mode by setting the SCEN bit in the CR3 register */
 688:stm32f10x_lib/STM32F10x_StdPeriph_Driver/src/stm32f10x_usart.c ****     USARTx->CR3 |= CR3_SCEN_Set;
 1194              		.loc 1 688 17 is_stmt 0 view .LVU306
 1195 028c 838A     		ldrh	r3, [r0, #20]	@,
 1196              	@ stm32f10x_lib/STM32F10x_StdPeriph_Driver/src/stm32f10x_usart.c:685:   if (NewState != DISABLE)
 685:stm32f10x_lib/STM32F10x_StdPeriph_Driver/src/stm32f10x_usart.c ****   if (NewState != DISABLE)
 1197              		.loc 1 685 6 view .LVU307
 1198 028e 21B1     		cbz	r1, .L55	@ tmp128,
 1199              		.loc 1 688 5 is_stmt 1 view .LVU308
 1200              	@ stm32f10x_lib/STM32F10x_StdPeriph_Driver/src/stm32f10x_usart.c:688:     USARTx->CR3 |= CR3_SCEN_S
 1201              		.loc 1 688 17 is_stmt 0 view .LVU309
 1202 0290 9BB2     		uxth	r3, r3	@ _1, USARTx_8(D)->CR3
 1203 0292 43F02003 		orr	r3, r3, #32	@ _2, _1,
 1204              	.L57:
 1205              	@ stm32f10x_lib/STM32F10x_StdPeriph_Driver/src/stm32f10x_usart.c:693:     USARTx->CR3 &= CR3_SCEN_R
 689:stm32f10x_lib/STM32F10x_StdPeriph_Driver/src/stm32f10x_usart.c ****   }
 690:stm32f10x_lib/STM32F10x_StdPeriph_Driver/src/stm32f10x_usart.c ****   else
 691:stm32f10x_lib/STM32F10x_StdPeriph_Driver/src/stm32f10x_usart.c ****   {
 692:stm32f10x_lib/STM32F10x_StdPeriph_Driver/src/stm32f10x_usart.c ****     /* Disable the SC mode by clearing the SCEN bit in the CR3 register */
 693:stm32f10x_lib/STM32F10x_StdPeriph_Driver/src/stm32f10x_usart.c ****     USARTx->CR3 &= CR3_SCEN_Reset;
 1206              		.loc 1 693 17 view .LVU310
 1207 0296 8382     		strh	r3, [r0, #20]	@ movhi	@ _4,
 1208              	@ stm32f10x_lib/STM32F10x_StdPeriph_Driver/src/stm32f10x_usart.c:695: }
 694:stm32f10x_lib/STM32F10x_StdPeriph_Driver/src/stm32f10x_usart.c ****   }
 695:stm32f10x_lib/STM32F10x_StdPeriph_Driver/src/stm32f10x_usart.c **** }
 1209              		.loc 1 695 1 view .LVU311
 1210 0298 7047     		bx	lr	@
 1211              	.L55:
 693:stm32f10x_lib/STM32F10x_StdPeriph_Driver/src/stm32f10x_usart.c ****   }
 1212              		.loc 1 693 5 is_stmt 1 view .LVU312
 1213              	@ stm32f10x_lib/STM32F10x_StdPeriph_Driver/src/stm32f10x_usart.c:693:     USARTx->CR3 &= CR3_SCEN_R
 693:stm32f10x_lib/STM32F10x_StdPeriph_Driver/src/stm32f10x_usart.c ****   }
 1214              		.loc 1 693 17 is_stmt 0 view .LVU313
 1215 029a 23F02003 		bic	r3, r3, #32	@ _4, USARTx_8(D)->CR3,
 1216 029e 1B04     		lsls	r3, r3, #16	@ _4, _4,
 1217 02a0 1B0C     		lsrs	r3, r3, #16	@ _4, _4,
 1218 02a2 F8E7     		b	.L57		@
 1219              		.cfi_endproc
 1220              	.LFE47:
 1221              		.size	USART_SmartCardCmd, .-USART_SmartCardCmd
 1222              		.align	1
 1223              		.global	USART_SmartCardNACKCmd
 1224              		.syntax unified
 1225              		.thumb
 1226              		.thumb_func
ARM GAS  C:\Users\ADMINI~1\AppData\Local\Temp\cc5w2WuM.s 			page 36


 1227              		.type	USART_SmartCardNACKCmd, %function
 1228              	USART_SmartCardNACKCmd:
 1229              	.LVL77:
 1230              	.LFB48:
 696:stm32f10x_lib/STM32F10x_StdPeriph_Driver/src/stm32f10x_usart.c **** 
 697:stm32f10x_lib/STM32F10x_StdPeriph_Driver/src/stm32f10x_usart.c **** /**
 698:stm32f10x_lib/STM32F10x_StdPeriph_Driver/src/stm32f10x_usart.c ****   * @brief  Enables or disables NACK transmission.
 699:stm32f10x_lib/STM32F10x_StdPeriph_Driver/src/stm32f10x_usart.c ****   * @param  USARTx: where x can be 1, 2 or 3 to select the USART peripheral. 
 700:stm32f10x_lib/STM32F10x_StdPeriph_Driver/src/stm32f10x_usart.c ****   * @param  NewState: new state of the NACK transmission.
 701:stm32f10x_lib/STM32F10x_StdPeriph_Driver/src/stm32f10x_usart.c ****   *   This parameter can be: ENABLE or DISABLE.  
 702:stm32f10x_lib/STM32F10x_StdPeriph_Driver/src/stm32f10x_usart.c ****   * @note The Smart Card mode is not available for UART4 and UART5.
 703:stm32f10x_lib/STM32F10x_StdPeriph_Driver/src/stm32f10x_usart.c ****   * @retval None
 704:stm32f10x_lib/STM32F10x_StdPeriph_Driver/src/stm32f10x_usart.c ****   */
 705:stm32f10x_lib/STM32F10x_StdPeriph_Driver/src/stm32f10x_usart.c **** void USART_SmartCardNACKCmd(USART_TypeDef* USARTx, FunctionalState NewState)
 706:stm32f10x_lib/STM32F10x_StdPeriph_Driver/src/stm32f10x_usart.c **** {
 1231              		.loc 1 706 1 is_stmt 1 view -0
 1232              		.cfi_startproc
 1233              		@ args = 0, pretend = 0, frame = 0
 1234              		@ frame_needed = 0, uses_anonymous_args = 0
 1235              		@ link register save eliminated.
 707:stm32f10x_lib/STM32F10x_StdPeriph_Driver/src/stm32f10x_usart.c ****   /* Check the parameters */
 708:stm32f10x_lib/STM32F10x_StdPeriph_Driver/src/stm32f10x_usart.c ****   assert_param(IS_USART_123_PERIPH(USARTx));  
 1236              		.loc 1 708 3 view .LVU315
 709:stm32f10x_lib/STM32F10x_StdPeriph_Driver/src/stm32f10x_usart.c ****   assert_param(IS_FUNCTIONAL_STATE(NewState));
 1237              		.loc 1 709 3 view .LVU316
 710:stm32f10x_lib/STM32F10x_StdPeriph_Driver/src/stm32f10x_usart.c ****   if (NewState != DISABLE)
 1238              		.loc 1 710 3 view .LVU317
 1239              	@ stm32f10x_lib/STM32F10x_StdPeriph_Driver/src/stm32f10x_usart.c:713:     USARTx->CR3 |= CR3_NACK_S
 711:stm32f10x_lib/STM32F10x_StdPeriph_Driver/src/stm32f10x_usart.c ****   {
 712:stm32f10x_lib/STM32F10x_StdPeriph_Driver/src/stm32f10x_usart.c ****     /* Enable the NACK transmission by setting the NACK bit in the CR3 register */
 713:stm32f10x_lib/STM32F10x_StdPeriph_Driver/src/stm32f10x_usart.c ****     USARTx->CR3 |= CR3_NACK_Set;
 1240              		.loc 1 713 17 is_stmt 0 view .LVU318
 1241 02a4 838A     		ldrh	r3, [r0, #20]	@,
 1242              	@ stm32f10x_lib/STM32F10x_StdPeriph_Driver/src/stm32f10x_usart.c:710:   if (NewState != DISABLE)
 710:stm32f10x_lib/STM32F10x_StdPeriph_Driver/src/stm32f10x_usart.c ****   if (NewState != DISABLE)
 1243              		.loc 1 710 6 view .LVU319
 1244 02a6 21B1     		cbz	r1, .L59	@ tmp128,
 1245              		.loc 1 713 5 is_stmt 1 view .LVU320
 1246              	@ stm32f10x_lib/STM32F10x_StdPeriph_Driver/src/stm32f10x_usart.c:713:     USARTx->CR3 |= CR3_NACK_S
 1247              		.loc 1 713 17 is_stmt 0 view .LVU321
 1248 02a8 9BB2     		uxth	r3, r3	@ _1, USARTx_8(D)->CR3
 1249 02aa 43F01003 		orr	r3, r3, #16	@ _2, _1,
 1250              	.L61:
 1251              	@ stm32f10x_lib/STM32F10x_StdPeriph_Driver/src/stm32f10x_usart.c:718:     USARTx->CR3 &= CR3_NACK_R
 714:stm32f10x_lib/STM32F10x_StdPeriph_Driver/src/stm32f10x_usart.c ****   }
 715:stm32f10x_lib/STM32F10x_StdPeriph_Driver/src/stm32f10x_usart.c ****   else
 716:stm32f10x_lib/STM32F10x_StdPeriph_Driver/src/stm32f10x_usart.c ****   {
 717:stm32f10x_lib/STM32F10x_StdPeriph_Driver/src/stm32f10x_usart.c ****     /* Disable the NACK transmission by clearing the NACK bit in the CR3 register */
 718:stm32f10x_lib/STM32F10x_StdPeriph_Driver/src/stm32f10x_usart.c ****     USARTx->CR3 &= CR3_NACK_Reset;
 1252              		.loc 1 718 17 view .LVU322
 1253 02ae 8382     		strh	r3, [r0, #20]	@ movhi	@ _4,
 1254              	@ stm32f10x_lib/STM32F10x_StdPeriph_Driver/src/stm32f10x_usart.c:720: }
 719:stm32f10x_lib/STM32F10x_StdPeriph_Driver/src/stm32f10x_usart.c ****   }
 720:stm32f10x_lib/STM32F10x_StdPeriph_Driver/src/stm32f10x_usart.c **** }
 1255              		.loc 1 720 1 view .LVU323
 1256 02b0 7047     		bx	lr	@
 1257              	.L59:
ARM GAS  C:\Users\ADMINI~1\AppData\Local\Temp\cc5w2WuM.s 			page 37


 718:stm32f10x_lib/STM32F10x_StdPeriph_Driver/src/stm32f10x_usart.c ****   }
 1258              		.loc 1 718 5 is_stmt 1 view .LVU324
 1259              	@ stm32f10x_lib/STM32F10x_StdPeriph_Driver/src/stm32f10x_usart.c:718:     USARTx->CR3 &= CR3_NACK_R
 718:stm32f10x_lib/STM32F10x_StdPeriph_Driver/src/stm32f10x_usart.c ****   }
 1260              		.loc 1 718 17 is_stmt 0 view .LVU325
 1261 02b2 23F01003 		bic	r3, r3, #16	@ _4, USARTx_8(D)->CR3,
 1262 02b6 1B04     		lsls	r3, r3, #16	@ _4, _4,
 1263 02b8 1B0C     		lsrs	r3, r3, #16	@ _4, _4,
 1264 02ba F8E7     		b	.L61		@
 1265              		.cfi_endproc
 1266              	.LFE48:
 1267              		.size	USART_SmartCardNACKCmd, .-USART_SmartCardNACKCmd
 1268              		.align	1
 1269              		.global	USART_HalfDuplexCmd
 1270              		.syntax unified
 1271              		.thumb
 1272              		.thumb_func
 1273              		.type	USART_HalfDuplexCmd, %function
 1274              	USART_HalfDuplexCmd:
 1275              	.LVL78:
 1276              	.LFB49:
 721:stm32f10x_lib/STM32F10x_StdPeriph_Driver/src/stm32f10x_usart.c **** 
 722:stm32f10x_lib/STM32F10x_StdPeriph_Driver/src/stm32f10x_usart.c **** /**
 723:stm32f10x_lib/STM32F10x_StdPeriph_Driver/src/stm32f10x_usart.c ****   * @brief  Enables or disables the USARTs Half Duplex communication.
 724:stm32f10x_lib/STM32F10x_StdPeriph_Driver/src/stm32f10x_usart.c ****   * @param  USARTx: Select the USART or the UART peripheral. 
 725:stm32f10x_lib/STM32F10x_StdPeriph_Driver/src/stm32f10x_usart.c ****   *   This parameter can be one of the following values:
 726:stm32f10x_lib/STM32F10x_StdPeriph_Driver/src/stm32f10x_usart.c ****   *   USART1, USART2, USART3, UART4 or UART5.
 727:stm32f10x_lib/STM32F10x_StdPeriph_Driver/src/stm32f10x_usart.c ****   * @param  NewState: new state of the USART Communication.
 728:stm32f10x_lib/STM32F10x_StdPeriph_Driver/src/stm32f10x_usart.c ****   *   This parameter can be: ENABLE or DISABLE.
 729:stm32f10x_lib/STM32F10x_StdPeriph_Driver/src/stm32f10x_usart.c ****   * @retval None
 730:stm32f10x_lib/STM32F10x_StdPeriph_Driver/src/stm32f10x_usart.c ****   */
 731:stm32f10x_lib/STM32F10x_StdPeriph_Driver/src/stm32f10x_usart.c **** void USART_HalfDuplexCmd(USART_TypeDef* USARTx, FunctionalState NewState)
 732:stm32f10x_lib/STM32F10x_StdPeriph_Driver/src/stm32f10x_usart.c **** {
 1277              		.loc 1 732 1 is_stmt 1 view -0
 1278              		.cfi_startproc
 1279              		@ args = 0, pretend = 0, frame = 0
 1280              		@ frame_needed = 0, uses_anonymous_args = 0
 1281              		@ link register save eliminated.
 733:stm32f10x_lib/STM32F10x_StdPeriph_Driver/src/stm32f10x_usart.c ****   /* Check the parameters */
 734:stm32f10x_lib/STM32F10x_StdPeriph_Driver/src/stm32f10x_usart.c ****   assert_param(IS_USART_ALL_PERIPH(USARTx));
 1282              		.loc 1 734 3 view .LVU327
 735:stm32f10x_lib/STM32F10x_StdPeriph_Driver/src/stm32f10x_usart.c ****   assert_param(IS_FUNCTIONAL_STATE(NewState));
 1283              		.loc 1 735 3 view .LVU328
 736:stm32f10x_lib/STM32F10x_StdPeriph_Driver/src/stm32f10x_usart.c ****   
 737:stm32f10x_lib/STM32F10x_StdPeriph_Driver/src/stm32f10x_usart.c ****   if (NewState != DISABLE)
 1284              		.loc 1 737 3 view .LVU329
 1285              	@ stm32f10x_lib/STM32F10x_StdPeriph_Driver/src/stm32f10x_usart.c:740:     USARTx->CR3 |= CR3_HDSEL_
 738:stm32f10x_lib/STM32F10x_StdPeriph_Driver/src/stm32f10x_usart.c ****   {
 739:stm32f10x_lib/STM32F10x_StdPeriph_Driver/src/stm32f10x_usart.c ****     /* Enable the Half-Duplex mode by setting the HDSEL bit in the CR3 register */
 740:stm32f10x_lib/STM32F10x_StdPeriph_Driver/src/stm32f10x_usart.c ****     USARTx->CR3 |= CR3_HDSEL_Set;
 1286              		.loc 1 740 17 is_stmt 0 view .LVU330
 1287 02bc 838A     		ldrh	r3, [r0, #20]	@,
 1288              	@ stm32f10x_lib/STM32F10x_StdPeriph_Driver/src/stm32f10x_usart.c:737:   if (NewState != DISABLE)
 737:stm32f10x_lib/STM32F10x_StdPeriph_Driver/src/stm32f10x_usart.c ****   {
 1289              		.loc 1 737 6 view .LVU331
 1290 02be 21B1     		cbz	r1, .L63	@ tmp128,
 1291              		.loc 1 740 5 is_stmt 1 view .LVU332
ARM GAS  C:\Users\ADMINI~1\AppData\Local\Temp\cc5w2WuM.s 			page 38


 1292              	@ stm32f10x_lib/STM32F10x_StdPeriph_Driver/src/stm32f10x_usart.c:740:     USARTx->CR3 |= CR3_HDSEL_
 1293              		.loc 1 740 17 is_stmt 0 view .LVU333
 1294 02c0 9BB2     		uxth	r3, r3	@ _1, USARTx_8(D)->CR3
 1295 02c2 43F00803 		orr	r3, r3, #8	@ _2, _1,
 1296              	.L65:
 1297              	@ stm32f10x_lib/STM32F10x_StdPeriph_Driver/src/stm32f10x_usart.c:745:     USARTx->CR3 &= CR3_HDSEL_
 741:stm32f10x_lib/STM32F10x_StdPeriph_Driver/src/stm32f10x_usart.c ****   }
 742:stm32f10x_lib/STM32F10x_StdPeriph_Driver/src/stm32f10x_usart.c ****   else
 743:stm32f10x_lib/STM32F10x_StdPeriph_Driver/src/stm32f10x_usart.c ****   {
 744:stm32f10x_lib/STM32F10x_StdPeriph_Driver/src/stm32f10x_usart.c ****     /* Disable the Half-Duplex mode by clearing the HDSEL bit in the CR3 register */
 745:stm32f10x_lib/STM32F10x_StdPeriph_Driver/src/stm32f10x_usart.c ****     USARTx->CR3 &= CR3_HDSEL_Reset;
 1298              		.loc 1 745 17 view .LVU334
 1299 02c6 8382     		strh	r3, [r0, #20]	@ movhi	@ _4,
 1300              	@ stm32f10x_lib/STM32F10x_StdPeriph_Driver/src/stm32f10x_usart.c:747: }
 746:stm32f10x_lib/STM32F10x_StdPeriph_Driver/src/stm32f10x_usart.c ****   }
 747:stm32f10x_lib/STM32F10x_StdPeriph_Driver/src/stm32f10x_usart.c **** }
 1301              		.loc 1 747 1 view .LVU335
 1302 02c8 7047     		bx	lr	@
 1303              	.L63:
 745:stm32f10x_lib/STM32F10x_StdPeriph_Driver/src/stm32f10x_usart.c ****   }
 1304              		.loc 1 745 5 is_stmt 1 view .LVU336
 1305              	@ stm32f10x_lib/STM32F10x_StdPeriph_Driver/src/stm32f10x_usart.c:745:     USARTx->CR3 &= CR3_HDSEL_
 745:stm32f10x_lib/STM32F10x_StdPeriph_Driver/src/stm32f10x_usart.c ****   }
 1306              		.loc 1 745 17 is_stmt 0 view .LVU337
 1307 02ca 23F00803 		bic	r3, r3, #8	@ _4, USARTx_8(D)->CR3,
 1308 02ce 1B04     		lsls	r3, r3, #16	@ _4, _4,
 1309 02d0 1B0C     		lsrs	r3, r3, #16	@ _4, _4,
 1310 02d2 F8E7     		b	.L65		@
 1311              		.cfi_endproc
 1312              	.LFE49:
 1313              		.size	USART_HalfDuplexCmd, .-USART_HalfDuplexCmd
 1314              		.align	1
 1315              		.global	USART_OverSampling8Cmd
 1316              		.syntax unified
 1317              		.thumb
 1318              		.thumb_func
 1319              		.type	USART_OverSampling8Cmd, %function
 1320              	USART_OverSampling8Cmd:
 1321              	.LVL79:
 1322              	.LFB50:
 748:stm32f10x_lib/STM32F10x_StdPeriph_Driver/src/stm32f10x_usart.c **** 
 749:stm32f10x_lib/STM32F10x_StdPeriph_Driver/src/stm32f10x_usart.c **** 
 750:stm32f10x_lib/STM32F10x_StdPeriph_Driver/src/stm32f10x_usart.c **** /**
 751:stm32f10x_lib/STM32F10x_StdPeriph_Driver/src/stm32f10x_usart.c ****   * @brief  Enables or disables the USART's 8x oversampling mode.
 752:stm32f10x_lib/STM32F10x_StdPeriph_Driver/src/stm32f10x_usart.c ****   * @param  USARTx: Select the USART or the UART peripheral.
 753:stm32f10x_lib/STM32F10x_StdPeriph_Driver/src/stm32f10x_usart.c ****   *   This parameter can be one of the following values:
 754:stm32f10x_lib/STM32F10x_StdPeriph_Driver/src/stm32f10x_usart.c ****   *   USART1, USART2, USART3, UART4 or UART5.
 755:stm32f10x_lib/STM32F10x_StdPeriph_Driver/src/stm32f10x_usart.c ****   * @param  NewState: new state of the USART one bit sampling method.
 756:stm32f10x_lib/STM32F10x_StdPeriph_Driver/src/stm32f10x_usart.c ****   *   This parameter can be: ENABLE or DISABLE.
 757:stm32f10x_lib/STM32F10x_StdPeriph_Driver/src/stm32f10x_usart.c ****   * @note
 758:stm32f10x_lib/STM32F10x_StdPeriph_Driver/src/stm32f10x_usart.c ****   *     This function has to be called before calling USART_Init()
 759:stm32f10x_lib/STM32F10x_StdPeriph_Driver/src/stm32f10x_usart.c ****   *     function in order to have correct baudrate Divider value.   
 760:stm32f10x_lib/STM32F10x_StdPeriph_Driver/src/stm32f10x_usart.c ****   * @retval None
 761:stm32f10x_lib/STM32F10x_StdPeriph_Driver/src/stm32f10x_usart.c ****   */
 762:stm32f10x_lib/STM32F10x_StdPeriph_Driver/src/stm32f10x_usart.c **** void USART_OverSampling8Cmd(USART_TypeDef* USARTx, FunctionalState NewState)
 763:stm32f10x_lib/STM32F10x_StdPeriph_Driver/src/stm32f10x_usart.c **** {
 1323              		.loc 1 763 1 is_stmt 1 view -0
ARM GAS  C:\Users\ADMINI~1\AppData\Local\Temp\cc5w2WuM.s 			page 39


 1324              		.cfi_startproc
 1325              		@ args = 0, pretend = 0, frame = 0
 1326              		@ frame_needed = 0, uses_anonymous_args = 0
 1327              		@ link register save eliminated.
 764:stm32f10x_lib/STM32F10x_StdPeriph_Driver/src/stm32f10x_usart.c ****   /* Check the parameters */
 765:stm32f10x_lib/STM32F10x_StdPeriph_Driver/src/stm32f10x_usart.c ****   assert_param(IS_USART_ALL_PERIPH(USARTx));
 1328              		.loc 1 765 3 view .LVU339
 766:stm32f10x_lib/STM32F10x_StdPeriph_Driver/src/stm32f10x_usart.c ****   assert_param(IS_FUNCTIONAL_STATE(NewState));
 1329              		.loc 1 766 3 view .LVU340
 767:stm32f10x_lib/STM32F10x_StdPeriph_Driver/src/stm32f10x_usart.c ****   
 768:stm32f10x_lib/STM32F10x_StdPeriph_Driver/src/stm32f10x_usart.c ****   if (NewState != DISABLE)
 1330              		.loc 1 768 3 view .LVU341
 1331              	@ stm32f10x_lib/STM32F10x_StdPeriph_Driver/src/stm32f10x_usart.c:771:     USARTx->CR1 |= CR1_OVER8_
 769:stm32f10x_lib/STM32F10x_StdPeriph_Driver/src/stm32f10x_usart.c ****   {
 770:stm32f10x_lib/STM32F10x_StdPeriph_Driver/src/stm32f10x_usart.c ****     /* Enable the 8x Oversampling mode by setting the OVER8 bit in the CR1 register */
 771:stm32f10x_lib/STM32F10x_StdPeriph_Driver/src/stm32f10x_usart.c ****     USARTx->CR1 |= CR1_OVER8_Set;
 1332              		.loc 1 771 17 is_stmt 0 view .LVU342
 1333 02d4 8389     		ldrh	r3, [r0, #12]	@,
 1334              	@ stm32f10x_lib/STM32F10x_StdPeriph_Driver/src/stm32f10x_usart.c:768:   if (NewState != DISABLE)
 768:stm32f10x_lib/STM32F10x_StdPeriph_Driver/src/stm32f10x_usart.c ****   {
 1335              		.loc 1 768 6 view .LVU343
 1336 02d6 31B1     		cbz	r1, .L67	@ tmp130,
 1337              		.loc 1 771 5 is_stmt 1 view .LVU344
 1338              	@ stm32f10x_lib/STM32F10x_StdPeriph_Driver/src/stm32f10x_usart.c:771:     USARTx->CR1 |= CR1_OVER8_
 1339              		.loc 1 771 17 is_stmt 0 view .LVU345
 1340 02d8 6FEA4343 		mvn	r3, r3, lsl #17	@ tmp121, USARTx_8(D)->CR1,
 1341 02dc 6FEA5343 		mvn	r3, r3, lsr #17	@ tmp121, tmp121,
 1342 02e0 9BB2     		uxth	r3, r3	@ _2, tmp121
 1343              	.L69:
 1344              	@ stm32f10x_lib/STM32F10x_StdPeriph_Driver/src/stm32f10x_usart.c:776:     USARTx->CR1 &= CR1_OVER8_
 772:stm32f10x_lib/STM32F10x_StdPeriph_Driver/src/stm32f10x_usart.c ****   }
 773:stm32f10x_lib/STM32F10x_StdPeriph_Driver/src/stm32f10x_usart.c ****   else
 774:stm32f10x_lib/STM32F10x_StdPeriph_Driver/src/stm32f10x_usart.c ****   {
 775:stm32f10x_lib/STM32F10x_StdPeriph_Driver/src/stm32f10x_usart.c ****     /* Disable the 8x Oversampling mode by clearing the OVER8 bit in the CR1 register */
 776:stm32f10x_lib/STM32F10x_StdPeriph_Driver/src/stm32f10x_usart.c ****     USARTx->CR1 &= CR1_OVER8_Reset;
 1345              		.loc 1 776 17 view .LVU346
 1346 02e2 8381     		strh	r3, [r0, #12]	@ movhi	@ _4,
 1347              	@ stm32f10x_lib/STM32F10x_StdPeriph_Driver/src/stm32f10x_usart.c:778: }
 777:stm32f10x_lib/STM32F10x_StdPeriph_Driver/src/stm32f10x_usart.c ****   }
 778:stm32f10x_lib/STM32F10x_StdPeriph_Driver/src/stm32f10x_usart.c **** }
 1348              		.loc 1 778 1 view .LVU347
 1349 02e4 7047     		bx	lr	@
 1350              	.L67:
 776:stm32f10x_lib/STM32F10x_StdPeriph_Driver/src/stm32f10x_usart.c ****   }
 1351              		.loc 1 776 5 is_stmt 1 view .LVU348
 1352              	@ stm32f10x_lib/STM32F10x_StdPeriph_Driver/src/stm32f10x_usart.c:776:     USARTx->CR1 &= CR1_OVER8_
 776:stm32f10x_lib/STM32F10x_StdPeriph_Driver/src/stm32f10x_usart.c ****   }
 1353              		.loc 1 776 17 is_stmt 0 view .LVU349
 1354 02e6 C3F30E03 		ubfx	r3, r3, #0, #15	@ _4, USARTx_8(D)->CR1,,
 1355 02ea FAE7     		b	.L69		@
 1356              		.cfi_endproc
 1357              	.LFE50:
 1358              		.size	USART_OverSampling8Cmd, .-USART_OverSampling8Cmd
 1359              		.align	1
 1360              		.global	USART_OneBitMethodCmd
 1361              		.syntax unified
 1362              		.thumb
ARM GAS  C:\Users\ADMINI~1\AppData\Local\Temp\cc5w2WuM.s 			page 40


 1363              		.thumb_func
 1364              		.type	USART_OneBitMethodCmd, %function
 1365              	USART_OneBitMethodCmd:
 1366              	.LVL80:
 1367              	.LFB51:
 779:stm32f10x_lib/STM32F10x_StdPeriph_Driver/src/stm32f10x_usart.c **** 
 780:stm32f10x_lib/STM32F10x_StdPeriph_Driver/src/stm32f10x_usart.c **** /**
 781:stm32f10x_lib/STM32F10x_StdPeriph_Driver/src/stm32f10x_usart.c ****   * @brief  Enables or disables the USART's one bit sampling method.
 782:stm32f10x_lib/STM32F10x_StdPeriph_Driver/src/stm32f10x_usart.c ****   * @param  USARTx: Select the USART or the UART peripheral.
 783:stm32f10x_lib/STM32F10x_StdPeriph_Driver/src/stm32f10x_usart.c ****   *   This parameter can be one of the following values:
 784:stm32f10x_lib/STM32F10x_StdPeriph_Driver/src/stm32f10x_usart.c ****   *   USART1, USART2, USART3, UART4 or UART5.
 785:stm32f10x_lib/STM32F10x_StdPeriph_Driver/src/stm32f10x_usart.c ****   * @param  NewState: new state of the USART one bit sampling method.
 786:stm32f10x_lib/STM32F10x_StdPeriph_Driver/src/stm32f10x_usart.c ****   *   This parameter can be: ENABLE or DISABLE.
 787:stm32f10x_lib/STM32F10x_StdPeriph_Driver/src/stm32f10x_usart.c ****   * @retval None
 788:stm32f10x_lib/STM32F10x_StdPeriph_Driver/src/stm32f10x_usart.c ****   */
 789:stm32f10x_lib/STM32F10x_StdPeriph_Driver/src/stm32f10x_usart.c **** void USART_OneBitMethodCmd(USART_TypeDef* USARTx, FunctionalState NewState)
 790:stm32f10x_lib/STM32F10x_StdPeriph_Driver/src/stm32f10x_usart.c **** {
 1368              		.loc 1 790 1 is_stmt 1 view -0
 1369              		.cfi_startproc
 1370              		@ args = 0, pretend = 0, frame = 0
 1371              		@ frame_needed = 0, uses_anonymous_args = 0
 1372              		@ link register save eliminated.
 791:stm32f10x_lib/STM32F10x_StdPeriph_Driver/src/stm32f10x_usart.c ****   /* Check the parameters */
 792:stm32f10x_lib/STM32F10x_StdPeriph_Driver/src/stm32f10x_usart.c ****   assert_param(IS_USART_ALL_PERIPH(USARTx));
 1373              		.loc 1 792 3 view .LVU351
 793:stm32f10x_lib/STM32F10x_StdPeriph_Driver/src/stm32f10x_usart.c ****   assert_param(IS_FUNCTIONAL_STATE(NewState));
 1374              		.loc 1 793 3 view .LVU352
 794:stm32f10x_lib/STM32F10x_StdPeriph_Driver/src/stm32f10x_usart.c ****   
 795:stm32f10x_lib/STM32F10x_StdPeriph_Driver/src/stm32f10x_usart.c ****   if (NewState != DISABLE)
 1375              		.loc 1 795 3 view .LVU353
 1376              	@ stm32f10x_lib/STM32F10x_StdPeriph_Driver/src/stm32f10x_usart.c:798:     USARTx->CR3 |= CR3_ONEBIT
 796:stm32f10x_lib/STM32F10x_StdPeriph_Driver/src/stm32f10x_usart.c ****   {
 797:stm32f10x_lib/STM32F10x_StdPeriph_Driver/src/stm32f10x_usart.c ****     /* Enable the one bit method by setting the ONEBITE bit in the CR3 register */
 798:stm32f10x_lib/STM32F10x_StdPeriph_Driver/src/stm32f10x_usart.c ****     USARTx->CR3 |= CR3_ONEBITE_Set;
 1377              		.loc 1 798 17 is_stmt 0 view .LVU354
 1378 02ec 838A     		ldrh	r3, [r0, #20]	@,
 1379              	@ stm32f10x_lib/STM32F10x_StdPeriph_Driver/src/stm32f10x_usart.c:795:   if (NewState != DISABLE)
 795:stm32f10x_lib/STM32F10x_StdPeriph_Driver/src/stm32f10x_usart.c ****   {
 1380              		.loc 1 795 6 view .LVU355
 1381 02ee 21B1     		cbz	r1, .L71	@ tmp128,
 1382              		.loc 1 798 5 is_stmt 1 view .LVU356
 1383              	@ stm32f10x_lib/STM32F10x_StdPeriph_Driver/src/stm32f10x_usart.c:798:     USARTx->CR3 |= CR3_ONEBIT
 1384              		.loc 1 798 17 is_stmt 0 view .LVU357
 1385 02f0 9BB2     		uxth	r3, r3	@ _1, USARTx_8(D)->CR3
 1386 02f2 43F40063 		orr	r3, r3, #2048	@ _2, _1,
 1387              	.L73:
 1388              	@ stm32f10x_lib/STM32F10x_StdPeriph_Driver/src/stm32f10x_usart.c:803:     USARTx->CR3 &= CR3_ONEBIT
 799:stm32f10x_lib/STM32F10x_StdPeriph_Driver/src/stm32f10x_usart.c ****   }
 800:stm32f10x_lib/STM32F10x_StdPeriph_Driver/src/stm32f10x_usart.c ****   else
 801:stm32f10x_lib/STM32F10x_StdPeriph_Driver/src/stm32f10x_usart.c ****   {
 802:stm32f10x_lib/STM32F10x_StdPeriph_Driver/src/stm32f10x_usart.c ****     /* Disable tthe one bit method by clearing the ONEBITE bit in the CR3 register */
 803:stm32f10x_lib/STM32F10x_StdPeriph_Driver/src/stm32f10x_usart.c ****     USARTx->CR3 &= CR3_ONEBITE_Reset;
 1389              		.loc 1 803 17 view .LVU358
 1390 02f6 8382     		strh	r3, [r0, #20]	@ movhi	@ _4,
 1391              	@ stm32f10x_lib/STM32F10x_StdPeriph_Driver/src/stm32f10x_usart.c:805: }
 804:stm32f10x_lib/STM32F10x_StdPeriph_Driver/src/stm32f10x_usart.c ****   }
 805:stm32f10x_lib/STM32F10x_StdPeriph_Driver/src/stm32f10x_usart.c **** }
ARM GAS  C:\Users\ADMINI~1\AppData\Local\Temp\cc5w2WuM.s 			page 41


 1392              		.loc 1 805 1 view .LVU359
 1393 02f8 7047     		bx	lr	@
 1394              	.L71:
 803:stm32f10x_lib/STM32F10x_StdPeriph_Driver/src/stm32f10x_usart.c ****   }
 1395              		.loc 1 803 5 is_stmt 1 view .LVU360
 1396              	@ stm32f10x_lib/STM32F10x_StdPeriph_Driver/src/stm32f10x_usart.c:803:     USARTx->CR3 &= CR3_ONEBIT
 803:stm32f10x_lib/STM32F10x_StdPeriph_Driver/src/stm32f10x_usart.c ****   }
 1397              		.loc 1 803 17 is_stmt 0 view .LVU361
 1398 02fa 23F40063 		bic	r3, r3, #2048	@ _4, USARTx_8(D)->CR3,
 1399 02fe 1B04     		lsls	r3, r3, #16	@ _4, _4,
 1400 0300 1B0C     		lsrs	r3, r3, #16	@ _4, _4,
 1401 0302 F8E7     		b	.L73		@
 1402              		.cfi_endproc
 1403              	.LFE51:
 1404              		.size	USART_OneBitMethodCmd, .-USART_OneBitMethodCmd
 1405              		.align	1
 1406              		.global	USART_IrDAConfig
 1407              		.syntax unified
 1408              		.thumb
 1409              		.thumb_func
 1410              		.type	USART_IrDAConfig, %function
 1411              	USART_IrDAConfig:
 1412              	.LVL81:
 1413              	.LFB52:
 806:stm32f10x_lib/STM32F10x_StdPeriph_Driver/src/stm32f10x_usart.c **** 
 807:stm32f10x_lib/STM32F10x_StdPeriph_Driver/src/stm32f10x_usart.c **** /**
 808:stm32f10x_lib/STM32F10x_StdPeriph_Driver/src/stm32f10x_usart.c ****   * @brief  Configures the USART's IrDA interface.
 809:stm32f10x_lib/STM32F10x_StdPeriph_Driver/src/stm32f10x_usart.c ****   * @param  USARTx: Select the USART or the UART peripheral. 
 810:stm32f10x_lib/STM32F10x_StdPeriph_Driver/src/stm32f10x_usart.c ****   *   This parameter can be one of the following values:
 811:stm32f10x_lib/STM32F10x_StdPeriph_Driver/src/stm32f10x_usart.c ****   *   USART1, USART2, USART3, UART4 or UART5.
 812:stm32f10x_lib/STM32F10x_StdPeriph_Driver/src/stm32f10x_usart.c ****   * @param  USART_IrDAMode: specifies the IrDA mode.
 813:stm32f10x_lib/STM32F10x_StdPeriph_Driver/src/stm32f10x_usart.c ****   *   This parameter can be one of the following values:
 814:stm32f10x_lib/STM32F10x_StdPeriph_Driver/src/stm32f10x_usart.c ****   *     @arg USART_IrDAMode_LowPower
 815:stm32f10x_lib/STM32F10x_StdPeriph_Driver/src/stm32f10x_usart.c ****   *     @arg USART_IrDAMode_Normal
 816:stm32f10x_lib/STM32F10x_StdPeriph_Driver/src/stm32f10x_usart.c ****   * @retval None
 817:stm32f10x_lib/STM32F10x_StdPeriph_Driver/src/stm32f10x_usart.c ****   */
 818:stm32f10x_lib/STM32F10x_StdPeriph_Driver/src/stm32f10x_usart.c **** void USART_IrDAConfig(USART_TypeDef* USARTx, uint16_t USART_IrDAMode)
 819:stm32f10x_lib/STM32F10x_StdPeriph_Driver/src/stm32f10x_usart.c **** {
 1414              		.loc 1 819 1 is_stmt 1 view -0
 1415              		.cfi_startproc
 1416              		@ args = 0, pretend = 0, frame = 0
 1417              		@ frame_needed = 0, uses_anonymous_args = 0
 1418              		@ link register save eliminated.
 820:stm32f10x_lib/STM32F10x_StdPeriph_Driver/src/stm32f10x_usart.c ****   /* Check the parameters */
 821:stm32f10x_lib/STM32F10x_StdPeriph_Driver/src/stm32f10x_usart.c ****   assert_param(IS_USART_ALL_PERIPH(USARTx));
 1419              		.loc 1 821 3 view .LVU363
 822:stm32f10x_lib/STM32F10x_StdPeriph_Driver/src/stm32f10x_usart.c ****   assert_param(IS_USART_IRDA_MODE(USART_IrDAMode));
 1420              		.loc 1 822 3 view .LVU364
 823:stm32f10x_lib/STM32F10x_StdPeriph_Driver/src/stm32f10x_usart.c ****     
 824:stm32f10x_lib/STM32F10x_StdPeriph_Driver/src/stm32f10x_usart.c ****   USARTx->CR3 &= CR3_IRLP_Mask;
 1421              		.loc 1 824 3 view .LVU365
 1422              	@ stm32f10x_lib/STM32F10x_StdPeriph_Driver/src/stm32f10x_usart.c:824:   USARTx->CR3 &= CR3_IRLP_Mas
 1423              		.loc 1 824 15 is_stmt 0 view .LVU366
 1424 0304 838A     		ldrh	r3, [r0, #20]	@, USARTx_6(D)->CR3
 1425 0306 23F00403 		bic	r3, r3, #4	@ _2, USARTx_6(D)->CR3,
 1426 030a 1B04     		lsls	r3, r3, #16	@ _2, _2,
 1427 030c 1B0C     		lsrs	r3, r3, #16	@ _2, _2,
ARM GAS  C:\Users\ADMINI~1\AppData\Local\Temp\cc5w2WuM.s 			page 42


 1428 030e 8382     		strh	r3, [r0, #20]	@ movhi	@ _2, USARTx_6(D)->CR3
 825:stm32f10x_lib/STM32F10x_StdPeriph_Driver/src/stm32f10x_usart.c ****   USARTx->CR3 |= USART_IrDAMode;
 1429              		.loc 1 825 3 is_stmt 1 view .LVU367
 1430              	@ stm32f10x_lib/STM32F10x_StdPeriph_Driver/src/stm32f10x_usart.c:825:   USARTx->CR3 |= USART_IrDAMo
 1431              		.loc 1 825 15 is_stmt 0 view .LVU368
 1432 0310 838A     		ldrh	r3, [r0, #20]	@, USARTx_6(D)->CR3
 1433 0312 9BB2     		uxth	r3, r3	@ _3, USARTx_6(D)->CR3
 1434 0314 0B43     		orrs	r3, r3, r1	@, _4, _3, tmp128
 1435 0316 8382     		strh	r3, [r0, #20]	@ movhi	@ _4, USARTx_6(D)->CR3
 1436              	@ stm32f10x_lib/STM32F10x_StdPeriph_Driver/src/stm32f10x_usart.c:826: }
 826:stm32f10x_lib/STM32F10x_StdPeriph_Driver/src/stm32f10x_usart.c **** }
 1437              		.loc 1 826 1 view .LVU369
 1438 0318 7047     		bx	lr	@
 1439              		.cfi_endproc
 1440              	.LFE52:
 1441              		.size	USART_IrDAConfig, .-USART_IrDAConfig
 1442              		.align	1
 1443              		.global	USART_IrDACmd
 1444              		.syntax unified
 1445              		.thumb
 1446              		.thumb_func
 1447              		.type	USART_IrDACmd, %function
 1448              	USART_IrDACmd:
 1449              	.LVL82:
 1450              	.LFB53:
 827:stm32f10x_lib/STM32F10x_StdPeriph_Driver/src/stm32f10x_usart.c **** 
 828:stm32f10x_lib/STM32F10x_StdPeriph_Driver/src/stm32f10x_usart.c **** /**
 829:stm32f10x_lib/STM32F10x_StdPeriph_Driver/src/stm32f10x_usart.c ****   * @brief  Enables or disables the USART's IrDA interface.
 830:stm32f10x_lib/STM32F10x_StdPeriph_Driver/src/stm32f10x_usart.c ****   * @param  USARTx: Select the USART or the UART peripheral. 
 831:stm32f10x_lib/STM32F10x_StdPeriph_Driver/src/stm32f10x_usart.c ****   *   This parameter can be one of the following values:
 832:stm32f10x_lib/STM32F10x_StdPeriph_Driver/src/stm32f10x_usart.c ****   *   USART1, USART2, USART3, UART4 or UART5.
 833:stm32f10x_lib/STM32F10x_StdPeriph_Driver/src/stm32f10x_usart.c ****   * @param  NewState: new state of the IrDA mode.
 834:stm32f10x_lib/STM32F10x_StdPeriph_Driver/src/stm32f10x_usart.c ****   *   This parameter can be: ENABLE or DISABLE.
 835:stm32f10x_lib/STM32F10x_StdPeriph_Driver/src/stm32f10x_usart.c ****   * @retval None
 836:stm32f10x_lib/STM32F10x_StdPeriph_Driver/src/stm32f10x_usart.c ****   */
 837:stm32f10x_lib/STM32F10x_StdPeriph_Driver/src/stm32f10x_usart.c **** void USART_IrDACmd(USART_TypeDef* USARTx, FunctionalState NewState)
 838:stm32f10x_lib/STM32F10x_StdPeriph_Driver/src/stm32f10x_usart.c **** {
 1451              		.loc 1 838 1 is_stmt 1 view -0
 1452              		.cfi_startproc
 1453              		@ args = 0, pretend = 0, frame = 0
 1454              		@ frame_needed = 0, uses_anonymous_args = 0
 1455              		@ link register save eliminated.
 839:stm32f10x_lib/STM32F10x_StdPeriph_Driver/src/stm32f10x_usart.c ****   /* Check the parameters */
 840:stm32f10x_lib/STM32F10x_StdPeriph_Driver/src/stm32f10x_usart.c ****   assert_param(IS_USART_ALL_PERIPH(USARTx));
 1456              		.loc 1 840 3 view .LVU371
 841:stm32f10x_lib/STM32F10x_StdPeriph_Driver/src/stm32f10x_usart.c ****   assert_param(IS_FUNCTIONAL_STATE(NewState));
 1457              		.loc 1 841 3 view .LVU372
 842:stm32f10x_lib/STM32F10x_StdPeriph_Driver/src/stm32f10x_usart.c ****     
 843:stm32f10x_lib/STM32F10x_StdPeriph_Driver/src/stm32f10x_usart.c ****   if (NewState != DISABLE)
 1458              		.loc 1 843 3 view .LVU373
 1459              	@ stm32f10x_lib/STM32F10x_StdPeriph_Driver/src/stm32f10x_usart.c:846:     USARTx->CR3 |= CR3_IREN_S
 844:stm32f10x_lib/STM32F10x_StdPeriph_Driver/src/stm32f10x_usart.c ****   {
 845:stm32f10x_lib/STM32F10x_StdPeriph_Driver/src/stm32f10x_usart.c ****     /* Enable the IrDA mode by setting the IREN bit in the CR3 register */
 846:stm32f10x_lib/STM32F10x_StdPeriph_Driver/src/stm32f10x_usart.c ****     USARTx->CR3 |= CR3_IREN_Set;
 1460              		.loc 1 846 17 is_stmt 0 view .LVU374
 1461 031a 838A     		ldrh	r3, [r0, #20]	@,
 1462              	@ stm32f10x_lib/STM32F10x_StdPeriph_Driver/src/stm32f10x_usart.c:843:   if (NewState != DISABLE)
ARM GAS  C:\Users\ADMINI~1\AppData\Local\Temp\cc5w2WuM.s 			page 43


 843:stm32f10x_lib/STM32F10x_StdPeriph_Driver/src/stm32f10x_usart.c ****   {
 1463              		.loc 1 843 6 view .LVU375
 1464 031c 21B1     		cbz	r1, .L76	@ tmp128,
 1465              		.loc 1 846 5 is_stmt 1 view .LVU376
 1466              	@ stm32f10x_lib/STM32F10x_StdPeriph_Driver/src/stm32f10x_usart.c:846:     USARTx->CR3 |= CR3_IREN_S
 1467              		.loc 1 846 17 is_stmt 0 view .LVU377
 1468 031e 9BB2     		uxth	r3, r3	@ _1, USARTx_8(D)->CR3
 1469 0320 43F00203 		orr	r3, r3, #2	@ _2, _1,
 1470              	.L78:
 1471              	@ stm32f10x_lib/STM32F10x_StdPeriph_Driver/src/stm32f10x_usart.c:851:     USARTx->CR3 &= CR3_IREN_R
 847:stm32f10x_lib/STM32F10x_StdPeriph_Driver/src/stm32f10x_usart.c ****   }
 848:stm32f10x_lib/STM32F10x_StdPeriph_Driver/src/stm32f10x_usart.c ****   else
 849:stm32f10x_lib/STM32F10x_StdPeriph_Driver/src/stm32f10x_usart.c ****   {
 850:stm32f10x_lib/STM32F10x_StdPeriph_Driver/src/stm32f10x_usart.c ****     /* Disable the IrDA mode by clearing the IREN bit in the CR3 register */
 851:stm32f10x_lib/STM32F10x_StdPeriph_Driver/src/stm32f10x_usart.c ****     USARTx->CR3 &= CR3_IREN_Reset;
 1472              		.loc 1 851 17 view .LVU378
 1473 0324 8382     		strh	r3, [r0, #20]	@ movhi	@ _4,
 1474              	@ stm32f10x_lib/STM32F10x_StdPeriph_Driver/src/stm32f10x_usart.c:853: }
 852:stm32f10x_lib/STM32F10x_StdPeriph_Driver/src/stm32f10x_usart.c ****   }
 853:stm32f10x_lib/STM32F10x_StdPeriph_Driver/src/stm32f10x_usart.c **** }
 1475              		.loc 1 853 1 view .LVU379
 1476 0326 7047     		bx	lr	@
 1477              	.L76:
 851:stm32f10x_lib/STM32F10x_StdPeriph_Driver/src/stm32f10x_usart.c ****   }
 1478              		.loc 1 851 5 is_stmt 1 view .LVU380
 1479              	@ stm32f10x_lib/STM32F10x_StdPeriph_Driver/src/stm32f10x_usart.c:851:     USARTx->CR3 &= CR3_IREN_R
 851:stm32f10x_lib/STM32F10x_StdPeriph_Driver/src/stm32f10x_usart.c ****   }
 1480              		.loc 1 851 17 is_stmt 0 view .LVU381
 1481 0328 23F00203 		bic	r3, r3, #2	@ _4, USARTx_8(D)->CR3,
 1482 032c 1B04     		lsls	r3, r3, #16	@ _4, _4,
 1483 032e 1B0C     		lsrs	r3, r3, #16	@ _4, _4,
 1484 0330 F8E7     		b	.L78		@
 1485              		.cfi_endproc
 1486              	.LFE53:
 1487              		.size	USART_IrDACmd, .-USART_IrDACmd
 1488              		.align	1
 1489              		.global	USART_GetFlagStatus
 1490              		.syntax unified
 1491              		.thumb
 1492              		.thumb_func
 1493              		.type	USART_GetFlagStatus, %function
 1494              	USART_GetFlagStatus:
 1495              	.LVL83:
 1496              	.LFB54:
 854:stm32f10x_lib/STM32F10x_StdPeriph_Driver/src/stm32f10x_usart.c **** 
 855:stm32f10x_lib/STM32F10x_StdPeriph_Driver/src/stm32f10x_usart.c **** /**
 856:stm32f10x_lib/STM32F10x_StdPeriph_Driver/src/stm32f10x_usart.c ****   * @brief  Checks whether the specified USART flag is set or not.
 857:stm32f10x_lib/STM32F10x_StdPeriph_Driver/src/stm32f10x_usart.c ****   * @param  USARTx: Select the USART or the UART peripheral. 
 858:stm32f10x_lib/STM32F10x_StdPeriph_Driver/src/stm32f10x_usart.c ****   *   This parameter can be one of the following values:
 859:stm32f10x_lib/STM32F10x_StdPeriph_Driver/src/stm32f10x_usart.c ****   *   USART1, USART2, USART3, UART4 or UART5.
 860:stm32f10x_lib/STM32F10x_StdPeriph_Driver/src/stm32f10x_usart.c ****   * @param  USART_FLAG: specifies the flag to check.
 861:stm32f10x_lib/STM32F10x_StdPeriph_Driver/src/stm32f10x_usart.c ****   *   This parameter can be one of the following values:
 862:stm32f10x_lib/STM32F10x_StdPeriph_Driver/src/stm32f10x_usart.c ****   *     @arg USART_FLAG_CTS:  CTS Change flag (not available for UART4 and UART5)
 863:stm32f10x_lib/STM32F10x_StdPeriph_Driver/src/stm32f10x_usart.c ****   *     @arg USART_FLAG_LBD:  LIN Break detection flag
 864:stm32f10x_lib/STM32F10x_StdPeriph_Driver/src/stm32f10x_usart.c ****   *     @arg USART_FLAG_TXE:  Transmit data register empty flag
 865:stm32f10x_lib/STM32F10x_StdPeriph_Driver/src/stm32f10x_usart.c ****   *     @arg USART_FLAG_TC:   Transmission Complete flag
 866:stm32f10x_lib/STM32F10x_StdPeriph_Driver/src/stm32f10x_usart.c ****   *     @arg USART_FLAG_RXNE: Receive data register not empty flag
ARM GAS  C:\Users\ADMINI~1\AppData\Local\Temp\cc5w2WuM.s 			page 44


 867:stm32f10x_lib/STM32F10x_StdPeriph_Driver/src/stm32f10x_usart.c ****   *     @arg USART_FLAG_IDLE: Idle Line detection flag
 868:stm32f10x_lib/STM32F10x_StdPeriph_Driver/src/stm32f10x_usart.c ****   *     @arg USART_FLAG_ORE:  OverRun Error flag
 869:stm32f10x_lib/STM32F10x_StdPeriph_Driver/src/stm32f10x_usart.c ****   *     @arg USART_FLAG_NE:   Noise Error flag
 870:stm32f10x_lib/STM32F10x_StdPeriph_Driver/src/stm32f10x_usart.c ****   *     @arg USART_FLAG_FE:   Framing Error flag
 871:stm32f10x_lib/STM32F10x_StdPeriph_Driver/src/stm32f10x_usart.c ****   *     @arg USART_FLAG_PE:   Parity Error flag
 872:stm32f10x_lib/STM32F10x_StdPeriph_Driver/src/stm32f10x_usart.c ****   * @retval The new state of USART_FLAG (SET or RESET).
 873:stm32f10x_lib/STM32F10x_StdPeriph_Driver/src/stm32f10x_usart.c ****   */
 874:stm32f10x_lib/STM32F10x_StdPeriph_Driver/src/stm32f10x_usart.c **** FlagStatus USART_GetFlagStatus(USART_TypeDef* USARTx, uint16_t USART_FLAG)
 875:stm32f10x_lib/STM32F10x_StdPeriph_Driver/src/stm32f10x_usart.c **** {
 1497              		.loc 1 875 1 is_stmt 1 view -0
 1498              		.cfi_startproc
 1499              		@ args = 0, pretend = 0, frame = 0
 1500              		@ frame_needed = 0, uses_anonymous_args = 0
 1501              		@ link register save eliminated.
 876:stm32f10x_lib/STM32F10x_StdPeriph_Driver/src/stm32f10x_usart.c ****   FlagStatus bitstatus = RESET;
 1502              		.loc 1 876 3 view .LVU383
 877:stm32f10x_lib/STM32F10x_StdPeriph_Driver/src/stm32f10x_usart.c ****   /* Check the parameters */
 878:stm32f10x_lib/STM32F10x_StdPeriph_Driver/src/stm32f10x_usart.c ****   assert_param(IS_USART_ALL_PERIPH(USARTx));
 1503              		.loc 1 878 3 view .LVU384
 879:stm32f10x_lib/STM32F10x_StdPeriph_Driver/src/stm32f10x_usart.c ****   assert_param(IS_USART_FLAG(USART_FLAG));
 1504              		.loc 1 879 3 view .LVU385
 880:stm32f10x_lib/STM32F10x_StdPeriph_Driver/src/stm32f10x_usart.c ****   /* The CTS flag is not available for UART4 and UART5 */
 881:stm32f10x_lib/STM32F10x_StdPeriph_Driver/src/stm32f10x_usart.c ****   if (USART_FLAG == USART_FLAG_CTS)
 1505              		.loc 1 881 3 view .LVU386
 882:stm32f10x_lib/STM32F10x_StdPeriph_Driver/src/stm32f10x_usart.c ****   {
 883:stm32f10x_lib/STM32F10x_StdPeriph_Driver/src/stm32f10x_usart.c ****     assert_param(IS_USART_123_PERIPH(USARTx));
 1506              		.loc 1 883 5 view .LVU387
 884:stm32f10x_lib/STM32F10x_StdPeriph_Driver/src/stm32f10x_usart.c ****   }  
 885:stm32f10x_lib/STM32F10x_StdPeriph_Driver/src/stm32f10x_usart.c ****   
 886:stm32f10x_lib/STM32F10x_StdPeriph_Driver/src/stm32f10x_usart.c ****   if ((USARTx->SR & USART_FLAG) != (uint16_t)RESET)
 1507              		.loc 1 886 3 view .LVU388
 1508              	@ stm32f10x_lib/STM32F10x_StdPeriph_Driver/src/stm32f10x_usart.c:886:   if ((USARTx->SR & USART_FLA
 1509              		.loc 1 886 14 is_stmt 0 view .LVU389
 1510 0332 0388     		ldrh	r3, [r0]	@, USARTx_5(D)->SR
 1511              	.LVL84:
 887:stm32f10x_lib/STM32F10x_StdPeriph_Driver/src/stm32f10x_usart.c ****   {
 888:stm32f10x_lib/STM32F10x_StdPeriph_Driver/src/stm32f10x_usart.c ****     bitstatus = SET;
 889:stm32f10x_lib/STM32F10x_StdPeriph_Driver/src/stm32f10x_usart.c ****   }
 890:stm32f10x_lib/STM32F10x_StdPeriph_Driver/src/stm32f10x_usart.c ****   else
 891:stm32f10x_lib/STM32F10x_StdPeriph_Driver/src/stm32f10x_usart.c ****   {
 892:stm32f10x_lib/STM32F10x_StdPeriph_Driver/src/stm32f10x_usart.c ****     bitstatus = RESET;
 893:stm32f10x_lib/STM32F10x_StdPeriph_Driver/src/stm32f10x_usart.c ****   }
 894:stm32f10x_lib/STM32F10x_StdPeriph_Driver/src/stm32f10x_usart.c ****   return bitstatus;
 1512              		.loc 1 894 3 is_stmt 1 view .LVU390
 1513              	@ stm32f10x_lib/STM32F10x_StdPeriph_Driver/src/stm32f10x_usart.c:886:   if ((USARTx->SR & USART_FLA
 886:stm32f10x_lib/STM32F10x_StdPeriph_Driver/src/stm32f10x_usart.c ****   {
 1514              		.loc 1 886 6 is_stmt 0 view .LVU391
 1515 0334 1942     		tst	r1, r3	@ tmp126, USARTx_5(D)->SR
 1516              	@ stm32f10x_lib/STM32F10x_StdPeriph_Driver/src/stm32f10x_usart.c:895: }
 895:stm32f10x_lib/STM32F10x_StdPeriph_Driver/src/stm32f10x_usart.c **** }
 1517              		.loc 1 895 1 view .LVU392
 1518 0336 14BF     		ite	ne
 1519 0338 0120     		movne	r0, #1	@,
 1520              	.LVL85:
 1521              		.loc 1 895 1 view .LVU393
 1522 033a 0020     		moveq	r0, #0	@,
 1523 033c 7047     		bx	lr	@
ARM GAS  C:\Users\ADMINI~1\AppData\Local\Temp\cc5w2WuM.s 			page 45


 1524              		.cfi_endproc
 1525              	.LFE54:
 1526              		.size	USART_GetFlagStatus, .-USART_GetFlagStatus
 1527              		.align	1
 1528              		.global	USART_ClearFlag
 1529              		.syntax unified
 1530              		.thumb
 1531              		.thumb_func
 1532              		.type	USART_ClearFlag, %function
 1533              	USART_ClearFlag:
 1534              	.LVL86:
 1535              	.LFB55:
 896:stm32f10x_lib/STM32F10x_StdPeriph_Driver/src/stm32f10x_usart.c **** 
 897:stm32f10x_lib/STM32F10x_StdPeriph_Driver/src/stm32f10x_usart.c **** /**
 898:stm32f10x_lib/STM32F10x_StdPeriph_Driver/src/stm32f10x_usart.c ****   * @brief  Clears the USARTx's pending flags.
 899:stm32f10x_lib/STM32F10x_StdPeriph_Driver/src/stm32f10x_usart.c ****   * @param  USARTx: Select the USART or the UART peripheral. 
 900:stm32f10x_lib/STM32F10x_StdPeriph_Driver/src/stm32f10x_usart.c ****   *   This parameter can be one of the following values:
 901:stm32f10x_lib/STM32F10x_StdPeriph_Driver/src/stm32f10x_usart.c ****   *   USART1, USART2, USART3, UART4 or UART5.
 902:stm32f10x_lib/STM32F10x_StdPeriph_Driver/src/stm32f10x_usart.c ****   * @param  USART_FLAG: specifies the flag to clear.
 903:stm32f10x_lib/STM32F10x_StdPeriph_Driver/src/stm32f10x_usart.c ****   *   This parameter can be any combination of the following values:
 904:stm32f10x_lib/STM32F10x_StdPeriph_Driver/src/stm32f10x_usart.c ****   *     @arg USART_FLAG_CTS:  CTS Change flag (not available for UART4 and UART5).
 905:stm32f10x_lib/STM32F10x_StdPeriph_Driver/src/stm32f10x_usart.c ****   *     @arg USART_FLAG_LBD:  LIN Break detection flag.
 906:stm32f10x_lib/STM32F10x_StdPeriph_Driver/src/stm32f10x_usart.c ****   *     @arg USART_FLAG_TC:   Transmission Complete flag.
 907:stm32f10x_lib/STM32F10x_StdPeriph_Driver/src/stm32f10x_usart.c ****   *     @arg USART_FLAG_RXNE: Receive data register not empty flag.
 908:stm32f10x_lib/STM32F10x_StdPeriph_Driver/src/stm32f10x_usart.c ****   *   
 909:stm32f10x_lib/STM32F10x_StdPeriph_Driver/src/stm32f10x_usart.c ****   * @note
 910:stm32f10x_lib/STM32F10x_StdPeriph_Driver/src/stm32f10x_usart.c ****   *   - PE (Parity error), FE (Framing error), NE (Noise error), ORE (OverRun 
 911:stm32f10x_lib/STM32F10x_StdPeriph_Driver/src/stm32f10x_usart.c ****   *     error) and IDLE (Idle line detected) flags are cleared by software 
 912:stm32f10x_lib/STM32F10x_StdPeriph_Driver/src/stm32f10x_usart.c ****   *     sequence: a read operation to USART_SR register (USART_GetFlagStatus()) 
 913:stm32f10x_lib/STM32F10x_StdPeriph_Driver/src/stm32f10x_usart.c ****   *     followed by a read operation to USART_DR register (USART_ReceiveData()).
 914:stm32f10x_lib/STM32F10x_StdPeriph_Driver/src/stm32f10x_usart.c ****   *   - RXNE flag can be also cleared by a read to the USART_DR register 
 915:stm32f10x_lib/STM32F10x_StdPeriph_Driver/src/stm32f10x_usart.c ****   *     (USART_ReceiveData()).
 916:stm32f10x_lib/STM32F10x_StdPeriph_Driver/src/stm32f10x_usart.c ****   *   - TC flag can be also cleared by software sequence: a read operation to 
 917:stm32f10x_lib/STM32F10x_StdPeriph_Driver/src/stm32f10x_usart.c ****   *     USART_SR register (USART_GetFlagStatus()) followed by a write operation
 918:stm32f10x_lib/STM32F10x_StdPeriph_Driver/src/stm32f10x_usart.c ****   *     to USART_DR register (USART_SendData()).
 919:stm32f10x_lib/STM32F10x_StdPeriph_Driver/src/stm32f10x_usart.c ****   *   - TXE flag is cleared only by a write to the USART_DR register 
 920:stm32f10x_lib/STM32F10x_StdPeriph_Driver/src/stm32f10x_usart.c ****   *     (USART_SendData()).
 921:stm32f10x_lib/STM32F10x_StdPeriph_Driver/src/stm32f10x_usart.c ****   * @retval None
 922:stm32f10x_lib/STM32F10x_StdPeriph_Driver/src/stm32f10x_usart.c ****   */
 923:stm32f10x_lib/STM32F10x_StdPeriph_Driver/src/stm32f10x_usart.c **** void USART_ClearFlag(USART_TypeDef* USARTx, uint16_t USART_FLAG)
 924:stm32f10x_lib/STM32F10x_StdPeriph_Driver/src/stm32f10x_usart.c **** {
 1536              		.loc 1 924 1 is_stmt 1 view -0
 1537              		.cfi_startproc
 1538              		@ args = 0, pretend = 0, frame = 0
 1539              		@ frame_needed = 0, uses_anonymous_args = 0
 1540              		@ link register save eliminated.
 925:stm32f10x_lib/STM32F10x_StdPeriph_Driver/src/stm32f10x_usart.c ****   /* Check the parameters */
 926:stm32f10x_lib/STM32F10x_StdPeriph_Driver/src/stm32f10x_usart.c ****   assert_param(IS_USART_ALL_PERIPH(USARTx));
 1541              		.loc 1 926 3 view .LVU395
 927:stm32f10x_lib/STM32F10x_StdPeriph_Driver/src/stm32f10x_usart.c ****   assert_param(IS_USART_CLEAR_FLAG(USART_FLAG));
 1542              		.loc 1 927 3 view .LVU396
 928:stm32f10x_lib/STM32F10x_StdPeriph_Driver/src/stm32f10x_usart.c ****   /* The CTS flag is not available for UART4 and UART5 */
 929:stm32f10x_lib/STM32F10x_StdPeriph_Driver/src/stm32f10x_usart.c ****   if ((USART_FLAG & USART_FLAG_CTS) == USART_FLAG_CTS)
 1543              		.loc 1 929 3 view .LVU397
 930:stm32f10x_lib/STM32F10x_StdPeriph_Driver/src/stm32f10x_usart.c ****   {
 931:stm32f10x_lib/STM32F10x_StdPeriph_Driver/src/stm32f10x_usart.c ****     assert_param(IS_USART_123_PERIPH(USARTx));
 1544              		.loc 1 931 5 view .LVU398
ARM GAS  C:\Users\ADMINI~1\AppData\Local\Temp\cc5w2WuM.s 			page 46


 932:stm32f10x_lib/STM32F10x_StdPeriph_Driver/src/stm32f10x_usart.c ****   } 
 933:stm32f10x_lib/STM32F10x_StdPeriph_Driver/src/stm32f10x_usart.c ****    
 934:stm32f10x_lib/STM32F10x_StdPeriph_Driver/src/stm32f10x_usart.c ****   USARTx->SR = (uint16_t)~USART_FLAG;
 1545              		.loc 1 934 3 view .LVU399
 1546              	@ stm32f10x_lib/STM32F10x_StdPeriph_Driver/src/stm32f10x_usart.c:934:   USARTx->SR = (uint16_t)~USA
 1547              		.loc 1 934 16 is_stmt 0 view .LVU400
 1548 033e C943     		mvns	r1, r1	@ tmp116, tmp119
 1549              	.LVL87:
 1550              		.loc 1 934 16 view .LVU401
 1551 0340 89B2     		uxth	r1, r1	@ _1, tmp116
 1552              	@ stm32f10x_lib/STM32F10x_StdPeriph_Driver/src/stm32f10x_usart.c:934:   USARTx->SR = (uint16_t)~USA
 1553              		.loc 1 934 14 view .LVU402
 1554 0342 0180     		strh	r1, [r0]	@ movhi	@ _1, USARTx_4(D)->SR
 1555              	@ stm32f10x_lib/STM32F10x_StdPeriph_Driver/src/stm32f10x_usart.c:935: }
 935:stm32f10x_lib/STM32F10x_StdPeriph_Driver/src/stm32f10x_usart.c **** }
 1556              		.loc 1 935 1 view .LVU403
 1557 0344 7047     		bx	lr	@
 1558              		.cfi_endproc
 1559              	.LFE55:
 1560              		.size	USART_ClearFlag, .-USART_ClearFlag
 1561              		.align	1
 1562              		.global	USART_GetITStatus
 1563              		.syntax unified
 1564              		.thumb
 1565              		.thumb_func
 1566              		.type	USART_GetITStatus, %function
 1567              	USART_GetITStatus:
 1568              	.LVL88:
 1569              	.LFB56:
 936:stm32f10x_lib/STM32F10x_StdPeriph_Driver/src/stm32f10x_usart.c **** 
 937:stm32f10x_lib/STM32F10x_StdPeriph_Driver/src/stm32f10x_usart.c **** /**
 938:stm32f10x_lib/STM32F10x_StdPeriph_Driver/src/stm32f10x_usart.c ****   * @brief  Checks whether the specified USART interrupt has occurred or not.
 939:stm32f10x_lib/STM32F10x_StdPeriph_Driver/src/stm32f10x_usart.c ****   * @param  USARTx: Select the USART or the UART peripheral. 
 940:stm32f10x_lib/STM32F10x_StdPeriph_Driver/src/stm32f10x_usart.c ****   *   This parameter can be one of the following values:
 941:stm32f10x_lib/STM32F10x_StdPeriph_Driver/src/stm32f10x_usart.c ****   *   USART1, USART2, USART3, UART4 or UART5.
 942:stm32f10x_lib/STM32F10x_StdPeriph_Driver/src/stm32f10x_usart.c ****   * @param  USART_IT: specifies the USART interrupt source to check.
 943:stm32f10x_lib/STM32F10x_StdPeriph_Driver/src/stm32f10x_usart.c ****   *   This parameter can be one of the following values:
 944:stm32f10x_lib/STM32F10x_StdPeriph_Driver/src/stm32f10x_usart.c ****   *     @arg USART_IT_CTS:  CTS change interrupt (not available for UART4 and UART5)
 945:stm32f10x_lib/STM32F10x_StdPeriph_Driver/src/stm32f10x_usart.c ****   *     @arg USART_IT_LBD:  LIN Break detection interrupt
 946:stm32f10x_lib/STM32F10x_StdPeriph_Driver/src/stm32f10x_usart.c ****   *     @arg USART_IT_TXE:  Tansmit Data Register empty interrupt
 947:stm32f10x_lib/STM32F10x_StdPeriph_Driver/src/stm32f10x_usart.c ****   *     @arg USART_IT_TC:   Transmission complete interrupt
 948:stm32f10x_lib/STM32F10x_StdPeriph_Driver/src/stm32f10x_usart.c ****   *     @arg USART_IT_RXNE: Receive Data register not empty interrupt
 949:stm32f10x_lib/STM32F10x_StdPeriph_Driver/src/stm32f10x_usart.c ****   *     @arg USART_IT_IDLE: Idle line detection interrupt
 950:stm32f10x_lib/STM32F10x_StdPeriph_Driver/src/stm32f10x_usart.c ****   *     @arg USART_IT_ORE:  OverRun Error interrupt
 951:stm32f10x_lib/STM32F10x_StdPeriph_Driver/src/stm32f10x_usart.c ****   *     @arg USART_IT_NE:   Noise Error interrupt
 952:stm32f10x_lib/STM32F10x_StdPeriph_Driver/src/stm32f10x_usart.c ****   *     @arg USART_IT_FE:   Framing Error interrupt
 953:stm32f10x_lib/STM32F10x_StdPeriph_Driver/src/stm32f10x_usart.c ****   *     @arg USART_IT_PE:   Parity Error interrupt
 954:stm32f10x_lib/STM32F10x_StdPeriph_Driver/src/stm32f10x_usart.c ****   * @retval The new state of USART_IT (SET or RESET).
 955:stm32f10x_lib/STM32F10x_StdPeriph_Driver/src/stm32f10x_usart.c ****   */
 956:stm32f10x_lib/STM32F10x_StdPeriph_Driver/src/stm32f10x_usart.c **** ITStatus USART_GetITStatus(USART_TypeDef* USARTx, uint16_t USART_IT)
 957:stm32f10x_lib/STM32F10x_StdPeriph_Driver/src/stm32f10x_usart.c **** {
 1570              		.loc 1 957 1 is_stmt 1 view -0
 1571              		.cfi_startproc
 1572              		@ args = 0, pretend = 0, frame = 0
 1573              		@ frame_needed = 0, uses_anonymous_args = 0
 958:stm32f10x_lib/STM32F10x_StdPeriph_Driver/src/stm32f10x_usart.c ****   uint32_t bitpos = 0x00, itmask = 0x00, usartreg = 0x00;
 1574              		.loc 1 958 3 view .LVU405
ARM GAS  C:\Users\ADMINI~1\AppData\Local\Temp\cc5w2WuM.s 			page 47


 959:stm32f10x_lib/STM32F10x_StdPeriph_Driver/src/stm32f10x_usart.c ****   ITStatus bitstatus = RESET;
 1575              		.loc 1 959 3 view .LVU406
 960:stm32f10x_lib/STM32F10x_StdPeriph_Driver/src/stm32f10x_usart.c ****   /* Check the parameters */
 961:stm32f10x_lib/STM32F10x_StdPeriph_Driver/src/stm32f10x_usart.c ****   assert_param(IS_USART_ALL_PERIPH(USARTx));
 1576              		.loc 1 961 3 view .LVU407
 962:stm32f10x_lib/STM32F10x_StdPeriph_Driver/src/stm32f10x_usart.c ****   assert_param(IS_USART_GET_IT(USART_IT));
 1577              		.loc 1 962 3 view .LVU408
 963:stm32f10x_lib/STM32F10x_StdPeriph_Driver/src/stm32f10x_usart.c ****   /* The CTS interrupt is not available for UART4 and UART5 */ 
 964:stm32f10x_lib/STM32F10x_StdPeriph_Driver/src/stm32f10x_usart.c ****   if (USART_IT == USART_IT_CTS)
 1578              		.loc 1 964 3 view .LVU409
 965:stm32f10x_lib/STM32F10x_StdPeriph_Driver/src/stm32f10x_usart.c ****   {
 966:stm32f10x_lib/STM32F10x_StdPeriph_Driver/src/stm32f10x_usart.c ****     assert_param(IS_USART_123_PERIPH(USARTx));
 1579              		.loc 1 966 5 view .LVU410
 967:stm32f10x_lib/STM32F10x_StdPeriph_Driver/src/stm32f10x_usart.c ****   }   
 968:stm32f10x_lib/STM32F10x_StdPeriph_Driver/src/stm32f10x_usart.c ****   
 969:stm32f10x_lib/STM32F10x_StdPeriph_Driver/src/stm32f10x_usart.c ****   /* Get the USART register index */
 970:stm32f10x_lib/STM32F10x_StdPeriph_Driver/src/stm32f10x_usart.c ****   usartreg = (((uint8_t)USART_IT) >> 0x05);
 1580              		.loc 1 970 3 view .LVU411
 1581              	@ stm32f10x_lib/STM32F10x_StdPeriph_Driver/src/stm32f10x_usart.c:973:   itmask = (uint32_t)0x01 << 
 971:stm32f10x_lib/STM32F10x_StdPeriph_Driver/src/stm32f10x_usart.c ****   /* Get the interrupt position */
 972:stm32f10x_lib/STM32F10x_StdPeriph_Driver/src/stm32f10x_usart.c ****   itmask = USART_IT & IT_Mask;
 973:stm32f10x_lib/STM32F10x_StdPeriph_Driver/src/stm32f10x_usart.c ****   itmask = (uint32_t)0x01 << itmask;
 1582              		.loc 1 973 10 is_stmt 0 view .LVU412
 1583 0346 0123     		movs	r3, #1	@ tmp138,
 1584              	@ stm32f10x_lib/STM32F10x_StdPeriph_Driver/src/stm32f10x_usart.c:957: {
 957:stm32f10x_lib/STM32F10x_StdPeriph_Driver/src/stm32f10x_usart.c ****   uint32_t bitpos = 0x00, itmask = 0x00, usartreg = 0x00;
 1585              		.loc 1 957 1 view .LVU413
 1586 0348 10B5     		push	{r4, lr}	@
 1587              	.LCFI10:
 1588              		.cfi_def_cfa_offset 8
 1589              		.cfi_offset 4, -8
 1590              		.cfi_offset 14, -4
 1591              	@ stm32f10x_lib/STM32F10x_StdPeriph_Driver/src/stm32f10x_usart.c:970:   usartreg = (((uint8_t)USART
 970:stm32f10x_lib/STM32F10x_StdPeriph_Driver/src/stm32f10x_usart.c ****   /* Get the interrupt position */
 1592              		.loc 1 970 35 view .LVU414
 1593 034a C1F34214 		ubfx	r4, r1, #5, #3	@ _2, USART_IT,,
 1594              	.LVL89:
 972:stm32f10x_lib/STM32F10x_StdPeriph_Driver/src/stm32f10x_usart.c ****   itmask = (uint32_t)0x01 << itmask;
 1595              		.loc 1 972 3 is_stmt 1 view .LVU415
 1596              	@ stm32f10x_lib/STM32F10x_StdPeriph_Driver/src/stm32f10x_usart.c:957: {
 957:stm32f10x_lib/STM32F10x_StdPeriph_Driver/src/stm32f10x_usart.c ****   uint32_t bitpos = 0x00, itmask = 0x00, usartreg = 0x00;
 1597              		.loc 1 957 1 is_stmt 0 view .LVU416
 1598 034e 0246     		mov	r2, r0	@ USARTx, tmp152
 1599              	@ stm32f10x_lib/STM32F10x_StdPeriph_Driver/src/stm32f10x_usart.c:975:   if (usartreg == 0x01) /* Th
 974:stm32f10x_lib/STM32F10x_StdPeriph_Driver/src/stm32f10x_usart.c ****   
 975:stm32f10x_lib/STM32F10x_StdPeriph_Driver/src/stm32f10x_usart.c ****   if (usartreg == 0x01) /* The IT  is in CR1 register */
 1600              		.loc 1 975 6 view .LVU417
 1601 0350 9C42     		cmp	r4, r3	@ _2,
 1602              	@ stm32f10x_lib/STM32F10x_StdPeriph_Driver/src/stm32f10x_usart.c:972:   itmask = USART_IT & IT_Mask
 972:stm32f10x_lib/STM32F10x_StdPeriph_Driver/src/stm32f10x_usart.c ****   itmask = (uint32_t)0x01 << itmask;
 1603              		.loc 1 972 10 view .LVU418
 1604 0352 01F01F00 		and	r0, r1, #31	@ itmask, USART_IT,
 1605              	.LVL90:
 973:stm32f10x_lib/STM32F10x_StdPeriph_Driver/src/stm32f10x_usart.c ****   
 1606              		.loc 1 973 3 is_stmt 1 view .LVU419
 1607              	@ stm32f10x_lib/STM32F10x_StdPeriph_Driver/src/stm32f10x_usart.c:973:   itmask = (uint32_t)0x01 << 
 973:stm32f10x_lib/STM32F10x_StdPeriph_Driver/src/stm32f10x_usart.c ****   
ARM GAS  C:\Users\ADMINI~1\AppData\Local\Temp\cc5w2WuM.s 			page 48


 1608              		.loc 1 973 10 is_stmt 0 view .LVU420
 1609 0356 03FA00F0 		lsl	r0, r3, r0	@ itmask, tmp138, itmask
 1610              	.LVL91:
 1611              		.loc 1 975 3 is_stmt 1 view .LVU421
 1612              	@ stm32f10x_lib/STM32F10x_StdPeriph_Driver/src/stm32f10x_usart.c:975:   if (usartreg == 0x01) /* Th
 1613              		.loc 1 975 6 is_stmt 0 view .LVU422
 1614 035a 0ED1     		bne	.L82		@,
 976:stm32f10x_lib/STM32F10x_StdPeriph_Driver/src/stm32f10x_usart.c ****   {
 977:stm32f10x_lib/STM32F10x_StdPeriph_Driver/src/stm32f10x_usart.c ****     itmask &= USARTx->CR1;
 1615              		.loc 1 977 5 is_stmt 1 view .LVU423
 1616              	@ stm32f10x_lib/STM32F10x_StdPeriph_Driver/src/stm32f10x_usart.c:977:     itmask &= USARTx->CR1;
 1617              		.loc 1 977 21 is_stmt 0 view .LVU424
 1618 035c 9389     		ldrh	r3, [r2, #12]	@, USARTx_16(D)->CR1
 1619              	.L87:
 1620              	@ stm32f10x_lib/STM32F10x_StdPeriph_Driver/src/stm32f10x_usart.c:990:   bitpos &= USARTx->SR;
 978:stm32f10x_lib/STM32F10x_StdPeriph_Driver/src/stm32f10x_usart.c ****   }
 979:stm32f10x_lib/STM32F10x_StdPeriph_Driver/src/stm32f10x_usart.c ****   else if (usartreg == 0x02) /* The IT  is in CR2 register */
 980:stm32f10x_lib/STM32F10x_StdPeriph_Driver/src/stm32f10x_usart.c ****   {
 981:stm32f10x_lib/STM32F10x_StdPeriph_Driver/src/stm32f10x_usart.c ****     itmask &= USARTx->CR2;
 982:stm32f10x_lib/STM32F10x_StdPeriph_Driver/src/stm32f10x_usart.c ****   }
 983:stm32f10x_lib/STM32F10x_StdPeriph_Driver/src/stm32f10x_usart.c ****   else /* The IT  is in CR3 register */
 984:stm32f10x_lib/STM32F10x_StdPeriph_Driver/src/stm32f10x_usart.c ****   {
 985:stm32f10x_lib/STM32F10x_StdPeriph_Driver/src/stm32f10x_usart.c ****     itmask &= USARTx->CR3;
 986:stm32f10x_lib/STM32F10x_StdPeriph_Driver/src/stm32f10x_usart.c ****   }
 987:stm32f10x_lib/STM32F10x_StdPeriph_Driver/src/stm32f10x_usart.c ****   
 988:stm32f10x_lib/STM32F10x_StdPeriph_Driver/src/stm32f10x_usart.c ****   bitpos = USART_IT >> 0x08;
 989:stm32f10x_lib/STM32F10x_StdPeriph_Driver/src/stm32f10x_usart.c ****   bitpos = (uint32_t)0x01 << bitpos;
 990:stm32f10x_lib/STM32F10x_StdPeriph_Driver/src/stm32f10x_usart.c ****   bitpos &= USARTx->SR;
 1621              		.loc 1 990 19 view .LVU425
 1622 035e 1288     		ldrh	r2, [r2]	@, USARTx_16(D)->SR
 1623              	.LVL92:
 1624              	@ stm32f10x_lib/STM32F10x_StdPeriph_Driver/src/stm32f10x_usart.c:985:     itmask &= USARTx->CR3;
 985:stm32f10x_lib/STM32F10x_StdPeriph_Driver/src/stm32f10x_usart.c ****   }
 1625              		.loc 1 985 21 view .LVU426
 1626 0360 9BB2     		uxth	r3, r3	@ _17, USARTx_16(D)->CR3
 1627              	@ stm32f10x_lib/STM32F10x_StdPeriph_Driver/src/stm32f10x_usart.c:985:     itmask &= USARTx->CR3;
 985:stm32f10x_lib/STM32F10x_StdPeriph_Driver/src/stm32f10x_usart.c ****   }
 1628              		.loc 1 985 12 view .LVU427
 1629 0362 1840     		ands	r0, r0, r3	@, itmask, itmask, _17
 1630              	.LVL93:
 988:stm32f10x_lib/STM32F10x_StdPeriph_Driver/src/stm32f10x_usart.c ****   bitpos = (uint32_t)0x01 << bitpos;
 1631              		.loc 1 988 3 is_stmt 1 view .LVU428
 989:stm32f10x_lib/STM32F10x_StdPeriph_Driver/src/stm32f10x_usart.c ****   bitpos &= USARTx->SR;
 1632              		.loc 1 989 3 view .LVU429
 1633              		.loc 1 990 3 view .LVU430
 1634              	@ stm32f10x_lib/STM32F10x_StdPeriph_Driver/src/stm32f10x_usart.c:990:   bitpos &= USARTx->SR;
 1635              		.loc 1 990 19 is_stmt 0 view .LVU431
 1636 0364 92B2     		uxth	r2, r2	@ _25, USARTx_16(D)->SR
 1637              	.LVL94:
 991:stm32f10x_lib/STM32F10x_StdPeriph_Driver/src/stm32f10x_usart.c ****   if ((itmask != (uint16_t)RESET)&&(bitpos != (uint16_t)RESET))
 1638              		.loc 1 991 3 is_stmt 1 view .LVU432
 1639              	@ stm32f10x_lib/STM32F10x_StdPeriph_Driver/src/stm32f10x_usart.c:991:   if ((itmask != (uint16_t)RE
 1640              		.loc 1 991 6 is_stmt 0 view .LVU433
 1641 0366 38B1     		cbz	r0, .L85	@ itmask,
 1642              	@ stm32f10x_lib/STM32F10x_StdPeriph_Driver/src/stm32f10x_usart.c:989:   bitpos = (uint32_t)0x01 << 
 989:stm32f10x_lib/STM32F10x_StdPeriph_Driver/src/stm32f10x_usart.c ****   bitpos &= USARTx->SR;
 1643              		.loc 1 989 10 discriminator 1 view .LVU434
ARM GAS  C:\Users\ADMINI~1\AppData\Local\Temp\cc5w2WuM.s 			page 49


 1644 0368 0123     		movs	r3, #1	@ tmp147,
 1645              	@ stm32f10x_lib/STM32F10x_StdPeriph_Driver/src/stm32f10x_usart.c:988:   bitpos = USART_IT >> 0x08;
 988:stm32f10x_lib/STM32F10x_StdPeriph_Driver/src/stm32f10x_usart.c ****   bitpos = (uint32_t)0x01 << bitpos;
 1646              		.loc 1 988 10 discriminator 1 view .LVU435
 1647 036a 090A     		lsrs	r1, r1, #8	@ bitpos, USART_IT,
 1648              	.LVL95:
 1649              	@ stm32f10x_lib/STM32F10x_StdPeriph_Driver/src/stm32f10x_usart.c:989:   bitpos = (uint32_t)0x01 << 
 989:stm32f10x_lib/STM32F10x_StdPeriph_Driver/src/stm32f10x_usart.c ****   bitpos &= USARTx->SR;
 1650              		.loc 1 989 10 discriminator 1 view .LVU436
 1651 036c 03FA01F1 		lsl	r1, r3, r1	@ bitpos, tmp147, bitpos
 1652              	@ stm32f10x_lib/STM32F10x_StdPeriph_Driver/src/stm32f10x_usart.c:991:   if ((itmask != (uint16_t)RE
 1653              		.loc 1 991 34 discriminator 1 view .LVU437
 1654 0370 0A42     		tst	r2, r1	@ _25, bitpos
 1655              	@ stm32f10x_lib/STM32F10x_StdPeriph_Driver/src/stm32f10x_usart.c:997:     bitstatus = RESET;
 992:stm32f10x_lib/STM32F10x_StdPeriph_Driver/src/stm32f10x_usart.c ****   {
 993:stm32f10x_lib/STM32F10x_StdPeriph_Driver/src/stm32f10x_usart.c ****     bitstatus = SET;
 994:stm32f10x_lib/STM32F10x_StdPeriph_Driver/src/stm32f10x_usart.c ****   }
 995:stm32f10x_lib/STM32F10x_StdPeriph_Driver/src/stm32f10x_usart.c ****   else
 996:stm32f10x_lib/STM32F10x_StdPeriph_Driver/src/stm32f10x_usart.c ****   {
 997:stm32f10x_lib/STM32F10x_StdPeriph_Driver/src/stm32f10x_usart.c ****     bitstatus = RESET;
 1656              		.loc 1 997 15 discriminator 1 view .LVU438
 1657 0372 14BF     		ite	ne
 1658 0374 1846     		movne	r0, r3	@ <retval>,
 1659              	.LVL96:
 1660              		.loc 1 997 15 discriminator 1 view .LVU439
 1661 0376 0020     		moveq	r0, #0	@ <retval>,
 1662              	.L85:
 1663              	.LVL97:
 998:stm32f10x_lib/STM32F10x_StdPeriph_Driver/src/stm32f10x_usart.c ****   }
 999:stm32f10x_lib/STM32F10x_StdPeriph_Driver/src/stm32f10x_usart.c ****   
1000:stm32f10x_lib/STM32F10x_StdPeriph_Driver/src/stm32f10x_usart.c ****   return bitstatus;  
 1664              		.loc 1 1000 3 is_stmt 1 view .LVU440
 1665              	@ stm32f10x_lib/STM32F10x_StdPeriph_Driver/src/stm32f10x_usart.c:1001: }
1001:stm32f10x_lib/STM32F10x_StdPeriph_Driver/src/stm32f10x_usart.c **** }
 1666              		.loc 1 1001 1 is_stmt 0 view .LVU441
 1667 0378 10BD     		pop	{r4, pc}	@
 1668              	.LVL98:
 1669              	.L82:
 979:stm32f10x_lib/STM32F10x_StdPeriph_Driver/src/stm32f10x_usart.c ****   {
 1670              		.loc 1 979 8 is_stmt 1 view .LVU442
 1671              	@ stm32f10x_lib/STM32F10x_StdPeriph_Driver/src/stm32f10x_usart.c:979:   else if (usartreg == 0x02) 
 979:stm32f10x_lib/STM32F10x_StdPeriph_Driver/src/stm32f10x_usart.c ****   {
 1672              		.loc 1 979 11 is_stmt 0 view .LVU443
 1673 037a 022C     		cmp	r4, #2	@ _2,
 981:stm32f10x_lib/STM32F10x_StdPeriph_Driver/src/stm32f10x_usart.c ****   }
 1674              		.loc 1 981 5 is_stmt 1 view .LVU444
 1675              	@ stm32f10x_lib/STM32F10x_StdPeriph_Driver/src/stm32f10x_usart.c:981:     itmask &= USARTx->CR2;
 981:stm32f10x_lib/STM32F10x_StdPeriph_Driver/src/stm32f10x_usart.c ****   }
 1676              		.loc 1 981 21 is_stmt 0 view .LVU445
 1677 037c 0CBF     		ite	eq
 1678 037e 138A     		ldrheq	r3, [r2, #16]	@, USARTx_16(D)->CR2
 985:stm32f10x_lib/STM32F10x_StdPeriph_Driver/src/stm32f10x_usart.c ****   }
 1679              		.loc 1 985 5 is_stmt 1 view .LVU446
 1680              	@ stm32f10x_lib/STM32F10x_StdPeriph_Driver/src/stm32f10x_usart.c:985:     itmask &= USARTx->CR3;
 985:stm32f10x_lib/STM32F10x_StdPeriph_Driver/src/stm32f10x_usart.c ****   }
 1681              		.loc 1 985 21 is_stmt 0 view .LVU447
 1682 0380 938A     		ldrhne	r3, [r2, #20]	@, USARTx_16(D)->CR3
ARM GAS  C:\Users\ADMINI~1\AppData\Local\Temp\cc5w2WuM.s 			page 50


 1683 0382 ECE7     		b	.L87		@
 1684              		.cfi_endproc
 1685              	.LFE56:
 1686              		.size	USART_GetITStatus, .-USART_GetITStatus
 1687              		.align	1
 1688              		.global	USART_ClearITPendingBit
 1689              		.syntax unified
 1690              		.thumb
 1691              		.thumb_func
 1692              		.type	USART_ClearITPendingBit, %function
 1693              	USART_ClearITPendingBit:
 1694              	.LVL99:
 1695              	.LFB57:
1002:stm32f10x_lib/STM32F10x_StdPeriph_Driver/src/stm32f10x_usart.c **** 
1003:stm32f10x_lib/STM32F10x_StdPeriph_Driver/src/stm32f10x_usart.c **** /**
1004:stm32f10x_lib/STM32F10x_StdPeriph_Driver/src/stm32f10x_usart.c ****   * @brief  Clears the USARTx's interrupt pending bits.
1005:stm32f10x_lib/STM32F10x_StdPeriph_Driver/src/stm32f10x_usart.c ****   * @param  USARTx: Select the USART or the UART peripheral. 
1006:stm32f10x_lib/STM32F10x_StdPeriph_Driver/src/stm32f10x_usart.c ****   *   This parameter can be one of the following values:
1007:stm32f10x_lib/STM32F10x_StdPeriph_Driver/src/stm32f10x_usart.c ****   *   USART1, USART2, USART3, UART4 or UART5.
1008:stm32f10x_lib/STM32F10x_StdPeriph_Driver/src/stm32f10x_usart.c ****   * @param  USART_IT: specifies the interrupt pending bit to clear.
1009:stm32f10x_lib/STM32F10x_StdPeriph_Driver/src/stm32f10x_usart.c ****   *   This parameter can be one of the following values:
1010:stm32f10x_lib/STM32F10x_StdPeriph_Driver/src/stm32f10x_usart.c ****   *     @arg USART_IT_CTS:  CTS change interrupt (not available for UART4 and UART5)
1011:stm32f10x_lib/STM32F10x_StdPeriph_Driver/src/stm32f10x_usart.c ****   *     @arg USART_IT_LBD:  LIN Break detection interrupt
1012:stm32f10x_lib/STM32F10x_StdPeriph_Driver/src/stm32f10x_usart.c ****   *     @arg USART_IT_TC:   Transmission complete interrupt. 
1013:stm32f10x_lib/STM32F10x_StdPeriph_Driver/src/stm32f10x_usart.c ****   *     @arg USART_IT_RXNE: Receive Data register not empty interrupt.
1014:stm32f10x_lib/STM32F10x_StdPeriph_Driver/src/stm32f10x_usart.c ****   *   
1015:stm32f10x_lib/STM32F10x_StdPeriph_Driver/src/stm32f10x_usart.c ****   * @note
1016:stm32f10x_lib/STM32F10x_StdPeriph_Driver/src/stm32f10x_usart.c ****   *   - PE (Parity error), FE (Framing error), NE (Noise error), ORE (OverRun 
1017:stm32f10x_lib/STM32F10x_StdPeriph_Driver/src/stm32f10x_usart.c ****   *     error) and IDLE (Idle line detected) pending bits are cleared by 
1018:stm32f10x_lib/STM32F10x_StdPeriph_Driver/src/stm32f10x_usart.c ****   *     software sequence: a read operation to USART_SR register 
1019:stm32f10x_lib/STM32F10x_StdPeriph_Driver/src/stm32f10x_usart.c ****   *     (USART_GetITStatus()) followed by a read operation to USART_DR register 
1020:stm32f10x_lib/STM32F10x_StdPeriph_Driver/src/stm32f10x_usart.c ****   *     (USART_ReceiveData()).
1021:stm32f10x_lib/STM32F10x_StdPeriph_Driver/src/stm32f10x_usart.c ****   *   - RXNE pending bit can be also cleared by a read to the USART_DR register 
1022:stm32f10x_lib/STM32F10x_StdPeriph_Driver/src/stm32f10x_usart.c ****   *     (USART_ReceiveData()).
1023:stm32f10x_lib/STM32F10x_StdPeriph_Driver/src/stm32f10x_usart.c ****   *   - TC pending bit can be also cleared by software sequence: a read 
1024:stm32f10x_lib/STM32F10x_StdPeriph_Driver/src/stm32f10x_usart.c ****   *     operation to USART_SR register (USART_GetITStatus()) followed by a write 
1025:stm32f10x_lib/STM32F10x_StdPeriph_Driver/src/stm32f10x_usart.c ****   *     operation to USART_DR register (USART_SendData()).
1026:stm32f10x_lib/STM32F10x_StdPeriph_Driver/src/stm32f10x_usart.c ****   *   - TXE pending bit is cleared only by a write to the USART_DR register 
1027:stm32f10x_lib/STM32F10x_StdPeriph_Driver/src/stm32f10x_usart.c ****   *     (USART_SendData()).
1028:stm32f10x_lib/STM32F10x_StdPeriph_Driver/src/stm32f10x_usart.c ****   * @retval None
1029:stm32f10x_lib/STM32F10x_StdPeriph_Driver/src/stm32f10x_usart.c ****   */
1030:stm32f10x_lib/STM32F10x_StdPeriph_Driver/src/stm32f10x_usart.c **** void USART_ClearITPendingBit(USART_TypeDef* USARTx, uint16_t USART_IT)
1031:stm32f10x_lib/STM32F10x_StdPeriph_Driver/src/stm32f10x_usart.c **** {
 1696              		.loc 1 1031 1 is_stmt 1 view -0
 1697              		.cfi_startproc
 1698              		@ args = 0, pretend = 0, frame = 0
 1699              		@ frame_needed = 0, uses_anonymous_args = 0
 1700              		@ link register save eliminated.
1032:stm32f10x_lib/STM32F10x_StdPeriph_Driver/src/stm32f10x_usart.c ****   uint16_t bitpos = 0x00, itmask = 0x00;
 1701              		.loc 1 1032 3 view .LVU449
1033:stm32f10x_lib/STM32F10x_StdPeriph_Driver/src/stm32f10x_usart.c ****   /* Check the parameters */
1034:stm32f10x_lib/STM32F10x_StdPeriph_Driver/src/stm32f10x_usart.c ****   assert_param(IS_USART_ALL_PERIPH(USARTx));
 1702              		.loc 1 1034 3 view .LVU450
1035:stm32f10x_lib/STM32F10x_StdPeriph_Driver/src/stm32f10x_usart.c ****   assert_param(IS_USART_CLEAR_IT(USART_IT));
 1703              		.loc 1 1035 3 view .LVU451
1036:stm32f10x_lib/STM32F10x_StdPeriph_Driver/src/stm32f10x_usart.c ****   /* The CTS interrupt is not available for UART4 and UART5 */
1037:stm32f10x_lib/STM32F10x_StdPeriph_Driver/src/stm32f10x_usart.c ****   if (USART_IT == USART_IT_CTS)
ARM GAS  C:\Users\ADMINI~1\AppData\Local\Temp\cc5w2WuM.s 			page 51


 1704              		.loc 1 1037 3 view .LVU452
1038:stm32f10x_lib/STM32F10x_StdPeriph_Driver/src/stm32f10x_usart.c ****   {
1039:stm32f10x_lib/STM32F10x_StdPeriph_Driver/src/stm32f10x_usart.c ****     assert_param(IS_USART_123_PERIPH(USARTx));
 1705              		.loc 1 1039 5 view .LVU453
1040:stm32f10x_lib/STM32F10x_StdPeriph_Driver/src/stm32f10x_usart.c ****   }   
1041:stm32f10x_lib/STM32F10x_StdPeriph_Driver/src/stm32f10x_usart.c ****   
1042:stm32f10x_lib/STM32F10x_StdPeriph_Driver/src/stm32f10x_usart.c ****   bitpos = USART_IT >> 0x08;
 1706              		.loc 1 1042 3 view .LVU454
1043:stm32f10x_lib/STM32F10x_StdPeriph_Driver/src/stm32f10x_usart.c ****   itmask = ((uint16_t)0x01 << (uint16_t)bitpos);
 1707              		.loc 1 1043 3 view .LVU455
1044:stm32f10x_lib/STM32F10x_StdPeriph_Driver/src/stm32f10x_usart.c ****   USARTx->SR = (uint16_t)~itmask;
 1708              		.loc 1 1044 3 view .LVU456
 1709              	@ stm32f10x_lib/STM32F10x_StdPeriph_Driver/src/stm32f10x_usart.c:1043:   itmask = ((uint16_t)0x01 <
1043:stm32f10x_lib/STM32F10x_StdPeriph_Driver/src/stm32f10x_usart.c ****   itmask = ((uint16_t)0x01 << (uint16_t)bitpos);
 1710              		.loc 1 1043 28 is_stmt 0 view .LVU457
 1711 0384 0123     		movs	r3, #1	@ tmp123,
 1712              	@ stm32f10x_lib/STM32F10x_StdPeriph_Driver/src/stm32f10x_usart.c:1043:   itmask = ((uint16_t)0x01 <
1043:stm32f10x_lib/STM32F10x_StdPeriph_Driver/src/stm32f10x_usart.c ****   itmask = ((uint16_t)0x01 << (uint16_t)bitpos);
 1713              		.loc 1 1043 31 view .LVU458
 1714 0386 090A     		lsrs	r1, r1, #8	@ tmp121, tmp128,
 1715              	.LVL100:
 1716              	@ stm32f10x_lib/STM32F10x_StdPeriph_Driver/src/stm32f10x_usart.c:1043:   itmask = ((uint16_t)0x01 <
1043:stm32f10x_lib/STM32F10x_StdPeriph_Driver/src/stm32f10x_usart.c ****   itmask = ((uint16_t)0x01 << (uint16_t)bitpos);
 1717              		.loc 1 1043 28 view .LVU459
 1718 0388 8B40     		lsls	r3, r3, r1	@ tmp122, tmp123, tmp121
 1719              	@ stm32f10x_lib/STM32F10x_StdPeriph_Driver/src/stm32f10x_usart.c:1044:   USARTx->SR = (uint16_t)~it
 1720              		.loc 1 1044 16 view .LVU460
 1721 038a DB43     		mvns	r3, r3	@ tmp125, tmp122
 1722 038c 9BB2     		uxth	r3, r3	@ _3, tmp125
 1723              	@ stm32f10x_lib/STM32F10x_StdPeriph_Driver/src/stm32f10x_usart.c:1044:   USARTx->SR = (uint16_t)~it
 1724              		.loc 1 1044 14 view .LVU461
 1725 038e 0380     		strh	r3, [r0]	@ movhi	@ _3, USARTx_8(D)->SR
 1726              	@ stm32f10x_lib/STM32F10x_StdPeriph_Driver/src/stm32f10x_usart.c:1045: }
1045:stm32f10x_lib/STM32F10x_StdPeriph_Driver/src/stm32f10x_usart.c **** }
 1727              		.loc 1 1045 1 view .LVU462
 1728 0390 7047     		bx	lr	@
 1729              		.cfi_endproc
 1730              	.LFE57:
 1731              		.size	USART_ClearITPendingBit, .-USART_ClearITPendingBit
 1732              	.Letext0:
 1733              		.file 2 "c:\\program files (x86)\\gnu arm embedded toolchain\\10 2021.10\\arm-none-eabi\\include\\
 1734              		.file 3 "c:\\program files (x86)\\gnu arm embedded toolchain\\10 2021.10\\arm-none-eabi\\include\\
 1735              		.file 4 "./stm32f10x_lib/CMSIS/CM3/DeviceSupport/ST/STM32F10x/stm32f10x.h"
 1736              		.file 5 "./stm32f10x_lib/STM32F10x_StdPeriph_Driver/inc/stm32f10x_rcc.h"
 1737              		.file 6 "./stm32f10x_lib/STM32F10x_StdPeriph_Driver/inc/stm32f10x_usart.h"